; ModuleID = '../../third_party/skia/src/core/SkScan_AAAPath.cpp'
source_filename = "../../third_party/skia/src/core/SkScan_AAAPath.cpp"
target datalayout = "e-m:e-i64:64-f80:128-n8:16:32:64-S128"
target triple = "x86_64-pc-linux-gnu"

module asm ".symver exp2f, exp2f@GLIBC_2.2.5"
module asm ".symver expf, expf@GLIBC_2.2.5"
module asm ".symver lgamma, lgamma@GLIBC_2.2.5"
module asm ".symver lgammaf, lgammaf@GLIBC_2.2.5"
module asm ".symver lgammal, lgammal@GLIBC_2.2.5"
module asm ".symver log2f, log2f@GLIBC_2.2.5"
module asm ".symver logf, logf@GLIBC_2.2.5"
module asm ".symver powf, powf@GLIBC_2.2.5"

%class.MaskAdditiveBlitter = type <{ %class.AdditiveBlitter, %class.SkBlitter*, %struct.SkMask, %struct.SkIRect, [258 x i32], i8*, i32, [4 x i8] }>
%class.AdditiveBlitter = type { %class.SkBlitter }
%class.SkBlitter = type { i32 (...)**, %class.SkAutoMalloc }
%class.SkAutoMalloc = type { %"class.std::__1::unique_ptr", i64 }
%"class.std::__1::unique_ptr" = type { %"class.std::__1::__compressed_pair" }
%"class.std::__1::__compressed_pair" = type { %"struct.std::__1::__compressed_pair_elem" }
%"struct.std::__1::__compressed_pair_elem" = type { i8* }
%struct.SkMask = type { i8*, %struct.SkIRect, i32, i32 }
%struct.SkIRect = type { i32, i32, i32, i32 }
%class.RunBasedAdditiveBlitter = type <{ %class.AdditiveBlitter, %class.SkBlitter*, i32, i32, i32, i32, i32, [4 x i8], i8*, i32, [4 x i8], %class.SkAlphaRuns, i32, [4 x i8] }>
%class.SkAlphaRuns = type { i16*, i8* }
%class.SafeRLEAdditiveBlitter = type { %class.RunBasedAdditiveBlitter.base, [4 x i8] }
%class.RunBasedAdditiveBlitter.base = type <{ %class.AdditiveBlitter, %class.SkBlitter*, i32, i32, i32, i32, i32, [4 x i8], i8*, i32, [4 x i8], %class.SkAlphaRuns, i32 }>
%class.SkPath = type <{ %class.sk_sp, i32, %"struct.std::__1::atomic.8", %"struct.std::__1::atomic.2", i8, i8 }>
%class.sk_sp = type { %class.SkPathRef* }
%class.SkPathRef = type <{ %class.SkNVRefCnt, %struct.SkRect, [4 x i8], %struct.SkPoint*, i8*, i32, i32, i64, %class.SkTDArray, i32, [4 x i8], %class.SkMutex, %class.SkTDArray.5, i8, i8, i8, i8, i8, i8, i8, i8 }>
%class.SkNVRefCnt = type { %"struct.std::__1::atomic" }
%"struct.std::__1::atomic" = type { %"struct.std::__1::__atomic_base" }
%"struct.std::__1::__atomic_base" = type { %"struct.std::__1::__atomic_base.1" }
%"struct.std::__1::__atomic_base.1" = type { i32 }
%struct.SkRect = type { float, float, float, float }
%struct.SkPoint = type { float, float }
%class.SkTDArray = type { float*, i32, i32 }
%class.SkMutex = type { %class.SkBaseMutex }
%class.SkBaseMutex = type { %class.SkBaseSemaphore }
%class.SkBaseSemaphore = type { %"struct.std::__1::atomic", %class.SkOnce, %"struct.SkBaseSemaphore::OSSemaphore"* }
%class.SkOnce = type { %"struct.std::__1::atomic.2" }
%"struct.SkBaseSemaphore::OSSemaphore" = type opaque
%class.SkTDArray.5 = type { %"class.SkPathRef::GenIDChangeListener"**, i32, i32 }
%"class.SkPathRef::GenIDChangeListener" = type { %class.SkRefCnt.base, %"struct.std::__1::atomic.6", [3 x i8] }
%class.SkRefCnt.base = type { %class.SkRefCntBase.base }
%class.SkRefCntBase.base = type <{ i32 (...)**, %"struct.std::__1::atomic" }>
%"struct.std::__1::atomic.6" = type { %"struct.std::__1::__atomic_base.7" }
%"struct.std::__1::__atomic_base.7" = type { i8 }
%"struct.std::__1::atomic.8" = type { %"struct.std::__1::__atomic_base.9" }
%"struct.std::__1::__atomic_base.9" = type { i8 }
%"struct.std::__1::atomic.2" = type { %"struct.std::__1::__atomic_base.3" }
%"struct.std::__1::__atomic_base.3" = type { %"struct.std::__1::__atomic_base.4" }
%"struct.std::__1::__atomic_base.4" = type { i8 }
%class.SkAnalyticEdgeBuilder = type { %class.SkEdgeBuilder }
%class.SkEdgeBuilder = type { i32 (...)**, i8**, %class.SkTDArray.12, %class.SkSTArenaAlloc }
%class.SkTDArray.12 = type { i8**, i32, i32 }
%class.SkSTArenaAlloc = type { %class.SkArenaAlloc, [512 x i8] }
%class.SkArenaAlloc = type { i8*, i8*, i8*, i8*, i32, i32, i32, i32 }
%struct.SkAnalyticEdge = type { %struct.SkAnalyticEdge*, %struct.SkAnalyticEdge*, %struct.SkAnalyticEdge*, i32, i32, i32, i32, i32, i32, i32, i32, i32, i32, i8, i8, i8, i8 }
%struct.SkAnalyticQuadraticEdge = type { %struct.SkAnalyticEdge, %struct.SkQuadraticEdge, i32, i32 }
%struct.SkQuadraticEdge = type { %struct.SkEdge, i32, i32, i32, i32, i32, i32, i32, i32 }
%struct.SkEdge = type { %struct.SkEdge*, %struct.SkEdge*, i32, i32, i32, i32, i8, i8, i8, i8 }
%struct.SkAnalyticCubicEdge = type <{ %struct.SkAnalyticEdge, %struct.SkCubicEdge, i32, [4 x i8] }>
%struct.SkCubicEdge = type { %struct.SkEdge, i32, i32, i32, i32, i32, i32, i32, i32, i32, i32 }
%class.SkCoverageDeltaList = type <{ %class.SkArenaAlloc*, %struct.SkCoverageDelta**, i8*, i32*, i32*, %struct.SkIRect, %struct.SkAntiRect, i8, [3 x i8] }>
%struct.SkCoverageDelta = type { i32, i32 }
%struct.SkAntiRect = type { i32, i32, i32, i32, i8, i8 }
%class.SkPixmap = type { i8*, i64, %struct.SkImageInfo }
%struct.SkImageInfo = type { %class.sk_sp.10, %struct.SkISize, i32, i32 }
%class.sk_sp.10 = type { %class.SkColorSpace* }
%class.SkColorSpace = type <{ %class.SkNVRefCnt.11, i32, i32, i32, [7 x float], [9 x float], [7 x float], [9 x float], %class.SkOnce, [3 x i8] }>
%class.SkNVRefCnt.11 = type { %"struct.std::__1::atomic" }
%struct.SkISize = type { i32, i32 }

$_ZN19MaskAdditiveBlitterD2Ev = comdat any

$_ZN19MaskAdditiveBlitterD0Ev = comdat any

$_ZN15AdditiveBlitter5blitHEiii = comdat any

$_ZN15AdditiveBlitter9blitAntiHEiiPKhPKs = comdat any

$_ZN9SkBlitter10blitAntiH2Eiijj = comdat any

$_ZN9SkBlitter10blitAntiV2Eiijj = comdat any

$_ZNK9SkBlitter20requestRowsPreservedEv = comdat any

$_ZN9SkBlitter15allocBlitMemoryEm = comdat any

$_ZN19MaskAdditiveBlitter14getRealBlitterEb = comdat any

$_ZN19MaskAdditiveBlitter8getWidthEv = comdat any

$_ZN19MaskAdditiveBlitter18flush_if_y_changedEii = comdat any

$_ZN15AdditiveBlitter5blitVEiiih = comdat any

$_ZN15AdditiveBlitter8blitRectEiiii = comdat any

$_ZN15AdditiveBlitter12blitAntiRectEiiiihh = comdat any

$_ZN23RunBasedAdditiveBlitter18flush_if_y_changedEii = comdat any

$_ZN22SafeRLEAdditiveBlitterD0Ev = comdat any

$_ZN13SkEdgeBuilderD2Ev = comdat any

$_ZN13SkEdgeBuilderD0Ev = comdat any

$_Z12SkTIntroSortIP14SkAnalyticEdge19SkTPointerCompareLTIS0_EEviPT_S5_T0_ = comdat any

$_Z18SkTHeapSort_SiftUpIP14SkAnalyticEdge19SkTPointerCompareLTIS0_EEvPT_mmT0_ = comdat any

$_ZTV13SkEdgeBuilder = comdat any

@_ZTV19MaskAdditiveBlitter = hidden unnamed_addr constant { [23 x i8*] } { [23 x i8*] [i8* null, i8* null, i8* bitcast (void (%class.MaskAdditiveBlitter*)* @_ZN19MaskAdditiveBlitterD2Ev to i8*), i8* bitcast (void (%class.MaskAdditiveBlitter*)* @_ZN19MaskAdditiveBlitterD0Ev to i8*), i8* bitcast (void (%class.SkBlitter*, %class.SkCoverageDeltaList*, %struct.SkIRect*, i1, i1, i1)* @_ZN9SkBlitter18blitCoverageDeltasEP19SkCoverageDeltaListRK7SkIRectbbb to i8*), i8* bitcast (void (%class.AdditiveBlitter*, i32, i32, i32)* @_ZN15AdditiveBlitter5blitHEiii to i8*), i8* bitcast (void (%class.AdditiveBlitter*, i32, i32, i8*, i16*)* @_ZN15AdditiveBlitter9blitAntiHEiiPKhPKs to i8*), i8* bitcast (void (%class.MaskAdditiveBlitter*, i32, i32, i32, i8)* @_ZN19MaskAdditiveBlitter5blitVEiiih to i8*), i8* bitcast (void (%class.MaskAdditiveBlitter*, i32, i32, i32, i32)* @_ZN19MaskAdditiveBlitter8blitRectEiiii to i8*), i8* bitcast (void (%class.MaskAdditiveBlitter*, i32, i32, i32, i32, i8, i8)* @_ZN19MaskAdditiveBlitter12blitAntiRectEiiiihh to i8*), i8* bitcast (void (%class.SkBlitter*, %struct.SkMask*, %struct.SkIRect*)* @_ZN9SkBlitter8blitMaskERK6SkMaskRK7SkIRect to i8*), i8* bitcast (%class.SkPixmap* (%class.SkBlitter*, i32*)* @_ZN9SkBlitter17justAnOpaqueColorEPj to i8*), i8* bitcast (void (%class.SkBlitter*, i32, i32, i32, i32)* @_ZN9SkBlitter10blitAntiH2Eiijj to i8*), i8* bitcast (void (%class.SkBlitter*, i32, i32, i32, i32)* @_ZN9SkBlitter10blitAntiV2Eiijj to i8*), i8* bitcast (i1 (%class.SkBlitter*)* @_ZNK9SkBlitter13isNullBlitterEv to i8*), i8* bitcast (i32 (%class.SkBlitter*)* @_ZNK9SkBlitter20requestRowsPreservedEv to i8*), i8* bitcast (i8* (%class.SkBlitter*, i64)* @_ZN9SkBlitter15allocBlitMemoryEm to i8*), i8* bitcast (%class.SkBlitter* (%class.MaskAdditiveBlitter*, i1)* @_ZN19MaskAdditiveBlitter14getRealBlitterEb to i8*), i8* bitcast (void (%class.MaskAdditiveBlitter*, i32, i32, i8*, i32)* @_ZN19MaskAdditiveBlitter9blitAntiHEiiPKhi to i8*), i8* bitcast (void (%class.MaskAdditiveBlitter*, i32, i32, i8)* @_ZN19MaskAdditiveBlitter9blitAntiHEiih to i8*), i8* bitcast (void (%class.MaskAdditiveBlitter*, i32, i32, i32, i8)* @_ZN19MaskAdditiveBlitter9blitAntiHEiiih to i8*), i8* bitcast (i32 (%class.MaskAdditiveBlitter*)* @_ZN19MaskAdditiveBlitter8getWidthEv to i8*), i8* bitcast (void (%class.MaskAdditiveBlitter*, i32, i32)* @_ZN19MaskAdditiveBlitter18flush_if_y_changedEii to i8*)] }, align 8
@.str = private unnamed_addr constant [51 x i8] c"../../third_party/skia/src/core/SkScan_AAAPath.cpp\00", align 1
@.str.1 = private unnamed_addr constant [26 x i8] c"%s:%d: fatal error: \22%s\22\0A\00", align 1
@.str.2 = private unnamed_addr constant [49 x i8] c"Don't use this; directly add alphas to the mask.\00", align 1
@_ZTV23RunBasedAdditiveBlitter = hidden unnamed_addr constant { [23 x i8*] } { [23 x i8*] [i8* null, i8* null, i8* bitcast (void (%class.RunBasedAdditiveBlitter*)* @_ZN23RunBasedAdditiveBlitterD2Ev to i8*), i8* bitcast (void (%class.RunBasedAdditiveBlitter*)* @_ZN23RunBasedAdditiveBlitterD0Ev to i8*), i8* bitcast (void (%class.SkBlitter*, %class.SkCoverageDeltaList*, %struct.SkIRect*, i1, i1, i1)* @_ZN9SkBlitter18blitCoverageDeltasEP19SkCoverageDeltaListRK7SkIRectbbb to i8*), i8* bitcast (void (%class.AdditiveBlitter*, i32, i32, i32)* @_ZN15AdditiveBlitter5blitHEiii to i8*), i8* bitcast (void (%class.AdditiveBlitter*, i32, i32, i8*, i16*)* @_ZN15AdditiveBlitter9blitAntiHEiiPKhPKs to i8*), i8* bitcast (void (%class.AdditiveBlitter*, i32, i32, i32, i8)* @_ZN15AdditiveBlitter5blitVEiiih to i8*), i8* bitcast (void (%class.AdditiveBlitter*, i32, i32, i32, i32)* @_ZN15AdditiveBlitter8blitRectEiiii to i8*), i8* bitcast (void (%class.AdditiveBlitter*, i32, i32, i32, i32, i8, i8)* @_ZN15AdditiveBlitter12blitAntiRectEiiiihh to i8*), i8* bitcast (void (%class.SkBlitter*, %struct.SkMask*, %struct.SkIRect*)* @_ZN9SkBlitter8blitMaskERK6SkMaskRK7SkIRect to i8*), i8* bitcast (%class.SkPixmap* (%class.SkBlitter*, i32*)* @_ZN9SkBlitter17justAnOpaqueColorEPj to i8*), i8* bitcast (void (%class.SkBlitter*, i32, i32, i32, i32)* @_ZN9SkBlitter10blitAntiH2Eiijj to i8*), i8* bitcast (void (%class.SkBlitter*, i32, i32, i32, i32)* @_ZN9SkBlitter10blitAntiV2Eiijj to i8*), i8* bitcast (i1 (%class.SkBlitter*)* @_ZNK9SkBlitter13isNullBlitterEv to i8*), i8* bitcast (i32 (%class.SkBlitter*)* @_ZNK9SkBlitter20requestRowsPreservedEv to i8*), i8* bitcast (i8* (%class.SkBlitter*, i64)* @_ZN9SkBlitter15allocBlitMemoryEm to i8*), i8* bitcast (%class.SkBlitter* (%class.RunBasedAdditiveBlitter*, i1)* @_ZN23RunBasedAdditiveBlitter14getRealBlitterEb to i8*), i8* bitcast (void (%class.RunBasedAdditiveBlitter*, i32, i32, i8*, i32)* @_ZN23RunBasedAdditiveBlitter9blitAntiHEiiPKhi to i8*), i8* bitcast (void (%class.RunBasedAdditiveBlitter*, i32, i32, i8)* @_ZN23RunBasedAdditiveBlitter9blitAntiHEiih to i8*), i8* bitcast (void (%class.RunBasedAdditiveBlitter*, i32, i32, i32, i8)* @_ZN23RunBasedAdditiveBlitter9blitAntiHEiiih to i8*), i8* bitcast (i32 (%class.RunBasedAdditiveBlitter*)* @_ZN23RunBasedAdditiveBlitter8getWidthEv to i8*), i8* bitcast (void (%class.RunBasedAdditiveBlitter*, i32, i32)* @_ZN23RunBasedAdditiveBlitter18flush_if_y_changedEii to i8*)] }, align 8
@_ZTV22SafeRLEAdditiveBlitter = hidden unnamed_addr constant { [23 x i8*] } { [23 x i8*] [i8* null, i8* null, i8* bitcast (void (%class.RunBasedAdditiveBlitter*)* @_ZN23RunBasedAdditiveBlitterD2Ev to i8*), i8* bitcast (void (%class.SafeRLEAdditiveBlitter*)* @_ZN22SafeRLEAdditiveBlitterD0Ev to i8*), i8* bitcast (void (%class.SkBlitter*, %class.SkCoverageDeltaList*, %struct.SkIRect*, i1, i1, i1)* @_ZN9SkBlitter18blitCoverageDeltasEP19SkCoverageDeltaListRK7SkIRectbbb to i8*), i8* bitcast (void (%class.AdditiveBlitter*, i32, i32, i32)* @_ZN15AdditiveBlitter5blitHEiii to i8*), i8* bitcast (void (%class.AdditiveBlitter*, i32, i32, i8*, i16*)* @_ZN15AdditiveBlitter9blitAntiHEiiPKhPKs to i8*), i8* bitcast (void (%class.AdditiveBlitter*, i32, i32, i32, i8)* @_ZN15AdditiveBlitter5blitVEiiih to i8*), i8* bitcast (void (%class.AdditiveBlitter*, i32, i32, i32, i32)* @_ZN15AdditiveBlitter8blitRectEiiii to i8*), i8* bitcast (void (%class.AdditiveBlitter*, i32, i32, i32, i32, i8, i8)* @_ZN15AdditiveBlitter12blitAntiRectEiiiihh to i8*), i8* bitcast (void (%class.SkBlitter*, %struct.SkMask*, %struct.SkIRect*)* @_ZN9SkBlitter8blitMaskERK6SkMaskRK7SkIRect to i8*), i8* bitcast (%class.SkPixmap* (%class.SkBlitter*, i32*)* @_ZN9SkBlitter17justAnOpaqueColorEPj to i8*), i8* bitcast (void (%class.SkBlitter*, i32, i32, i32, i32)* @_ZN9SkBlitter10blitAntiH2Eiijj to i8*), i8* bitcast (void (%class.SkBlitter*, i32, i32, i32, i32)* @_ZN9SkBlitter10blitAntiV2Eiijj to i8*), i8* bitcast (i1 (%class.SkBlitter*)* @_ZNK9SkBlitter13isNullBlitterEv to i8*), i8* bitcast (i32 (%class.SkBlitter*)* @_ZNK9SkBlitter20requestRowsPreservedEv to i8*), i8* bitcast (i8* (%class.SkBlitter*, i64)* @_ZN9SkBlitter15allocBlitMemoryEm to i8*), i8* bitcast (%class.SkBlitter* (%class.RunBasedAdditiveBlitter*, i1)* @_ZN23RunBasedAdditiveBlitter14getRealBlitterEb to i8*), i8* bitcast (void (%class.SafeRLEAdditiveBlitter*, i32, i32, i8*, i32)* @_ZN22SafeRLEAdditiveBlitter9blitAntiHEiiPKhi to i8*), i8* bitcast (void (%class.SafeRLEAdditiveBlitter*, i32, i32, i8)* @_ZN22SafeRLEAdditiveBlitter9blitAntiHEiih to i8*), i8* bitcast (void (%class.SafeRLEAdditiveBlitter*, i32, i32, i32, i8)* @_ZN22SafeRLEAdditiveBlitter9blitAntiHEiiih to i8*), i8* bitcast (i32 (%class.RunBasedAdditiveBlitter*)* @_ZN23RunBasedAdditiveBlitter8getWidthEv to i8*), i8* bitcast (void (%class.RunBasedAdditiveBlitter*, i32, i32)* @_ZN23RunBasedAdditiveBlitter18flush_if_y_changedEii to i8*)] }, align 8
@_ZTV21SkAnalyticEdgeBuilder = external unnamed_addr constant { [11 x i8*] }
@_ZTV13SkEdgeBuilder = linkonce_odr hidden unnamed_addr constant { [11 x i8*] } { [11 x i8*] [i8* null, i8* null, i8* bitcast (void (%class.SkEdgeBuilder*)* @_ZN13SkEdgeBuilderD2Ev to i8*), i8* bitcast (void (%class.SkEdgeBuilder*)* @_ZN13SkEdgeBuilderD0Ev to i8*), i8* bitcast (void ()* @__cxa_pure_virtual to i8*), i8* bitcast (void ()* @__cxa_pure_virtual to i8*), i8* bitcast (void ()* @__cxa_pure_virtual to i8*), i8* bitcast (void ()* @__cxa_pure_virtual to i8*), i8* bitcast (void ()* @__cxa_pure_virtual to i8*), i8* bitcast (void ()* @__cxa_pure_virtual to i8*), i8* bitcast (void ()* @__cxa_pure_virtual to i8*)] }, comdat, align 8

@_ZN19MaskAdditiveBlitterC1EP9SkBlitterRK7SkIRectS4_b = hidden unnamed_addr alias void (%class.MaskAdditiveBlitter*, %class.SkBlitter*, %struct.SkIRect*, %struct.SkIRect*, i1), void (%class.MaskAdditiveBlitter*, %class.SkBlitter*, %struct.SkIRect*, %struct.SkIRect*, i1)* @_ZN19MaskAdditiveBlitterC2EP9SkBlitterRK7SkIRectS4_b
@_ZN23RunBasedAdditiveBlitterC1EP9SkBlitterRK7SkIRectS4_b = hidden unnamed_addr alias void (%class.RunBasedAdditiveBlitter*, %class.SkBlitter*, %struct.SkIRect*, %struct.SkIRect*, i1), void (%class.RunBasedAdditiveBlitter*, %class.SkBlitter*, %struct.SkIRect*, %struct.SkIRect*, i1)* @_ZN23RunBasedAdditiveBlitterC2EP9SkBlitterRK7SkIRectS4_b
@_ZN23RunBasedAdditiveBlitterD1Ev = hidden unnamed_addr alias void (%class.RunBasedAdditiveBlitter*), void (%class.RunBasedAdditiveBlitter*)* @_ZN23RunBasedAdditiveBlitterD2Ev

; Function Attrs: nounwind ssp uwtable
define hidden void @_ZN19MaskAdditiveBlitterC2EP9SkBlitterRK7SkIRectS4_b(%class.MaskAdditiveBlitter*, %class.SkBlitter*, %struct.SkIRect* nocapture readonly dereferenceable(16), %struct.SkIRect* nocapture readonly dereferenceable(16), i1 zeroext) unnamed_addr #0 align 2 {
  %6 = getelementptr inbounds %class.MaskAdditiveBlitter, %class.MaskAdditiveBlitter* %0, i64 0, i32 0, i32 0, i32 1
  %7 = bitcast %class.SkAutoMalloc* %6 to i8*
  tail call void @llvm.memset.p0i8.i64(i8* nonnull align 8 %7, i8 0, i64 16, i1 false) #12
  %8 = getelementptr inbounds %class.MaskAdditiveBlitter, %class.MaskAdditiveBlitter* %0, i64 0, i32 0, i32 0, i32 0
  store i32 (...)** bitcast (i8** getelementptr inbounds ({ [23 x i8*] }, { [23 x i8*] }* @_ZTV19MaskAdditiveBlitter, i64 0, inrange i32 0, i64 2) to i32 (...)**), i32 (...)*** %8, align 8
  %9 = getelementptr inbounds %class.MaskAdditiveBlitter, %class.MaskAdditiveBlitter* %0, i64 0, i32 2, i32 0
  %10 = getelementptr inbounds %class.MaskAdditiveBlitter, %class.MaskAdditiveBlitter* %0, i64 0, i32 1
  store %class.SkBlitter* %1, %class.SkBlitter** %10, align 8
  %11 = getelementptr inbounds %class.MaskAdditiveBlitter, %class.MaskAdditiveBlitter* %0, i64 0, i32 4, i64 0
  %12 = bitcast i32* %11 to i8*
  %13 = getelementptr inbounds i8, i8* %12, i64 1
  store i8* %13, i8** %9, align 8
  %14 = getelementptr inbounds %class.MaskAdditiveBlitter, %class.MaskAdditiveBlitter* %0, i64 0, i32 2, i32 1
  %15 = bitcast %struct.SkIRect* %14 to i8*
  %16 = bitcast %struct.SkIRect* %2 to i8*
  tail call void @llvm.memcpy.p0i8.p0i8.i64(i8* nonnull align 8 %15, i8* nonnull align 4 %16, i64 16, i1 false)
  %17 = getelementptr inbounds %struct.SkIRect, %struct.SkIRect* %2, i64 0, i32 2
  %18 = load i32, i32* %17, align 4
  %19 = getelementptr inbounds %struct.SkIRect, %struct.SkIRect* %2, i64 0, i32 0
  %20 = load i32, i32* %19, align 4
  %21 = sub i32 %18, %20
  %22 = getelementptr inbounds %class.MaskAdditiveBlitter, %class.MaskAdditiveBlitter* %0, i64 0, i32 2, i32 2
  store i32 %21, i32* %22, align 8
  %23 = getelementptr inbounds %class.MaskAdditiveBlitter, %class.MaskAdditiveBlitter* %0, i64 0, i32 2, i32 3
  store i32 1, i32* %23, align 4
  %24 = getelementptr inbounds %struct.SkIRect, %struct.SkIRect* %2, i64 0, i32 1
  %25 = load i32, i32* %24, align 4
  %26 = add nsw i32 %25, -1
  %27 = getelementptr inbounds %class.MaskAdditiveBlitter, %class.MaskAdditiveBlitter* %0, i64 0, i32 6
  store i32 %26, i32* %27, align 8
  %28 = getelementptr inbounds %class.MaskAdditiveBlitter, %class.MaskAdditiveBlitter* %0, i64 0, i32 5
  store i8* null, i8** %28, align 8
  %29 = getelementptr inbounds %class.MaskAdditiveBlitter, %class.MaskAdditiveBlitter* %0, i64 0, i32 3
  %30 = bitcast %struct.SkIRect* %29 to i8*
  tail call void @llvm.memcpy.p0i8.p0i8.i64(i8* nonnull align 8 %30, i8* nonnull align 4 %16, i64 16, i1 false)
  %31 = getelementptr inbounds %class.MaskAdditiveBlitter, %class.MaskAdditiveBlitter* %0, i64 0, i32 3, i32 2
  %32 = load i32, i32* %31, align 4
  %33 = getelementptr inbounds %struct.SkIRect, %struct.SkIRect* %29, i64 0, i32 0
  %34 = load i32, i32* %33, align 4
  %35 = icmp sgt i32 %32, %34
  br i1 %35, label %36, label %77

; <label>:36:                                     ; preds = %5
  %37 = getelementptr inbounds %class.MaskAdditiveBlitter, %class.MaskAdditiveBlitter* %0, i64 0, i32 3, i32 3
  %38 = load i32, i32* %37, align 4
  %39 = getelementptr inbounds %class.MaskAdditiveBlitter, %class.MaskAdditiveBlitter* %0, i64 0, i32 3, i32 1
  %40 = load i32, i32* %39, align 4
  %41 = icmp sgt i32 %38, %40
  br i1 %41, label %42, label %77

; <label>:42:                                     ; preds = %36
  %43 = getelementptr inbounds %struct.SkIRect, %struct.SkIRect* %3, i64 0, i32 2
  %44 = load i32, i32* %43, align 4
  %45 = getelementptr inbounds %struct.SkIRect, %struct.SkIRect* %3, i64 0, i32 0
  %46 = load i32, i32* %45, align 4
  %47 = icmp sgt i32 %44, %46
  br i1 %47, label %48, label %77

; <label>:48:                                     ; preds = %42
  %49 = getelementptr inbounds %struct.SkIRect, %struct.SkIRect* %3, i64 0, i32 3
  %50 = load i32, i32* %49, align 4
  %51 = getelementptr inbounds %struct.SkIRect, %struct.SkIRect* %3, i64 0, i32 1
  %52 = load i32, i32* %51, align 4
  %53 = icmp sgt i32 %50, %52
  br i1 %53, label %54, label %77

; <label>:54:                                     ; preds = %48
  %55 = icmp slt i32 %34, %46
  %56 = select i1 %55, i32 %46, i32 %34
  %57 = icmp slt i32 %40, %52
  %58 = select i1 %57, i32 %52, i32 %40
  %59 = icmp sgt i32 %32, %44
  %60 = select i1 %59, i32 %44, i32 %32
  %61 = icmp sgt i32 %38, %50
  %62 = select i1 %61, i32 %50, i32 %38
  %63 = sext i32 %60 to i64
  %64 = sext i32 %56 to i64
  %65 = sub nsw i64 %63, %64
  %66 = sext i32 %62 to i64
  %67 = sext i32 %58 to i64
  %68 = sub nsw i64 %66, %67
  %69 = icmp slt i64 %65, 1
  %70 = icmp slt i64 %68, 1
  %71 = or i1 %69, %70
  br i1 %71, label %77, label %72

; <label>:72:                                     ; preds = %54
  %73 = or i64 %68, %65
  %74 = add nsw i64 %73, 2147483648
  %75 = icmp ugt i64 %74, 4294967295
  br i1 %75, label %77, label %76

; <label>:76:                                     ; preds = %72
  store i32 %56, i32* %33, align 4
  store i32 %58, i32* %39, align 4
  store i32 %60, i32* %31, align 4
  store i32 %62, i32* %37, align 4
  br label %78

; <label>:77:                                     ; preds = %48, %36, %72, %54, %5, %42
  tail call void @llvm.memset.p0i8.i64(i8* nonnull align 4 %30, i8 0, i64 16, i1 false) #12
  br label %78

; <label>:78:                                     ; preds = %76, %77
  %79 = getelementptr inbounds %class.MaskAdditiveBlitter, %class.MaskAdditiveBlitter* %0, i64 0, i32 2, i32 1, i32 3
  %80 = load i32, i32* %79, align 4
  %81 = getelementptr inbounds %class.MaskAdditiveBlitter, %class.MaskAdditiveBlitter* %0, i64 0, i32 2, i32 1, i32 1
  %82 = load i32, i32* %81, align 4
  %83 = sub i32 %80, %82
  %84 = mul i32 %83, %21
  %85 = add i32 %84, 2
  %86 = zext i32 %85 to i64
  tail call void @llvm.memset.p0i8.i64(i8* nonnull align 8 %12, i8 0, i64 %86, i1 false)
  ret void
}

; Function Attrs: argmemonly nounwind
declare void @llvm.memcpy.p0i8.p0i8.i64(i8* nocapture writeonly, i8* nocapture readonly, i64, i1) #1

; Function Attrs: argmemonly nounwind
declare void @llvm.memset.p0i8.i64(i8* nocapture writeonly, i8, i64, i1) #1

; Function Attrs: nounwind ssp uwtable
define hidden void @_ZN19MaskAdditiveBlitter9blitAntiHEiiPKhi(%class.MaskAdditiveBlitter* nocapture readnone, i32, i32, i8* nocapture readnone, i32) unnamed_addr #0 align 2 {
  tail call void (i8*, i32, i1, i8*, ...) @_Z17SkDebugf_FileLinePKcibS0_z(i8* getelementptr inbounds ([51 x i8], [51 x i8]* @.str, i64 0, i64 0), i32 239, i1 zeroext false, i8* getelementptr inbounds ([26 x i8], [26 x i8]* @.str.1, i64 0, i64 0), i8* getelementptr inbounds ([51 x i8], [51 x i8]* @.str, i64 0, i64 0), i32 239, i8* getelementptr inbounds ([49 x i8], [49 x i8]* @.str.2, i64 0, i64 0)) #12
  tail call void @_Z17sk_abort_no_printv() #12
  ret void
}

declare void @_Z17SkDebugf_FileLinePKcibS0_z(i8*, i32, i1 zeroext, i8*, ...) local_unnamed_addr #2

declare void @_Z17sk_abort_no_printv() local_unnamed_addr #2

; Function Attrs: norecurse nounwind ssp uwtable
define hidden void @_ZN19MaskAdditiveBlitter9blitAntiHEiih(%class.MaskAdditiveBlitter* nocapture, i32, i32, i8 zeroext) unnamed_addr #3 align 2 {
  %5 = getelementptr inbounds %class.MaskAdditiveBlitter, %class.MaskAdditiveBlitter* %0, i64 0, i32 6
  %6 = load i32, i32* %5, align 8
  %7 = icmp eq i32 %6, %2
  br i1 %7, label %8, label %11

; <label>:8:                                      ; preds = %4
  %9 = getelementptr inbounds %class.MaskAdditiveBlitter, %class.MaskAdditiveBlitter* %0, i64 0, i32 5
  %10 = load i8*, i8** %9, align 8
  br label %28

; <label>:11:                                     ; preds = %4
  store i32 %2, i32* %5, align 8
  %12 = getelementptr inbounds %class.MaskAdditiveBlitter, %class.MaskAdditiveBlitter* %0, i64 0, i32 2, i32 0
  %13 = load i8*, i8** %12, align 8
  %14 = getelementptr inbounds %class.MaskAdditiveBlitter, %class.MaskAdditiveBlitter* %0, i64 0, i32 2, i32 1, i32 1
  %15 = load i32, i32* %14, align 4
  %16 = sub nsw i32 %2, %15
  %17 = getelementptr inbounds %class.MaskAdditiveBlitter, %class.MaskAdditiveBlitter* %0, i64 0, i32 2, i32 2
  %18 = load i32, i32* %17, align 8
  %19 = mul i32 %16, %18
  %20 = zext i32 %19 to i64
  %21 = getelementptr inbounds i8, i8* %13, i64 %20
  %22 = getelementptr inbounds %class.MaskAdditiveBlitter, %class.MaskAdditiveBlitter* %0, i64 0, i32 2, i32 1, i32 0
  %23 = load i32, i32* %22, align 8
  %24 = sext i32 %23 to i64
  %25 = sub nsw i64 0, %24
  %26 = getelementptr inbounds i8, i8* %21, i64 %25
  %27 = getelementptr inbounds %class.MaskAdditiveBlitter, %class.MaskAdditiveBlitter* %0, i64 0, i32 5
  store i8* %26, i8** %27, align 8
  br label %28

; <label>:28:                                     ; preds = %8, %11
  %29 = phi i8* [ %10, %8 ], [ %26, %11 ]
  %30 = sext i32 %1 to i64
  %31 = getelementptr inbounds i8, i8* %29, i64 %30
  %32 = load i8, i8* %31, align 1
  %33 = zext i8 %32 to i32
  %34 = zext i8 %3 to i32
  %35 = add nuw nsw i32 %33, %34
  %36 = lshr i32 %35, 8
  %37 = sub nsw i32 %35, %36
  %38 = trunc i32 %37 to i8
  store i8 %38, i8* %31, align 1
  ret void
}

; Function Attrs: norecurse nounwind ssp uwtable
define hidden void @_ZN19MaskAdditiveBlitter9blitAntiHEiiih(%class.MaskAdditiveBlitter* nocapture, i32, i32, i32, i8 zeroext) unnamed_addr #3 align 2 {
  %6 = getelementptr inbounds %class.MaskAdditiveBlitter, %class.MaskAdditiveBlitter* %0, i64 0, i32 6
  %7 = load i32, i32* %6, align 8
  %8 = icmp eq i32 %7, %2
  br i1 %8, label %9, label %12

; <label>:9:                                      ; preds = %5
  %10 = getelementptr inbounds %class.MaskAdditiveBlitter, %class.MaskAdditiveBlitter* %0, i64 0, i32 5
  %11 = load i8*, i8** %10, align 8
  br label %29

; <label>:12:                                     ; preds = %5
  store i32 %2, i32* %6, align 8
  %13 = getelementptr inbounds %class.MaskAdditiveBlitter, %class.MaskAdditiveBlitter* %0, i64 0, i32 2, i32 0
  %14 = load i8*, i8** %13, align 8
  %15 = getelementptr inbounds %class.MaskAdditiveBlitter, %class.MaskAdditiveBlitter* %0, i64 0, i32 2, i32 1, i32 1
  %16 = load i32, i32* %15, align 4
  %17 = sub nsw i32 %2, %16
  %18 = getelementptr inbounds %class.MaskAdditiveBlitter, %class.MaskAdditiveBlitter* %0, i64 0, i32 2, i32 2
  %19 = load i32, i32* %18, align 8
  %20 = mul i32 %17, %19
  %21 = zext i32 %20 to i64
  %22 = getelementptr inbounds i8, i8* %14, i64 %21
  %23 = getelementptr inbounds %class.MaskAdditiveBlitter, %class.MaskAdditiveBlitter* %0, i64 0, i32 2, i32 1, i32 0
  %24 = load i32, i32* %23, align 8
  %25 = sext i32 %24 to i64
  %26 = sub nsw i64 0, %25
  %27 = getelementptr inbounds i8, i8* %22, i64 %26
  %28 = getelementptr inbounds %class.MaskAdditiveBlitter, %class.MaskAdditiveBlitter* %0, i64 0, i32 5
  store i8* %27, i8** %28, align 8
  br label %29

; <label>:29:                                     ; preds = %9, %12
  %30 = phi i8* [ %11, %9 ], [ %27, %12 ]
  %31 = icmp sgt i32 %3, 0
  br i1 %31, label %32, label %93

; <label>:32:                                     ; preds = %29
  %33 = zext i8 %4 to i32
  %34 = sext i32 %1 to i64
  %35 = zext i32 %3 to i64
  %36 = icmp ult i32 %3, 16
  br i1 %36, label %37, label %39

; <label>:37:                                     ; preds = %91, %32
  %38 = phi i64 [ 0, %32 ], [ %40, %91 ]
  br label %94

; <label>:39:                                     ; preds = %32
  %40 = and i64 %35, 4294967280
  %41 = insertelement <16 x i32> undef, i32 %33, i32 0
  %42 = shufflevector <16 x i32> %41, <16 x i32> undef, <16 x i32> zeroinitializer
  %43 = add nsw i64 %40, -16
  %44 = lshr exact i64 %43, 4
  %45 = add nuw nsw i64 %44, 1
  %46 = and i64 %45, 1
  %47 = icmp eq i64 %43, 0
  br i1 %47, label %77, label %48

; <label>:48:                                     ; preds = %39
  %49 = sub nsw i64 %45, %46
  br label %50

; <label>:50:                                     ; preds = %50, %48
  %51 = phi i64 [ 0, %48 ], [ %74, %50 ]
  %52 = phi i64 [ %49, %48 ], [ %75, %50 ]
  %53 = add nsw i64 %51, %34
  %54 = getelementptr inbounds i8, i8* %30, i64 %53
  %55 = bitcast i8* %54 to <16 x i8>*
  %56 = load <16 x i8>, <16 x i8>* %55, align 1
  %57 = zext <16 x i8> %56 to <16 x i32>
  %58 = add nuw nsw <16 x i32> %42, %57
  %59 = lshr <16 x i32> %58, <i32 8, i32 8, i32 8, i32 8, i32 8, i32 8, i32 8, i32 8, i32 8, i32 8, i32 8, i32 8, i32 8, i32 8, i32 8, i32 8>
  %60 = sub nsw <16 x i32> %58, %59
  %61 = trunc <16 x i32> %60 to <16 x i8>
  %62 = bitcast i8* %54 to <16 x i8>*
  store <16 x i8> %61, <16 x i8>* %62, align 1
  %63 = or i64 %51, 16
  %64 = add nsw i64 %63, %34
  %65 = getelementptr inbounds i8, i8* %30, i64 %64
  %66 = bitcast i8* %65 to <16 x i8>*
  %67 = load <16 x i8>, <16 x i8>* %66, align 1
  %68 = zext <16 x i8> %67 to <16 x i32>
  %69 = add nuw nsw <16 x i32> %42, %68
  %70 = lshr <16 x i32> %69, <i32 8, i32 8, i32 8, i32 8, i32 8, i32 8, i32 8, i32 8, i32 8, i32 8, i32 8, i32 8, i32 8, i32 8, i32 8, i32 8>
  %71 = sub nsw <16 x i32> %69, %70
  %72 = trunc <16 x i32> %71 to <16 x i8>
  %73 = bitcast i8* %65 to <16 x i8>*
  store <16 x i8> %72, <16 x i8>* %73, align 1
  %74 = add i64 %51, 32
  %75 = add i64 %52, -2
  %76 = icmp eq i64 %75, 0
  br i1 %76, label %77, label %50, !llvm.loop !2

; <label>:77:                                     ; preds = %50, %39
  %78 = phi i64 [ 0, %39 ], [ %74, %50 ]
  %79 = icmp eq i64 %46, 0
  br i1 %79, label %91, label %80

; <label>:80:                                     ; preds = %77
  %81 = add nsw i64 %78, %34
  %82 = getelementptr inbounds i8, i8* %30, i64 %81
  %83 = bitcast i8* %82 to <16 x i8>*
  %84 = load <16 x i8>, <16 x i8>* %83, align 1
  %85 = zext <16 x i8> %84 to <16 x i32>
  %86 = add nuw nsw <16 x i32> %42, %85
  %87 = lshr <16 x i32> %86, <i32 8, i32 8, i32 8, i32 8, i32 8, i32 8, i32 8, i32 8, i32 8, i32 8, i32 8, i32 8, i32 8, i32 8, i32 8, i32 8>
  %88 = sub nsw <16 x i32> %86, %87
  %89 = trunc <16 x i32> %88 to <16 x i8>
  %90 = bitcast i8* %82 to <16 x i8>*
  store <16 x i8> %89, <16 x i8>* %90, align 1
  br label %91

; <label>:91:                                     ; preds = %77, %80
  %92 = icmp eq i64 %40, %35
  br i1 %92, label %93, label %37

; <label>:93:                                     ; preds = %94, %91, %29
  ret void

; <label>:94:                                     ; preds = %37, %94
  %95 = phi i64 [ %104, %94 ], [ %38, %37 ]
  %96 = add nsw i64 %95, %34
  %97 = getelementptr inbounds i8, i8* %30, i64 %96
  %98 = load i8, i8* %97, align 1
  %99 = zext i8 %98 to i32
  %100 = add nuw nsw i32 %99, %33
  %101 = lshr i32 %100, 8
  %102 = sub nsw i32 %100, %101
  %103 = trunc i32 %102 to i8
  store i8 %103, i8* %97, align 1
  %104 = add nuw nsw i64 %95, 1
  %105 = icmp eq i64 %104, %35
  br i1 %105, label %93, label %94, !llvm.loop !4
}

; Function Attrs: argmemonly nounwind
declare void @llvm.lifetime.start.p0i8(i64, i8* nocapture) #1

; Function Attrs: argmemonly nounwind
declare void @llvm.lifetime.end.p0i8(i64, i8* nocapture) #1

; Function Attrs: norecurse nounwind ssp uwtable
define hidden void @_ZN19MaskAdditiveBlitter5blitVEiiih(%class.MaskAdditiveBlitter* nocapture, i32, i32, i32, i8 zeroext) unnamed_addr #3 align 2 {
  %6 = icmp eq i8 %4, 0
  br i1 %6, label %75, label %7

; <label>:7:                                      ; preds = %5
  %8 = getelementptr inbounds %class.MaskAdditiveBlitter, %class.MaskAdditiveBlitter* %0, i64 0, i32 6
  %9 = load i32, i32* %8, align 8
  %10 = icmp eq i32 %9, %2
  br i1 %10, label %11, label %14

; <label>:11:                                     ; preds = %7
  %12 = getelementptr inbounds %class.MaskAdditiveBlitter, %class.MaskAdditiveBlitter* %0, i64 0, i32 5
  %13 = load i8*, i8** %12, align 8
  br label %31

; <label>:14:                                     ; preds = %7
  store i32 %2, i32* %8, align 8
  %15 = getelementptr inbounds %class.MaskAdditiveBlitter, %class.MaskAdditiveBlitter* %0, i64 0, i32 2, i32 0
  %16 = load i8*, i8** %15, align 8
  %17 = getelementptr inbounds %class.MaskAdditiveBlitter, %class.MaskAdditiveBlitter* %0, i64 0, i32 2, i32 1, i32 1
  %18 = load i32, i32* %17, align 4
  %19 = sub nsw i32 %2, %18
  %20 = getelementptr inbounds %class.MaskAdditiveBlitter, %class.MaskAdditiveBlitter* %0, i64 0, i32 2, i32 2
  %21 = load i32, i32* %20, align 8
  %22 = mul i32 %19, %21
  %23 = zext i32 %22 to i64
  %24 = getelementptr inbounds i8, i8* %16, i64 %23
  %25 = getelementptr inbounds %class.MaskAdditiveBlitter, %class.MaskAdditiveBlitter* %0, i64 0, i32 2, i32 1, i32 0
  %26 = load i32, i32* %25, align 8
  %27 = sext i32 %26 to i64
  %28 = sub nsw i64 0, %27
  %29 = getelementptr inbounds i8, i8* %24, i64 %28
  %30 = getelementptr inbounds %class.MaskAdditiveBlitter, %class.MaskAdditiveBlitter* %0, i64 0, i32 5
  store i8* %29, i8** %30, align 8
  br label %31

; <label>:31:                                     ; preds = %11, %14
  %32 = phi i8* [ %13, %11 ], [ %29, %14 ]
  %33 = icmp sgt i32 %3, 0
  br i1 %33, label %34, label %75

; <label>:34:                                     ; preds = %31
  %35 = sext i32 %1 to i64
  %36 = getelementptr inbounds %class.MaskAdditiveBlitter, %class.MaskAdditiveBlitter* %0, i64 0, i32 2, i32 2
  %37 = add i32 %3, -1
  %38 = and i32 %3, 3
  %39 = icmp ult i32 %37, 3
  br i1 %39, label %63, label %40

; <label>:40:                                     ; preds = %34
  %41 = sub i32 %3, %38
  br label %42

; <label>:42:                                     ; preds = %42, %40
  %43 = phi i8* [ %32, %40 ], [ %60, %42 ]
  %44 = phi i32 [ %41, %40 ], [ %61, %42 ]
  %45 = getelementptr inbounds i8, i8* %43, i64 %35
  store i8 %4, i8* %45, align 1
  %46 = load i32, i32* %36, align 8
  %47 = zext i32 %46 to i64
  %48 = getelementptr inbounds i8, i8* %43, i64 %47
  %49 = getelementptr inbounds i8, i8* %48, i64 %35
  store i8 %4, i8* %49, align 1
  %50 = load i32, i32* %36, align 8
  %51 = zext i32 %50 to i64
  %52 = getelementptr inbounds i8, i8* %48, i64 %51
  %53 = getelementptr inbounds i8, i8* %52, i64 %35
  store i8 %4, i8* %53, align 1
  %54 = load i32, i32* %36, align 8
  %55 = zext i32 %54 to i64
  %56 = getelementptr inbounds i8, i8* %52, i64 %55
  %57 = getelementptr inbounds i8, i8* %56, i64 %35
  store i8 %4, i8* %57, align 1
  %58 = load i32, i32* %36, align 8
  %59 = zext i32 %58 to i64
  %60 = getelementptr inbounds i8, i8* %56, i64 %59
  %61 = add i32 %44, -4
  %62 = icmp eq i32 %61, 0
  br i1 %62, label %63, label %42

; <label>:63:                                     ; preds = %42, %34
  %64 = phi i8* [ %32, %34 ], [ %60, %42 ]
  %65 = icmp eq i32 %38, 0
  br i1 %65, label %75, label %66

; <label>:66:                                     ; preds = %63, %66
  %67 = phi i8* [ %72, %66 ], [ %64, %63 ]
  %68 = phi i32 [ %73, %66 ], [ %38, %63 ]
  %69 = getelementptr inbounds i8, i8* %67, i64 %35
  store i8 %4, i8* %69, align 1
  %70 = load i32, i32* %36, align 8
  %71 = zext i32 %70 to i64
  %72 = getelementptr inbounds i8, i8* %67, i64 %71
  %73 = add i32 %68, -1
  %74 = icmp eq i32 %73, 0
  br i1 %74, label %75, label %66, !llvm.loop !6

; <label>:75:                                     ; preds = %63, %66, %31, %5
  ret void
}

; Function Attrs: nounwind ssp uwtable
define hidden void @_ZN19MaskAdditiveBlitter8blitRectEiiii(%class.MaskAdditiveBlitter* nocapture, i32, i32, i32, i32) unnamed_addr #0 align 2 {
  %6 = getelementptr inbounds %class.MaskAdditiveBlitter, %class.MaskAdditiveBlitter* %0, i64 0, i32 6
  %7 = load i32, i32* %6, align 8
  %8 = icmp eq i32 %7, %2
  br i1 %8, label %9, label %12

; <label>:9:                                      ; preds = %5
  %10 = getelementptr inbounds %class.MaskAdditiveBlitter, %class.MaskAdditiveBlitter* %0, i64 0, i32 5
  %11 = load i8*, i8** %10, align 8
  br label %29

; <label>:12:                                     ; preds = %5
  store i32 %2, i32* %6, align 8
  %13 = getelementptr inbounds %class.MaskAdditiveBlitter, %class.MaskAdditiveBlitter* %0, i64 0, i32 2, i32 0
  %14 = load i8*, i8** %13, align 8
  %15 = getelementptr inbounds %class.MaskAdditiveBlitter, %class.MaskAdditiveBlitter* %0, i64 0, i32 2, i32 1, i32 1
  %16 = load i32, i32* %15, align 4
  %17 = sub nsw i32 %2, %16
  %18 = getelementptr inbounds %class.MaskAdditiveBlitter, %class.MaskAdditiveBlitter* %0, i64 0, i32 2, i32 2
  %19 = load i32, i32* %18, align 8
  %20 = mul i32 %17, %19
  %21 = zext i32 %20 to i64
  %22 = getelementptr inbounds i8, i8* %14, i64 %21
  %23 = getelementptr inbounds %class.MaskAdditiveBlitter, %class.MaskAdditiveBlitter* %0, i64 0, i32 2, i32 1, i32 0
  %24 = load i32, i32* %23, align 8
  %25 = sext i32 %24 to i64
  %26 = sub nsw i64 0, %25
  %27 = getelementptr inbounds i8, i8* %22, i64 %26
  %28 = getelementptr inbounds %class.MaskAdditiveBlitter, %class.MaskAdditiveBlitter* %0, i64 0, i32 5
  store i8* %27, i8** %28, align 8
  br label %29

; <label>:29:                                     ; preds = %9, %12
  %30 = phi i8* [ %11, %9 ], [ %27, %12 ]
  %31 = icmp sgt i32 %4, 0
  br i1 %31, label %32, label %53

; <label>:32:                                     ; preds = %29
  %33 = sext i32 %1 to i64
  %34 = sext i32 %3 to i64
  %35 = getelementptr inbounds %class.MaskAdditiveBlitter, %class.MaskAdditiveBlitter* %0, i64 0, i32 2, i32 2
  %36 = add i32 %4, -1
  %37 = and i32 %4, 7
  %38 = icmp ult i32 %36, 7
  br i1 %38, label %41, label %39

; <label>:39:                                     ; preds = %32
  %40 = sub i32 %4, %37
  br label %54

; <label>:41:                                     ; preds = %54, %32
  %42 = phi i8* [ %30, %32 ], [ %88, %54 ]
  %43 = icmp eq i32 %37, 0
  br i1 %43, label %53, label %44

; <label>:44:                                     ; preds = %41, %44
  %45 = phi i8* [ %50, %44 ], [ %42, %41 ]
  %46 = phi i32 [ %51, %44 ], [ %37, %41 ]
  %47 = getelementptr inbounds i8, i8* %45, i64 %33
  tail call void @llvm.memset.p0i8.i64(i8* align 1 %47, i8 -1, i64 %34, i1 false)
  %48 = load i32, i32* %35, align 8
  %49 = zext i32 %48 to i64
  %50 = getelementptr inbounds i8, i8* %45, i64 %49
  %51 = add i32 %46, -1
  %52 = icmp eq i32 %51, 0
  br i1 %52, label %53, label %44, !llvm.loop !8

; <label>:53:                                     ; preds = %41, %44, %29
  ret void

; <label>:54:                                     ; preds = %54, %39
  %55 = phi i8* [ %30, %39 ], [ %88, %54 ]
  %56 = phi i32 [ %40, %39 ], [ %89, %54 ]
  %57 = getelementptr inbounds i8, i8* %55, i64 %33
  tail call void @llvm.memset.p0i8.i64(i8* align 1 %57, i8 -1, i64 %34, i1 false)
  %58 = load i32, i32* %35, align 8
  %59 = zext i32 %58 to i64
  %60 = getelementptr inbounds i8, i8* %55, i64 %59
  %61 = getelementptr inbounds i8, i8* %60, i64 %33
  tail call void @llvm.memset.p0i8.i64(i8* align 1 %61, i8 -1, i64 %34, i1 false)
  %62 = load i32, i32* %35, align 8
  %63 = zext i32 %62 to i64
  %64 = getelementptr inbounds i8, i8* %60, i64 %63
  %65 = getelementptr inbounds i8, i8* %64, i64 %33
  tail call void @llvm.memset.p0i8.i64(i8* align 1 %65, i8 -1, i64 %34, i1 false)
  %66 = load i32, i32* %35, align 8
  %67 = zext i32 %66 to i64
  %68 = getelementptr inbounds i8, i8* %64, i64 %67
  %69 = getelementptr inbounds i8, i8* %68, i64 %33
  tail call void @llvm.memset.p0i8.i64(i8* align 1 %69, i8 -1, i64 %34, i1 false)
  %70 = load i32, i32* %35, align 8
  %71 = zext i32 %70 to i64
  %72 = getelementptr inbounds i8, i8* %68, i64 %71
  %73 = getelementptr inbounds i8, i8* %72, i64 %33
  tail call void @llvm.memset.p0i8.i64(i8* align 1 %73, i8 -1, i64 %34, i1 false)
  %74 = load i32, i32* %35, align 8
  %75 = zext i32 %74 to i64
  %76 = getelementptr inbounds i8, i8* %72, i64 %75
  %77 = getelementptr inbounds i8, i8* %76, i64 %33
  tail call void @llvm.memset.p0i8.i64(i8* align 1 %77, i8 -1, i64 %34, i1 false)
  %78 = load i32, i32* %35, align 8
  %79 = zext i32 %78 to i64
  %80 = getelementptr inbounds i8, i8* %76, i64 %79
  %81 = getelementptr inbounds i8, i8* %80, i64 %33
  tail call void @llvm.memset.p0i8.i64(i8* align 1 %81, i8 -1, i64 %34, i1 false)
  %82 = load i32, i32* %35, align 8
  %83 = zext i32 %82 to i64
  %84 = getelementptr inbounds i8, i8* %80, i64 %83
  %85 = getelementptr inbounds i8, i8* %84, i64 %33
  tail call void @llvm.memset.p0i8.i64(i8* align 1 %85, i8 -1, i64 %34, i1 false)
  %86 = load i32, i32* %35, align 8
  %87 = zext i32 %86 to i64
  %88 = getelementptr inbounds i8, i8* %84, i64 %87
  %89 = add i32 %56, -8
  %90 = icmp eq i32 %89, 0
  br i1 %90, label %41, label %54
}

; Function Attrs: nounwind ssp uwtable
define hidden void @_ZN19MaskAdditiveBlitter12blitAntiRectEiiiihh(%class.MaskAdditiveBlitter*, i32, i32, i32, i32, i8 zeroext, i8 zeroext) unnamed_addr #0 align 2 {
  %8 = bitcast %class.MaskAdditiveBlitter* %0 to void (%class.MaskAdditiveBlitter*, i32, i32, i32, i8)***
  %9 = load void (%class.MaskAdditiveBlitter*, i32, i32, i32, i8)**, void (%class.MaskAdditiveBlitter*, i32, i32, i32, i8)*** %8, align 8
  %10 = getelementptr inbounds void (%class.MaskAdditiveBlitter*, i32, i32, i32, i8)*, void (%class.MaskAdditiveBlitter*, i32, i32, i32, i8)** %9, i64 5
  %11 = load void (%class.MaskAdditiveBlitter*, i32, i32, i32, i8)*, void (%class.MaskAdditiveBlitter*, i32, i32, i32, i8)** %10, align 8
  tail call void %11(%class.MaskAdditiveBlitter* %0, i32 %1, i32 %2, i32 %4, i8 zeroext %5) #12
  %12 = add nsw i32 %1, 1
  %13 = add nsw i32 %12, %3
  %14 = load void (%class.MaskAdditiveBlitter*, i32, i32, i32, i8)**, void (%class.MaskAdditiveBlitter*, i32, i32, i32, i8)*** %8, align 8
  %15 = getelementptr inbounds void (%class.MaskAdditiveBlitter*, i32, i32, i32, i8)*, void (%class.MaskAdditiveBlitter*, i32, i32, i32, i8)** %14, i64 5
  %16 = load void (%class.MaskAdditiveBlitter*, i32, i32, i32, i8)*, void (%class.MaskAdditiveBlitter*, i32, i32, i32, i8)** %15, align 8
  tail call void %16(%class.MaskAdditiveBlitter* %0, i32 %13, i32 %2, i32 %4, i8 zeroext %6) #12
  %17 = bitcast %class.MaskAdditiveBlitter* %0 to void (%class.MaskAdditiveBlitter*, i32, i32, i32, i32)***
  %18 = load void (%class.MaskAdditiveBlitter*, i32, i32, i32, i32)**, void (%class.MaskAdditiveBlitter*, i32, i32, i32, i32)*** %17, align 8
  %19 = getelementptr inbounds void (%class.MaskAdditiveBlitter*, i32, i32, i32, i32)*, void (%class.MaskAdditiveBlitter*, i32, i32, i32, i32)** %18, i64 6
  %20 = load void (%class.MaskAdditiveBlitter*, i32, i32, i32, i32)*, void (%class.MaskAdditiveBlitter*, i32, i32, i32, i32)** %19, align 8
  tail call void %20(%class.MaskAdditiveBlitter* %0, i32 %12, i32 %2, i32 %3, i32 %4) #12
  ret void
}

; Function Attrs: nounwind ssp uwtable
define hidden void @_ZN23RunBasedAdditiveBlitterC2EP9SkBlitterRK7SkIRectS4_b(%class.RunBasedAdditiveBlitter*, %class.SkBlitter*, %struct.SkIRect* nocapture readonly dereferenceable(16), %struct.SkIRect* nocapture readonly dereferenceable(16), i1 zeroext) unnamed_addr #0 align 2 {
  %6 = getelementptr inbounds %class.RunBasedAdditiveBlitter, %class.RunBasedAdditiveBlitter* %0, i64 0, i32 0, i32 0, i32 1
  %7 = bitcast %class.SkAutoMalloc* %6 to i8*
  tail call void @llvm.memset.p0i8.i64(i8* nonnull align 8 %7, i8 0, i64 16, i1 false) #12
  %8 = getelementptr inbounds %class.RunBasedAdditiveBlitter, %class.RunBasedAdditiveBlitter* %0, i64 0, i32 0, i32 0, i32 0
  store i32 (...)** bitcast (i8** getelementptr inbounds ({ [23 x i8*] }, { [23 x i8*] }* @_ZTV23RunBasedAdditiveBlitter, i64 0, inrange i32 0, i64 2) to i32 (...)**), i32 (...)*** %8, align 8
  %9 = getelementptr inbounds %class.RunBasedAdditiveBlitter, %class.RunBasedAdditiveBlitter* %0, i64 0, i32 1
  store %class.SkBlitter* %1, %class.SkBlitter** %9, align 8
  br i1 %4, label %10, label %17

; <label>:10:                                     ; preds = %5
  %11 = getelementptr inbounds %struct.SkIRect, %struct.SkIRect* %3, i64 0, i32 0
  %12 = load i32, i32* %11, align 4
  %13 = getelementptr inbounds %struct.SkIRect, %struct.SkIRect* %3, i64 0, i32 1
  %14 = load i32, i32* %13, align 4
  %15 = getelementptr inbounds %struct.SkIRect, %struct.SkIRect* %3, i64 0, i32 2
  %16 = load i32, i32* %15, align 4
  br label %64

; <label>:17:                                     ; preds = %5
  %18 = getelementptr inbounds %struct.SkIRect, %struct.SkIRect* %2, i64 0, i32 2
  %19 = load i32, i32* %18, align 4
  %20 = getelementptr inbounds %struct.SkIRect, %struct.SkIRect* %2, i64 0, i32 0
  %21 = load i32, i32* %20, align 4
  %22 = icmp sgt i32 %19, %21
  br i1 %22, label %23, label %63

; <label>:23:                                     ; preds = %17
  %24 = getelementptr inbounds %struct.SkIRect, %struct.SkIRect* %2, i64 0, i32 3
  %25 = load i32, i32* %24, align 4
  %26 = getelementptr inbounds %struct.SkIRect, %struct.SkIRect* %2, i64 0, i32 1
  %27 = load i32, i32* %26, align 4
  %28 = icmp sgt i32 %25, %27
  br i1 %28, label %29, label %63

; <label>:29:                                     ; preds = %23
  %30 = getelementptr inbounds %struct.SkIRect, %struct.SkIRect* %3, i64 0, i32 2
  %31 = load i32, i32* %30, align 4
  %32 = getelementptr inbounds %struct.SkIRect, %struct.SkIRect* %3, i64 0, i32 0
  %33 = load i32, i32* %32, align 4
  %34 = icmp sgt i32 %31, %33
  br i1 %34, label %35, label %63

; <label>:35:                                     ; preds = %29
  %36 = getelementptr inbounds %struct.SkIRect, %struct.SkIRect* %3, i64 0, i32 3
  %37 = load i32, i32* %36, align 4
  %38 = getelementptr inbounds %struct.SkIRect, %struct.SkIRect* %3, i64 0, i32 1
  %39 = load i32, i32* %38, align 4
  %40 = icmp sgt i32 %37, %39
  br i1 %40, label %41, label %63

; <label>:41:                                     ; preds = %35
  %42 = icmp slt i32 %21, %33
  %43 = select i1 %42, i32 %33, i32 %21
  %44 = icmp slt i32 %27, %39
  %45 = select i1 %44, i32 %39, i32 %27
  %46 = icmp sgt i32 %19, %31
  %47 = select i1 %46, i32 %31, i32 %19
  %48 = icmp sgt i32 %25, %37
  %49 = select i1 %48, i32 %37, i32 %25
  %50 = sext i32 %47 to i64
  %51 = sext i32 %43 to i64
  %52 = sub nsw i64 %50, %51
  %53 = sext i32 %49 to i64
  %54 = sext i32 %45 to i64
  %55 = sub nsw i64 %53, %54
  %56 = icmp slt i64 %52, 1
  %57 = icmp slt i64 %55, 1
  %58 = or i1 %56, %57
  br i1 %58, label %63, label %59

; <label>:59:                                     ; preds = %41
  %60 = or i64 %55, %52
  %61 = add nsw i64 %60, 2147483648
  %62 = icmp ugt i64 %61, 4294967295
  br i1 %62, label %63, label %64

; <label>:63:                                     ; preds = %35, %23, %59, %41, %17, %29
  br label %64

; <label>:64:                                     ; preds = %59, %63, %10
  %65 = phi i32 [ %16, %10 ], [ 0, %63 ], [ %47, %59 ]
  %66 = phi i32 [ %14, %10 ], [ 0, %63 ], [ %45, %59 ]
  %67 = phi i32 [ %12, %10 ], [ 0, %63 ], [ %43, %59 ]
  %68 = getelementptr inbounds %class.RunBasedAdditiveBlitter, %class.RunBasedAdditiveBlitter* %0, i64 0, i32 4
  store i32 %67, i32* %68, align 8
  %69 = sub nsw i32 %65, %67
  %70 = getelementptr inbounds %class.RunBasedAdditiveBlitter, %class.RunBasedAdditiveBlitter* %0, i64 0, i32 3
  store i32 %69, i32* %70, align 4
  %71 = getelementptr inbounds %class.RunBasedAdditiveBlitter, %class.RunBasedAdditiveBlitter* %0, i64 0, i32 5
  store i32 %66, i32* %71, align 4
  %72 = add nsw i32 %66, -1
  %73 = getelementptr inbounds %class.RunBasedAdditiveBlitter, %class.RunBasedAdditiveBlitter* %0, i64 0, i32 2
  store i32 %72, i32* %73, align 8
  %74 = bitcast %class.SkBlitter* %1 to i32 (%class.SkBlitter*)***
  %75 = load i32 (%class.SkBlitter*)**, i32 (%class.SkBlitter*)*** %74, align 8
  %76 = getelementptr inbounds i32 (%class.SkBlitter*)*, i32 (%class.SkBlitter*)** %75, i64 13
  %77 = load i32 (%class.SkBlitter*)*, i32 (%class.SkBlitter*)** %76, align 8
  %78 = tail call i32 %77(%class.SkBlitter* %1) #12
  %79 = getelementptr inbounds %class.RunBasedAdditiveBlitter, %class.RunBasedAdditiveBlitter* %0, i64 0, i32 6
  store i32 %78, i32* %79, align 8
  %80 = load i32, i32* %70, align 4
  %81 = add nsw i32 %80, 1
  %82 = add nsw i32 %80, 2
  %83 = sdiv i32 %82, 2
  %84 = add nsw i32 %81, %83
  %85 = shl i32 %78, 1
  %86 = mul i32 %85, %84
  %87 = sext i32 %86 to i64
  %88 = bitcast %class.SkBlitter* %1 to i8* (%class.SkBlitter*, i64)***
  %89 = load i8* (%class.SkBlitter*, i64)**, i8* (%class.SkBlitter*, i64)*** %88, align 8
  %90 = getelementptr inbounds i8* (%class.SkBlitter*, i64)*, i8* (%class.SkBlitter*, i64)** %89, i64 14
  %91 = load i8* (%class.SkBlitter*, i64)*, i8* (%class.SkBlitter*, i64)** %90, align 8
  %92 = tail call i8* %91(%class.SkBlitter* %1, i64 %87) #12
  %93 = getelementptr inbounds %class.RunBasedAdditiveBlitter, %class.RunBasedAdditiveBlitter* %0, i64 0, i32 8
  store i8* %92, i8** %93, align 8
  %94 = getelementptr inbounds %class.RunBasedAdditiveBlitter, %class.RunBasedAdditiveBlitter* %0, i64 0, i32 9
  %95 = load i32, i32* %70, align 4
  store i32 0, i32* %94, align 8
  %96 = bitcast i8* %92 to i16*
  %97 = getelementptr inbounds %class.RunBasedAdditiveBlitter, %class.RunBasedAdditiveBlitter* %0, i64 0, i32 11
  %98 = bitcast %class.SkAlphaRuns* %97 to i8**
  store i8* %92, i8** %98, align 8
  %99 = sext i32 %95 to i64
  %100 = getelementptr inbounds i16, i16* %96, i64 %99
  %101 = getelementptr inbounds i16, i16* %100, i64 1
  %102 = getelementptr inbounds %class.RunBasedAdditiveBlitter, %class.RunBasedAdditiveBlitter* %0, i64 0, i32 11, i32 1
  %103 = bitcast i8** %102 to i16**
  store i16* %101, i16** %103, align 8
  tail call void @_ZN11SkAlphaRuns5resetEi(%class.SkAlphaRuns* nonnull %97, i32 %95) #12
  %104 = getelementptr inbounds %class.RunBasedAdditiveBlitter, %class.RunBasedAdditiveBlitter* %0, i64 0, i32 12
  store i32 0, i32* %104, align 8
  ret void
}

; Function Attrs: nounwind ssp uwtable
define hidden void @_ZN23RunBasedAdditiveBlitterD0Ev(%class.RunBasedAdditiveBlitter*) unnamed_addr #0 align 2 {
  tail call void @_ZN23RunBasedAdditiveBlitterD2Ev(%class.RunBasedAdditiveBlitter* %0) #12
  %2 = bitcast %class.RunBasedAdditiveBlitter* %0 to i8*
  tail call void @_ZdlPv(i8* %2) #13
  ret void
}

; Function Attrs: nobuiltin nounwind
declare void @_ZdlPv(i8*) local_unnamed_addr #4

; Function Attrs: norecurse nounwind readonly ssp uwtable
define hidden %class.SkBlitter* @_ZN23RunBasedAdditiveBlitter14getRealBlitterEb(%class.RunBasedAdditiveBlitter* nocapture readonly, i1 zeroext) unnamed_addr #5 align 2 {
  %3 = getelementptr inbounds %class.RunBasedAdditiveBlitter, %class.RunBasedAdditiveBlitter* %0, i64 0, i32 1
  %4 = load %class.SkBlitter*, %class.SkBlitter** %3, align 8
  ret %class.SkBlitter* %4
}

; Function Attrs: nounwind ssp uwtable
define hidden void @_ZN23RunBasedAdditiveBlitter9blitAntiHEiiPKhi(%class.RunBasedAdditiveBlitter*, i32, i32, i8* nocapture readonly, i32) unnamed_addr #0 align 2 {
  %6 = getelementptr inbounds %class.RunBasedAdditiveBlitter, %class.RunBasedAdditiveBlitter* %0, i64 0, i32 2
  %7 = load i32, i32* %6, align 8
  %8 = icmp eq i32 %7, %2
  br i1 %8, label %92, label %9

; <label>:9:                                      ; preds = %5
  %10 = getelementptr inbounds %class.RunBasedAdditiveBlitter, %class.RunBasedAdditiveBlitter* %0, i64 0, i32 5
  %11 = load i32, i32* %10, align 4
  %12 = icmp slt i32 %7, %11
  br i1 %12, label %91, label %13

; <label>:13:                                     ; preds = %9
  %14 = getelementptr inbounds %class.RunBasedAdditiveBlitter, %class.RunBasedAdditiveBlitter* %0, i64 0, i32 11
  %15 = getelementptr inbounds %class.SkAlphaRuns, %class.SkAlphaRuns* %14, i64 0, i32 0
  %16 = load i16*, i16** %15, align 8
  %17 = load i16, i16* %16, align 2
  %18 = icmp eq i16 %17, 0
  %19 = getelementptr inbounds %class.RunBasedAdditiveBlitter, %class.RunBasedAdditiveBlitter* %0, i64 0, i32 11, i32 1
  %20 = load i8*, i8** %19, align 8
  br i1 %18, label %21, label %32

; <label>:21:                                     ; preds = %32, %13
  %22 = phi i16* [ %16, %13 ], [ %42, %32 ]
  %23 = phi i8* [ %20, %13 ], [ %51, %32 ]
  %24 = load i8, i8* %23, align 1
  %25 = icmp eq i8 %24, 0
  br i1 %25, label %26, label %52

; <label>:26:                                     ; preds = %21
  %27 = load i16, i16* %22, align 2
  %28 = sext i16 %27 to i64
  %29 = getelementptr inbounds i16, i16* %22, i64 %28
  %30 = load i16, i16* %29, align 2
  %31 = icmp eq i16 %30, 0
  br i1 %31, label %88, label %52

; <label>:32:                                     ; preds = %13, %32
  %33 = phi i8* [ %51, %32 ], [ %20, %13 ]
  %34 = phi i64 [ %47, %32 ], [ 0, %13 ]
  %35 = phi i32 [ %46, %32 ], [ 0, %13 ]
  %36 = getelementptr inbounds i8, i8* %33, i64 %34
  %37 = load i8, i8* %36, align 1
  %38 = icmp ugt i8 %37, -9
  %39 = icmp ult i8 %37, 8
  %40 = select i1 %39, i8 0, i8 %37
  %41 = select i1 %38, i8 -1, i8 %40
  store i8 %41, i8* %36, align 1
  %42 = load i16*, i16** %15, align 8
  %43 = getelementptr inbounds i16, i16* %42, i64 %34
  %44 = load i16, i16* %43, align 2
  %45 = sext i16 %44 to i32
  %46 = add nsw i32 %35, %45
  %47 = sext i32 %46 to i64
  %48 = getelementptr inbounds i16, i16* %42, i64 %47
  %49 = load i16, i16* %48, align 2
  %50 = icmp eq i16 %49, 0
  %51 = load i8*, i8** %19, align 8
  br i1 %50, label %21, label %32

; <label>:52:                                     ; preds = %26, %21
  %53 = getelementptr inbounds %class.RunBasedAdditiveBlitter, %class.RunBasedAdditiveBlitter* %0, i64 0, i32 1
  %54 = load %class.SkBlitter*, %class.SkBlitter** %53, align 8
  %55 = getelementptr inbounds %class.RunBasedAdditiveBlitter, %class.RunBasedAdditiveBlitter* %0, i64 0, i32 4
  %56 = load i32, i32* %55, align 8
  %57 = load i32, i32* %6, align 8
  %58 = bitcast %class.SkBlitter* %54 to void (%class.SkBlitter*, i32, i32, i8*, i16*)***
  %59 = load void (%class.SkBlitter*, i32, i32, i8*, i16*)**, void (%class.SkBlitter*, i32, i32, i8*, i16*)*** %58, align 8
  %60 = getelementptr inbounds void (%class.SkBlitter*, i32, i32, i8*, i16*)*, void (%class.SkBlitter*, i32, i32, i8*, i16*)** %59, i64 4
  %61 = load void (%class.SkBlitter*, i32, i32, i8*, i16*)*, void (%class.SkBlitter*, i32, i32, i8*, i16*)** %60, align 8
  tail call void %61(%class.SkBlitter* %54, i32 %56, i32 %57, i8* %23, i16* %22) #12
  %62 = getelementptr inbounds %class.RunBasedAdditiveBlitter, %class.RunBasedAdditiveBlitter* %0, i64 0, i32 3
  %63 = load i32, i32* %62, align 4
  %64 = add nsw i32 %63, 1
  %65 = add nsw i32 %63, 2
  %66 = sdiv i32 %65, 2
  %67 = add nsw i32 %64, %66
  %68 = shl i32 %67, 1
  %69 = sext i32 %68 to i64
  %70 = getelementptr inbounds %class.RunBasedAdditiveBlitter, %class.RunBasedAdditiveBlitter* %0, i64 0, i32 9
  %71 = load i32, i32* %70, align 8
  %72 = add nsw i32 %71, 1
  %73 = getelementptr inbounds %class.RunBasedAdditiveBlitter, %class.RunBasedAdditiveBlitter* %0, i64 0, i32 6
  %74 = load i32, i32* %73, align 8
  %75 = srem i32 %72, %74
  store i32 %75, i32* %70, align 8
  %76 = getelementptr inbounds %class.RunBasedAdditiveBlitter, %class.RunBasedAdditiveBlitter* %0, i64 0, i32 8
  %77 = load i8*, i8** %76, align 8
  %78 = sext i32 %75 to i64
  %79 = mul nsw i64 %69, %78
  %80 = getelementptr inbounds i8, i8* %77, i64 %79
  %81 = bitcast i8* %80 to i16*
  %82 = bitcast %class.SkAlphaRuns* %14 to i8**
  store i8* %80, i8** %82, align 8
  %83 = sext i32 %63 to i64
  %84 = getelementptr inbounds i16, i16* %81, i64 %83
  %85 = getelementptr inbounds i16, i16* %84, i64 1
  %86 = bitcast i8** %19 to i16**
  store i16* %85, i16** %86, align 8
  tail call void @_ZN11SkAlphaRuns5resetEi(%class.SkAlphaRuns* nonnull %14, i32 %63) #12
  %87 = getelementptr inbounds %class.RunBasedAdditiveBlitter, %class.RunBasedAdditiveBlitter* %0, i64 0, i32 12
  store i32 0, i32* %87, align 8
  br label %88

; <label>:88:                                     ; preds = %52, %26
  %89 = load i32, i32* %10, align 4
  %90 = add nsw i32 %89, -1
  store i32 %90, i32* %6, align 8
  br label %91

; <label>:91:                                     ; preds = %9, %88
  store i32 %2, i32* %6, align 8
  br label %92

; <label>:92:                                     ; preds = %5, %91
  %93 = getelementptr inbounds %class.RunBasedAdditiveBlitter, %class.RunBasedAdditiveBlitter* %0, i64 0, i32 4
  %94 = load i32, i32* %93, align 8
  %95 = sub nsw i32 %1, %94
  %96 = icmp slt i32 %95, 0
  br i1 %96, label %97, label %102

; <label>:97:                                     ; preds = %92
  %98 = add nsw i32 %95, %4
  %99 = sext i32 %95 to i64
  %100 = sub nsw i64 0, %99
  %101 = getelementptr inbounds i8, i8* %3, i64 %100
  br label %102

; <label>:102:                                    ; preds = %97, %92
  %103 = phi i32 [ %98, %97 ], [ %4, %92 ]
  %104 = phi i32 [ 0, %97 ], [ %95, %92 ]
  %105 = phi i8* [ %101, %97 ], [ %3, %92 ]
  %106 = getelementptr inbounds %class.RunBasedAdditiveBlitter, %class.RunBasedAdditiveBlitter* %0, i64 0, i32 3
  %107 = load i32, i32* %106, align 4
  %108 = sub nsw i32 %107, %104
  %109 = icmp slt i32 %103, %108
  %110 = select i1 %109, i32 %103, i32 %108
  %111 = getelementptr inbounds %class.RunBasedAdditiveBlitter, %class.RunBasedAdditiveBlitter* %0, i64 0, i32 12
  %112 = load i32, i32* %111, align 8
  %113 = icmp slt i32 %104, %112
  br i1 %113, label %114, label %115

; <label>:114:                                    ; preds = %102
  store i32 0, i32* %111, align 8
  br label %115

; <label>:115:                                    ; preds = %114, %102
  %116 = phi i32 [ 0, %114 ], [ %112, %102 ]
  %117 = getelementptr inbounds %class.RunBasedAdditiveBlitter, %class.RunBasedAdditiveBlitter* %0, i64 0, i32 11, i32 0
  %118 = load i16*, i16** %117, align 8
  %119 = sext i32 %116 to i64
  %120 = getelementptr inbounds i16, i16* %118, i64 %119
  %121 = getelementptr inbounds %class.RunBasedAdditiveBlitter, %class.RunBasedAdditiveBlitter* %0, i64 0, i32 11, i32 1
  %122 = load i8*, i8** %121, align 8
  %123 = getelementptr inbounds i8, i8* %122, i64 %119
  %124 = sub nsw i32 %104, %116
  %125 = icmp eq i32 %110, 0
  br i1 %125, label %126, label %127

; <label>:126:                                    ; preds = %115
  store i32 %116, i32* %111, align 8
  br label %260

; <label>:127:                                    ; preds = %115
  %128 = sext i32 %124 to i64
  %129 = getelementptr inbounds i16, i16* %120, i64 %128
  %130 = getelementptr inbounds i8, i8* %123, i64 %128
  %131 = icmp sgt i32 %124, 0
  br i1 %131, label %132, label %152

; <label>:132:                                    ; preds = %127, %146
  %133 = phi i32 [ %150, %146 ], [ %124, %127 ]
  %134 = phi i8* [ %149, %146 ], [ %123, %127 ]
  %135 = phi i16* [ %148, %146 ], [ %120, %127 ]
  %136 = load i16, i16* %135, align 2
  %137 = sext i16 %136 to i32
  %138 = icmp slt i32 %133, %137
  br i1 %138, label %139, label %146

; <label>:139:                                    ; preds = %132
  %140 = load i8, i8* %134, align 1
  %141 = sext i32 %133 to i64
  %142 = getelementptr inbounds i8, i8* %134, i64 %141
  store i8 %140, i8* %142, align 1
  %143 = trunc i32 %133 to i16
  store i16 %143, i16* %135, align 2
  %144 = sub i16 %136, %143
  %145 = getelementptr inbounds i16, i16* %135, i64 %141
  store i16 %144, i16* %145, align 2
  br label %152

; <label>:146:                                    ; preds = %132
  %147 = sext i16 %136 to i64
  %148 = getelementptr inbounds i16, i16* %135, i64 %147
  %149 = getelementptr inbounds i8, i8* %134, i64 %147
  %150 = sub nsw i32 %133, %137
  %151 = icmp sgt i32 %150, 0
  br i1 %151, label %132, label %152

; <label>:152:                                    ; preds = %146, %139, %127
  %153 = load i16, i16* %129, align 2
  %154 = sext i16 %153 to i32
  %155 = icmp slt i32 %110, %154
  br i1 %155, label %156, label %168

; <label>:156:                                    ; preds = %176, %152
  %157 = phi i32 [ %110, %152 ], [ %174, %176 ]
  %158 = phi i8* [ %130, %152 ], [ %179, %176 ]
  %159 = phi i16* [ %129, %152 ], [ %178, %176 ]
  %160 = phi i16 [ %153, %152 ], [ %180, %176 ]
  %161 = load i8, i8* %158, align 1
  %162 = sext i32 %157 to i64
  %163 = getelementptr inbounds i8, i8* %158, i64 %162
  store i8 %161, i8* %163, align 1
  %164 = trunc i32 %157 to i16
  store i16 %164, i16* %159, align 2
  %165 = sub i16 %160, %164
  %166 = getelementptr inbounds i16, i16* %159, i64 %162
  store i16 %165, i16* %166, align 2
  br label %167

; <label>:167:                                    ; preds = %168, %156
  br label %183

; <label>:168:                                    ; preds = %152, %176
  %169 = phi i32 [ %181, %176 ], [ %154, %152 ]
  %170 = phi i16 [ %180, %176 ], [ %153, %152 ]
  %171 = phi i16* [ %178, %176 ], [ %129, %152 ]
  %172 = phi i8* [ %179, %176 ], [ %130, %152 ]
  %173 = phi i32 [ %174, %176 ], [ %110, %152 ]
  %174 = sub nsw i32 %173, %169
  %175 = icmp slt i32 %174, 1
  br i1 %175, label %167, label %176

; <label>:176:                                    ; preds = %168
  %177 = sext i16 %170 to i64
  %178 = getelementptr inbounds i16, i16* %171, i64 %177
  %179 = getelementptr inbounds i8, i8* %172, i64 %177
  %180 = load i16, i16* %178, align 2
  %181 = sext i16 %180 to i32
  %182 = icmp slt i32 %174, %181
  br i1 %182, label %156, label %168

; <label>:183:                                    ; preds = %167, %183
  %184 = phi i16* [ %191, %183 ], [ %129, %167 ]
  %185 = phi i8* [ %190, %183 ], [ %130, %167 ]
  %186 = phi i32 [ %192, %183 ], [ %110, %167 ]
  %187 = load i16, i16* %184, align 2
  %188 = sext i16 %187 to i32
  %189 = sext i16 %187 to i64
  %190 = getelementptr inbounds i8, i8* %185, i64 %189
  %191 = getelementptr inbounds i16, i16* %184, i64 %189
  %192 = sub nsw i32 %186, %188
  %193 = icmp sgt i32 %192, 0
  br i1 %193, label %183, label %194

; <label>:194:                                    ; preds = %183
  %195 = bitcast i8** %121 to i64*
  %196 = load i64, i64* %195, align 8
  %197 = ptrtoint i8* %190 to i64
  %198 = sub i64 %197, %196
  %199 = trunc i64 %198 to i32
  store i32 %199, i32* %111, align 8
  %200 = icmp sgt i32 %110, 0
  br i1 %200, label %201, label %260

; <label>:201:                                    ; preds = %194
  %202 = load i16*, i16** %117, align 8
  br label %203

; <label>:203:                                    ; preds = %201, %221
  %204 = phi i16* [ %202, %201 ], [ %223, %221 ]
  %205 = phi i32 [ 0, %201 ], [ %227, %221 ]
  %206 = add nsw i32 %205, %104
  %207 = sext i32 %206 to i64
  %208 = getelementptr inbounds i16, i16* %204, i64 %207
  %209 = load i16, i16* %208, align 2
  %210 = icmp sgt i16 %209, 1
  br i1 %210, label %229, label %221

; <label>:211:                                    ; preds = %221
  br i1 %200, label %212, label %260

; <label>:212:                                    ; preds = %211
  %213 = sext i32 %104 to i64
  %214 = sext i32 %110 to i64
  %215 = and i64 %214, 1
  %216 = icmp eq i32 %110, 1
  br i1 %216, label %244, label %217

; <label>:217:                                    ; preds = %212
  %218 = sub nsw i64 %214, %215
  br label %261

; <label>:219:                                    ; preds = %229
  %220 = getelementptr inbounds i16, i16* %239, i64 %207
  br label %221

; <label>:221:                                    ; preds = %219, %203
  %222 = phi i16* [ %208, %203 ], [ %220, %219 ]
  store i16 1, i16* %222, align 2
  %223 = load i16*, i16** %117, align 8
  %224 = getelementptr inbounds i16, i16* %223, i64 %207
  %225 = load i16, i16* %224, align 2
  %226 = sext i16 %225 to i32
  %227 = add nsw i32 %205, %226
  %228 = icmp slt i32 %227, %110
  br i1 %228, label %203, label %211

; <label>:229:                                    ; preds = %203, %229
  %230 = phi i64 [ %238, %229 ], [ 1, %203 ]
  %231 = phi i16* [ %239, %229 ], [ %204, %203 ]
  %232 = add nsw i64 %230, %207
  %233 = getelementptr inbounds i16, i16* %231, i64 %232
  store i16 1, i16* %233, align 2
  %234 = load i8*, i8** %121, align 8
  %235 = getelementptr inbounds i8, i8* %234, i64 %207
  %236 = load i8, i8* %235, align 1
  %237 = getelementptr inbounds i8, i8* %234, i64 %232
  store i8 %236, i8* %237, align 1
  %238 = add nuw nsw i64 %230, 1
  %239 = load i16*, i16** %117, align 8
  %240 = getelementptr inbounds i16, i16* %239, i64 %207
  %241 = load i16, i16* %240, align 2
  %242 = sext i16 %241 to i64
  %243 = icmp slt i64 %238, %242
  br i1 %243, label %229, label %219

; <label>:244:                                    ; preds = %261, %212
  %245 = phi i64 [ 0, %212 ], [ %289, %261 ]
  %246 = icmp eq i64 %215, 0
  br i1 %246, label %260, label %247

; <label>:247:                                    ; preds = %244
  %248 = load i8*, i8** %121, align 8
  %249 = add nuw nsw i64 %245, %213
  %250 = getelementptr inbounds i8, i8* %248, i64 %249
  %251 = getelementptr inbounds i8, i8* %105, i64 %245
  %252 = load i8, i8* %251, align 1
  %253 = load i8, i8* %250, align 1
  %254 = zext i8 %253 to i32
  %255 = zext i8 %252 to i32
  %256 = add nuw nsw i32 %254, %255
  %257 = lshr i32 %256, 8
  %258 = sub nsw i32 %256, %257
  %259 = trunc i32 %258 to i8
  store i8 %259, i8* %250, align 1
  br label %260

; <label>:260:                                    ; preds = %247, %244, %194, %126, %211
  ret void

; <label>:261:                                    ; preds = %261, %217
  %262 = phi i64 [ 0, %217 ], [ %289, %261 ]
  %263 = phi i64 [ %218, %217 ], [ %290, %261 ]
  %264 = load i8*, i8** %121, align 8
  %265 = add nuw nsw i64 %262, %213
  %266 = getelementptr inbounds i8, i8* %264, i64 %265
  %267 = getelementptr inbounds i8, i8* %105, i64 %262
  %268 = load i8, i8* %267, align 1
  %269 = load i8, i8* %266, align 1
  %270 = zext i8 %269 to i32
  %271 = zext i8 %268 to i32
  %272 = add nuw nsw i32 %270, %271
  %273 = lshr i32 %272, 8
  %274 = sub nsw i32 %272, %273
  %275 = trunc i32 %274 to i8
  store i8 %275, i8* %266, align 1
  %276 = or i64 %262, 1
  %277 = load i8*, i8** %121, align 8
  %278 = add nuw nsw i64 %276, %213
  %279 = getelementptr inbounds i8, i8* %277, i64 %278
  %280 = getelementptr inbounds i8, i8* %105, i64 %276
  %281 = load i8, i8* %280, align 1
  %282 = load i8, i8* %279, align 1
  %283 = zext i8 %282 to i32
  %284 = zext i8 %281 to i32
  %285 = add nuw nsw i32 %283, %284
  %286 = lshr i32 %285, 8
  %287 = sub nsw i32 %285, %286
  %288 = trunc i32 %287 to i8
  store i8 %288, i8* %279, align 1
  %289 = add nuw nsw i64 %262, 2
  %290 = add i64 %263, -2
  %291 = icmp eq i64 %290, 0
  br i1 %291, label %244, label %261
}

; Function Attrs: nounwind ssp uwtable
define hidden void @_ZN23RunBasedAdditiveBlitter9blitAntiHEiih(%class.RunBasedAdditiveBlitter*, i32, i32, i8 zeroext) unnamed_addr #0 align 2 {
  %5 = getelementptr inbounds %class.RunBasedAdditiveBlitter, %class.RunBasedAdditiveBlitter* %0, i64 0, i32 2
  %6 = load i32, i32* %5, align 8
  %7 = icmp eq i32 %6, %2
  br i1 %7, label %91, label %8

; <label>:8:                                      ; preds = %4
  %9 = getelementptr inbounds %class.RunBasedAdditiveBlitter, %class.RunBasedAdditiveBlitter* %0, i64 0, i32 5
  %10 = load i32, i32* %9, align 4
  %11 = icmp slt i32 %6, %10
  br i1 %11, label %90, label %12

; <label>:12:                                     ; preds = %8
  %13 = getelementptr inbounds %class.RunBasedAdditiveBlitter, %class.RunBasedAdditiveBlitter* %0, i64 0, i32 11
  %14 = getelementptr inbounds %class.SkAlphaRuns, %class.SkAlphaRuns* %13, i64 0, i32 0
  %15 = load i16*, i16** %14, align 8
  %16 = load i16, i16* %15, align 2
  %17 = icmp eq i16 %16, 0
  %18 = getelementptr inbounds %class.RunBasedAdditiveBlitter, %class.RunBasedAdditiveBlitter* %0, i64 0, i32 11, i32 1
  %19 = load i8*, i8** %18, align 8
  br i1 %17, label %20, label %31

; <label>:20:                                     ; preds = %31, %12
  %21 = phi i16* [ %15, %12 ], [ %41, %31 ]
  %22 = phi i8* [ %19, %12 ], [ %50, %31 ]
  %23 = load i8, i8* %22, align 1
  %24 = icmp eq i8 %23, 0
  br i1 %24, label %25, label %51

; <label>:25:                                     ; preds = %20
  %26 = load i16, i16* %21, align 2
  %27 = sext i16 %26 to i64
  %28 = getelementptr inbounds i16, i16* %21, i64 %27
  %29 = load i16, i16* %28, align 2
  %30 = icmp eq i16 %29, 0
  br i1 %30, label %87, label %51

; <label>:31:                                     ; preds = %12, %31
  %32 = phi i8* [ %50, %31 ], [ %19, %12 ]
  %33 = phi i64 [ %46, %31 ], [ 0, %12 ]
  %34 = phi i32 [ %45, %31 ], [ 0, %12 ]
  %35 = getelementptr inbounds i8, i8* %32, i64 %33
  %36 = load i8, i8* %35, align 1
  %37 = icmp ugt i8 %36, -9
  %38 = icmp ult i8 %36, 8
  %39 = select i1 %38, i8 0, i8 %36
  %40 = select i1 %37, i8 -1, i8 %39
  store i8 %40, i8* %35, align 1
  %41 = load i16*, i16** %14, align 8
  %42 = getelementptr inbounds i16, i16* %41, i64 %33
  %43 = load i16, i16* %42, align 2
  %44 = sext i16 %43 to i32
  %45 = add nsw i32 %34, %44
  %46 = sext i32 %45 to i64
  %47 = getelementptr inbounds i16, i16* %41, i64 %46
  %48 = load i16, i16* %47, align 2
  %49 = icmp eq i16 %48, 0
  %50 = load i8*, i8** %18, align 8
  br i1 %49, label %20, label %31

; <label>:51:                                     ; preds = %25, %20
  %52 = getelementptr inbounds %class.RunBasedAdditiveBlitter, %class.RunBasedAdditiveBlitter* %0, i64 0, i32 1
  %53 = load %class.SkBlitter*, %class.SkBlitter** %52, align 8
  %54 = getelementptr inbounds %class.RunBasedAdditiveBlitter, %class.RunBasedAdditiveBlitter* %0, i64 0, i32 4
  %55 = load i32, i32* %54, align 8
  %56 = load i32, i32* %5, align 8
  %57 = bitcast %class.SkBlitter* %53 to void (%class.SkBlitter*, i32, i32, i8*, i16*)***
  %58 = load void (%class.SkBlitter*, i32, i32, i8*, i16*)**, void (%class.SkBlitter*, i32, i32, i8*, i16*)*** %57, align 8
  %59 = getelementptr inbounds void (%class.SkBlitter*, i32, i32, i8*, i16*)*, void (%class.SkBlitter*, i32, i32, i8*, i16*)** %58, i64 4
  %60 = load void (%class.SkBlitter*, i32, i32, i8*, i16*)*, void (%class.SkBlitter*, i32, i32, i8*, i16*)** %59, align 8
  tail call void %60(%class.SkBlitter* %53, i32 %55, i32 %56, i8* %22, i16* %21) #12
  %61 = getelementptr inbounds %class.RunBasedAdditiveBlitter, %class.RunBasedAdditiveBlitter* %0, i64 0, i32 3
  %62 = load i32, i32* %61, align 4
  %63 = add nsw i32 %62, 1
  %64 = add nsw i32 %62, 2
  %65 = sdiv i32 %64, 2
  %66 = add nsw i32 %63, %65
  %67 = shl i32 %66, 1
  %68 = sext i32 %67 to i64
  %69 = getelementptr inbounds %class.RunBasedAdditiveBlitter, %class.RunBasedAdditiveBlitter* %0, i64 0, i32 9
  %70 = load i32, i32* %69, align 8
  %71 = add nsw i32 %70, 1
  %72 = getelementptr inbounds %class.RunBasedAdditiveBlitter, %class.RunBasedAdditiveBlitter* %0, i64 0, i32 6
  %73 = load i32, i32* %72, align 8
  %74 = srem i32 %71, %73
  store i32 %74, i32* %69, align 8
  %75 = getelementptr inbounds %class.RunBasedAdditiveBlitter, %class.RunBasedAdditiveBlitter* %0, i64 0, i32 8
  %76 = load i8*, i8** %75, align 8
  %77 = sext i32 %74 to i64
  %78 = mul nsw i64 %68, %77
  %79 = getelementptr inbounds i8, i8* %76, i64 %78
  %80 = bitcast i8* %79 to i16*
  %81 = bitcast %class.SkAlphaRuns* %13 to i8**
  store i8* %79, i8** %81, align 8
  %82 = sext i32 %62 to i64
  %83 = getelementptr inbounds i16, i16* %80, i64 %82
  %84 = getelementptr inbounds i16, i16* %83, i64 1
  %85 = bitcast i8** %18 to i16**
  store i16* %84, i16** %85, align 8
  tail call void @_ZN11SkAlphaRuns5resetEi(%class.SkAlphaRuns* nonnull %13, i32 %62) #12
  %86 = getelementptr inbounds %class.RunBasedAdditiveBlitter, %class.RunBasedAdditiveBlitter* %0, i64 0, i32 12
  store i32 0, i32* %86, align 8
  br label %87

; <label>:87:                                     ; preds = %51, %25
  %88 = load i32, i32* %9, align 4
  %89 = add nsw i32 %88, -1
  store i32 %89, i32* %5, align 8
  br label %90

; <label>:90:                                     ; preds = %8, %87
  store i32 %2, i32* %5, align 8
  br label %91

; <label>:91:                                     ; preds = %4, %90
  %92 = getelementptr inbounds %class.RunBasedAdditiveBlitter, %class.RunBasedAdditiveBlitter* %0, i64 0, i32 4
  %93 = load i32, i32* %92, align 8
  %94 = sub nsw i32 %1, %93
  %95 = getelementptr inbounds %class.RunBasedAdditiveBlitter, %class.RunBasedAdditiveBlitter* %0, i64 0, i32 12
  %96 = load i32, i32* %95, align 8
  %97 = icmp slt i32 %94, %96
  br i1 %97, label %98, label %99

; <label>:98:                                     ; preds = %91
  store i32 0, i32* %95, align 8
  br label %99

; <label>:99:                                     ; preds = %98, %91
  %100 = phi i32 [ 0, %98 ], [ %96, %91 ]
  %101 = icmp sgt i32 %94, -1
  br i1 %101, label %102, label %195

; <label>:102:                                    ; preds = %99
  %103 = getelementptr inbounds %class.RunBasedAdditiveBlitter, %class.RunBasedAdditiveBlitter* %0, i64 0, i32 3
  %104 = load i32, i32* %103, align 4
  %105 = icmp slt i32 %94, %104
  br i1 %105, label %106, label %195

; <label>:106:                                    ; preds = %102
  %107 = zext i8 %3 to i32
  %108 = getelementptr inbounds %class.RunBasedAdditiveBlitter, %class.RunBasedAdditiveBlitter* %0, i64 0, i32 11, i32 0
  %109 = load i16*, i16** %108, align 8
  %110 = sext i32 %100 to i64
  %111 = getelementptr inbounds i16, i16* %109, i64 %110
  %112 = getelementptr inbounds %class.RunBasedAdditiveBlitter, %class.RunBasedAdditiveBlitter* %0, i64 0, i32 11, i32 1
  %113 = load i8*, i8** %112, align 8
  %114 = getelementptr inbounds i8, i8* %113, i64 %110
  %115 = sub nsw i32 %94, %100
  %116 = sext i32 %115 to i64
  %117 = getelementptr inbounds i16, i16* %111, i64 %116
  %118 = getelementptr inbounds i8, i8* %114, i64 %116
  %119 = icmp sgt i32 %115, 0
  br i1 %119, label %120, label %140

; <label>:120:                                    ; preds = %106, %134
  %121 = phi i32 [ %138, %134 ], [ %115, %106 ]
  %122 = phi i8* [ %137, %134 ], [ %114, %106 ]
  %123 = phi i16* [ %136, %134 ], [ %111, %106 ]
  %124 = load i16, i16* %123, align 2
  %125 = sext i16 %124 to i32
  %126 = icmp slt i32 %121, %125
  br i1 %126, label %127, label %134

; <label>:127:                                    ; preds = %120
  %128 = load i8, i8* %122, align 1
  %129 = sext i32 %121 to i64
  %130 = getelementptr inbounds i8, i8* %122, i64 %129
  store i8 %128, i8* %130, align 1
  %131 = trunc i32 %121 to i16
  store i16 %131, i16* %123, align 2
  %132 = sub i16 %124, %131
  %133 = getelementptr inbounds i16, i16* %123, i64 %129
  store i16 %132, i16* %133, align 2
  br label %140

; <label>:134:                                    ; preds = %120
  %135 = sext i16 %124 to i64
  %136 = getelementptr inbounds i16, i16* %123, i64 %135
  %137 = getelementptr inbounds i8, i8* %122, i64 %135
  %138 = sub nsw i32 %121, %125
  %139 = icmp sgt i32 %138, 0
  br i1 %139, label %120, label %140

; <label>:140:                                    ; preds = %134, %127, %106
  %141 = load i16, i16* %117, align 2
  %142 = icmp sgt i16 %141, 1
  br i1 %142, label %145, label %143

; <label>:143:                                    ; preds = %140
  %144 = sext i16 %141 to i32
  br label %157

; <label>:145:                                    ; preds = %165, %140
  %146 = phi i32 [ 1, %140 ], [ %163, %165 ]
  %147 = phi i8* [ %118, %140 ], [ %168, %165 ]
  %148 = phi i16* [ %117, %140 ], [ %167, %165 ]
  %149 = phi i16 [ %141, %140 ], [ %169, %165 ]
  %150 = load i8, i8* %147, align 1
  %151 = sext i32 %146 to i64
  %152 = getelementptr inbounds i8, i8* %147, i64 %151
  store i8 %150, i8* %152, align 1
  %153 = trunc i32 %146 to i16
  store i16 %153, i16* %148, align 2
  %154 = sub i16 %149, %153
  %155 = getelementptr inbounds i16, i16* %148, i64 %151
  store i16 %154, i16* %155, align 2
  br label %156

; <label>:156:                                    ; preds = %157, %145
  br label %172

; <label>:157:                                    ; preds = %143, %165
  %158 = phi i32 [ %170, %165 ], [ %144, %143 ]
  %159 = phi i16 [ %169, %165 ], [ %141, %143 ]
  %160 = phi i16* [ %167, %165 ], [ %117, %143 ]
  %161 = phi i8* [ %168, %165 ], [ %118, %143 ]
  %162 = phi i32 [ %163, %165 ], [ 1, %143 ]
  %163 = sub nsw i32 %162, %158
  %164 = icmp slt i32 %163, 1
  br i1 %164, label %156, label %165

; <label>:165:                                    ; preds = %157
  %166 = sext i16 %159 to i64
  %167 = getelementptr inbounds i16, i16* %160, i64 %166
  %168 = getelementptr inbounds i8, i8* %161, i64 %166
  %169 = load i16, i16* %167, align 2
  %170 = sext i16 %169 to i32
  %171 = icmp slt i32 %163, %170
  br i1 %171, label %145, label %157

; <label>:172:                                    ; preds = %156, %172
  %173 = phi i16* [ %186, %172 ], [ %117, %156 ]
  %174 = phi i8* [ %185, %172 ], [ %118, %156 ]
  %175 = phi i32 [ %187, %172 ], [ 1, %156 ]
  %176 = load i8, i8* %174, align 1
  %177 = zext i8 %176 to i32
  %178 = add nuw nsw i32 %177, %107
  %179 = lshr i32 %178, 8
  %180 = sub nsw i32 %178, %179
  %181 = trunc i32 %180 to i8
  store i8 %181, i8* %174, align 1
  %182 = load i16, i16* %173, align 2
  %183 = sext i16 %182 to i32
  %184 = sext i16 %182 to i64
  %185 = getelementptr inbounds i8, i8* %174, i64 %184
  %186 = getelementptr inbounds i16, i16* %173, i64 %184
  %187 = sub nsw i32 %175, %183
  %188 = icmp sgt i32 %187, 0
  br i1 %188, label %172, label %189

; <label>:189:                                    ; preds = %172
  %190 = bitcast i8** %112 to i64*
  %191 = load i64, i64* %190, align 8
  %192 = ptrtoint i8* %185 to i64
  %193 = sub i64 %192, %191
  %194 = trunc i64 %193 to i32
  store i32 %194, i32* %95, align 8
  br label %195

; <label>:195:                                    ; preds = %99, %189, %102
  ret void
}

; Function Attrs: nounwind ssp uwtable
define hidden void @_ZN23RunBasedAdditiveBlitter9blitAntiHEiiih(%class.RunBasedAdditiveBlitter*, i32, i32, i32, i8 zeroext) unnamed_addr #0 align 2 {
  %6 = getelementptr inbounds %class.RunBasedAdditiveBlitter, %class.RunBasedAdditiveBlitter* %0, i64 0, i32 2
  %7 = load i32, i32* %6, align 8
  %8 = icmp eq i32 %7, %2
  br i1 %8, label %92, label %9

; <label>:9:                                      ; preds = %5
  %10 = getelementptr inbounds %class.RunBasedAdditiveBlitter, %class.RunBasedAdditiveBlitter* %0, i64 0, i32 5
  %11 = load i32, i32* %10, align 4
  %12 = icmp slt i32 %7, %11
  br i1 %12, label %91, label %13

; <label>:13:                                     ; preds = %9
  %14 = getelementptr inbounds %class.RunBasedAdditiveBlitter, %class.RunBasedAdditiveBlitter* %0, i64 0, i32 11
  %15 = getelementptr inbounds %class.SkAlphaRuns, %class.SkAlphaRuns* %14, i64 0, i32 0
  %16 = load i16*, i16** %15, align 8
  %17 = load i16, i16* %16, align 2
  %18 = icmp eq i16 %17, 0
  %19 = getelementptr inbounds %class.RunBasedAdditiveBlitter, %class.RunBasedAdditiveBlitter* %0, i64 0, i32 11, i32 1
  %20 = load i8*, i8** %19, align 8
  br i1 %18, label %21, label %32

; <label>:21:                                     ; preds = %32, %13
  %22 = phi i16* [ %16, %13 ], [ %42, %32 ]
  %23 = phi i8* [ %20, %13 ], [ %51, %32 ]
  %24 = load i8, i8* %23, align 1
  %25 = icmp eq i8 %24, 0
  br i1 %25, label %26, label %52

; <label>:26:                                     ; preds = %21
  %27 = load i16, i16* %22, align 2
  %28 = sext i16 %27 to i64
  %29 = getelementptr inbounds i16, i16* %22, i64 %28
  %30 = load i16, i16* %29, align 2
  %31 = icmp eq i16 %30, 0
  br i1 %31, label %88, label %52

; <label>:32:                                     ; preds = %13, %32
  %33 = phi i8* [ %51, %32 ], [ %20, %13 ]
  %34 = phi i64 [ %47, %32 ], [ 0, %13 ]
  %35 = phi i32 [ %46, %32 ], [ 0, %13 ]
  %36 = getelementptr inbounds i8, i8* %33, i64 %34
  %37 = load i8, i8* %36, align 1
  %38 = icmp ugt i8 %37, -9
  %39 = icmp ult i8 %37, 8
  %40 = select i1 %39, i8 0, i8 %37
  %41 = select i1 %38, i8 -1, i8 %40
  store i8 %41, i8* %36, align 1
  %42 = load i16*, i16** %15, align 8
  %43 = getelementptr inbounds i16, i16* %42, i64 %34
  %44 = load i16, i16* %43, align 2
  %45 = sext i16 %44 to i32
  %46 = add nsw i32 %35, %45
  %47 = sext i32 %46 to i64
  %48 = getelementptr inbounds i16, i16* %42, i64 %47
  %49 = load i16, i16* %48, align 2
  %50 = icmp eq i16 %49, 0
  %51 = load i8*, i8** %19, align 8
  br i1 %50, label %21, label %32

; <label>:52:                                     ; preds = %26, %21
  %53 = getelementptr inbounds %class.RunBasedAdditiveBlitter, %class.RunBasedAdditiveBlitter* %0, i64 0, i32 1
  %54 = load %class.SkBlitter*, %class.SkBlitter** %53, align 8
  %55 = getelementptr inbounds %class.RunBasedAdditiveBlitter, %class.RunBasedAdditiveBlitter* %0, i64 0, i32 4
  %56 = load i32, i32* %55, align 8
  %57 = load i32, i32* %6, align 8
  %58 = bitcast %class.SkBlitter* %54 to void (%class.SkBlitter*, i32, i32, i8*, i16*)***
  %59 = load void (%class.SkBlitter*, i32, i32, i8*, i16*)**, void (%class.SkBlitter*, i32, i32, i8*, i16*)*** %58, align 8
  %60 = getelementptr inbounds void (%class.SkBlitter*, i32, i32, i8*, i16*)*, void (%class.SkBlitter*, i32, i32, i8*, i16*)** %59, i64 4
  %61 = load void (%class.SkBlitter*, i32, i32, i8*, i16*)*, void (%class.SkBlitter*, i32, i32, i8*, i16*)** %60, align 8
  tail call void %61(%class.SkBlitter* %54, i32 %56, i32 %57, i8* %23, i16* %22) #12
  %62 = getelementptr inbounds %class.RunBasedAdditiveBlitter, %class.RunBasedAdditiveBlitter* %0, i64 0, i32 3
  %63 = load i32, i32* %62, align 4
  %64 = add nsw i32 %63, 1
  %65 = add nsw i32 %63, 2
  %66 = sdiv i32 %65, 2
  %67 = add nsw i32 %64, %66
  %68 = shl i32 %67, 1
  %69 = sext i32 %68 to i64
  %70 = getelementptr inbounds %class.RunBasedAdditiveBlitter, %class.RunBasedAdditiveBlitter* %0, i64 0, i32 9
  %71 = load i32, i32* %70, align 8
  %72 = add nsw i32 %71, 1
  %73 = getelementptr inbounds %class.RunBasedAdditiveBlitter, %class.RunBasedAdditiveBlitter* %0, i64 0, i32 6
  %74 = load i32, i32* %73, align 8
  %75 = srem i32 %72, %74
  store i32 %75, i32* %70, align 8
  %76 = getelementptr inbounds %class.RunBasedAdditiveBlitter, %class.RunBasedAdditiveBlitter* %0, i64 0, i32 8
  %77 = load i8*, i8** %76, align 8
  %78 = sext i32 %75 to i64
  %79 = mul nsw i64 %69, %78
  %80 = getelementptr inbounds i8, i8* %77, i64 %79
  %81 = bitcast i8* %80 to i16*
  %82 = bitcast %class.SkAlphaRuns* %14 to i8**
  store i8* %80, i8** %82, align 8
  %83 = sext i32 %63 to i64
  %84 = getelementptr inbounds i16, i16* %81, i64 %83
  %85 = getelementptr inbounds i16, i16* %84, i64 1
  %86 = bitcast i8** %19 to i16**
  store i16* %85, i16** %86, align 8
  tail call void @_ZN11SkAlphaRuns5resetEi(%class.SkAlphaRuns* nonnull %14, i32 %63) #12
  %87 = getelementptr inbounds %class.RunBasedAdditiveBlitter, %class.RunBasedAdditiveBlitter* %0, i64 0, i32 12
  store i32 0, i32* %87, align 8
  br label %88

; <label>:88:                                     ; preds = %52, %26
  %89 = load i32, i32* %10, align 4
  %90 = add nsw i32 %89, -1
  store i32 %90, i32* %6, align 8
  br label %91

; <label>:91:                                     ; preds = %9, %88
  store i32 %2, i32* %6, align 8
  br label %92

; <label>:92:                                     ; preds = %5, %91
  %93 = getelementptr inbounds %class.RunBasedAdditiveBlitter, %class.RunBasedAdditiveBlitter* %0, i64 0, i32 4
  %94 = load i32, i32* %93, align 8
  %95 = sub nsw i32 %1, %94
  %96 = getelementptr inbounds %class.RunBasedAdditiveBlitter, %class.RunBasedAdditiveBlitter* %0, i64 0, i32 12
  %97 = load i32, i32* %96, align 8
  %98 = icmp slt i32 %95, %97
  br i1 %98, label %99, label %100

; <label>:99:                                     ; preds = %92
  store i32 0, i32* %96, align 8
  br label %100

; <label>:100:                                    ; preds = %99, %92
  %101 = phi i32 [ 0, %99 ], [ %97, %92 ]
  %102 = icmp sgt i32 %95, -1
  br i1 %102, label %103, label %203

; <label>:103:                                    ; preds = %100
  %104 = add nsw i32 %95, %3
  %105 = getelementptr inbounds %class.RunBasedAdditiveBlitter, %class.RunBasedAdditiveBlitter* %0, i64 0, i32 3
  %106 = load i32, i32* %105, align 4
  %107 = icmp sgt i32 %104, %106
  br i1 %107, label %203, label %108

; <label>:108:                                    ; preds = %103
  %109 = zext i8 %4 to i32
  %110 = getelementptr inbounds %class.RunBasedAdditiveBlitter, %class.RunBasedAdditiveBlitter* %0, i64 0, i32 11, i32 0
  %111 = load i16*, i16** %110, align 8
  %112 = sext i32 %101 to i64
  %113 = getelementptr inbounds i16, i16* %111, i64 %112
  %114 = getelementptr inbounds %class.RunBasedAdditiveBlitter, %class.RunBasedAdditiveBlitter* %0, i64 0, i32 11, i32 1
  %115 = load i8*, i8** %114, align 8
  %116 = getelementptr inbounds i8, i8* %115, i64 %112
  %117 = sub nsw i32 %95, %101
  %118 = icmp eq i32 %3, 0
  br i1 %118, label %119, label %121

; <label>:119:                                    ; preds = %108
  %120 = ptrtoint i8* %115 to i64
  br label %197

; <label>:121:                                    ; preds = %108
  %122 = sext i32 %117 to i64
  %123 = getelementptr inbounds i16, i16* %113, i64 %122
  %124 = getelementptr inbounds i8, i8* %116, i64 %122
  %125 = icmp sgt i32 %117, 0
  br i1 %125, label %126, label %146

; <label>:126:                                    ; preds = %121, %140
  %127 = phi i32 [ %144, %140 ], [ %117, %121 ]
  %128 = phi i8* [ %143, %140 ], [ %116, %121 ]
  %129 = phi i16* [ %142, %140 ], [ %113, %121 ]
  %130 = load i16, i16* %129, align 2
  %131 = sext i16 %130 to i32
  %132 = icmp slt i32 %127, %131
  br i1 %132, label %133, label %140

; <label>:133:                                    ; preds = %126
  %134 = load i8, i8* %128, align 1
  %135 = sext i32 %127 to i64
  %136 = getelementptr inbounds i8, i8* %128, i64 %135
  store i8 %134, i8* %136, align 1
  %137 = trunc i32 %127 to i16
  store i16 %137, i16* %129, align 2
  %138 = sub i16 %130, %137
  %139 = getelementptr inbounds i16, i16* %129, i64 %135
  store i16 %138, i16* %139, align 2
  br label %146

; <label>:140:                                    ; preds = %126
  %141 = sext i16 %130 to i64
  %142 = getelementptr inbounds i16, i16* %129, i64 %141
  %143 = getelementptr inbounds i8, i8* %128, i64 %141
  %144 = sub nsw i32 %127, %131
  %145 = icmp sgt i32 %144, 0
  br i1 %145, label %126, label %146

; <label>:146:                                    ; preds = %140, %133, %121
  %147 = load i16, i16* %123, align 2
  %148 = sext i16 %147 to i32
  %149 = icmp sgt i32 %148, %3
  br i1 %149, label %150, label %162

; <label>:150:                                    ; preds = %170, %146
  %151 = phi i32 [ %3, %146 ], [ %168, %170 ]
  %152 = phi i8* [ %124, %146 ], [ %173, %170 ]
  %153 = phi i16* [ %123, %146 ], [ %172, %170 ]
  %154 = phi i16 [ %147, %146 ], [ %174, %170 ]
  %155 = load i8, i8* %152, align 1
  %156 = sext i32 %151 to i64
  %157 = getelementptr inbounds i8, i8* %152, i64 %156
  store i8 %155, i8* %157, align 1
  %158 = trunc i32 %151 to i16
  store i16 %158, i16* %153, align 2
  %159 = sub i16 %154, %158
  %160 = getelementptr inbounds i16, i16* %153, i64 %156
  store i16 %159, i16* %160, align 2
  br label %161

; <label>:161:                                    ; preds = %162, %150
  br label %177

; <label>:162:                                    ; preds = %146, %170
  %163 = phi i32 [ %175, %170 ], [ %148, %146 ]
  %164 = phi i16 [ %174, %170 ], [ %147, %146 ]
  %165 = phi i16* [ %172, %170 ], [ %123, %146 ]
  %166 = phi i8* [ %173, %170 ], [ %124, %146 ]
  %167 = phi i32 [ %168, %170 ], [ %3, %146 ]
  %168 = sub nsw i32 %167, %163
  %169 = icmp slt i32 %168, 1
  br i1 %169, label %161, label %170

; <label>:170:                                    ; preds = %162
  %171 = sext i16 %164 to i64
  %172 = getelementptr inbounds i16, i16* %165, i64 %171
  %173 = getelementptr inbounds i8, i8* %166, i64 %171
  %174 = load i16, i16* %172, align 2
  %175 = sext i16 %174 to i32
  %176 = icmp slt i32 %168, %175
  br i1 %176, label %150, label %162

; <label>:177:                                    ; preds = %161, %177
  %178 = phi i16* [ %191, %177 ], [ %123, %161 ]
  %179 = phi i8* [ %190, %177 ], [ %124, %161 ]
  %180 = phi i32 [ %192, %177 ], [ %3, %161 ]
  %181 = load i8, i8* %179, align 1
  %182 = zext i8 %181 to i32
  %183 = add nuw nsw i32 %182, %109
  %184 = lshr i32 %183, 8
  %185 = sub nsw i32 %183, %184
  %186 = trunc i32 %185 to i8
  store i8 %186, i8* %179, align 1
  %187 = load i16, i16* %178, align 2
  %188 = sext i16 %187 to i32
  %189 = sext i16 %187 to i64
  %190 = getelementptr inbounds i8, i8* %179, i64 %189
  %191 = getelementptr inbounds i16, i16* %178, i64 %189
  %192 = sub nsw i32 %180, %188
  %193 = icmp sgt i32 %192, 0
  br i1 %193, label %177, label %194

; <label>:194:                                    ; preds = %177
  %195 = bitcast i8** %114 to i64*
  %196 = load i64, i64* %195, align 8
  br label %197

; <label>:197:                                    ; preds = %119, %194
  %198 = phi i64 [ %120, %119 ], [ %196, %194 ]
  %199 = phi i8* [ %116, %119 ], [ %190, %194 ]
  %200 = ptrtoint i8* %199 to i64
  %201 = sub i64 %200, %198
  %202 = trunc i64 %201 to i32
  store i32 %202, i32* %96, align 8
  br label %203

; <label>:203:                                    ; preds = %103, %100, %197
  ret void
}

; Function Attrs: norecurse nounwind readonly ssp uwtable
define hidden i32 @_ZN23RunBasedAdditiveBlitter8getWidthEv(%class.RunBasedAdditiveBlitter* nocapture readonly) unnamed_addr #5 align 2 {
  %2 = getelementptr inbounds %class.RunBasedAdditiveBlitter, %class.RunBasedAdditiveBlitter* %0, i64 0, i32 3
  %3 = load i32, i32* %2, align 4
  ret i32 %3
}

; Function Attrs: nounwind ssp uwtable
define hidden void @_ZN22SafeRLEAdditiveBlitter9blitAntiHEiiPKhi(%class.SafeRLEAdditiveBlitter*, i32, i32, i8* nocapture readonly, i32) unnamed_addr #0 align 2 {
  %6 = getelementptr inbounds %class.SafeRLEAdditiveBlitter, %class.SafeRLEAdditiveBlitter* %0, i64 0, i32 0, i32 2
  %7 = load i32, i32* %6, align 8
  %8 = icmp eq i32 %7, %2
  br i1 %8, label %92, label %9

; <label>:9:                                      ; preds = %5
  %10 = getelementptr inbounds %class.SafeRLEAdditiveBlitter, %class.SafeRLEAdditiveBlitter* %0, i64 0, i32 0, i32 5
  %11 = load i32, i32* %10, align 4
  %12 = icmp slt i32 %7, %11
  br i1 %12, label %91, label %13

; <label>:13:                                     ; preds = %9
  %14 = getelementptr inbounds %class.SafeRLEAdditiveBlitter, %class.SafeRLEAdditiveBlitter* %0, i64 0, i32 0, i32 11
  %15 = getelementptr inbounds %class.SkAlphaRuns, %class.SkAlphaRuns* %14, i64 0, i32 0
  %16 = load i16*, i16** %15, align 8
  %17 = load i16, i16* %16, align 2
  %18 = icmp eq i16 %17, 0
  %19 = getelementptr inbounds %class.SafeRLEAdditiveBlitter, %class.SafeRLEAdditiveBlitter* %0, i64 0, i32 0, i32 11, i32 1
  %20 = load i8*, i8** %19, align 8
  br i1 %18, label %21, label %32

; <label>:21:                                     ; preds = %32, %13
  %22 = phi i16* [ %16, %13 ], [ %42, %32 ]
  %23 = phi i8* [ %20, %13 ], [ %51, %32 ]
  %24 = load i8, i8* %23, align 1
  %25 = icmp eq i8 %24, 0
  br i1 %25, label %26, label %52

; <label>:26:                                     ; preds = %21
  %27 = load i16, i16* %22, align 2
  %28 = sext i16 %27 to i64
  %29 = getelementptr inbounds i16, i16* %22, i64 %28
  %30 = load i16, i16* %29, align 2
  %31 = icmp eq i16 %30, 0
  br i1 %31, label %88, label %52

; <label>:32:                                     ; preds = %13, %32
  %33 = phi i8* [ %51, %32 ], [ %20, %13 ]
  %34 = phi i64 [ %47, %32 ], [ 0, %13 ]
  %35 = phi i32 [ %46, %32 ], [ 0, %13 ]
  %36 = getelementptr inbounds i8, i8* %33, i64 %34
  %37 = load i8, i8* %36, align 1
  %38 = icmp ugt i8 %37, -9
  %39 = icmp ult i8 %37, 8
  %40 = select i1 %39, i8 0, i8 %37
  %41 = select i1 %38, i8 -1, i8 %40
  store i8 %41, i8* %36, align 1
  %42 = load i16*, i16** %15, align 8
  %43 = getelementptr inbounds i16, i16* %42, i64 %34
  %44 = load i16, i16* %43, align 2
  %45 = sext i16 %44 to i32
  %46 = add nsw i32 %35, %45
  %47 = sext i32 %46 to i64
  %48 = getelementptr inbounds i16, i16* %42, i64 %47
  %49 = load i16, i16* %48, align 2
  %50 = icmp eq i16 %49, 0
  %51 = load i8*, i8** %19, align 8
  br i1 %50, label %21, label %32

; <label>:52:                                     ; preds = %26, %21
  %53 = getelementptr inbounds %class.SafeRLEAdditiveBlitter, %class.SafeRLEAdditiveBlitter* %0, i64 0, i32 0, i32 1
  %54 = load %class.SkBlitter*, %class.SkBlitter** %53, align 8
  %55 = getelementptr inbounds %class.SafeRLEAdditiveBlitter, %class.SafeRLEAdditiveBlitter* %0, i64 0, i32 0, i32 4
  %56 = load i32, i32* %55, align 8
  %57 = load i32, i32* %6, align 8
  %58 = bitcast %class.SkBlitter* %54 to void (%class.SkBlitter*, i32, i32, i8*, i16*)***
  %59 = load void (%class.SkBlitter*, i32, i32, i8*, i16*)**, void (%class.SkBlitter*, i32, i32, i8*, i16*)*** %58, align 8
  %60 = getelementptr inbounds void (%class.SkBlitter*, i32, i32, i8*, i16*)*, void (%class.SkBlitter*, i32, i32, i8*, i16*)** %59, i64 4
  %61 = load void (%class.SkBlitter*, i32, i32, i8*, i16*)*, void (%class.SkBlitter*, i32, i32, i8*, i16*)** %60, align 8
  tail call void %61(%class.SkBlitter* %54, i32 %56, i32 %57, i8* %23, i16* %22) #12
  %62 = getelementptr inbounds %class.SafeRLEAdditiveBlitter, %class.SafeRLEAdditiveBlitter* %0, i64 0, i32 0, i32 3
  %63 = load i32, i32* %62, align 4
  %64 = add nsw i32 %63, 1
  %65 = add nsw i32 %63, 2
  %66 = sdiv i32 %65, 2
  %67 = add nsw i32 %64, %66
  %68 = shl i32 %67, 1
  %69 = sext i32 %68 to i64
  %70 = getelementptr inbounds %class.SafeRLEAdditiveBlitter, %class.SafeRLEAdditiveBlitter* %0, i64 0, i32 0, i32 9
  %71 = load i32, i32* %70, align 8
  %72 = add nsw i32 %71, 1
  %73 = getelementptr inbounds %class.SafeRLEAdditiveBlitter, %class.SafeRLEAdditiveBlitter* %0, i64 0, i32 0, i32 6
  %74 = load i32, i32* %73, align 8
  %75 = srem i32 %72, %74
  store i32 %75, i32* %70, align 8
  %76 = getelementptr inbounds %class.SafeRLEAdditiveBlitter, %class.SafeRLEAdditiveBlitter* %0, i64 0, i32 0, i32 8
  %77 = load i8*, i8** %76, align 8
  %78 = sext i32 %75 to i64
  %79 = mul nsw i64 %69, %78
  %80 = getelementptr inbounds i8, i8* %77, i64 %79
  %81 = bitcast i8* %80 to i16*
  %82 = bitcast %class.SkAlphaRuns* %14 to i8**
  store i8* %80, i8** %82, align 8
  %83 = sext i32 %63 to i64
  %84 = getelementptr inbounds i16, i16* %81, i64 %83
  %85 = getelementptr inbounds i16, i16* %84, i64 1
  %86 = bitcast i8** %19 to i16**
  store i16* %85, i16** %86, align 8
  tail call void @_ZN11SkAlphaRuns5resetEi(%class.SkAlphaRuns* nonnull %14, i32 %63) #12
  %87 = getelementptr inbounds %class.SafeRLEAdditiveBlitter, %class.SafeRLEAdditiveBlitter* %0, i64 0, i32 0, i32 12
  store i32 0, i32* %87, align 8
  br label %88

; <label>:88:                                     ; preds = %52, %26
  %89 = load i32, i32* %10, align 4
  %90 = add nsw i32 %89, -1
  store i32 %90, i32* %6, align 8
  br label %91

; <label>:91:                                     ; preds = %9, %88
  store i32 %2, i32* %6, align 8
  br label %92

; <label>:92:                                     ; preds = %5, %91
  %93 = getelementptr inbounds %class.SafeRLEAdditiveBlitter, %class.SafeRLEAdditiveBlitter* %0, i64 0, i32 0, i32 4
  %94 = load i32, i32* %93, align 8
  %95 = sub nsw i32 %1, %94
  %96 = icmp slt i32 %95, 0
  br i1 %96, label %97, label %102

; <label>:97:                                     ; preds = %92
  %98 = add nsw i32 %95, %4
  %99 = sext i32 %95 to i64
  %100 = sub nsw i64 0, %99
  %101 = getelementptr inbounds i8, i8* %3, i64 %100
  br label %102

; <label>:102:                                    ; preds = %97, %92
  %103 = phi i32 [ %98, %97 ], [ %4, %92 ]
  %104 = phi i32 [ 0, %97 ], [ %95, %92 ]
  %105 = phi i8* [ %101, %97 ], [ %3, %92 ]
  %106 = getelementptr inbounds %class.SafeRLEAdditiveBlitter, %class.SafeRLEAdditiveBlitter* %0, i64 0, i32 0, i32 3
  %107 = load i32, i32* %106, align 4
  %108 = sub nsw i32 %107, %104
  %109 = icmp slt i32 %103, %108
  %110 = select i1 %109, i32 %103, i32 %108
  %111 = getelementptr inbounds %class.SafeRLEAdditiveBlitter, %class.SafeRLEAdditiveBlitter* %0, i64 0, i32 0, i32 12
  %112 = load i32, i32* %111, align 8
  %113 = icmp slt i32 %104, %112
  br i1 %113, label %114, label %115

; <label>:114:                                    ; preds = %102
  store i32 0, i32* %111, align 8
  br label %115

; <label>:115:                                    ; preds = %114, %102
  %116 = phi i32 [ 0, %114 ], [ %112, %102 ]
  %117 = getelementptr inbounds %class.SafeRLEAdditiveBlitter, %class.SafeRLEAdditiveBlitter* %0, i64 0, i32 0, i32 11, i32 0
  %118 = load i16*, i16** %117, align 8
  %119 = sext i32 %116 to i64
  %120 = getelementptr inbounds i16, i16* %118, i64 %119
  %121 = getelementptr inbounds %class.SafeRLEAdditiveBlitter, %class.SafeRLEAdditiveBlitter* %0, i64 0, i32 0, i32 11, i32 1
  %122 = load i8*, i8** %121, align 8
  %123 = getelementptr inbounds i8, i8* %122, i64 %119
  %124 = sub nsw i32 %104, %116
  %125 = icmp eq i32 %110, 0
  br i1 %125, label %126, label %127

; <label>:126:                                    ; preds = %115
  store i32 %116, i32* %111, align 8
  br label %260

; <label>:127:                                    ; preds = %115
  %128 = sext i32 %124 to i64
  %129 = getelementptr inbounds i16, i16* %120, i64 %128
  %130 = getelementptr inbounds i8, i8* %123, i64 %128
  %131 = icmp sgt i32 %124, 0
  br i1 %131, label %132, label %152

; <label>:132:                                    ; preds = %127, %146
  %133 = phi i32 [ %150, %146 ], [ %124, %127 ]
  %134 = phi i8* [ %149, %146 ], [ %123, %127 ]
  %135 = phi i16* [ %148, %146 ], [ %120, %127 ]
  %136 = load i16, i16* %135, align 2
  %137 = sext i16 %136 to i32
  %138 = icmp slt i32 %133, %137
  br i1 %138, label %139, label %146

; <label>:139:                                    ; preds = %132
  %140 = load i8, i8* %134, align 1
  %141 = sext i32 %133 to i64
  %142 = getelementptr inbounds i8, i8* %134, i64 %141
  store i8 %140, i8* %142, align 1
  %143 = trunc i32 %133 to i16
  store i16 %143, i16* %135, align 2
  %144 = sub i16 %136, %143
  %145 = getelementptr inbounds i16, i16* %135, i64 %141
  store i16 %144, i16* %145, align 2
  br label %152

; <label>:146:                                    ; preds = %132
  %147 = sext i16 %136 to i64
  %148 = getelementptr inbounds i16, i16* %135, i64 %147
  %149 = getelementptr inbounds i8, i8* %134, i64 %147
  %150 = sub nsw i32 %133, %137
  %151 = icmp sgt i32 %150, 0
  br i1 %151, label %132, label %152

; <label>:152:                                    ; preds = %146, %139, %127
  %153 = load i16, i16* %129, align 2
  %154 = sext i16 %153 to i32
  %155 = icmp slt i32 %110, %154
  br i1 %155, label %156, label %168

; <label>:156:                                    ; preds = %176, %152
  %157 = phi i32 [ %110, %152 ], [ %174, %176 ]
  %158 = phi i8* [ %130, %152 ], [ %179, %176 ]
  %159 = phi i16* [ %129, %152 ], [ %178, %176 ]
  %160 = phi i16 [ %153, %152 ], [ %180, %176 ]
  %161 = load i8, i8* %158, align 1
  %162 = sext i32 %157 to i64
  %163 = getelementptr inbounds i8, i8* %158, i64 %162
  store i8 %161, i8* %163, align 1
  %164 = trunc i32 %157 to i16
  store i16 %164, i16* %159, align 2
  %165 = sub i16 %160, %164
  %166 = getelementptr inbounds i16, i16* %159, i64 %162
  store i16 %165, i16* %166, align 2
  br label %167

; <label>:167:                                    ; preds = %168, %156
  br label %183

; <label>:168:                                    ; preds = %152, %176
  %169 = phi i32 [ %181, %176 ], [ %154, %152 ]
  %170 = phi i16 [ %180, %176 ], [ %153, %152 ]
  %171 = phi i16* [ %178, %176 ], [ %129, %152 ]
  %172 = phi i8* [ %179, %176 ], [ %130, %152 ]
  %173 = phi i32 [ %174, %176 ], [ %110, %152 ]
  %174 = sub nsw i32 %173, %169
  %175 = icmp slt i32 %174, 1
  br i1 %175, label %167, label %176

; <label>:176:                                    ; preds = %168
  %177 = sext i16 %170 to i64
  %178 = getelementptr inbounds i16, i16* %171, i64 %177
  %179 = getelementptr inbounds i8, i8* %172, i64 %177
  %180 = load i16, i16* %178, align 2
  %181 = sext i16 %180 to i32
  %182 = icmp slt i32 %174, %181
  br i1 %182, label %156, label %168

; <label>:183:                                    ; preds = %167, %183
  %184 = phi i16* [ %191, %183 ], [ %129, %167 ]
  %185 = phi i8* [ %190, %183 ], [ %130, %167 ]
  %186 = phi i32 [ %192, %183 ], [ %110, %167 ]
  %187 = load i16, i16* %184, align 2
  %188 = sext i16 %187 to i32
  %189 = sext i16 %187 to i64
  %190 = getelementptr inbounds i8, i8* %185, i64 %189
  %191 = getelementptr inbounds i16, i16* %184, i64 %189
  %192 = sub nsw i32 %186, %188
  %193 = icmp sgt i32 %192, 0
  br i1 %193, label %183, label %194

; <label>:194:                                    ; preds = %183
  %195 = bitcast i8** %121 to i64*
  %196 = load i64, i64* %195, align 8
  %197 = ptrtoint i8* %190 to i64
  %198 = sub i64 %197, %196
  %199 = trunc i64 %198 to i32
  store i32 %199, i32* %111, align 8
  %200 = icmp sgt i32 %110, 0
  br i1 %200, label %201, label %260

; <label>:201:                                    ; preds = %194
  %202 = load i16*, i16** %117, align 8
  br label %203

; <label>:203:                                    ; preds = %201, %221
  %204 = phi i16* [ %202, %201 ], [ %223, %221 ]
  %205 = phi i32 [ 0, %201 ], [ %227, %221 ]
  %206 = add nsw i32 %205, %104
  %207 = sext i32 %206 to i64
  %208 = getelementptr inbounds i16, i16* %204, i64 %207
  %209 = load i16, i16* %208, align 2
  %210 = icmp sgt i16 %209, 1
  br i1 %210, label %229, label %221

; <label>:211:                                    ; preds = %221
  br i1 %200, label %212, label %260

; <label>:212:                                    ; preds = %211
  %213 = sext i32 %104 to i64
  %214 = sext i32 %110 to i64
  %215 = and i64 %214, 1
  %216 = icmp eq i32 %110, 1
  br i1 %216, label %244, label %217

; <label>:217:                                    ; preds = %212
  %218 = sub nsw i64 %214, %215
  br label %261

; <label>:219:                                    ; preds = %229
  %220 = getelementptr inbounds i16, i16* %239, i64 %207
  br label %221

; <label>:221:                                    ; preds = %219, %203
  %222 = phi i16* [ %208, %203 ], [ %220, %219 ]
  store i16 1, i16* %222, align 2
  %223 = load i16*, i16** %117, align 8
  %224 = getelementptr inbounds i16, i16* %223, i64 %207
  %225 = load i16, i16* %224, align 2
  %226 = sext i16 %225 to i32
  %227 = add nsw i32 %205, %226
  %228 = icmp slt i32 %227, %110
  br i1 %228, label %203, label %211

; <label>:229:                                    ; preds = %203, %229
  %230 = phi i64 [ %238, %229 ], [ 1, %203 ]
  %231 = phi i16* [ %239, %229 ], [ %204, %203 ]
  %232 = add nsw i64 %230, %207
  %233 = getelementptr inbounds i16, i16* %231, i64 %232
  store i16 1, i16* %233, align 2
  %234 = load i8*, i8** %121, align 8
  %235 = getelementptr inbounds i8, i8* %234, i64 %207
  %236 = load i8, i8* %235, align 1
  %237 = getelementptr inbounds i8, i8* %234, i64 %232
  store i8 %236, i8* %237, align 1
  %238 = add nuw nsw i64 %230, 1
  %239 = load i16*, i16** %117, align 8
  %240 = getelementptr inbounds i16, i16* %239, i64 %207
  %241 = load i16, i16* %240, align 2
  %242 = sext i16 %241 to i64
  %243 = icmp slt i64 %238, %242
  br i1 %243, label %229, label %219

; <label>:244:                                    ; preds = %261, %212
  %245 = phi i64 [ 0, %212 ], [ %289, %261 ]
  %246 = icmp eq i64 %215, 0
  br i1 %246, label %260, label %247

; <label>:247:                                    ; preds = %244
  %248 = load i8*, i8** %121, align 8
  %249 = add nuw nsw i64 %245, %213
  %250 = getelementptr inbounds i8, i8* %248, i64 %249
  %251 = getelementptr inbounds i8, i8* %105, i64 %245
  %252 = load i8, i8* %251, align 1
  %253 = load i8, i8* %250, align 1
  %254 = zext i8 %253 to i32
  %255 = zext i8 %252 to i32
  %256 = add nuw nsw i32 %254, %255
  %257 = icmp ult i32 %256, 255
  %258 = select i1 %257, i32 %256, i32 255
  %259 = trunc i32 %258 to i8
  store i8 %259, i8* %250, align 1
  br label %260

; <label>:260:                                    ; preds = %247, %244, %194, %126, %211
  ret void

; <label>:261:                                    ; preds = %261, %217
  %262 = phi i64 [ 0, %217 ], [ %289, %261 ]
  %263 = phi i64 [ %218, %217 ], [ %290, %261 ]
  %264 = load i8*, i8** %121, align 8
  %265 = add nuw nsw i64 %262, %213
  %266 = getelementptr inbounds i8, i8* %264, i64 %265
  %267 = getelementptr inbounds i8, i8* %105, i64 %262
  %268 = load i8, i8* %267, align 1
  %269 = load i8, i8* %266, align 1
  %270 = zext i8 %269 to i32
  %271 = zext i8 %268 to i32
  %272 = add nuw nsw i32 %270, %271
  %273 = icmp ult i32 %272, 255
  %274 = select i1 %273, i32 %272, i32 255
  %275 = trunc i32 %274 to i8
  store i8 %275, i8* %266, align 1
  %276 = or i64 %262, 1
  %277 = load i8*, i8** %121, align 8
  %278 = add nuw nsw i64 %276, %213
  %279 = getelementptr inbounds i8, i8* %277, i64 %278
  %280 = getelementptr inbounds i8, i8* %105, i64 %276
  %281 = load i8, i8* %280, align 1
  %282 = load i8, i8* %279, align 1
  %283 = zext i8 %282 to i32
  %284 = zext i8 %281 to i32
  %285 = add nuw nsw i32 %283, %284
  %286 = icmp ult i32 %285, 255
  %287 = select i1 %286, i32 %285, i32 255
  %288 = trunc i32 %287 to i8
  store i8 %288, i8* %279, align 1
  %289 = add nuw nsw i64 %262, 2
  %290 = add i64 %263, -2
  %291 = icmp eq i64 %290, 0
  br i1 %291, label %244, label %261
}

; Function Attrs: nounwind ssp uwtable
define hidden void @_ZN22SafeRLEAdditiveBlitter9blitAntiHEiih(%class.SafeRLEAdditiveBlitter*, i32, i32, i8 zeroext) unnamed_addr #0 align 2 {
  %5 = getelementptr inbounds %class.SafeRLEAdditiveBlitter, %class.SafeRLEAdditiveBlitter* %0, i64 0, i32 0, i32 2
  %6 = load i32, i32* %5, align 8
  %7 = icmp eq i32 %6, %2
  br i1 %7, label %91, label %8

; <label>:8:                                      ; preds = %4
  %9 = getelementptr inbounds %class.SafeRLEAdditiveBlitter, %class.SafeRLEAdditiveBlitter* %0, i64 0, i32 0, i32 5
  %10 = load i32, i32* %9, align 4
  %11 = icmp slt i32 %6, %10
  br i1 %11, label %90, label %12

; <label>:12:                                     ; preds = %8
  %13 = getelementptr inbounds %class.SafeRLEAdditiveBlitter, %class.SafeRLEAdditiveBlitter* %0, i64 0, i32 0, i32 11
  %14 = getelementptr inbounds %class.SkAlphaRuns, %class.SkAlphaRuns* %13, i64 0, i32 0
  %15 = load i16*, i16** %14, align 8
  %16 = load i16, i16* %15, align 2
  %17 = icmp eq i16 %16, 0
  %18 = getelementptr inbounds %class.SafeRLEAdditiveBlitter, %class.SafeRLEAdditiveBlitter* %0, i64 0, i32 0, i32 11, i32 1
  %19 = load i8*, i8** %18, align 8
  br i1 %17, label %20, label %31

; <label>:20:                                     ; preds = %31, %12
  %21 = phi i16* [ %15, %12 ], [ %41, %31 ]
  %22 = phi i8* [ %19, %12 ], [ %50, %31 ]
  %23 = load i8, i8* %22, align 1
  %24 = icmp eq i8 %23, 0
  br i1 %24, label %25, label %51

; <label>:25:                                     ; preds = %20
  %26 = load i16, i16* %21, align 2
  %27 = sext i16 %26 to i64
  %28 = getelementptr inbounds i16, i16* %21, i64 %27
  %29 = load i16, i16* %28, align 2
  %30 = icmp eq i16 %29, 0
  br i1 %30, label %87, label %51

; <label>:31:                                     ; preds = %12, %31
  %32 = phi i8* [ %50, %31 ], [ %19, %12 ]
  %33 = phi i64 [ %46, %31 ], [ 0, %12 ]
  %34 = phi i32 [ %45, %31 ], [ 0, %12 ]
  %35 = getelementptr inbounds i8, i8* %32, i64 %33
  %36 = load i8, i8* %35, align 1
  %37 = icmp ugt i8 %36, -9
  %38 = icmp ult i8 %36, 8
  %39 = select i1 %38, i8 0, i8 %36
  %40 = select i1 %37, i8 -1, i8 %39
  store i8 %40, i8* %35, align 1
  %41 = load i16*, i16** %14, align 8
  %42 = getelementptr inbounds i16, i16* %41, i64 %33
  %43 = load i16, i16* %42, align 2
  %44 = sext i16 %43 to i32
  %45 = add nsw i32 %34, %44
  %46 = sext i32 %45 to i64
  %47 = getelementptr inbounds i16, i16* %41, i64 %46
  %48 = load i16, i16* %47, align 2
  %49 = icmp eq i16 %48, 0
  %50 = load i8*, i8** %18, align 8
  br i1 %49, label %20, label %31

; <label>:51:                                     ; preds = %25, %20
  %52 = getelementptr inbounds %class.SafeRLEAdditiveBlitter, %class.SafeRLEAdditiveBlitter* %0, i64 0, i32 0, i32 1
  %53 = load %class.SkBlitter*, %class.SkBlitter** %52, align 8
  %54 = getelementptr inbounds %class.SafeRLEAdditiveBlitter, %class.SafeRLEAdditiveBlitter* %0, i64 0, i32 0, i32 4
  %55 = load i32, i32* %54, align 8
  %56 = load i32, i32* %5, align 8
  %57 = bitcast %class.SkBlitter* %53 to void (%class.SkBlitter*, i32, i32, i8*, i16*)***
  %58 = load void (%class.SkBlitter*, i32, i32, i8*, i16*)**, void (%class.SkBlitter*, i32, i32, i8*, i16*)*** %57, align 8
  %59 = getelementptr inbounds void (%class.SkBlitter*, i32, i32, i8*, i16*)*, void (%class.SkBlitter*, i32, i32, i8*, i16*)** %58, i64 4
  %60 = load void (%class.SkBlitter*, i32, i32, i8*, i16*)*, void (%class.SkBlitter*, i32, i32, i8*, i16*)** %59, align 8
  tail call void %60(%class.SkBlitter* %53, i32 %55, i32 %56, i8* %22, i16* %21) #12
  %61 = getelementptr inbounds %class.SafeRLEAdditiveBlitter, %class.SafeRLEAdditiveBlitter* %0, i64 0, i32 0, i32 3
  %62 = load i32, i32* %61, align 4
  %63 = add nsw i32 %62, 1
  %64 = add nsw i32 %62, 2
  %65 = sdiv i32 %64, 2
  %66 = add nsw i32 %63, %65
  %67 = shl i32 %66, 1
  %68 = sext i32 %67 to i64
  %69 = getelementptr inbounds %class.SafeRLEAdditiveBlitter, %class.SafeRLEAdditiveBlitter* %0, i64 0, i32 0, i32 9
  %70 = load i32, i32* %69, align 8
  %71 = add nsw i32 %70, 1
  %72 = getelementptr inbounds %class.SafeRLEAdditiveBlitter, %class.SafeRLEAdditiveBlitter* %0, i64 0, i32 0, i32 6
  %73 = load i32, i32* %72, align 8
  %74 = srem i32 %71, %73
  store i32 %74, i32* %69, align 8
  %75 = getelementptr inbounds %class.SafeRLEAdditiveBlitter, %class.SafeRLEAdditiveBlitter* %0, i64 0, i32 0, i32 8
  %76 = load i8*, i8** %75, align 8
  %77 = sext i32 %74 to i64
  %78 = mul nsw i64 %68, %77
  %79 = getelementptr inbounds i8, i8* %76, i64 %78
  %80 = bitcast i8* %79 to i16*
  %81 = bitcast %class.SkAlphaRuns* %13 to i8**
  store i8* %79, i8** %81, align 8
  %82 = sext i32 %62 to i64
  %83 = getelementptr inbounds i16, i16* %80, i64 %82
  %84 = getelementptr inbounds i16, i16* %83, i64 1
  %85 = bitcast i8** %18 to i16**
  store i16* %84, i16** %85, align 8
  tail call void @_ZN11SkAlphaRuns5resetEi(%class.SkAlphaRuns* nonnull %13, i32 %62) #12
  %86 = getelementptr inbounds %class.SafeRLEAdditiveBlitter, %class.SafeRLEAdditiveBlitter* %0, i64 0, i32 0, i32 12
  store i32 0, i32* %86, align 8
  br label %87

; <label>:87:                                     ; preds = %51, %25
  %88 = load i32, i32* %9, align 4
  %89 = add nsw i32 %88, -1
  store i32 %89, i32* %5, align 8
  br label %90

; <label>:90:                                     ; preds = %8, %87
  store i32 %2, i32* %5, align 8
  br label %91

; <label>:91:                                     ; preds = %4, %90
  %92 = getelementptr inbounds %class.SafeRLEAdditiveBlitter, %class.SafeRLEAdditiveBlitter* %0, i64 0, i32 0, i32 4
  %93 = load i32, i32* %92, align 8
  %94 = sub nsw i32 %1, %93
  %95 = getelementptr inbounds %class.SafeRLEAdditiveBlitter, %class.SafeRLEAdditiveBlitter* %0, i64 0, i32 0, i32 12
  %96 = load i32, i32* %95, align 8
  %97 = icmp slt i32 %94, %96
  br i1 %97, label %98, label %99

; <label>:98:                                     ; preds = %91
  store i32 0, i32* %95, align 8
  br label %99

; <label>:99:                                     ; preds = %98, %91
  %100 = phi i32 [ 0, %98 ], [ %96, %91 ]
  %101 = icmp sgt i32 %94, -1
  br i1 %101, label %102, label %198

; <label>:102:                                    ; preds = %99
  %103 = getelementptr inbounds %class.SafeRLEAdditiveBlitter, %class.SafeRLEAdditiveBlitter* %0, i64 0, i32 0, i32 3
  %104 = load i32, i32* %103, align 4
  %105 = icmp slt i32 %94, %104
  br i1 %105, label %106, label %198

; <label>:106:                                    ; preds = %102
  %107 = getelementptr inbounds %class.SafeRLEAdditiveBlitter, %class.SafeRLEAdditiveBlitter* %0, i64 0, i32 0, i32 11, i32 0
  %108 = load i16*, i16** %107, align 8
  %109 = sext i32 %100 to i64
  %110 = getelementptr inbounds i16, i16* %108, i64 %109
  %111 = getelementptr inbounds %class.SafeRLEAdditiveBlitter, %class.SafeRLEAdditiveBlitter* %0, i64 0, i32 0, i32 11, i32 1
  %112 = load i8*, i8** %111, align 8
  %113 = getelementptr inbounds i8, i8* %112, i64 %109
  %114 = sub nsw i32 %94, %100
  %115 = sext i32 %114 to i64
  %116 = getelementptr inbounds i16, i16* %110, i64 %115
  %117 = getelementptr inbounds i8, i8* %113, i64 %115
  %118 = icmp sgt i32 %114, 0
  br i1 %118, label %119, label %139

; <label>:119:                                    ; preds = %106, %133
  %120 = phi i32 [ %137, %133 ], [ %114, %106 ]
  %121 = phi i8* [ %136, %133 ], [ %113, %106 ]
  %122 = phi i16* [ %135, %133 ], [ %110, %106 ]
  %123 = load i16, i16* %122, align 2
  %124 = sext i16 %123 to i32
  %125 = icmp slt i32 %120, %124
  br i1 %125, label %126, label %133

; <label>:126:                                    ; preds = %119
  %127 = load i8, i8* %121, align 1
  %128 = sext i32 %120 to i64
  %129 = getelementptr inbounds i8, i8* %121, i64 %128
  store i8 %127, i8* %129, align 1
  %130 = trunc i32 %120 to i16
  store i16 %130, i16* %122, align 2
  %131 = sub i16 %123, %130
  %132 = getelementptr inbounds i16, i16* %122, i64 %128
  store i16 %131, i16* %132, align 2
  br label %139

; <label>:133:                                    ; preds = %119
  %134 = sext i16 %123 to i64
  %135 = getelementptr inbounds i16, i16* %122, i64 %134
  %136 = getelementptr inbounds i8, i8* %121, i64 %134
  %137 = sub nsw i32 %120, %124
  %138 = icmp sgt i32 %137, 0
  br i1 %138, label %119, label %139

; <label>:139:                                    ; preds = %133, %126, %106
  %140 = load i16, i16* %116, align 2
  %141 = icmp sgt i16 %140, 1
  br i1 %141, label %144, label %142

; <label>:142:                                    ; preds = %139
  %143 = sext i16 %140 to i32
  br label %156

; <label>:144:                                    ; preds = %164, %139
  %145 = phi i32 [ 1, %139 ], [ %162, %164 ]
  %146 = phi i8* [ %117, %139 ], [ %167, %164 ]
  %147 = phi i16* [ %116, %139 ], [ %166, %164 ]
  %148 = phi i16 [ %140, %139 ], [ %168, %164 ]
  %149 = load i8, i8* %146, align 1
  %150 = sext i32 %145 to i64
  %151 = getelementptr inbounds i8, i8* %146, i64 %150
  store i8 %149, i8* %151, align 1
  %152 = trunc i32 %145 to i16
  store i16 %152, i16* %147, align 2
  %153 = sub i16 %148, %152
  %154 = getelementptr inbounds i16, i16* %147, i64 %150
  store i16 %153, i16* %154, align 2
  br label %155

; <label>:155:                                    ; preds = %156, %144
  br label %171

; <label>:156:                                    ; preds = %142, %164
  %157 = phi i32 [ %169, %164 ], [ %143, %142 ]
  %158 = phi i16 [ %168, %164 ], [ %140, %142 ]
  %159 = phi i16* [ %166, %164 ], [ %116, %142 ]
  %160 = phi i8* [ %167, %164 ], [ %117, %142 ]
  %161 = phi i32 [ %162, %164 ], [ 1, %142 ]
  %162 = sub nsw i32 %161, %157
  %163 = icmp slt i32 %162, 1
  br i1 %163, label %155, label %164

; <label>:164:                                    ; preds = %156
  %165 = sext i16 %158 to i64
  %166 = getelementptr inbounds i16, i16* %159, i64 %165
  %167 = getelementptr inbounds i8, i8* %160, i64 %165
  %168 = load i16, i16* %166, align 2
  %169 = sext i16 %168 to i32
  %170 = icmp slt i32 %162, %169
  br i1 %170, label %144, label %156

; <label>:171:                                    ; preds = %155, %171
  %172 = phi i16* [ %179, %171 ], [ %116, %155 ]
  %173 = phi i8* [ %178, %171 ], [ %117, %155 ]
  %174 = phi i32 [ %180, %171 ], [ 1, %155 ]
  %175 = load i16, i16* %172, align 2
  %176 = sext i16 %175 to i32
  %177 = sext i16 %175 to i64
  %178 = getelementptr inbounds i8, i8* %173, i64 %177
  %179 = getelementptr inbounds i16, i16* %172, i64 %177
  %180 = sub nsw i32 %174, %176
  %181 = icmp sgt i32 %180, 0
  br i1 %181, label %171, label %182

; <label>:182:                                    ; preds = %171
  %183 = bitcast i8** %111 to i64*
  %184 = load i64, i64* %183, align 8
  %185 = ptrtoint i8* %178 to i64
  %186 = sub i64 %185, %184
  %187 = trunc i64 %186 to i32
  store i32 %187, i32* %95, align 8
  %188 = inttoptr i64 %184 to i8*
  %189 = sext i32 %94 to i64
  %190 = getelementptr inbounds i8, i8* %188, i64 %189
  %191 = load i8, i8* %190, align 1
  %192 = zext i8 %191 to i32
  %193 = zext i8 %3 to i32
  %194 = add nuw nsw i32 %192, %193
  %195 = icmp ult i32 %194, 255
  %196 = select i1 %195, i32 %194, i32 255
  %197 = trunc i32 %196 to i8
  store i8 %197, i8* %190, align 1
  br label %198

; <label>:198:                                    ; preds = %99, %182, %102
  ret void
}

; Function Attrs: nounwind ssp uwtable
define hidden void @_ZN22SafeRLEAdditiveBlitter9blitAntiHEiiih(%class.SafeRLEAdditiveBlitter*, i32, i32, i32, i8 zeroext) unnamed_addr #0 align 2 {
  %6 = getelementptr inbounds %class.SafeRLEAdditiveBlitter, %class.SafeRLEAdditiveBlitter* %0, i64 0, i32 0, i32 2
  %7 = load i32, i32* %6, align 8
  %8 = icmp eq i32 %7, %2
  br i1 %8, label %92, label %9

; <label>:9:                                      ; preds = %5
  %10 = getelementptr inbounds %class.SafeRLEAdditiveBlitter, %class.SafeRLEAdditiveBlitter* %0, i64 0, i32 0, i32 5
  %11 = load i32, i32* %10, align 4
  %12 = icmp slt i32 %7, %11
  br i1 %12, label %91, label %13

; <label>:13:                                     ; preds = %9
  %14 = getelementptr inbounds %class.SafeRLEAdditiveBlitter, %class.SafeRLEAdditiveBlitter* %0, i64 0, i32 0, i32 11
  %15 = getelementptr inbounds %class.SkAlphaRuns, %class.SkAlphaRuns* %14, i64 0, i32 0
  %16 = load i16*, i16** %15, align 8
  %17 = load i16, i16* %16, align 2
  %18 = icmp eq i16 %17, 0
  %19 = getelementptr inbounds %class.SafeRLEAdditiveBlitter, %class.SafeRLEAdditiveBlitter* %0, i64 0, i32 0, i32 11, i32 1
  %20 = load i8*, i8** %19, align 8
  br i1 %18, label %21, label %32

; <label>:21:                                     ; preds = %32, %13
  %22 = phi i16* [ %16, %13 ], [ %42, %32 ]
  %23 = phi i8* [ %20, %13 ], [ %51, %32 ]
  %24 = load i8, i8* %23, align 1
  %25 = icmp eq i8 %24, 0
  br i1 %25, label %26, label %52

; <label>:26:                                     ; preds = %21
  %27 = load i16, i16* %22, align 2
  %28 = sext i16 %27 to i64
  %29 = getelementptr inbounds i16, i16* %22, i64 %28
  %30 = load i16, i16* %29, align 2
  %31 = icmp eq i16 %30, 0
  br i1 %31, label %88, label %52

; <label>:32:                                     ; preds = %13, %32
  %33 = phi i8* [ %51, %32 ], [ %20, %13 ]
  %34 = phi i64 [ %47, %32 ], [ 0, %13 ]
  %35 = phi i32 [ %46, %32 ], [ 0, %13 ]
  %36 = getelementptr inbounds i8, i8* %33, i64 %34
  %37 = load i8, i8* %36, align 1
  %38 = icmp ugt i8 %37, -9
  %39 = icmp ult i8 %37, 8
  %40 = select i1 %39, i8 0, i8 %37
  %41 = select i1 %38, i8 -1, i8 %40
  store i8 %41, i8* %36, align 1
  %42 = load i16*, i16** %15, align 8
  %43 = getelementptr inbounds i16, i16* %42, i64 %34
  %44 = load i16, i16* %43, align 2
  %45 = sext i16 %44 to i32
  %46 = add nsw i32 %35, %45
  %47 = sext i32 %46 to i64
  %48 = getelementptr inbounds i16, i16* %42, i64 %47
  %49 = load i16, i16* %48, align 2
  %50 = icmp eq i16 %49, 0
  %51 = load i8*, i8** %19, align 8
  br i1 %50, label %21, label %32

; <label>:52:                                     ; preds = %26, %21
  %53 = getelementptr inbounds %class.SafeRLEAdditiveBlitter, %class.SafeRLEAdditiveBlitter* %0, i64 0, i32 0, i32 1
  %54 = load %class.SkBlitter*, %class.SkBlitter** %53, align 8
  %55 = getelementptr inbounds %class.SafeRLEAdditiveBlitter, %class.SafeRLEAdditiveBlitter* %0, i64 0, i32 0, i32 4
  %56 = load i32, i32* %55, align 8
  %57 = load i32, i32* %6, align 8
  %58 = bitcast %class.SkBlitter* %54 to void (%class.SkBlitter*, i32, i32, i8*, i16*)***
  %59 = load void (%class.SkBlitter*, i32, i32, i8*, i16*)**, void (%class.SkBlitter*, i32, i32, i8*, i16*)*** %58, align 8
  %60 = getelementptr inbounds void (%class.SkBlitter*, i32, i32, i8*, i16*)*, void (%class.SkBlitter*, i32, i32, i8*, i16*)** %59, i64 4
  %61 = load void (%class.SkBlitter*, i32, i32, i8*, i16*)*, void (%class.SkBlitter*, i32, i32, i8*, i16*)** %60, align 8
  tail call void %61(%class.SkBlitter* %54, i32 %56, i32 %57, i8* %23, i16* %22) #12
  %62 = getelementptr inbounds %class.SafeRLEAdditiveBlitter, %class.SafeRLEAdditiveBlitter* %0, i64 0, i32 0, i32 3
  %63 = load i32, i32* %62, align 4
  %64 = add nsw i32 %63, 1
  %65 = add nsw i32 %63, 2
  %66 = sdiv i32 %65, 2
  %67 = add nsw i32 %64, %66
  %68 = shl i32 %67, 1
  %69 = sext i32 %68 to i64
  %70 = getelementptr inbounds %class.SafeRLEAdditiveBlitter, %class.SafeRLEAdditiveBlitter* %0, i64 0, i32 0, i32 9
  %71 = load i32, i32* %70, align 8
  %72 = add nsw i32 %71, 1
  %73 = getelementptr inbounds %class.SafeRLEAdditiveBlitter, %class.SafeRLEAdditiveBlitter* %0, i64 0, i32 0, i32 6
  %74 = load i32, i32* %73, align 8
  %75 = srem i32 %72, %74
  store i32 %75, i32* %70, align 8
  %76 = getelementptr inbounds %class.SafeRLEAdditiveBlitter, %class.SafeRLEAdditiveBlitter* %0, i64 0, i32 0, i32 8
  %77 = load i8*, i8** %76, align 8
  %78 = sext i32 %75 to i64
  %79 = mul nsw i64 %69, %78
  %80 = getelementptr inbounds i8, i8* %77, i64 %79
  %81 = bitcast i8* %80 to i16*
  %82 = bitcast %class.SkAlphaRuns* %14 to i8**
  store i8* %80, i8** %82, align 8
  %83 = sext i32 %63 to i64
  %84 = getelementptr inbounds i16, i16* %81, i64 %83
  %85 = getelementptr inbounds i16, i16* %84, i64 1
  %86 = bitcast i8** %19 to i16**
  store i16* %85, i16** %86, align 8
  tail call void @_ZN11SkAlphaRuns5resetEi(%class.SkAlphaRuns* nonnull %14, i32 %63) #12
  %87 = getelementptr inbounds %class.SafeRLEAdditiveBlitter, %class.SafeRLEAdditiveBlitter* %0, i64 0, i32 0, i32 12
  store i32 0, i32* %87, align 8
  br label %88

; <label>:88:                                     ; preds = %52, %26
  %89 = load i32, i32* %10, align 4
  %90 = add nsw i32 %89, -1
  store i32 %90, i32* %6, align 8
  br label %91

; <label>:91:                                     ; preds = %9, %88
  store i32 %2, i32* %6, align 8
  br label %92

; <label>:92:                                     ; preds = %5, %91
  %93 = getelementptr inbounds %class.SafeRLEAdditiveBlitter, %class.SafeRLEAdditiveBlitter* %0, i64 0, i32 0, i32 4
  %94 = load i32, i32* %93, align 8
  %95 = sub nsw i32 %1, %94
  %96 = getelementptr inbounds %class.SafeRLEAdditiveBlitter, %class.SafeRLEAdditiveBlitter* %0, i64 0, i32 0, i32 12
  %97 = load i32, i32* %96, align 8
  %98 = icmp slt i32 %95, %97
  br i1 %98, label %99, label %100

; <label>:99:                                     ; preds = %92
  store i32 0, i32* %96, align 8
  br label %100

; <label>:100:                                    ; preds = %99, %92
  %101 = phi i32 [ 0, %99 ], [ %97, %92 ]
  %102 = icmp sgt i32 %95, -1
  br i1 %102, label %103, label %227

; <label>:103:                                    ; preds = %100
  %104 = add nsw i32 %95, %3
  %105 = getelementptr inbounds %class.SafeRLEAdditiveBlitter, %class.SafeRLEAdditiveBlitter* %0, i64 0, i32 0, i32 3
  %106 = load i32, i32* %105, align 4
  %107 = icmp sgt i32 %104, %106
  br i1 %107, label %227, label %108

; <label>:108:                                    ; preds = %103
  %109 = getelementptr inbounds %class.SafeRLEAdditiveBlitter, %class.SafeRLEAdditiveBlitter* %0, i64 0, i32 0, i32 11, i32 0
  %110 = load i16*, i16** %109, align 8
  %111 = sext i32 %101 to i64
  %112 = getelementptr inbounds i16, i16* %110, i64 %111
  %113 = getelementptr inbounds %class.SafeRLEAdditiveBlitter, %class.SafeRLEAdditiveBlitter* %0, i64 0, i32 0, i32 11, i32 1
  %114 = load i8*, i8** %113, align 8
  %115 = getelementptr inbounds i8, i8* %114, i64 %111
  %116 = sub nsw i32 %95, %101
  %117 = icmp eq i32 %3, 0
  br i1 %117, label %118, label %119

; <label>:118:                                    ; preds = %108
  store i32 %101, i32* %96, align 8
  br label %227

; <label>:119:                                    ; preds = %108
  %120 = sext i32 %116 to i64
  %121 = getelementptr inbounds i16, i16* %112, i64 %120
  %122 = getelementptr inbounds i8, i8* %115, i64 %120
  %123 = icmp sgt i32 %116, 0
  br i1 %123, label %124, label %144

; <label>:124:                                    ; preds = %119, %138
  %125 = phi i32 [ %142, %138 ], [ %116, %119 ]
  %126 = phi i8* [ %141, %138 ], [ %115, %119 ]
  %127 = phi i16* [ %140, %138 ], [ %112, %119 ]
  %128 = load i16, i16* %127, align 2
  %129 = sext i16 %128 to i32
  %130 = icmp slt i32 %125, %129
  br i1 %130, label %131, label %138

; <label>:131:                                    ; preds = %124
  %132 = load i8, i8* %126, align 1
  %133 = sext i32 %125 to i64
  %134 = getelementptr inbounds i8, i8* %126, i64 %133
  store i8 %132, i8* %134, align 1
  %135 = trunc i32 %125 to i16
  store i16 %135, i16* %127, align 2
  %136 = sub i16 %128, %135
  %137 = getelementptr inbounds i16, i16* %127, i64 %133
  store i16 %136, i16* %137, align 2
  br label %144

; <label>:138:                                    ; preds = %124
  %139 = sext i16 %128 to i64
  %140 = getelementptr inbounds i16, i16* %127, i64 %139
  %141 = getelementptr inbounds i8, i8* %126, i64 %139
  %142 = sub nsw i32 %125, %129
  %143 = icmp sgt i32 %142, 0
  br i1 %143, label %124, label %144

; <label>:144:                                    ; preds = %138, %131, %119
  %145 = load i16, i16* %121, align 2
  %146 = sext i16 %145 to i32
  %147 = icmp sgt i32 %146, %3
  br i1 %147, label %148, label %160

; <label>:148:                                    ; preds = %168, %144
  %149 = phi i32 [ %3, %144 ], [ %166, %168 ]
  %150 = phi i8* [ %122, %144 ], [ %171, %168 ]
  %151 = phi i16* [ %121, %144 ], [ %170, %168 ]
  %152 = phi i16 [ %145, %144 ], [ %172, %168 ]
  %153 = load i8, i8* %150, align 1
  %154 = sext i32 %149 to i64
  %155 = getelementptr inbounds i8, i8* %150, i64 %154
  store i8 %153, i8* %155, align 1
  %156 = trunc i32 %149 to i16
  store i16 %156, i16* %151, align 2
  %157 = sub i16 %152, %156
  %158 = getelementptr inbounds i16, i16* %151, i64 %154
  store i16 %157, i16* %158, align 2
  br label %159

; <label>:159:                                    ; preds = %160, %148
  br label %175

; <label>:160:                                    ; preds = %144, %168
  %161 = phi i32 [ %173, %168 ], [ %146, %144 ]
  %162 = phi i16 [ %172, %168 ], [ %145, %144 ]
  %163 = phi i16* [ %170, %168 ], [ %121, %144 ]
  %164 = phi i8* [ %171, %168 ], [ %122, %144 ]
  %165 = phi i32 [ %166, %168 ], [ %3, %144 ]
  %166 = sub nsw i32 %165, %161
  %167 = icmp slt i32 %166, 1
  br i1 %167, label %159, label %168

; <label>:168:                                    ; preds = %160
  %169 = sext i16 %162 to i64
  %170 = getelementptr inbounds i16, i16* %163, i64 %169
  %171 = getelementptr inbounds i8, i8* %164, i64 %169
  %172 = load i16, i16* %170, align 2
  %173 = sext i16 %172 to i32
  %174 = icmp slt i32 %166, %173
  br i1 %174, label %148, label %160

; <label>:175:                                    ; preds = %159, %175
  %176 = phi i16* [ %183, %175 ], [ %121, %159 ]
  %177 = phi i8* [ %182, %175 ], [ %122, %159 ]
  %178 = phi i32 [ %184, %175 ], [ %3, %159 ]
  %179 = load i16, i16* %176, align 2
  %180 = sext i16 %179 to i32
  %181 = sext i16 %179 to i64
  %182 = getelementptr inbounds i8, i8* %177, i64 %181
  %183 = getelementptr inbounds i16, i16* %176, i64 %181
  %184 = sub nsw i32 %178, %180
  %185 = icmp sgt i32 %184, 0
  br i1 %185, label %175, label %186

; <label>:186:                                    ; preds = %175
  %187 = bitcast i8** %113 to i64*
  %188 = load i64, i64* %187, align 8
  %189 = ptrtoint i8* %182 to i64
  %190 = sub i64 %189, %188
  %191 = trunc i64 %190 to i32
  store i32 %191, i32* %96, align 8
  %192 = icmp sgt i32 %3, 0
  br i1 %192, label %193, label %227

; <label>:193:                                    ; preds = %186
  %194 = inttoptr i64 %188 to i8*
  %195 = zext i8 %4 to i32
  %196 = sext i32 %95 to i64
  %197 = getelementptr inbounds i8, i8* %194, i64 %196
  %198 = load i8, i8* %197, align 1
  %199 = zext i8 %198 to i32
  %200 = add nuw nsw i32 %199, %195
  %201 = icmp ult i32 %200, 255
  %202 = select i1 %201, i32 %200, i32 255
  %203 = trunc i32 %202 to i8
  store i8 %203, i8* %197, align 1
  %204 = load i16*, i16** %109, align 8
  %205 = getelementptr inbounds i16, i16* %204, i64 %196
  %206 = load i16, i16* %205, align 2
  %207 = sext i16 %206 to i32
  %208 = add nsw i32 %95, %207
  %209 = icmp slt i32 %208, %104
  br i1 %209, label %210, label %227

; <label>:210:                                    ; preds = %193, %210
  %211 = phi i32 [ %225, %210 ], [ %208, %193 ]
  %212 = load i8*, i8** %113, align 8
  %213 = sext i32 %211 to i64
  %214 = getelementptr inbounds i8, i8* %212, i64 %213
  %215 = load i8, i8* %214, align 1
  %216 = zext i8 %215 to i32
  %217 = add nuw nsw i32 %216, %195
  %218 = icmp ult i32 %217, 255
  %219 = select i1 %218, i32 %217, i32 255
  %220 = trunc i32 %219 to i8
  store i8 %220, i8* %214, align 1
  %221 = load i16*, i16** %109, align 8
  %222 = getelementptr inbounds i16, i16* %221, i64 %213
  %223 = load i16, i16* %222, align 2
  %224 = sext i16 %223 to i32
  %225 = add nsw i32 %211, %224
  %226 = icmp slt i32 %225, %104
  br i1 %226, label %210, label %227

; <label>:227:                                    ; preds = %210, %193, %118, %186, %103, %100
  ret void
}

; Function Attrs: nounwind ssp uwtable
define hidden void @_ZN6SkScan11AAAFillPathERK6SkPathP9SkBlitterRK7SkIRectS7_b(%class.SkPath* dereferenceable(16), %class.SkBlitter*, %struct.SkIRect* nocapture readonly dereferenceable(16), %struct.SkIRect* dereferenceable(16), i1 zeroext) local_unnamed_addr #0 align 2 {
  %6 = alloca %class.SkAnalyticEdgeBuilder, align 8
  %7 = alloca %struct.SkAnalyticEdge, align 8
  %8 = alloca %struct.SkAnalyticEdge, align 8
  %9 = alloca %class.SkAnalyticEdgeBuilder, align 8
  %10 = alloca %struct.SkAnalyticEdge, align 8
  %11 = alloca %struct.SkAnalyticEdge, align 8
  %12 = alloca %struct.SkRect, align 4
  %13 = alloca { <2 x float>, <2 x float> }, align 8
  %14 = alloca %class.SkAnalyticEdgeBuilder, align 8
  %15 = alloca %struct.SkAnalyticEdge, align 8
  %16 = alloca %struct.SkAnalyticEdge, align 8
  %17 = alloca %class.MaskAdditiveBlitter, align 8
  %18 = alloca %class.RunBasedAdditiveBlitter, align 8
  %19 = alloca %class.SafeRLEAdditiveBlitter, align 8
  %20 = getelementptr inbounds %struct.SkIRect, %struct.SkIRect* %2, i64 0, i32 2
  %21 = load i32, i32* %20, align 4
  %22 = sext i32 %21 to i64
  %23 = getelementptr inbounds %struct.SkIRect, %struct.SkIRect* %2, i64 0, i32 0
  %24 = load i32, i32* %23, align 4
  %25 = sext i32 %24 to i64
  %26 = sub nsw i64 %22, %25
  %27 = getelementptr inbounds %struct.SkIRect, %struct.SkIRect* %2, i64 0, i32 3
  %28 = load i32, i32* %27, align 4
  %29 = sext i32 %28 to i64
  %30 = getelementptr inbounds %struct.SkIRect, %struct.SkIRect* %2, i64 0, i32 1
  %31 = load i32, i32* %30, align 4
  %32 = sext i32 %31 to i64
  %33 = sub nsw i64 %29, %32
  %34 = icmp slt i64 %26, 1
  %35 = icmp slt i64 %33, 1
  %36 = or i1 %34, %35
  br i1 %36, label %72, label %37

; <label>:37:                                     ; preds = %5
  %38 = or i64 %33, %26
  %39 = add nsw i64 %38, 2147483648
  %40 = icmp ugt i64 %39, 4294967295
  br i1 %40, label %72, label %41

; <label>:41:                                     ; preds = %37
  %42 = getelementptr inbounds %struct.SkIRect, %struct.SkIRect* %3, i64 0, i32 2
  %43 = load i32, i32* %42, align 4
  %44 = sext i32 %43 to i64
  %45 = getelementptr inbounds %struct.SkIRect, %struct.SkIRect* %3, i64 0, i32 0
  %46 = load i32, i32* %45, align 4
  %47 = sext i32 %46 to i64
  %48 = sub nsw i64 %44, %47
  %49 = getelementptr inbounds %struct.SkIRect, %struct.SkIRect* %3, i64 0, i32 3
  %50 = load i32, i32* %49, align 4
  %51 = sext i32 %50 to i64
  %52 = getelementptr inbounds %struct.SkIRect, %struct.SkIRect* %3, i64 0, i32 1
  %53 = load i32, i32* %52, align 4
  %54 = sext i32 %53 to i64
  %55 = sub nsw i64 %51, %54
  %56 = icmp slt i64 %48, 1
  %57 = icmp slt i64 %55, 1
  %58 = or i1 %56, %57
  br i1 %58, label %72, label %59

; <label>:59:                                     ; preds = %41
  %60 = or i64 %55, %48
  %61 = add nsw i64 %60, 2147483648
  %62 = icmp ugt i64 %61, 4294967295
  %63 = icmp sgt i32 %46, %24
  %64 = or i1 %63, %62
  %65 = icmp sgt i32 %53, %31
  %66 = or i1 %65, %64
  %67 = icmp slt i32 %43, %21
  %68 = or i1 %67, %66
  %69 = icmp sge i32 %50, %28
  %70 = xor i1 %68, true
  %71 = and i1 %69, %70
  br label %72

; <label>:72:                                     ; preds = %5, %37, %41, %59
  %73 = phi i1 [ %71, %59 ], [ false, %41 ], [ false, %37 ], [ false, %5 ]
  %74 = getelementptr inbounds %class.SkPath, %class.SkPath* %0, i64 0, i32 4
  %75 = load i8, i8* %74, align 2
  %76 = and i8 %75, 2
  %77 = icmp ne i8 %76, 0
  %78 = sub i32 %21, %24
  %79 = icmp sgt i32 %78, 32
  br i1 %79, label %2963, label %80

; <label>:80:                                     ; preds = %72
  %81 = add nsw i32 %78, 3
  %82 = and i32 %81, -4
  %83 = sext i32 %82 to i64
  %84 = sub i32 %28, %31
  %85 = sext i32 %84 to i64
  %86 = mul nsw i64 %85, %83
  %87 = icmp sgt i64 %86, 1024
  %88 = or i1 %87, %77
  %89 = or i1 %88, %4
  br i1 %89, label %2963, label %90

; <label>:90:                                     ; preds = %80
  %91 = bitcast %struct.SkRect* %12 to i8*
  call void @llvm.lifetime.start.p0i8(i64 16, i8* nonnull %91) #12
  %92 = call zeroext i1 @_ZNK6SkPath6isRectEP6SkRectPbPNS_9DirectionE(%class.SkPath* nonnull %0, %struct.SkRect* nonnull %12, i8* null, i32* null) #12
  br i1 %92, label %93, label %136

; <label>:93:                                     ; preds = %90
  %94 = bitcast { <2 x float>, <2 x float> }* %13 to %struct.SkRect*
  %95 = bitcast { <2 x float>, <2 x float> }* %13 to i8*
  call void @llvm.lifetime.start.p0i8(i64 16, i8* nonnull %95) #12
  %96 = getelementptr inbounds %struct.SkIRect, %struct.SkIRect* %3, i64 0, i32 0
  %97 = load i32, i32* %96, align 4
  %98 = sitofp i32 %97 to float
  %99 = getelementptr inbounds %struct.SkIRect, %struct.SkIRect* %3, i64 0, i32 1
  %100 = load i32, i32* %99, align 4
  %101 = sitofp i32 %100 to float
  %102 = getelementptr inbounds %struct.SkIRect, %struct.SkIRect* %3, i64 0, i32 2
  %103 = load i32, i32* %102, align 4
  %104 = sitofp i32 %103 to float
  %105 = getelementptr inbounds %struct.SkIRect, %struct.SkIRect* %3, i64 0, i32 3
  %106 = load i32, i32* %105, align 4
  %107 = sitofp i32 %106 to float
  %108 = insertelement <2 x float> undef, float %98, i32 0
  %109 = insertelement <2 x float> %108, float %101, i32 1
  %110 = insertelement <2 x float> undef, float %104, i32 0
  %111 = insertelement <2 x float> %110, float %107, i32 1
  %112 = getelementptr inbounds { <2 x float>, <2 x float> }, { <2 x float>, <2 x float> }* %13, i64 0, i32 0
  store <2 x float> %109, <2 x float>* %112, align 8
  %113 = getelementptr inbounds { <2 x float>, <2 x float> }, { <2 x float>, <2 x float> }* %13, i64 0, i32 1
  store <2 x float> %111, <2 x float>* %113, align 8
  %114 = call zeroext i1 @_ZN6SkRect9intersectERKS_(%struct.SkRect* nonnull %12, %struct.SkRect* nonnull dereferenceable(16) %94) #12
  call void @llvm.lifetime.end.p0i8(i64 16, i8* nonnull %95) #12
  br i1 %114, label %115, label %135

; <label>:115:                                    ; preds = %93
  %116 = getelementptr inbounds %struct.SkRect, %struct.SkRect* %12, i64 0, i32 0
  %117 = load float, float* %116, align 4
  %118 = call float @llvm.floor.f32(float %117) #12
  %119 = fcmp olt float %118, 0x41DFFFFFE0000000
  %120 = select i1 %119, float %118, float 0x41DFFFFFE0000000
  %121 = fcmp ogt float %120, 0xC1DFFFFFE0000000
  %122 = select i1 %121, float %120, float 0xC1DFFFFFE0000000
  %123 = fptosi float %122 to i32
  %124 = getelementptr inbounds %struct.SkRect, %struct.SkRect* %12, i64 0, i32 2
  %125 = load float, float* %124, align 4
  %126 = call float @llvm.ceil.f32(float %125) #12
  %127 = fcmp olt float %126, 0x41DFFFFFE0000000
  %128 = select i1 %127, float %126, float 0x41DFFFFFE0000000
  %129 = fcmp ogt float %128, 0xC1DFFFFFE0000000
  %130 = select i1 %129, float %128, float 0xC1DFFFFFE0000000
  %131 = fptosi float %130 to i32
  %132 = sub i32 %131, %123
  %133 = icmp slt i32 %132, 3
  br i1 %133, label %136, label %134

; <label>:134:                                    ; preds = %115
  call void @_ZN9SkBlitter15blitFatAntiRectERK6SkRect(%class.SkBlitter* %1, %struct.SkRect* nonnull dereferenceable(16) %12) #12
  br label %135

; <label>:135:                                    ; preds = %93, %134
  call void @llvm.lifetime.end.p0i8(i64 16, i8* nonnull %91) #12
  br label %7584

; <label>:136:                                    ; preds = %115, %90
  call void @llvm.lifetime.end.p0i8(i64 16, i8* nonnull %91) #12
  %137 = bitcast %class.MaskAdditiveBlitter* %17 to i8*
  call void @llvm.lifetime.start.p0i8(i64 1128, i8* nonnull %137) #12
  %138 = getelementptr inbounds %class.MaskAdditiveBlitter, %class.MaskAdditiveBlitter* %17, i64 0, i32 0, i32 0, i32 1
  %139 = bitcast %class.SkAutoMalloc* %138 to i8*
  call void @llvm.memset.p0i8.i64(i8* nonnull align 8 %139, i8 0, i64 16, i1 false) #12
  %140 = getelementptr inbounds %class.MaskAdditiveBlitter, %class.MaskAdditiveBlitter* %17, i64 0, i32 0, i32 0, i32 0
  store i32 (...)** bitcast (i8** getelementptr inbounds ({ [23 x i8*] }, { [23 x i8*] }* @_ZTV19MaskAdditiveBlitter, i64 0, inrange i32 0, i64 2) to i32 (...)**), i32 (...)*** %140, align 8
  %141 = getelementptr inbounds %class.MaskAdditiveBlitter, %class.MaskAdditiveBlitter* %17, i64 0, i32 2, i32 0
  %142 = getelementptr inbounds %class.MaskAdditiveBlitter, %class.MaskAdditiveBlitter* %17, i64 0, i32 1
  store %class.SkBlitter* %1, %class.SkBlitter** %142, align 8
  %143 = getelementptr inbounds %class.MaskAdditiveBlitter, %class.MaskAdditiveBlitter* %17, i64 0, i32 4, i64 0
  %144 = bitcast i32* %143 to i8*
  %145 = getelementptr inbounds i8, i8* %144, i64 1
  store i8* %145, i8** %141, align 8
  %146 = getelementptr inbounds %class.MaskAdditiveBlitter, %class.MaskAdditiveBlitter* %17, i64 0, i32 2, i32 1
  %147 = bitcast %struct.SkIRect* %146 to i8*
  %148 = bitcast %struct.SkIRect* %2 to i8*
  call void @llvm.memcpy.p0i8.p0i8.i64(i8* nonnull align 8 %147, i8* nonnull align 4 %148, i64 16, i1 false) #12
  %149 = load i32, i32* %20, align 4
  %150 = load i32, i32* %23, align 4
  %151 = sub i32 %149, %150
  %152 = getelementptr inbounds %class.MaskAdditiveBlitter, %class.MaskAdditiveBlitter* %17, i64 0, i32 2, i32 2
  store i32 %151, i32* %152, align 8
  %153 = getelementptr inbounds %class.MaskAdditiveBlitter, %class.MaskAdditiveBlitter* %17, i64 0, i32 2, i32 3
  store i32 1, i32* %153, align 4
  %154 = load i32, i32* %30, align 4
  %155 = add nsw i32 %154, -1
  %156 = getelementptr inbounds %class.MaskAdditiveBlitter, %class.MaskAdditiveBlitter* %17, i64 0, i32 6
  store i32 %155, i32* %156, align 8
  %157 = getelementptr inbounds %class.MaskAdditiveBlitter, %class.MaskAdditiveBlitter* %17, i64 0, i32 5
  store i8* null, i8** %157, align 8
  %158 = getelementptr inbounds %class.MaskAdditiveBlitter, %class.MaskAdditiveBlitter* %17, i64 0, i32 3
  %159 = bitcast %struct.SkIRect* %158 to i8*
  call void @llvm.memcpy.p0i8.p0i8.i64(i8* nonnull align 8 %159, i8* nonnull align 4 %148, i64 16, i1 false) #12
  %160 = getelementptr inbounds %class.MaskAdditiveBlitter, %class.MaskAdditiveBlitter* %17, i64 0, i32 3, i32 2
  %161 = load i32, i32* %160, align 8
  %162 = getelementptr inbounds %struct.SkIRect, %struct.SkIRect* %158, i64 0, i32 0
  %163 = load i32, i32* %162, align 8
  %164 = icmp sgt i32 %161, %163
  br i1 %164, label %165, label %206

; <label>:165:                                    ; preds = %136
  %166 = getelementptr inbounds %class.MaskAdditiveBlitter, %class.MaskAdditiveBlitter* %17, i64 0, i32 3, i32 3
  %167 = load i32, i32* %166, align 4
  %168 = getelementptr inbounds %class.MaskAdditiveBlitter, %class.MaskAdditiveBlitter* %17, i64 0, i32 3, i32 1
  %169 = load i32, i32* %168, align 4
  %170 = icmp sgt i32 %167, %169
  br i1 %170, label %171, label %206

; <label>:171:                                    ; preds = %165
  %172 = getelementptr inbounds %struct.SkIRect, %struct.SkIRect* %3, i64 0, i32 2
  %173 = load i32, i32* %172, align 4
  %174 = getelementptr inbounds %struct.SkIRect, %struct.SkIRect* %3, i64 0, i32 0
  %175 = load i32, i32* %174, align 4
  %176 = icmp sgt i32 %173, %175
  br i1 %176, label %177, label %206

; <label>:177:                                    ; preds = %171
  %178 = getelementptr inbounds %struct.SkIRect, %struct.SkIRect* %3, i64 0, i32 3
  %179 = load i32, i32* %178, align 4
  %180 = getelementptr inbounds %struct.SkIRect, %struct.SkIRect* %3, i64 0, i32 1
  %181 = load i32, i32* %180, align 4
  %182 = icmp sgt i32 %179, %181
  br i1 %182, label %183, label %206

; <label>:183:                                    ; preds = %177
  %184 = icmp slt i32 %163, %175
  %185 = select i1 %184, i32 %175, i32 %163
  %186 = icmp slt i32 %169, %181
  %187 = select i1 %186, i32 %181, i32 %169
  %188 = icmp sgt i32 %161, %173
  %189 = select i1 %188, i32 %173, i32 %161
  %190 = icmp sgt i32 %167, %179
  %191 = select i1 %190, i32 %179, i32 %167
  %192 = sext i32 %189 to i64
  %193 = sext i32 %185 to i64
  %194 = sub nsw i64 %192, %193
  %195 = sext i32 %191 to i64
  %196 = sext i32 %187 to i64
  %197 = sub nsw i64 %195, %196
  %198 = icmp slt i64 %194, 1
  %199 = icmp slt i64 %197, 1
  %200 = or i1 %198, %199
  br i1 %200, label %206, label %201

; <label>:201:                                    ; preds = %183
  %202 = or i64 %197, %194
  %203 = add nsw i64 %202, 2147483648
  %204 = icmp ugt i64 %203, 4294967295
  br i1 %204, label %206, label %205

; <label>:205:                                    ; preds = %201
  store i32 %185, i32* %162, align 8
  store i32 %187, i32* %168, align 4
  store i32 %189, i32* %160, align 8
  store i32 %191, i32* %166, align 4
  br label %211

; <label>:206:                                    ; preds = %201, %183, %177, %171, %165, %136
  call void @llvm.memset.p0i8.i64(i8* nonnull align 8 %159, i8 0, i64 16, i1 false) #12
  %207 = getelementptr inbounds %struct.SkIRect, %struct.SkIRect* %3, i64 0, i32 0
  %208 = getelementptr inbounds %struct.SkIRect, %struct.SkIRect* %3, i64 0, i32 1
  %209 = getelementptr inbounds %struct.SkIRect, %struct.SkIRect* %3, i64 0, i32 2
  %210 = getelementptr inbounds %struct.SkIRect, %struct.SkIRect* %3, i64 0, i32 3
  br label %211

; <label>:211:                                    ; preds = %205, %206
  %212 = phi i32* [ %178, %205 ], [ %210, %206 ]
  %213 = phi i32* [ %172, %205 ], [ %209, %206 ]
  %214 = phi i32* [ %180, %205 ], [ %208, %206 ]
  %215 = phi i32* [ %174, %205 ], [ %207, %206 ]
  %216 = getelementptr inbounds %class.MaskAdditiveBlitter, %class.MaskAdditiveBlitter* %17, i64 0, i32 2, i32 1, i32 3
  %217 = load i32, i32* %216, align 4
  %218 = getelementptr inbounds %class.MaskAdditiveBlitter, %class.MaskAdditiveBlitter* %17, i64 0, i32 2, i32 1, i32 1
  %219 = load i32, i32* %218, align 4
  %220 = sub i32 %217, %219
  %221 = mul i32 %220, %151
  %222 = add i32 %221, 2
  %223 = zext i32 %222 to i64
  call void @llvm.memset.p0i8.i64(i8* nonnull align 8 %144, i8 0, i64 %223, i1 false) #12
  %224 = getelementptr inbounds %class.MaskAdditiveBlitter, %class.MaskAdditiveBlitter* %17, i64 0, i32 0
  %225 = load i32, i32* %27, align 4
  %226 = bitcast %class.SkAnalyticEdgeBuilder* %9 to i8*
  call void @llvm.lifetime.start.p0i8(i64 592, i8* nonnull %226) #12
  %227 = getelementptr inbounds %class.SkAnalyticEdgeBuilder, %class.SkAnalyticEdgeBuilder* %9, i64 0, i32 0, i32 0
  store i32 (...)** bitcast (i8** getelementptr inbounds ({ [11 x i8*] }, { [11 x i8*] }* @_ZTV13SkEdgeBuilder, i64 0, inrange i32 0, i64 2) to i32 (...)**), i32 (...)*** %227, align 8
  %228 = getelementptr inbounds %class.SkAnalyticEdgeBuilder, %class.SkAnalyticEdgeBuilder* %9, i64 0, i32 0, i32 1
  %229 = getelementptr inbounds %class.SkAnalyticEdgeBuilder, %class.SkAnalyticEdgeBuilder* %9, i64 0, i32 0, i32 3, i32 0
  %230 = getelementptr inbounds %class.SkAnalyticEdgeBuilder, %class.SkAnalyticEdgeBuilder* %9, i64 0, i32 0, i32 3, i32 1, i64 0
  %231 = bitcast i8*** %228 to i8*
  call void @llvm.memset.p0i8.i64(i8* nonnull align 8 %231, i8 0, i64 24, i1 false) #12
  call void @_ZN12SkArenaAllocC2EPcmm(%class.SkArenaAlloc* nonnull %229, i8* nonnull %230, i64 512, i64 512) #12
  store i32 (...)** bitcast (i8** getelementptr inbounds ({ [11 x i8*] }, { [11 x i8*] }* @_ZTV21SkAnalyticEdgeBuilder, i64 0, inrange i32 0, i64 2) to i32 (...)**), i32 (...)*** %227, align 8
  %232 = getelementptr inbounds %class.SkAnalyticEdgeBuilder, %class.SkAnalyticEdgeBuilder* %9, i64 0, i32 0
  %233 = select i1 %73, %struct.SkIRect* null, %struct.SkIRect* %3
  %234 = call i32 @_ZN13SkEdgeBuilder10buildEdgesERK6SkPathPK7SkIRect(%class.SkEdgeBuilder* nonnull %232, %class.SkPath* nonnull dereferenceable(16) %0, %struct.SkIRect* %233) #12
  %235 = bitcast i8*** %228 to %struct.SkAnalyticEdge***
  %236 = load %struct.SkAnalyticEdge**, %struct.SkAnalyticEdge*** %235, align 8
  %237 = load i32, i32* %215, align 4
  %238 = load i32, i32* %214, align 4
  %239 = load i32, i32* %213, align 4
  %240 = load i32, i32* %212, align 4
  %241 = icmp eq i32 %234, 0
  br i1 %241, label %242, label %276

; <label>:242:                                    ; preds = %211
  %243 = load i8, i8* %74, align 2
  %244 = and i8 %243, 2
  %245 = icmp eq i8 %244, 0
  br i1 %245, label %2952, label %246

; <label>:246:                                    ; preds = %242
  %247 = icmp slt i32 %238, %154
  %248 = select i1 %247, i32 %154, i32 %238
  %249 = icmp sgt i32 %240, %225
  %250 = select i1 %249, i32 %225, i32 %240
  %251 = sext i32 %239 to i64
  %252 = sext i32 %237 to i64
  %253 = sub nsw i64 %251, %252
  %254 = sext i32 %250 to i64
  %255 = sext i32 %248 to i64
  %256 = sub nsw i64 %254, %255
  %257 = icmp slt i64 %253, 1
  %258 = icmp slt i64 %256, 1
  %259 = or i1 %257, %258
  br i1 %259, label %2952, label %260

; <label>:260:                                    ; preds = %246
  %261 = or i64 %256, %253
  %262 = add nsw i64 %261, 2147483648
  %263 = icmp ugt i64 %262, 4294967295
  br i1 %263, label %2952, label %264

; <label>:264:                                    ; preds = %260
  %265 = bitcast %class.MaskAdditiveBlitter* %17 to %class.SkBlitter* (%class.AdditiveBlitter*, i1)***
  %266 = load %class.SkBlitter* (%class.AdditiveBlitter*, i1)**, %class.SkBlitter* (%class.AdditiveBlitter*, i1)*** %265, align 8
  %267 = getelementptr inbounds %class.SkBlitter* (%class.AdditiveBlitter*, i1)*, %class.SkBlitter* (%class.AdditiveBlitter*, i1)** %266, i64 15
  %268 = load %class.SkBlitter* (%class.AdditiveBlitter*, i1)*, %class.SkBlitter* (%class.AdditiveBlitter*, i1)** %267, align 8
  %269 = call %class.SkBlitter* %268(%class.AdditiveBlitter* nonnull %224, i1 zeroext false) #12
  %270 = sub i32 %239, %237
  %271 = sub i32 %250, %248
  %272 = bitcast %class.SkBlitter* %269 to void (%class.SkBlitter*, i32, i32, i32, i32)***
  %273 = load void (%class.SkBlitter*, i32, i32, i32, i32)**, void (%class.SkBlitter*, i32, i32, i32, i32)*** %272, align 8
  %274 = getelementptr inbounds void (%class.SkBlitter*, i32, i32, i32, i32)*, void (%class.SkBlitter*, i32, i32, i32, i32)** %273, i64 6
  %275 = load void (%class.SkBlitter*, i32, i32, i32, i32)*, void (%class.SkBlitter*, i32, i32, i32, i32)** %274, align 8
  call void %275(%class.SkBlitter* %269, i32 %237, i32 %248, i32 %270, i32 %271) #12
  br label %2952

; <label>:276:                                    ; preds = %211
  %277 = bitcast %struct.SkAnalyticEdge* %10 to i8*
  call void @llvm.lifetime.start.p0i8(i64 72, i8* nonnull %277) #12
  %278 = bitcast %struct.SkAnalyticEdge* %11 to i8*
  call void @llvm.lifetime.start.p0i8(i64 72, i8* nonnull %278) #12
  %279 = sext i32 %234 to i64
  %280 = getelementptr inbounds %struct.SkAnalyticEdge*, %struct.SkAnalyticEdge** %236, i64 %279
  %281 = getelementptr inbounds %struct.SkAnalyticEdge*, %struct.SkAnalyticEdge** %280, i64 -1
  %282 = icmp ugt %struct.SkAnalyticEdge** %281, %236
  br i1 %282, label %283, label %293

; <label>:283:                                    ; preds = %276
  %284 = ptrtoint %struct.SkAnalyticEdge** %281 to i64
  %285 = ptrtoint %struct.SkAnalyticEdge** %236 to i64
  %286 = sub i64 %284, %285
  %287 = lshr exact i64 %286, 3
  %288 = trunc i64 %287 to i32
  %289 = add i32 %288, -1
  %290 = call i32 @llvm.ctlz.i32(i32 %289, i1 false) #12, !range !9
  %291 = shl nuw nsw i32 %290, 1
  %292 = sub nsw i32 64, %291
  call void @_Z12SkTIntroSortIP14SkAnalyticEdge19SkTPointerCompareLTIS0_EEviPT_S5_T0_(i32 %292, %struct.SkAnalyticEdge** %236, %struct.SkAnalyticEdge** nonnull %281) #12
  br label %293

; <label>:293:                                    ; preds = %283, %276
  %294 = icmp sgt i32 %234, 1
  br i1 %294, label %295, label %350

; <label>:295:                                    ; preds = %293
  %296 = and i32 %234, 1
  %297 = xor i32 %296, 1
  %298 = icmp eq i32 %234, 2
  br i1 %298, label %334, label %299

; <label>:299:                                    ; preds = %295
  %300 = zext i32 %297 to i64
  %301 = zext i32 %234 to i64
  %302 = xor i64 %300, -1
  %303 = add nsw i64 %302, %301
  br label %304

; <label>:304:                                    ; preds = %304, %299
  %305 = phi i64 [ 1, %299 ], [ %331, %304 ]
  %306 = phi i64 [ %303, %299 ], [ %332, %304 ]
  %307 = getelementptr inbounds %struct.SkAnalyticEdge*, %struct.SkAnalyticEdge** %236, i64 %305
  %308 = bitcast %struct.SkAnalyticEdge** %307 to i64*
  %309 = load i64, i64* %308, align 8
  %310 = add nsw i64 %305, -1
  %311 = getelementptr inbounds %struct.SkAnalyticEdge*, %struct.SkAnalyticEdge** %236, i64 %310
  %312 = bitcast %struct.SkAnalyticEdge** %311 to i64**
  %313 = load i64*, i64** %312, align 8
  store i64 %309, i64* %313, align 8
  %314 = bitcast %struct.SkAnalyticEdge** %311 to i64*
  %315 = load i64, i64* %314, align 8
  %316 = load %struct.SkAnalyticEdge*, %struct.SkAnalyticEdge** %307, align 8
  %317 = getelementptr inbounds %struct.SkAnalyticEdge, %struct.SkAnalyticEdge* %316, i64 0, i32 1
  %318 = bitcast %struct.SkAnalyticEdge** %317 to i64*
  store i64 %315, i64* %318, align 8
  %319 = add nuw nsw i64 %305, 1
  %320 = getelementptr inbounds %struct.SkAnalyticEdge*, %struct.SkAnalyticEdge** %236, i64 %319
  %321 = bitcast %struct.SkAnalyticEdge** %320 to i64*
  %322 = load i64, i64* %321, align 8
  %323 = getelementptr inbounds %struct.SkAnalyticEdge*, %struct.SkAnalyticEdge** %236, i64 %305
  %324 = bitcast %struct.SkAnalyticEdge** %323 to i64**
  %325 = load i64*, i64** %324, align 8
  store i64 %322, i64* %325, align 8
  %326 = bitcast %struct.SkAnalyticEdge** %323 to i64*
  %327 = load i64, i64* %326, align 8
  %328 = load %struct.SkAnalyticEdge*, %struct.SkAnalyticEdge** %320, align 8
  %329 = getelementptr inbounds %struct.SkAnalyticEdge, %struct.SkAnalyticEdge* %328, i64 0, i32 1
  %330 = bitcast %struct.SkAnalyticEdge** %329 to i64*
  store i64 %327, i64* %330, align 8
  %331 = add nuw nsw i64 %305, 2
  %332 = add i64 %306, -2
  %333 = icmp eq i64 %332, 0
  br i1 %333, label %334, label %304

; <label>:334:                                    ; preds = %304, %295
  %335 = phi i64 [ 1, %295 ], [ %331, %304 ]
  %336 = icmp eq i32 %297, 0
  br i1 %336, label %350, label %337

; <label>:337:                                    ; preds = %334
  %338 = getelementptr inbounds %struct.SkAnalyticEdge*, %struct.SkAnalyticEdge** %236, i64 %335
  %339 = bitcast %struct.SkAnalyticEdge** %338 to i64*
  %340 = load i64, i64* %339, align 8
  %341 = add nsw i64 %335, -1
  %342 = getelementptr inbounds %struct.SkAnalyticEdge*, %struct.SkAnalyticEdge** %236, i64 %341
  %343 = bitcast %struct.SkAnalyticEdge** %342 to i64**
  %344 = load i64*, i64** %343, align 8
  store i64 %340, i64* %344, align 8
  %345 = bitcast %struct.SkAnalyticEdge** %342 to i64*
  %346 = load i64, i64* %345, align 8
  %347 = load %struct.SkAnalyticEdge*, %struct.SkAnalyticEdge** %338, align 8
  %348 = getelementptr inbounds %struct.SkAnalyticEdge, %struct.SkAnalyticEdge* %347, i64 0, i32 1
  %349 = bitcast %struct.SkAnalyticEdge** %348 to i64*
  store i64 %346, i64* %349, align 8
  br label %350

; <label>:350:                                    ; preds = %337, %334, %293
  %351 = add nsw i32 %234, -1
  %352 = sext i32 %351 to i64
  %353 = getelementptr inbounds %struct.SkAnalyticEdge*, %struct.SkAnalyticEdge** %236, i64 %352
  %354 = bitcast %struct.SkAnalyticEdge** %353 to i64*
  %355 = load i64, i64* %354, align 8
  %356 = load %struct.SkAnalyticEdge*, %struct.SkAnalyticEdge** %236, align 8
  %357 = getelementptr inbounds %struct.SkAnalyticEdge, %struct.SkAnalyticEdge* %10, i64 0, i32 1
  %358 = getelementptr inbounds %struct.SkAnalyticEdge, %struct.SkAnalyticEdge* %10, i64 0, i32 0
  %359 = bitcast %struct.SkAnalyticEdge** %357 to i8*
  call void @llvm.memset.p0i8.i64(i8* nonnull align 8 %359, i8 0, i64 16, i1 false) #12
  store %struct.SkAnalyticEdge* %356, %struct.SkAnalyticEdge** %358, align 8
  %360 = getelementptr inbounds %struct.SkAnalyticEdge, %struct.SkAnalyticEdge* %10, i64 0, i32 8
  store i32 -2147483647, i32* %360, align 4
  %361 = getelementptr inbounds %struct.SkAnalyticEdge, %struct.SkAnalyticEdge* %10, i64 0, i32 7
  store i32 -2147483647, i32* %361, align 8
  %362 = getelementptr inbounds %struct.SkAnalyticEdge, %struct.SkAnalyticEdge* %10, i64 0, i32 3
  store i32 -2147483647, i32* %362, align 8
  %363 = getelementptr inbounds %struct.SkAnalyticEdge, %struct.SkAnalyticEdge* %10, i64 0, i32 4
  store i32 0, i32* %363, align 4
  %364 = getelementptr inbounds %struct.SkAnalyticEdge, %struct.SkAnalyticEdge* %10, i64 0, i32 9
  store i32 2147483647, i32* %364, align 8
  %365 = getelementptr inbounds %struct.SkAnalyticEdge, %struct.SkAnalyticEdge* %10, i64 0, i32 5
  store i32 -2147483647, i32* %365, align 8
  %366 = getelementptr inbounds %struct.SkAnalyticEdge, %struct.SkAnalyticEdge* %356, i64 0, i32 1
  store %struct.SkAnalyticEdge* %10, %struct.SkAnalyticEdge** %366, align 8
  %367 = getelementptr inbounds %struct.SkAnalyticEdge, %struct.SkAnalyticEdge* %11, i64 0, i32 2
  store %struct.SkAnalyticEdge* null, %struct.SkAnalyticEdge** %367, align 8
  %368 = getelementptr inbounds %struct.SkAnalyticEdge, %struct.SkAnalyticEdge* %11, i64 0, i32 1
  %369 = bitcast %struct.SkAnalyticEdge** %368 to i64*
  store i64 %355, i64* %369, align 8
  %370 = getelementptr inbounds %struct.SkAnalyticEdge, %struct.SkAnalyticEdge* %11, i64 0, i32 0
  store %struct.SkAnalyticEdge* null, %struct.SkAnalyticEdge** %370, align 8
  %371 = getelementptr inbounds %struct.SkAnalyticEdge, %struct.SkAnalyticEdge* %11, i64 0, i32 8
  store i32 2147483647, i32* %371, align 4
  %372 = getelementptr inbounds %struct.SkAnalyticEdge, %struct.SkAnalyticEdge* %11, i64 0, i32 7
  store i32 2147483647, i32* %372, align 8
  %373 = getelementptr inbounds %struct.SkAnalyticEdge, %struct.SkAnalyticEdge* %11, i64 0, i32 3
  store i32 2147483647, i32* %373, align 8
  %374 = getelementptr inbounds %struct.SkAnalyticEdge, %struct.SkAnalyticEdge* %11, i64 0, i32 4
  store i32 0, i32* %374, align 4
  %375 = getelementptr inbounds %struct.SkAnalyticEdge, %struct.SkAnalyticEdge* %11, i64 0, i32 9
  store i32 2147483647, i32* %375, align 8
  %376 = getelementptr inbounds %struct.SkAnalyticEdge, %struct.SkAnalyticEdge* %11, i64 0, i32 5
  store i32 2147483647, i32* %376, align 8
  %377 = inttoptr i64 %355 to %struct.SkAnalyticEdge*
  %378 = getelementptr inbounds %struct.SkAnalyticEdge, %struct.SkAnalyticEdge* %377, i64 0, i32 0
  store %struct.SkAnalyticEdge* %11, %struct.SkAnalyticEdge** %378, align 8
  br i1 %73, label %386, label %379

; <label>:379:                                    ; preds = %350
  %380 = load i32, i32* %214, align 4
  %381 = icmp sgt i32 %380, %154
  %382 = select i1 %381, i32 %380, i32 %154
  %383 = load i32, i32* %212, align 4
  %384 = icmp slt i32 %383, %225
  %385 = select i1 %384, i32 %383, i32 %225
  br label %386

; <label>:386:                                    ; preds = %379, %350
  %387 = phi i32 [ %382, %379 ], [ %154, %350 ]
  %388 = phi i32 [ %385, %379 ], [ %225, %350 ]
  %389 = shl i32 %237, 16
  %390 = shl i32 %239, 16
  %391 = getelementptr inbounds %class.SkPath, %class.SkPath* %0, i64 0, i32 0, i32 0
  %392 = load %class.SkPathRef*, %class.SkPathRef** %391, align 8
  %393 = getelementptr inbounds %class.SkPathRef, %class.SkPathRef* %392, i64 0, i32 13
  %394 = load i8, i8* %393, align 8
  %395 = icmp eq i8 %394, 0
  %396 = getelementptr inbounds %class.SkPathRef, %class.SkPathRef* %392, i64 0, i32 1
  br i1 %395, label %405, label %397

; <label>:397:                                    ; preds = %386
  %398 = getelementptr inbounds %class.SkPathRef, %class.SkPathRef* %392, i64 0, i32 3
  %399 = load %struct.SkPoint*, %struct.SkPoint** %398, align 8
  %400 = getelementptr inbounds %class.SkPathRef, %class.SkPathRef* %392, i64 0, i32 6
  %401 = load i32, i32* %400, align 4
  %402 = call zeroext i1 @_ZN6SkRect14setBoundsCheckEPK7SkPointi(%struct.SkRect* nonnull %396, %struct.SkPoint* %399, i32 %401) #12
  %403 = getelementptr inbounds %class.SkPathRef, %class.SkPathRef* %392, i64 0, i32 14
  %404 = zext i1 %402 to i8
  store i8 %404, i8* %403, align 1
  store i8 0, i8* %393, align 8
  br label %405

; <label>:405:                                    ; preds = %397, %386
  %406 = getelementptr inbounds %struct.SkRect, %struct.SkRect* %396, i64 0, i32 0
  %407 = load float, float* %406, align 4
  %408 = call float @llvm.floor.f32(float %407) #12
  %409 = fcmp olt float %408, 0x41DFFFFFE0000000
  %410 = select i1 %409, float %408, float 0x41DFFFFFE0000000
  %411 = fcmp ogt float %410, 0xC1DFFFFFE0000000
  %412 = select i1 %411, float %410, float 0xC1DFFFFFE0000000
  %413 = fptosi float %412 to i32
  %414 = getelementptr inbounds %class.SkPathRef, %class.SkPathRef* %392, i64 0, i32 1, i32 2
  %415 = load float, float* %414, align 4
  %416 = call float @llvm.ceil.f32(float %415) #12
  %417 = fcmp olt float %416, 0x41DFFFFFE0000000
  %418 = select i1 %417, float %416, float 0x41DFFFFFE0000000
  %419 = fcmp ogt float %418, 0xC1DFFFFFE0000000
  %420 = select i1 %419, float %418, float 0xC1DFFFFFE0000000
  %421 = fptosi float %420 to i32
  %422 = shl i32 %413, 16
  %423 = icmp slt i32 %422, %389
  %424 = select i1 %423, i32 %389, i32 %422
  %425 = shl i32 %421, 16
  %426 = icmp slt i32 %390, %425
  %427 = select i1 %426, i32 %390, i32 %425
  %428 = load i8, i8* %74, align 2
  %429 = and i8 %428, 2
  %430 = icmp eq i8 %429, 0
  br i1 %430, label %431, label %1734

; <label>:431:                                    ; preds = %405
  %432 = getelementptr inbounds %class.SkPath, %class.SkPath* %0, i64 0, i32 2, i32 0, i32 0
  %433 = load atomic i8, i8* %432 monotonic, align 1
  %434 = icmp eq i8 %433, 0
  br i1 %434, label %435, label %437

; <label>:435:                                    ; preds = %431
  %436 = call zeroext i8 @_ZNK6SkPath20internalGetConvexityEv(%class.SkPath* nonnull %0) #12
  br label %437

; <label>:437:                                    ; preds = %435, %431
  %438 = phi i8 [ %436, %435 ], [ %433, %431 ]
  %439 = icmp eq i8 %438, 1
  %440 = and i1 %294, %439
  br i1 %440, label %441, label %1734

; <label>:441:                                    ; preds = %437
  %442 = bitcast %struct.SkAnalyticEdge* %10 to i64*
  %443 = load i64, i64* %442, align 8
  %444 = inttoptr i64 %443 to %struct.SkAnalyticEdge*
  %445 = getelementptr inbounds %struct.SkAnalyticEdge, %struct.SkAnalyticEdge* %444, i64 0, i32 0
  %446 = load %struct.SkAnalyticEdge*, %struct.SkAnalyticEdge** %445, align 8
  %447 = ptrtoint %struct.SkAnalyticEdge* %446 to i64
  %448 = getelementptr inbounds %struct.SkAnalyticEdge, %struct.SkAnalyticEdge* %446, i64 0, i32 0
  %449 = load %struct.SkAnalyticEdge*, %struct.SkAnalyticEdge** %448, align 8
  %450 = getelementptr inbounds %struct.SkAnalyticEdge, %struct.SkAnalyticEdge* %444, i64 0, i32 7
  %451 = getelementptr inbounds %struct.SkAnalyticEdge, %struct.SkAnalyticEdge* %446, i64 0, i32 7
  %452 = load i32, i32* %451, align 4
  %453 = load i32, i32* %450, align 4
  %454 = icmp slt i32 %452, %453
  %455 = select i1 %454, i32 %453, i32 %452
  %456 = shl i32 %388, 16
  %457 = getelementptr inbounds %class.AdditiveBlitter, %class.AdditiveBlitter* %224, i64 46, i32 0, i32 1, i32 1
  %458 = bitcast i64* %457 to i32*
  %459 = bitcast %class.MaskAdditiveBlitter* %17 to void (%class.AdditiveBlitter*, i32, i32, i32, i8)***
  %460 = bitcast %class.MaskAdditiveBlitter* %17 to void (%class.AdditiveBlitter*, i32, i32)***
  %461 = getelementptr inbounds %class.AdditiveBlitter, %class.AdditiveBlitter* %224, i64 46, i32 0, i32 1, i32 0, i32 0, i32 0, i32 0
  %462 = getelementptr inbounds %class.AdditiveBlitter, %class.AdditiveBlitter* %224, i64 1, i32 0, i32 1, i32 0, i32 0, i32 0, i32 0
  %463 = getelementptr inbounds %class.AdditiveBlitter, %class.AdditiveBlitter* %224, i64 2, i32 0, i32 1
  %464 = bitcast %class.SkAutoMalloc* %463 to i32*
  %465 = getelementptr inbounds %class.AdditiveBlitter, %class.AdditiveBlitter* %224, i64 1, i32 0, i32 1, i32 1
  %466 = bitcast i64* %465 to i32*
  %467 = bitcast %class.MaskAdditiveBlitter* %17 to %class.SkBlitter* (%class.AdditiveBlitter*, i1)***
  %468 = bitcast %class.MaskAdditiveBlitter* %17 to void (%class.AdditiveBlitter*, i32, i32, i8)***
  %469 = or i32 %424, 2048
  %470 = or i32 %427, 2048
  br label %471

; <label>:471:                                    ; preds = %1729, %441
  %472 = phi i64 [ %447, %441 ], [ %615, %1729 ]
  %473 = phi i64 [ %443, %441 ], [ %616, %1729 ]
  %474 = phi i32 [ %455, %441 ], [ %665, %1729 ]
  %475 = phi %struct.SkAnalyticEdge* [ %449, %441 ], [ %536, %1729 ]
  %476 = inttoptr i64 %473 to %struct.SkAnalyticEdge*
  %477 = getelementptr inbounds %struct.SkAnalyticEdge, %struct.SkAnalyticEdge* %476, i64 0, i32 8
  %478 = load i32, i32* %477, align 4
  %479 = icmp sgt i32 %478, %474
  br i1 %479, label %482, label %490

; <label>:480:                                    ; preds = %504
  %481 = inttoptr i64 %505 to %struct.SkAnalyticEdge*
  br label %482

; <label>:482:                                    ; preds = %480, %471
  %483 = phi i64 [ %473, %471 ], [ %505, %480 ]
  %484 = phi %struct.SkAnalyticEdge* [ %475, %471 ], [ %506, %480 ]
  %485 = phi %struct.SkAnalyticEdge* [ %476, %471 ], [ %481, %480 ]
  %486 = inttoptr i64 %472 to %struct.SkAnalyticEdge*
  %487 = getelementptr inbounds %struct.SkAnalyticEdge, %struct.SkAnalyticEdge* %486, i64 0, i32 8
  %488 = load i32, i32* %487, align 4
  %489 = icmp sgt i32 %488, %474
  br i1 %489, label %534, label %511

; <label>:490:                                    ; preds = %471, %504
  %491 = phi %struct.SkAnalyticEdge* [ %507, %504 ], [ %476, %471 ]
  %492 = phi %struct.SkAnalyticEdge* [ %506, %504 ], [ %475, %471 ]
  %493 = phi i64 [ %505, %504 ], [ %473, %471 ]
  %494 = call zeroext i1 @_ZN14SkAnalyticEdge6updateEib(%struct.SkAnalyticEdge* %491, i32 %474, i1 zeroext true) #12
  br i1 %494, label %504, label %495

; <label>:495:                                    ; preds = %490
  %496 = getelementptr inbounds %struct.SkAnalyticEdge, %struct.SkAnalyticEdge* %492, i64 0, i32 7
  %497 = load i32, i32* %496, align 8
  %498 = ashr i32 %497, 16
  %499 = icmp slt i32 %498, %388
  br i1 %499, label %500, label %2951

; <label>:500:                                    ; preds = %495
  %501 = ptrtoint %struct.SkAnalyticEdge* %492 to i64
  %502 = getelementptr inbounds %struct.SkAnalyticEdge, %struct.SkAnalyticEdge* %492, i64 0, i32 0
  %503 = load %struct.SkAnalyticEdge*, %struct.SkAnalyticEdge** %502, align 8
  br label %504

; <label>:504:                                    ; preds = %500, %490
  %505 = phi i64 [ %493, %490 ], [ %501, %500 ]
  %506 = phi %struct.SkAnalyticEdge* [ %492, %490 ], [ %503, %500 ]
  %507 = inttoptr i64 %505 to %struct.SkAnalyticEdge*
  %508 = getelementptr inbounds %struct.SkAnalyticEdge, %struct.SkAnalyticEdge* %507, i64 0, i32 8
  %509 = load i32, i32* %508, align 4
  %510 = icmp sgt i32 %509, %474
  br i1 %510, label %480, label %490

; <label>:511:                                    ; preds = %482, %525
  %512 = phi %struct.SkAnalyticEdge* [ %528, %525 ], [ %486, %482 ]
  %513 = phi %struct.SkAnalyticEdge* [ %527, %525 ], [ %484, %482 ]
  %514 = phi i64 [ %526, %525 ], [ %472, %482 ]
  %515 = call zeroext i1 @_ZN14SkAnalyticEdge6updateEib(%struct.SkAnalyticEdge* %512, i32 %474, i1 zeroext true) #12
  br i1 %515, label %525, label %516

; <label>:516:                                    ; preds = %511
  %517 = getelementptr inbounds %struct.SkAnalyticEdge, %struct.SkAnalyticEdge* %513, i64 0, i32 7
  %518 = load i32, i32* %517, align 8
  %519 = ashr i32 %518, 16
  %520 = icmp slt i32 %519, %388
  br i1 %520, label %521, label %2951

; <label>:521:                                    ; preds = %516
  %522 = ptrtoint %struct.SkAnalyticEdge* %513 to i64
  %523 = getelementptr inbounds %struct.SkAnalyticEdge, %struct.SkAnalyticEdge* %513, i64 0, i32 0
  %524 = load %struct.SkAnalyticEdge*, %struct.SkAnalyticEdge** %523, align 8
  br label %525

; <label>:525:                                    ; preds = %521, %511
  %526 = phi i64 [ %514, %511 ], [ %522, %521 ]
  %527 = phi %struct.SkAnalyticEdge* [ %513, %511 ], [ %524, %521 ]
  %528 = inttoptr i64 %526 to %struct.SkAnalyticEdge*
  %529 = getelementptr inbounds %struct.SkAnalyticEdge, %struct.SkAnalyticEdge* %528, i64 0, i32 8
  %530 = load i32, i32* %529, align 4
  %531 = icmp sgt i32 %530, %474
  br i1 %531, label %532, label %511

; <label>:532:                                    ; preds = %525
  %533 = inttoptr i64 %526 to %struct.SkAnalyticEdge*
  br label %534

; <label>:534:                                    ; preds = %532, %482
  %535 = phi i64 [ %472, %482 ], [ %526, %532 ]
  %536 = phi %struct.SkAnalyticEdge* [ %484, %482 ], [ %527, %532 ]
  %537 = phi %struct.SkAnalyticEdge* [ %486, %482 ], [ %533, %532 ]
  %538 = ashr i32 %474, 16
  %539 = icmp slt i32 %538, %388
  br i1 %539, label %540, label %2951

; <label>:540:                                    ; preds = %534
  %541 = getelementptr inbounds %struct.SkAnalyticEdge, %struct.SkAnalyticEdge* %485, i64 0, i32 6
  %542 = load i32, i32* %541, align 4
  %543 = add nsw i32 %542, 65536
  %544 = icmp eq i32 %543, %474
  br i1 %544, label %545, label %551

; <label>:545:                                    ; preds = %540
  %546 = getelementptr inbounds %struct.SkAnalyticEdge, %struct.SkAnalyticEdge* %485, i64 0, i32 3
  %547 = load i32, i32* %546, align 8
  %548 = getelementptr inbounds %struct.SkAnalyticEdge, %struct.SkAnalyticEdge* %485, i64 0, i32 4
  %549 = load i32, i32* %548, align 4
  %550 = add nsw i32 %549, %547
  store i32 %550, i32* %546, align 8
  br label %568

; <label>:551:                                    ; preds = %540
  %552 = icmp eq i32 %542, %474
  br i1 %552, label %569, label %553

; <label>:553:                                    ; preds = %551
  %554 = getelementptr inbounds %struct.SkAnalyticEdge, %struct.SkAnalyticEdge* %485, i64 0, i32 5
  %555 = load i32, i32* %554, align 8
  %556 = getelementptr inbounds %struct.SkAnalyticEdge, %struct.SkAnalyticEdge* %485, i64 0, i32 4
  %557 = load i32, i32* %556, align 4
  %558 = getelementptr inbounds %struct.SkAnalyticEdge, %struct.SkAnalyticEdge* %485, i64 0, i32 7
  %559 = load i32, i32* %558, align 8
  %560 = sub nsw i32 %474, %559
  %561 = sext i32 %557 to i64
  %562 = sext i32 %560 to i64
  %563 = mul nsw i64 %562, %561
  %564 = lshr i64 %563, 16
  %565 = trunc i64 %564 to i32
  %566 = add nsw i32 %555, %565
  %567 = getelementptr inbounds %struct.SkAnalyticEdge, %struct.SkAnalyticEdge* %485, i64 0, i32 3
  store i32 %566, i32* %567, align 8
  br label %568

; <label>:568:                                    ; preds = %545, %553
  store i32 %474, i32* %541, align 4
  br label %569

; <label>:569:                                    ; preds = %568, %551
  %570 = getelementptr inbounds %struct.SkAnalyticEdge, %struct.SkAnalyticEdge* %537, i64 0, i32 6
  %571 = load i32, i32* %570, align 4
  %572 = add nsw i32 %571, 65536
  %573 = icmp eq i32 %572, %474
  br i1 %573, label %574, label %580

; <label>:574:                                    ; preds = %569
  %575 = getelementptr inbounds %struct.SkAnalyticEdge, %struct.SkAnalyticEdge* %537, i64 0, i32 3
  %576 = load i32, i32* %575, align 8
  %577 = getelementptr inbounds %struct.SkAnalyticEdge, %struct.SkAnalyticEdge* %537, i64 0, i32 4
  %578 = load i32, i32* %577, align 4
  %579 = add nsw i32 %578, %576
  store i32 %579, i32* %575, align 8
  store i32 %474, i32* %570, align 4
  br label %600

; <label>:580:                                    ; preds = %569
  %581 = icmp eq i32 %571, %474
  br i1 %581, label %582, label %585

; <label>:582:                                    ; preds = %580
  %583 = getelementptr inbounds %struct.SkAnalyticEdge, %struct.SkAnalyticEdge* %537, i64 0, i32 3
  %584 = load i32, i32* %583, align 8
  br label %600

; <label>:585:                                    ; preds = %580
  %586 = getelementptr inbounds %struct.SkAnalyticEdge, %struct.SkAnalyticEdge* %537, i64 0, i32 5
  %587 = load i32, i32* %586, align 8
  %588 = getelementptr inbounds %struct.SkAnalyticEdge, %struct.SkAnalyticEdge* %537, i64 0, i32 4
  %589 = load i32, i32* %588, align 4
  %590 = getelementptr inbounds %struct.SkAnalyticEdge, %struct.SkAnalyticEdge* %537, i64 0, i32 7
  %591 = load i32, i32* %590, align 8
  %592 = sub nsw i32 %474, %591
  %593 = sext i32 %589 to i64
  %594 = sext i32 %592 to i64
  %595 = mul nsw i64 %594, %593
  %596 = lshr i64 %595, 16
  %597 = trunc i64 %596 to i32
  %598 = add nsw i32 %587, %597
  %599 = getelementptr inbounds %struct.SkAnalyticEdge, %struct.SkAnalyticEdge* %537, i64 0, i32 3
  store i32 %598, i32* %599, align 8
  store i32 %474, i32* %570, align 4
  br label %600

; <label>:600:                                    ; preds = %585, %582, %574
  %601 = phi i32 [ %584, %582 ], [ %579, %574 ], [ %598, %585 ]
  %602 = getelementptr inbounds %struct.SkAnalyticEdge, %struct.SkAnalyticEdge* %485, i64 0, i32 3
  %603 = load i32, i32* %602, align 8
  %604 = icmp sgt i32 %603, %601
  br i1 %604, label %613, label %605

; <label>:605:                                    ; preds = %600
  %606 = icmp eq i32 %603, %601
  br i1 %606, label %607, label %614

; <label>:607:                                    ; preds = %605
  %608 = getelementptr inbounds %struct.SkAnalyticEdge, %struct.SkAnalyticEdge* %485, i64 0, i32 4
  %609 = load i32, i32* %608, align 4
  %610 = getelementptr inbounds %struct.SkAnalyticEdge, %struct.SkAnalyticEdge* %537, i64 0, i32 4
  %611 = load i32, i32* %610, align 4
  %612 = icmp sgt i32 %609, %611
  br i1 %612, label %613, label %614

; <label>:613:                                    ; preds = %607, %600
  br label %614

; <label>:614:                                    ; preds = %613, %607, %605
  %615 = phi i64 [ %483, %613 ], [ %535, %607 ], [ %535, %605 ]
  %616 = phi i64 [ %535, %613 ], [ %483, %607 ], [ %483, %605 ]
  %617 = inttoptr i64 %616 to %struct.SkAnalyticEdge*
  %618 = getelementptr inbounds %struct.SkAnalyticEdge, %struct.SkAnalyticEdge* %617, i64 0, i32 8
  %619 = load i32, i32* %618, align 4
  %620 = inttoptr i64 %615 to %struct.SkAnalyticEdge*
  %621 = getelementptr inbounds %struct.SkAnalyticEdge, %struct.SkAnalyticEdge* %620, i64 0, i32 8
  %622 = load i32, i32* %621, align 4
  %623 = icmp sgt i32 %619, %622
  %624 = select i1 %623, i32 %622, i32 %619
  %625 = ptrtoint %struct.SkAnalyticEdge* %536 to i64
  %626 = getelementptr inbounds %struct.SkAnalyticEdge, %struct.SkAnalyticEdge* %536, i64 0, i32 7
  %627 = load i32, i32* %626, align 8
  %628 = icmp slt i32 %627, %456
  br i1 %628, label %629, label %662

; <label>:629:                                    ; preds = %614
  %630 = add nsw i32 %619, 65536
  %631 = icmp slt i32 %630, %622
  br i1 %631, label %632, label %634

; <label>:632:                                    ; preds = %629
  %633 = call fastcc zeroext i1 @_ZL14isSmoothEnoughP14SkAnalyticEdgeS0_i(%struct.SkAnalyticEdge* nonnull %617, %struct.SkAnalyticEdge* nonnull %536) #12
  br i1 %633, label %659, label %662

; <label>:634:                                    ; preds = %629
  %635 = add nsw i32 %622, 65536
  %636 = icmp sgt i32 %619, %635
  br i1 %636, label %637, label %639

; <label>:637:                                    ; preds = %634
  %638 = call fastcc zeroext i1 @_ZL14isSmoothEnoughP14SkAnalyticEdgeS0_i(%struct.SkAnalyticEdge* nonnull %620, %struct.SkAnalyticEdge* nonnull %536) #12
  br i1 %638, label %659, label %662

; <label>:639:                                    ; preds = %634
  %640 = getelementptr inbounds %struct.SkAnalyticEdge, %struct.SkAnalyticEdge* %536, i64 0, i32 0
  %641 = load %struct.SkAnalyticEdge*, %struct.SkAnalyticEdge** %640, align 8
  %642 = ptrtoint %struct.SkAnalyticEdge* %641 to i64
  %643 = getelementptr inbounds %struct.SkAnalyticEdge, %struct.SkAnalyticEdge* %641, i64 0, i32 7
  %644 = load i32, i32* %643, align 8
  %645 = icmp slt i32 %644, %456
  br i1 %645, label %646, label %662

; <label>:646:                                    ; preds = %639
  %647 = getelementptr inbounds %struct.SkAnalyticEdge, %struct.SkAnalyticEdge* %641, i64 0, i32 5
  %648 = load i32, i32* %647, align 8
  %649 = getelementptr inbounds %struct.SkAnalyticEdge, %struct.SkAnalyticEdge* %536, i64 0, i32 5
  %650 = load i32, i32* %649, align 8
  %651 = icmp slt i32 %648, %650
  %652 = select i1 %651, i64 %642, i64 %625
  %653 = inttoptr i64 %652 to %struct.SkAnalyticEdge*
  %654 = call fastcc zeroext i1 @_ZL14isSmoothEnoughP14SkAnalyticEdgeS0_i(%struct.SkAnalyticEdge* nonnull %617, %struct.SkAnalyticEdge* %653) #12
  br i1 %654, label %655, label %662

; <label>:655:                                    ; preds = %646
  %656 = select i1 %651, i64 %625, i64 %642
  %657 = inttoptr i64 %656 to %struct.SkAnalyticEdge*
  %658 = call fastcc zeroext i1 @_ZL14isSmoothEnoughP14SkAnalyticEdgeS0_i(%struct.SkAnalyticEdge* nonnull %620, %struct.SkAnalyticEdge* %657) #12
  br i1 %658, label %659, label %662

; <label>:659:                                    ; preds = %655, %637, %632
  %660 = add nsw i32 %624, 65535
  %661 = and i32 %660, -65536
  br label %662

; <label>:662:                                    ; preds = %659, %655, %646, %639, %637, %632, %614
  %663 = phi i32 [ %661, %659 ], [ %624, %655 ], [ %624, %632 ], [ %624, %637 ], [ %624, %614 ], [ %624, %639 ], [ %624, %646 ]
  %664 = icmp sgt i32 %663, %456
  %665 = select i1 %664, i32 %456, i32 %663
  %666 = getelementptr inbounds %struct.SkAnalyticEdge, %struct.SkAnalyticEdge* %617, i64 0, i32 3
  %667 = load i32, i32* %666, align 4
  %668 = icmp slt i32 %667, %424
  %669 = select i1 %668, i32 %424, i32 %667
  %670 = getelementptr inbounds %struct.SkAnalyticEdge, %struct.SkAnalyticEdge* %617, i64 0, i32 4
  %671 = load i32, i32* %670, align 4
  %672 = getelementptr inbounds %struct.SkAnalyticEdge, %struct.SkAnalyticEdge* %620, i64 0, i32 3
  %673 = load i32, i32* %672, align 4
  %674 = icmp sgt i32 %673, %427
  %675 = select i1 %674, i32 %427, i32 %673
  %676 = getelementptr inbounds %struct.SkAnalyticEdge, %struct.SkAnalyticEdge* %620, i64 0, i32 4
  %677 = load i32, i32* %676, align 4
  %678 = or i32 %677, %671
  %679 = icmp eq i32 %678, 0
  br i1 %679, label %680, label %871

; <label>:680:                                    ; preds = %662
  %681 = add nsw i32 %669, 65535
  %682 = ashr i32 %681, 16
  %683 = ashr i32 %675, 16
  %684 = and i32 %681, -65536
  %685 = sub nsw i32 %684, %669
  %686 = and i32 %675, 65535
  %687 = add nsw i32 %474, 65535
  %688 = ashr i32 %687, 16
  %689 = ashr i32 %665, 16
  %690 = and i32 %687, -65536
  %691 = sub nsw i32 %690, %474
  %692 = and i32 %665, 65535
  %693 = icmp slt i32 %689, %688
  %694 = or i32 %665, -65536
  %695 = select i1 %693, i32 0, i32 %692
  %696 = select i1 %693, i32 %694, i32 0
  %697 = add i32 %696, %691
  %698 = icmp slt i32 %683, %682
  %699 = icmp sgt i32 %697, 0
  br i1 %698, label %815, label %700

; <label>:700:                                    ; preds = %680
  br i1 %699, label %701, label %749

; <label>:701:                                    ; preds = %700
  %702 = icmp sgt i32 %685, 0
  br i1 %702, label %705, label %703

; <label>:703:                                    ; preds = %701
  %704 = add nsw i32 %688, -1
  br label %720

; <label>:705:                                    ; preds = %701
  %706 = add nsw i32 %682, -1
  %707 = add nsw i32 %688, -1
  %708 = sext i32 %697 to i64
  %709 = sext i32 %685 to i64
  %710 = mul nsw i64 %709, %708
  %711 = lshr i64 %710, 16
  %712 = trunc i64 %711 to i32
  %713 = mul nsw i32 %712, 255
  %714 = add nsw i32 %713, 32768
  %715 = lshr i32 %714, 16
  %716 = trunc i32 %715 to i8
  %717 = load void (%class.AdditiveBlitter*, i32, i32, i8)**, void (%class.AdditiveBlitter*, i32, i32, i8)*** %468, align 8
  %718 = getelementptr inbounds void (%class.AdditiveBlitter*, i32, i32, i8)*, void (%class.AdditiveBlitter*, i32, i32, i8)** %717, i64 17
  %719 = load void (%class.AdditiveBlitter*, i32, i32, i8)*, void (%class.AdditiveBlitter*, i32, i32, i8)** %718, align 8
  call void %719(%class.AdditiveBlitter* nonnull %224, i32 %706, i32 %707, i8 zeroext %716) #12
  br label %720

; <label>:720:                                    ; preds = %705, %703
  %721 = phi i32 [ %704, %703 ], [ %707, %705 ]
  %722 = sub nsw i32 %683, %682
  %723 = mul nsw i32 %697, 255
  %724 = add nsw i32 %723, 32768
  %725 = lshr i32 %724, 16
  %726 = trunc i32 %725 to i8
  %727 = load void (%class.AdditiveBlitter*, i32, i32, i32, i8)**, void (%class.AdditiveBlitter*, i32, i32, i32, i8)*** %459, align 8
  %728 = getelementptr inbounds void (%class.AdditiveBlitter*, i32, i32, i32, i8)*, void (%class.AdditiveBlitter*, i32, i32, i32, i8)** %727, i64 18
  %729 = load void (%class.AdditiveBlitter*, i32, i32, i32, i8)*, void (%class.AdditiveBlitter*, i32, i32, i32, i8)** %728, align 8
  call void %729(%class.AdditiveBlitter* nonnull %224, i32 %682, i32 %721, i32 %722, i8 zeroext %726) #12
  %730 = icmp eq i32 %686, 0
  br i1 %730, label %744, label %731

; <label>:731:                                    ; preds = %720
  %732 = sext i32 %697 to i64
  %733 = zext i32 %686 to i64
  %734 = mul nsw i64 %733, %732
  %735 = lshr i64 %734, 16
  %736 = trunc i64 %735 to i32
  %737 = mul nsw i32 %736, 255
  %738 = add nsw i32 %737, 32768
  %739 = lshr i32 %738, 16
  %740 = trunc i32 %739 to i8
  %741 = load void (%class.AdditiveBlitter*, i32, i32, i8)**, void (%class.AdditiveBlitter*, i32, i32, i8)*** %468, align 8
  %742 = getelementptr inbounds void (%class.AdditiveBlitter*, i32, i32, i8)*, void (%class.AdditiveBlitter*, i32, i32, i8)** %741, i64 17
  %743 = load void (%class.AdditiveBlitter*, i32, i32, i8)*, void (%class.AdditiveBlitter*, i32, i32, i8)** %742, align 8
  call void %743(%class.AdditiveBlitter* nonnull %224, i32 %683, i32 %721, i8 zeroext %740) #12
  br label %744

; <label>:744:                                    ; preds = %731, %720
  %745 = add i32 %696, %690
  %746 = load void (%class.AdditiveBlitter*, i32, i32)**, void (%class.AdditiveBlitter*, i32, i32)*** %460, align 8
  %747 = getelementptr inbounds void (%class.AdditiveBlitter*, i32, i32)*, void (%class.AdditiveBlitter*, i32, i32)** %746, i64 20
  %748 = load void (%class.AdditiveBlitter*, i32, i32)*, void (%class.AdditiveBlitter*, i32, i32)** %747, align 8
  call void %748(%class.AdditiveBlitter* nonnull %224, i32 %474, i32 %745) #12
  br label %749

; <label>:749:                                    ; preds = %744, %700
  %750 = icmp sgt i32 %689, %688
  br i1 %750, label %751, label %777

; <label>:751:                                    ; preds = %749
  %752 = icmp sle i32 %683, %682
  %753 = mul nsw i32 %685, 255
  %754 = add nsw i32 %753, 32768
  %755 = lshr i32 %754, 16
  %756 = mul nuw nsw i32 %686, 255
  %757 = add nuw nsw i32 %756, 32768
  %758 = lshr i32 %757, 16
  %759 = or i32 %755, %758
  %760 = trunc i32 %759 to i8
  %761 = icmp eq i8 %760, 0
  %762 = and i1 %752, %761
  br i1 %762, label %777, label %763

; <label>:763:                                    ; preds = %751
  %764 = trunc i32 %755 to i8
  %765 = trunc i32 %758 to i8
  %766 = load %class.SkBlitter* (%class.AdditiveBlitter*, i1)**, %class.SkBlitter* (%class.AdditiveBlitter*, i1)*** %467, align 8
  %767 = getelementptr inbounds %class.SkBlitter* (%class.AdditiveBlitter*, i1)*, %class.SkBlitter* (%class.AdditiveBlitter*, i1)** %766, i64 15
  %768 = load %class.SkBlitter* (%class.AdditiveBlitter*, i1)*, %class.SkBlitter* (%class.AdditiveBlitter*, i1)** %767, align 8
  %769 = call %class.SkBlitter* %768(%class.AdditiveBlitter* nonnull %224, i1 zeroext false) #12
  %770 = add nsw i32 %682, -1
  %771 = sub nsw i32 %683, %682
  %772 = sub nsw i32 %689, %688
  %773 = bitcast %class.SkBlitter* %769 to void (%class.SkBlitter*, i32, i32, i32, i32, i8, i8)***
  %774 = load void (%class.SkBlitter*, i32, i32, i32, i32, i8, i8)**, void (%class.SkBlitter*, i32, i32, i32, i32, i8, i8)*** %773, align 8
  %775 = getelementptr inbounds void (%class.SkBlitter*, i32, i32, i32, i32, i8, i8)*, void (%class.SkBlitter*, i32, i32, i32, i32, i8, i8)** %774, i64 7
  %776 = load void (%class.SkBlitter*, i32, i32, i32, i32, i8, i8)*, void (%class.SkBlitter*, i32, i32, i32, i32, i8, i8)** %775, align 8
  call void %776(%class.SkBlitter* %769, i32 %770, i32 %688, i32 %771, i32 %772, i8 zeroext %764, i8 zeroext %765) #12
  br label %777

; <label>:777:                                    ; preds = %763, %751, %749
  %778 = icmp eq i32 %695, 0
  br i1 %778, label %1729, label %779

; <label>:779:                                    ; preds = %777
  %780 = icmp sgt i32 %685, 0
  br i1 %780, label %781, label %795

; <label>:781:                                    ; preds = %779
  %782 = add nsw i32 %682, -1
  %783 = zext i32 %695 to i64
  %784 = sext i32 %685 to i64
  %785 = mul nsw i64 %784, %783
  %786 = lshr i64 %785, 16
  %787 = trunc i64 %786 to i32
  %788 = mul nsw i32 %787, 255
  %789 = add nsw i32 %788, 32768
  %790 = lshr i32 %789, 16
  %791 = trunc i32 %790 to i8
  %792 = load void (%class.AdditiveBlitter*, i32, i32, i8)**, void (%class.AdditiveBlitter*, i32, i32, i8)*** %468, align 8
  %793 = getelementptr inbounds void (%class.AdditiveBlitter*, i32, i32, i8)*, void (%class.AdditiveBlitter*, i32, i32, i8)** %792, i64 17
  %794 = load void (%class.AdditiveBlitter*, i32, i32, i8)*, void (%class.AdditiveBlitter*, i32, i32, i8)** %793, align 8
  call void %794(%class.AdditiveBlitter* nonnull %224, i32 %782, i32 %689, i8 zeroext %791) #12
  br label %795

; <label>:795:                                    ; preds = %781, %779
  %796 = sub nsw i32 %683, %682
  %797 = mul nuw nsw i32 %695, 255
  %798 = add nuw nsw i32 %797, 32768
  %799 = lshr i32 %798, 16
  %800 = trunc i32 %799 to i8
  %801 = load void (%class.AdditiveBlitter*, i32, i32, i32, i8)**, void (%class.AdditiveBlitter*, i32, i32, i32, i8)*** %459, align 8
  %802 = getelementptr inbounds void (%class.AdditiveBlitter*, i32, i32, i32, i8)*, void (%class.AdditiveBlitter*, i32, i32, i32, i8)** %801, i64 18
  %803 = load void (%class.AdditiveBlitter*, i32, i32, i32, i8)*, void (%class.AdditiveBlitter*, i32, i32, i32, i8)** %802, align 8
  call void %803(%class.AdditiveBlitter* nonnull %224, i32 %682, i32 %689, i32 %796, i8 zeroext %800) #12
  %804 = icmp eq i32 %686, 0
  br i1 %804, label %1729, label %805

; <label>:805:                                    ; preds = %795
  %806 = mul nuw i32 %686, %695
  %807 = lshr i32 %806, 16
  %808 = mul nuw nsw i32 %807, 255
  %809 = add nuw nsw i32 %808, 32768
  %810 = lshr i32 %809, 16
  %811 = trunc i32 %810 to i8
  %812 = load void (%class.AdditiveBlitter*, i32, i32, i8)**, void (%class.AdditiveBlitter*, i32, i32, i8)*** %468, align 8
  %813 = getelementptr inbounds void (%class.AdditiveBlitter*, i32, i32, i8)*, void (%class.AdditiveBlitter*, i32, i32, i8)** %812, i64 17
  %814 = load void (%class.AdditiveBlitter*, i32, i32, i8)*, void (%class.AdditiveBlitter*, i32, i32, i8)** %813, align 8
  call void %814(%class.AdditiveBlitter* nonnull %224, i32 %683, i32 %689, i8 zeroext %811) #12
  br label %1729

; <label>:815:                                    ; preds = %680
  br i1 %699, label %816, label %836

; <label>:816:                                    ; preds = %815
  %817 = add nsw i32 %682, -1
  %818 = add nsw i32 %688, -1
  %819 = sub nsw i32 %675, %669
  %820 = sext i32 %697 to i64
  %821 = sext i32 %819 to i64
  %822 = mul nsw i64 %821, %820
  %823 = lshr i64 %822, 16
  %824 = trunc i64 %823 to i32
  %825 = mul nsw i32 %824, 255
  %826 = add nsw i32 %825, 32768
  %827 = lshr i32 %826, 16
  %828 = trunc i32 %827 to i8
  %829 = load void (%class.AdditiveBlitter*, i32, i32, i32, i8)**, void (%class.AdditiveBlitter*, i32, i32, i32, i8)*** %459, align 8
  %830 = getelementptr inbounds void (%class.AdditiveBlitter*, i32, i32, i32, i8)*, void (%class.AdditiveBlitter*, i32, i32, i32, i8)** %829, i64 18
  %831 = load void (%class.AdditiveBlitter*, i32, i32, i32, i8)*, void (%class.AdditiveBlitter*, i32, i32, i32, i8)** %830, align 8
  call void %831(%class.AdditiveBlitter* nonnull %224, i32 %817, i32 %818, i32 1, i8 zeroext %828) #12
  %832 = add i32 %696, %690
  %833 = load void (%class.AdditiveBlitter*, i32, i32)**, void (%class.AdditiveBlitter*, i32, i32)*** %460, align 8
  %834 = getelementptr inbounds void (%class.AdditiveBlitter*, i32, i32)*, void (%class.AdditiveBlitter*, i32, i32)** %833, i64 20
  %835 = load void (%class.AdditiveBlitter*, i32, i32)*, void (%class.AdditiveBlitter*, i32, i32)** %834, align 8
  call void %835(%class.AdditiveBlitter* nonnull %224, i32 %474, i32 %832) #12
  br label %836

; <label>:836:                                    ; preds = %816, %815
  %837 = icmp sgt i32 %689, %688
  br i1 %837, label %838, label %854

; <label>:838:                                    ; preds = %836
  %839 = load %class.SkBlitter* (%class.AdditiveBlitter*, i1)**, %class.SkBlitter* (%class.AdditiveBlitter*, i1)*** %467, align 8
  %840 = getelementptr inbounds %class.SkBlitter* (%class.AdditiveBlitter*, i1)*, %class.SkBlitter* (%class.AdditiveBlitter*, i1)** %839, i64 15
  %841 = load %class.SkBlitter* (%class.AdditiveBlitter*, i1)*, %class.SkBlitter* (%class.AdditiveBlitter*, i1)** %840, align 8
  %842 = call %class.SkBlitter* %841(%class.AdditiveBlitter* nonnull %224, i1 zeroext false) #12
  %843 = add nsw i32 %682, -1
  %844 = sub nsw i32 %689, %688
  %845 = sub nsw i32 %675, %669
  %846 = mul nsw i32 %845, 255
  %847 = add nsw i32 %846, 32768
  %848 = lshr i32 %847, 16
  %849 = trunc i32 %848 to i8
  %850 = bitcast %class.SkBlitter* %842 to void (%class.SkBlitter*, i32, i32, i32, i8)***
  %851 = load void (%class.SkBlitter*, i32, i32, i32, i8)**, void (%class.SkBlitter*, i32, i32, i32, i8)*** %850, align 8
  %852 = getelementptr inbounds void (%class.SkBlitter*, i32, i32, i32, i8)*, void (%class.SkBlitter*, i32, i32, i32, i8)** %851, i64 5
  %853 = load void (%class.SkBlitter*, i32, i32, i32, i8)*, void (%class.SkBlitter*, i32, i32, i32, i8)** %852, align 8
  call void %853(%class.SkBlitter* %842, i32 %843, i32 %688, i32 %844, i8 zeroext %849) #12
  br label %854

; <label>:854:                                    ; preds = %838, %836
  %855 = icmp eq i32 %695, 0
  br i1 %855, label %1729, label %856

; <label>:856:                                    ; preds = %854
  %857 = add nsw i32 %682, -1
  %858 = sub nsw i32 %675, %669
  %859 = zext i32 %695 to i64
  %860 = sext i32 %858 to i64
  %861 = mul nsw i64 %860, %859
  %862 = lshr i64 %861, 16
  %863 = trunc i64 %862 to i32
  %864 = mul nsw i32 %863, 255
  %865 = add nsw i32 %864, 32768
  %866 = lshr i32 %865, 16
  %867 = trunc i32 %866 to i8
  %868 = load void (%class.AdditiveBlitter*, i32, i32, i32, i8)**, void (%class.AdditiveBlitter*, i32, i32, i32, i8)*** %459, align 8
  %869 = getelementptr inbounds void (%class.AdditiveBlitter*, i32, i32, i32, i8)*, void (%class.AdditiveBlitter*, i32, i32, i32, i8)** %868, i64 18
  %870 = load void (%class.AdditiveBlitter*, i32, i32, i32, i8)*, void (%class.AdditiveBlitter*, i32, i32, i32, i8)** %869, align 8
  call void %870(%class.AdditiveBlitter* nonnull %224, i32 %857, i32 %689, i32 1, i8 zeroext %867) #12
  br label %1729

; <label>:871:                                    ; preds = %662
  %872 = add nsw i32 %669, 2048
  %873 = add nsw i32 %675, 2048
  %874 = add nsw i32 %665, 65535
  %875 = ashr i32 %874, 16
  %876 = sub nsw i32 %875, %538
  %877 = load i32, i32* %458, align 8
  %878 = icmp eq i32 %877, %538
  br i1 %878, label %879, label %881

; <label>:879:                                    ; preds = %871
  %880 = load i8*, i8** %461, align 8
  br label %893

; <label>:881:                                    ; preds = %871
  store i32 %538, i32* %458, align 8
  %882 = load i8*, i8** %462, align 8
  %883 = load i32, i32* %218, align 4
  %884 = sub nsw i32 %538, %883
  %885 = load i32, i32* %464, align 8
  %886 = mul i32 %884, %885
  %887 = zext i32 %886 to i64
  %888 = getelementptr inbounds i8, i8* %882, i64 %887
  %889 = load i32, i32* %466, align 8
  %890 = sext i32 %889 to i64
  %891 = sub nsw i64 0, %890
  %892 = getelementptr inbounds i8, i8* %888, i64 %891
  store i8* %892, i8** %461, align 8
  br label %893

; <label>:893:                                    ; preds = %881, %879
  %894 = phi i8* [ %880, %879 ], [ %892, %881 ]
  %895 = icmp sgt i32 %876, 1
  br i1 %895, label %896, label %1432

; <label>:896:                                    ; preds = %893
  %897 = and i32 %474, -65536
  %898 = icmp eq i32 %897, %474
  br i1 %898, label %899, label %902

; <label>:899:                                    ; preds = %896
  %900 = getelementptr inbounds %struct.SkAnalyticEdge, %struct.SkAnalyticEdge* %617, i64 0, i32 9
  %901 = getelementptr inbounds %struct.SkAnalyticEdge, %struct.SkAnalyticEdge* %620, i64 0, i32 9
  br label %1175

; <label>:902:                                    ; preds = %896
  %903 = add nsw i32 %876, -1
  %904 = add nsw i32 %474, 65536
  %905 = and i32 %904, -65536
  %906 = sub nsw i32 %905, %474
  %907 = sext i32 %671 to i64
  %908 = sext i32 %906 to i64
  %909 = mul nsw i64 %907, %908
  %910 = lshr i64 %909, 16
  %911 = trunc i64 %910 to i32
  %912 = add nsw i32 %872, %911
  %913 = sext i32 %677 to i64
  %914 = mul nsw i64 %913, %908
  %915 = lshr i64 %914, 16
  %916 = trunc i64 %915 to i32
  %917 = add nsw i32 %873, %916
  %918 = and i32 %872, -4096
  %919 = and i32 %873, -4096
  %920 = and i32 %912, -4096
  %921 = and i32 %917, -4096
  %922 = getelementptr inbounds %struct.SkAnalyticEdge, %struct.SkAnalyticEdge* %617, i64 0, i32 9
  %923 = load i32, i32* %922, align 8
  %924 = getelementptr inbounds %struct.SkAnalyticEdge, %struct.SkAnalyticEdge* %620, i64 0, i32 9
  %925 = load i32, i32* %924, align 8
  %926 = mul nsw i32 %906, 255
  %927 = add nsw i32 %926, 32768
  %928 = lshr i32 %927, 16
  %929 = trunc i32 %928 to i8
  %930 = icmp sgt i32 %918, %919
  br i1 %930, label %1170, label %931

; <label>:931:                                    ; preds = %902
  %932 = icmp sgt i32 %920, %921
  br i1 %932, label %933, label %946

; <label>:933:                                    ; preds = %931
  %934 = icmp sgt i32 %918, %920
  %935 = select i1 %934, i32 %920, i32 %918
  %936 = select i1 %934, i32 %918, i32 %920
  %937 = icmp sgt i32 %919, %921
  %938 = select i1 %937, i32 %921, i32 %919
  %939 = select i1 %937, i32 %919, i32 %921
  %940 = icmp slt i32 %938, %935
  %941 = select i1 %940, i32 %935, i32 %938
  %942 = icmp slt i32 %936, %939
  %943 = select i1 %942, i32 %936, i32 %939
  %944 = add nsw i32 %941, %943
  %945 = ashr exact i32 %944, 1
  br label %946

; <label>:946:                                    ; preds = %933, %931
  %947 = phi i32 [ %945, %933 ], [ %920, %931 ]
  %948 = phi i32 [ %945, %933 ], [ %921, %931 ]
  %949 = icmp eq i32 %918, %919
  %950 = icmp eq i32 %947, %948
  %951 = and i1 %949, %950
  br i1 %951, label %1170, label %952

; <label>:952:                                    ; preds = %946
  %953 = icmp slt i32 %947, %918
  %954 = select i1 %953, i32 %947, i32 %918
  %955 = select i1 %953, i32 %918, i32 %947
  %956 = icmp slt i32 %948, %919
  %957 = select i1 %956, i32 %948, i32 %919
  %958 = select i1 %956, i32 %919, i32 %948
  %959 = add nsw i32 %955, 65535
  %960 = and i32 %959, -65536
  %961 = and i32 %957, -65536
  %962 = icmp slt i32 %961, %960
  br i1 %962, label %1169, label %963

; <label>:963:                                    ; preds = %952
  %964 = icmp sgt i32 %960, %954
  br i1 %964, label %965, label %1026

; <label>:965:                                    ; preds = %963
  %966 = sub nsw i32 %960, %954
  %967 = add nsw i32 %966, 65535
  %968 = ashr i32 %967, 16
  switch i32 %968, label %1025 [
    i32 1, label %969
    i32 2, label %990
  ]

; <label>:969:                                    ; preds = %965
  %970 = sub i32 %960, %955
  %971 = add nsw i32 %970, %966
  %972 = lshr i32 %971, 9
  %973 = ashr i32 %954, 16
  %974 = icmp eq i8 %929, -1
  %975 = sext i32 %973 to i64
  %976 = getelementptr inbounds i8, i8* %894, i64 %975
  br i1 %974, label %977, label %979

; <label>:977:                                    ; preds = %969
  %978 = trunc i32 %972 to i8
  store i8 %978, i8* %976, align 1
  br label %1026

; <label>:979:                                    ; preds = %969
  %980 = and i32 %972, 255
  %981 = and i32 %928, 255
  %982 = mul nuw nsw i32 %980, %981
  %983 = lshr i32 %982, 8
  %984 = load i8, i8* %976, align 1
  %985 = zext i8 %984 to i32
  %986 = add nuw nsw i32 %983, %985
  %987 = lshr i32 %986, 8
  %988 = sub nsw i32 %986, %987
  %989 = trunc i32 %988 to i8
  store i8 %989, i8* %976, align 1
  br label %1026

; <label>:990:                                    ; preds = %965
  %991 = sub i32 -65536, %954
  %992 = add i32 %960, %991
  %993 = sub i32 %955, %954
  %994 = sub i32 %993, %992
  %995 = ashr i32 %992, 11
  %996 = ashr i32 %923, 11
  %997 = mul i32 %995, %996
  %998 = mul i32 %997, %995
  %999 = lshr i32 %998, 8
  %1000 = ashr i32 %994, 11
  %1001 = mul i32 %1000, %996
  %1002 = mul i32 %1001, %1000
  %1003 = lshr i32 %1002, 8
  %1004 = sub nsw i32 %928, %1003
  %1005 = ashr i32 %954, 16
  %1006 = sext i32 %1005 to i64
  %1007 = getelementptr inbounds i8, i8* %894, i64 %1006
  %1008 = load i8, i8* %1007, align 1
  %1009 = zext i8 %1008 to i32
  %1010 = and i32 %999, 255
  %1011 = add nuw nsw i32 %1010, %1009
  %1012 = lshr i32 %1011, 8
  %1013 = sub nsw i32 %1011, %1012
  %1014 = trunc i32 %1013 to i8
  store i8 %1014, i8* %1007, align 1
  %1015 = add nsw i32 %1005, 1
  %1016 = sext i32 %1015 to i64
  %1017 = getelementptr inbounds i8, i8* %894, i64 %1016
  %1018 = load i8, i8* %1017, align 1
  %1019 = zext i8 %1018 to i32
  %1020 = and i32 %1004, 255
  %1021 = add nuw nsw i32 %1020, %1019
  %1022 = lshr i32 %1021, 8
  %1023 = sub nsw i32 %1021, %1022
  %1024 = trunc i32 %1023 to i8
  store i8 %1024, i8* %1017, align 1
  br label %1026

; <label>:1025:                                   ; preds = %965
  call fastcc void @_ZL22blit_aaa_trapezoid_rowP15AdditiveBlitteriiiiiiihPhbbb(%class.AdditiveBlitter* nonnull %224, i32 %538, i32 %954, i32 %960, i32 %955, i32 %960, i32 %923, i32 2147483647, i8 zeroext %929, i8* %894, i1 zeroext true, i1 zeroext false, i1 zeroext false) #12
  br label %1026

; <label>:1026:                                   ; preds = %1025, %990, %979, %977, %963
  %1027 = icmp sgt i32 %961, %960
  br i1 %1027, label %1028, label %1106

; <label>:1028:                                   ; preds = %1026
  %1029 = sub nsw i32 %961, %960
  %1030 = icmp sgt i32 %1029, 0
  br i1 %1030, label %1031, label %1106

; <label>:1031:                                   ; preds = %1028
  %1032 = lshr exact i32 %1029, 16
  %1033 = ashr i32 %959, 16
  %1034 = and i32 %928, 255
  %1035 = sext i32 %1033 to i64
  %1036 = zext i32 %1032 to i64
  %1037 = icmp ult i32 %1029, 1048576
  br i1 %1037, label %1092, label %1038

; <label>:1038:                                   ; preds = %1031
  %1039 = and i64 %1036, 65520
  %1040 = insertelement <16 x i32> undef, i32 %1034, i32 0
  %1041 = shufflevector <16 x i32> %1040, <16 x i32> undef, <16 x i32> zeroinitializer
  %1042 = add nsw i64 %1039, -16
  %1043 = lshr exact i64 %1042, 4
  %1044 = add nuw nsw i64 %1043, 1
  %1045 = and i64 %1044, 1
  %1046 = icmp eq i64 %1042, 0
  br i1 %1046, label %1076, label %1047

; <label>:1047:                                   ; preds = %1038
  %1048 = sub nsw i64 %1044, %1045
  br label %1049

; <label>:1049:                                   ; preds = %1049, %1047
  %1050 = phi i64 [ 0, %1047 ], [ %1073, %1049 ]
  %1051 = phi i64 [ %1048, %1047 ], [ %1074, %1049 ]
  %1052 = add nsw i64 %1050, %1035
  %1053 = getelementptr inbounds i8, i8* %894, i64 %1052
  %1054 = bitcast i8* %1053 to <16 x i8>*
  %1055 = load <16 x i8>, <16 x i8>* %1054, align 1
  %1056 = zext <16 x i8> %1055 to <16 x i32>
  %1057 = add nuw nsw <16 x i32> %1041, %1056
  %1058 = lshr <16 x i32> %1057, <i32 8, i32 8, i32 8, i32 8, i32 8, i32 8, i32 8, i32 8, i32 8, i32 8, i32 8, i32 8, i32 8, i32 8, i32 8, i32 8>
  %1059 = sub nsw <16 x i32> %1057, %1058
  %1060 = trunc <16 x i32> %1059 to <16 x i8>
  %1061 = bitcast i8* %1053 to <16 x i8>*
  store <16 x i8> %1060, <16 x i8>* %1061, align 1
  %1062 = or i64 %1050, 16
  %1063 = add nsw i64 %1062, %1035
  %1064 = getelementptr inbounds i8, i8* %894, i64 %1063
  %1065 = bitcast i8* %1064 to <16 x i8>*
  %1066 = load <16 x i8>, <16 x i8>* %1065, align 1
  %1067 = zext <16 x i8> %1066 to <16 x i32>
  %1068 = add nuw nsw <16 x i32> %1041, %1067
  %1069 = lshr <16 x i32> %1068, <i32 8, i32 8, i32 8, i32 8, i32 8, i32 8, i32 8, i32 8, i32 8, i32 8, i32 8, i32 8, i32 8, i32 8, i32 8, i32 8>
  %1070 = sub nsw <16 x i32> %1068, %1069
  %1071 = trunc <16 x i32> %1070 to <16 x i8>
  %1072 = bitcast i8* %1064 to <16 x i8>*
  store <16 x i8> %1071, <16 x i8>* %1072, align 1
  %1073 = add i64 %1050, 32
  %1074 = add i64 %1051, -2
  %1075 = icmp eq i64 %1074, 0
  br i1 %1075, label %1076, label %1049, !llvm.loop !10

; <label>:1076:                                   ; preds = %1049, %1038
  %1077 = phi i64 [ 0, %1038 ], [ %1073, %1049 ]
  %1078 = icmp eq i64 %1045, 0
  br i1 %1078, label %1090, label %1079

; <label>:1079:                                   ; preds = %1076
  %1080 = add nsw i64 %1077, %1035
  %1081 = getelementptr inbounds i8, i8* %894, i64 %1080
  %1082 = bitcast i8* %1081 to <16 x i8>*
  %1083 = load <16 x i8>, <16 x i8>* %1082, align 1
  %1084 = zext <16 x i8> %1083 to <16 x i32>
  %1085 = add nuw nsw <16 x i32> %1041, %1084
  %1086 = lshr <16 x i32> %1085, <i32 8, i32 8, i32 8, i32 8, i32 8, i32 8, i32 8, i32 8, i32 8, i32 8, i32 8, i32 8, i32 8, i32 8, i32 8, i32 8>
  %1087 = sub nsw <16 x i32> %1085, %1086
  %1088 = trunc <16 x i32> %1087 to <16 x i8>
  %1089 = bitcast i8* %1081 to <16 x i8>*
  store <16 x i8> %1088, <16 x i8>* %1089, align 1
  br label %1090

; <label>:1090:                                   ; preds = %1076, %1079
  %1091 = icmp eq i64 %1039, %1036
  br i1 %1091, label %1106, label %1092

; <label>:1092:                                   ; preds = %1090, %1031
  %1093 = phi i64 [ 0, %1031 ], [ %1039, %1090 ]
  br label %1094

; <label>:1094:                                   ; preds = %1092, %1094
  %1095 = phi i64 [ %1104, %1094 ], [ %1093, %1092 ]
  %1096 = add nsw i64 %1095, %1035
  %1097 = getelementptr inbounds i8, i8* %894, i64 %1096
  %1098 = load i8, i8* %1097, align 1
  %1099 = zext i8 %1098 to i32
  %1100 = add nuw nsw i32 %1034, %1099
  %1101 = lshr i32 %1100, 8
  %1102 = sub nsw i32 %1100, %1101
  %1103 = trunc i32 %1102 to i8
  store i8 %1103, i8* %1097, align 1
  %1104 = add nuw nsw i64 %1095, 1
  %1105 = icmp eq i64 %1104, %1036
  br i1 %1105, label %1106, label %1094, !llvm.loop !11

; <label>:1106:                                   ; preds = %1094, %1090, %1028, %1026
  %1107 = icmp sgt i32 %958, %961
  br i1 %1107, label %1108, label %1170

; <label>:1108:                                   ; preds = %1106
  %1109 = sub nsw i32 %958, %961
  %1110 = add nsw i32 %1109, 65535
  %1111 = ashr i32 %1110, 16
  switch i32 %1111, label %1168 [
    i32 1, label %1112
    i32 2, label %1133
  ]

; <label>:1112:                                   ; preds = %1108
  %1113 = sub i32 %957, %961
  %1114 = add nsw i32 %1113, %1109
  %1115 = lshr i32 %1114, 9
  %1116 = ashr i32 %957, 16
  %1117 = icmp eq i8 %929, -1
  %1118 = sext i32 %1116 to i64
  %1119 = getelementptr inbounds i8, i8* %894, i64 %1118
  br i1 %1117, label %1120, label %1122

; <label>:1120:                                   ; preds = %1112
  %1121 = trunc i32 %1115 to i8
  store i8 %1121, i8* %1119, align 1
  br label %1170

; <label>:1122:                                   ; preds = %1112
  %1123 = and i32 %1115, 255
  %1124 = and i32 %928, 255
  %1125 = mul nuw nsw i32 %1123, %1124
  %1126 = lshr i32 %1125, 8
  %1127 = load i8, i8* %1119, align 1
  %1128 = zext i8 %1127 to i32
  %1129 = add nuw nsw i32 %1126, %1128
  %1130 = lshr i32 %1129, 8
  %1131 = sub nsw i32 %1129, %1130
  %1132 = trunc i32 %1131 to i8
  store i8 %1132, i8* %1119, align 1
  br label %1170

; <label>:1133:                                   ; preds = %1108
  %1134 = sub i32 65536, %957
  %1135 = add i32 %1134, %961
  %1136 = sub i32 %958, %957
  %1137 = sub i32 %1136, %1135
  %1138 = ashr i32 %1135, 11
  %1139 = ashr i32 %925, 11
  %1140 = mul i32 %1138, %1139
  %1141 = mul i32 %1140, %1138
  %1142 = lshr i32 %1141, 8
  %1143 = sub nsw i32 %928, %1142
  %1144 = ashr i32 %1137, 11
  %1145 = mul i32 %1144, %1139
  %1146 = mul i32 %1145, %1144
  %1147 = lshr i32 %1146, 8
  %1148 = ashr i32 %957, 16
  %1149 = sext i32 %1148 to i64
  %1150 = getelementptr inbounds i8, i8* %894, i64 %1149
  %1151 = load i8, i8* %1150, align 1
  %1152 = zext i8 %1151 to i32
  %1153 = and i32 %1143, 255
  %1154 = add nuw nsw i32 %1153, %1152
  %1155 = lshr i32 %1154, 8
  %1156 = sub nsw i32 %1154, %1155
  %1157 = trunc i32 %1156 to i8
  store i8 %1157, i8* %1150, align 1
  %1158 = add nsw i32 %1148, 1
  %1159 = sext i32 %1158 to i64
  %1160 = getelementptr inbounds i8, i8* %894, i64 %1159
  %1161 = load i8, i8* %1160, align 1
  %1162 = zext i8 %1161 to i32
  %1163 = and i32 %1147, 255
  %1164 = add nuw nsw i32 %1163, %1162
  %1165 = lshr i32 %1164, 8
  %1166 = sub nsw i32 %1164, %1165
  %1167 = trunc i32 %1166 to i8
  store i8 %1167, i8* %1160, align 1
  br label %1170

; <label>:1168:                                   ; preds = %1108
  call fastcc void @_ZL22blit_aaa_trapezoid_rowP15AdditiveBlitteriiiiiiihPhbbb(%class.AdditiveBlitter* nonnull %224, i32 %538, i32 %961, i32 %957, i32 %961, i32 %958, i32 2147483647, i32 %925, i8 zeroext %929, i8* %894, i1 zeroext true, i1 zeroext false, i1 zeroext false) #12
  br label %1170

; <label>:1169:                                   ; preds = %952
  call fastcc void @_ZL22blit_aaa_trapezoid_rowP15AdditiveBlitteriiiiiiihPhbbb(%class.AdditiveBlitter* nonnull %224, i32 %538, i32 %954, i32 %957, i32 %955, i32 %958, i32 %923, i32 %925, i8 zeroext %929, i8* %894, i1 zeroext true, i1 zeroext false, i1 zeroext false) #12
  br label %1170

; <label>:1170:                                   ; preds = %1169, %1168, %1133, %1122, %1120, %1106, %946, %902
  %1171 = load void (%class.AdditiveBlitter*, i32, i32)**, void (%class.AdditiveBlitter*, i32, i32)*** %460, align 8
  %1172 = getelementptr inbounds void (%class.AdditiveBlitter*, i32, i32)*, void (%class.AdditiveBlitter*, i32, i32)** %1171, i64 20
  %1173 = load void (%class.AdditiveBlitter*, i32, i32)*, void (%class.AdditiveBlitter*, i32, i32)** %1172, align 8
  call void %1173(%class.AdditiveBlitter* nonnull %224, i32 %474, i32 %905) #12
  %1174 = icmp sgt i32 %876, 2
  br i1 %1174, label %1175, label %1432

; <label>:1175:                                   ; preds = %1170, %899
  %1176 = phi i32* [ %901, %899 ], [ %924, %1170 ]
  %1177 = phi i32* [ %900, %899 ], [ %922, %1170 ]
  %1178 = phi i32 [ %474, %899 ], [ %905, %1170 ]
  %1179 = phi i32 [ %872, %899 ], [ %912, %1170 ]
  %1180 = phi i32 [ %873, %899 ], [ %917, %1170 ]
  %1181 = phi i32 [ %876, %899 ], [ %903, %1170 ]
  br label %1182

; <label>:1182:                                   ; preds = %1427, %1175
  %1183 = phi i32 [ %1178, %1175 ], [ %1207, %1427 ]
  %1184 = phi i32 [ %1179, %1175 ], [ %1208, %1427 ]
  %1185 = phi i32 [ %1180, %1175 ], [ %1209, %1427 ]
  %1186 = phi i32 [ %1181, %1175 ], [ %1187, %1427 ]
  %1187 = add nsw i32 %1186, -1
  %1188 = ashr i32 %1183, 16
  %1189 = load i32, i32* %458, align 8
  %1190 = icmp eq i32 %1189, %1188
  br i1 %1190, label %1191, label %1193

; <label>:1191:                                   ; preds = %1182
  %1192 = load i8*, i8** %461, align 8
  br label %1205

; <label>:1193:                                   ; preds = %1182
  store i32 %1188, i32* %458, align 8
  %1194 = load i8*, i8** %462, align 8
  %1195 = load i32, i32* %218, align 4
  %1196 = sub nsw i32 %1188, %1195
  %1197 = load i32, i32* %464, align 8
  %1198 = mul i32 %1196, %1197
  %1199 = zext i32 %1198 to i64
  %1200 = getelementptr inbounds i8, i8* %1194, i64 %1199
  %1201 = load i32, i32* %466, align 8
  %1202 = sext i32 %1201 to i64
  %1203 = sub nsw i64 0, %1202
  %1204 = getelementptr inbounds i8, i8* %1200, i64 %1203
  store i8* %1204, i8** %461, align 8
  br label %1205

; <label>:1205:                                   ; preds = %1193, %1191
  %1206 = phi i8* [ %1204, %1193 ], [ %1192, %1191 ]
  %1207 = add nsw i32 %1183, 65536
  %1208 = add nsw i32 %1184, %671
  %1209 = add nsw i32 %1185, %677
  %1210 = and i32 %1184, -4096
  %1211 = and i32 %1185, -4096
  %1212 = and i32 %1208, -4096
  %1213 = and i32 %1209, -4096
  %1214 = load i32, i32* %1177, align 8
  %1215 = load i32, i32* %1176, align 8
  %1216 = icmp sgt i32 %1210, %1211
  br i1 %1216, label %1427, label %1217

; <label>:1217:                                   ; preds = %1205
  %1218 = icmp sgt i32 %1212, %1213
  br i1 %1218, label %1219, label %1232

; <label>:1219:                                   ; preds = %1217
  %1220 = icmp sgt i32 %1210, %1212
  %1221 = select i1 %1220, i32 %1212, i32 %1210
  %1222 = select i1 %1220, i32 %1210, i32 %1212
  %1223 = icmp sgt i32 %1211, %1213
  %1224 = select i1 %1223, i32 %1213, i32 %1211
  %1225 = select i1 %1223, i32 %1211, i32 %1213
  %1226 = icmp slt i32 %1224, %1221
  %1227 = select i1 %1226, i32 %1221, i32 %1224
  %1228 = icmp slt i32 %1222, %1225
  %1229 = select i1 %1228, i32 %1222, i32 %1225
  %1230 = add nsw i32 %1227, %1229
  %1231 = ashr exact i32 %1230, 1
  br label %1232

; <label>:1232:                                   ; preds = %1219, %1217
  %1233 = phi i32 [ %1231, %1219 ], [ %1212, %1217 ]
  %1234 = phi i32 [ %1231, %1219 ], [ %1213, %1217 ]
  %1235 = icmp eq i32 %1210, %1211
  %1236 = icmp eq i32 %1233, %1234
  %1237 = and i1 %1235, %1236
  br i1 %1237, label %1427, label %1238

; <label>:1238:                                   ; preds = %1232
  %1239 = icmp slt i32 %1233, %1210
  %1240 = select i1 %1239, i32 %1233, i32 %1210
  %1241 = select i1 %1239, i32 %1210, i32 %1233
  %1242 = icmp slt i32 %1234, %1211
  %1243 = select i1 %1242, i32 %1234, i32 %1211
  %1244 = select i1 %1242, i32 %1211, i32 %1234
  %1245 = add nsw i32 %1241, 65535
  %1246 = and i32 %1245, -65536
  %1247 = and i32 %1243, -65536
  %1248 = icmp slt i32 %1247, %1246
  br i1 %1248, label %1426, label %1249

; <label>:1249:                                   ; preds = %1238
  %1250 = icmp sgt i32 %1246, %1240
  br i1 %1250, label %1251, label %1299

; <label>:1251:                                   ; preds = %1249
  %1252 = sub nsw i32 %1246, %1240
  %1253 = add nsw i32 %1252, 65535
  %1254 = ashr i32 %1253, 16
  switch i32 %1254, label %1298 [
    i32 1, label %1255
    i32 2, label %1263
  ]

; <label>:1255:                                   ; preds = %1251
  %1256 = sub i32 %1246, %1241
  %1257 = add nsw i32 %1256, %1252
  %1258 = lshr i32 %1257, 9
  %1259 = trunc i32 %1258 to i8
  %1260 = ashr i32 %1240, 16
  %1261 = sext i32 %1260 to i64
  %1262 = getelementptr inbounds i8, i8* %1206, i64 %1261
  store i8 %1259, i8* %1262, align 1
  br label %1299

; <label>:1263:                                   ; preds = %1251
  %1264 = sub i32 -65536, %1240
  %1265 = add i32 %1246, %1264
  %1266 = sub i32 %1241, %1240
  %1267 = sub i32 %1266, %1265
  %1268 = ashr i32 %1265, 11
  %1269 = ashr i32 %1214, 11
  %1270 = mul i32 %1268, %1269
  %1271 = mul i32 %1270, %1268
  %1272 = lshr i32 %1271, 8
  %1273 = ashr i32 %1267, 11
  %1274 = mul i32 %1273, %1269
  %1275 = mul i32 %1274, %1273
  %1276 = lshr i32 %1275, 8
  %1277 = ashr i32 %1240, 16
  %1278 = sext i32 %1277 to i64
  %1279 = getelementptr inbounds i8, i8* %1206, i64 %1278
  %1280 = load i8, i8* %1279, align 1
  %1281 = zext i8 %1280 to i32
  %1282 = and i32 %1272, 255
  %1283 = add nuw nsw i32 %1282, %1281
  %1284 = lshr i32 %1283, 8
  %1285 = sub nsw i32 %1283, %1284
  %1286 = trunc i32 %1285 to i8
  store i8 %1286, i8* %1279, align 1
  %1287 = add nsw i32 %1277, 1
  %1288 = sext i32 %1287 to i64
  %1289 = getelementptr inbounds i8, i8* %1206, i64 %1288
  %1290 = load i8, i8* %1289, align 1
  %1291 = zext i8 %1290 to i32
  %1292 = and i32 %1276, 255
  %1293 = xor i32 %1292, 255
  %1294 = add nuw nsw i32 %1293, %1291
  %1295 = lshr i32 %1294, 8
  %1296 = sub nsw i32 %1294, %1295
  %1297 = trunc i32 %1296 to i8
  store i8 %1297, i8* %1289, align 1
  br label %1299

; <label>:1298:                                   ; preds = %1251
  call fastcc void @_ZL22blit_aaa_trapezoid_rowP15AdditiveBlitteriiiiiiihPhbbb(%class.AdditiveBlitter* nonnull %224, i32 %1188, i32 %1240, i32 %1246, i32 %1241, i32 %1246, i32 %1214, i32 2147483647, i8 zeroext -1, i8* %1206, i1 zeroext true, i1 zeroext false, i1 zeroext false) #12
  br label %1299

; <label>:1299:                                   ; preds = %1298, %1263, %1255, %1249
  %1300 = icmp sgt i32 %1247, %1246
  br i1 %1300, label %1301, label %1376

; <label>:1301:                                   ; preds = %1299
  %1302 = sub nsw i32 %1247, %1246
  %1303 = icmp sgt i32 %1302, 0
  br i1 %1303, label %1304, label %1376

; <label>:1304:                                   ; preds = %1301
  %1305 = lshr exact i32 %1302, 16
  %1306 = ashr i32 %1245, 16
  %1307 = sext i32 %1306 to i64
  %1308 = zext i32 %1305 to i64
  %1309 = icmp ult i32 %1302, 1048576
  br i1 %1309, label %1362, label %1310

; <label>:1310:                                   ; preds = %1304
  %1311 = and i64 %1308, 65520
  %1312 = add nsw i64 %1311, -16
  %1313 = lshr exact i64 %1312, 4
  %1314 = add nuw nsw i64 %1313, 1
  %1315 = and i64 %1314, 1
  %1316 = icmp eq i64 %1312, 0
  br i1 %1316, label %1346, label %1317

; <label>:1317:                                   ; preds = %1310
  %1318 = sub nsw i64 %1314, %1315
  br label %1319

; <label>:1319:                                   ; preds = %1319, %1317
  %1320 = phi i64 [ 0, %1317 ], [ %1343, %1319 ]
  %1321 = phi i64 [ %1318, %1317 ], [ %1344, %1319 ]
  %1322 = add nsw i64 %1320, %1307
  %1323 = getelementptr inbounds i8, i8* %1206, i64 %1322
  %1324 = bitcast i8* %1323 to <16 x i8>*
  %1325 = load <16 x i8>, <16 x i8>* %1324, align 1
  %1326 = zext <16 x i8> %1325 to <16 x i32>
  %1327 = add nuw nsw <16 x i32> %1326, <i32 255, i32 255, i32 255, i32 255, i32 255, i32 255, i32 255, i32 255, i32 255, i32 255, i32 255, i32 255, i32 255, i32 255, i32 255, i32 255>
  %1328 = lshr <16 x i32> %1327, <i32 8, i32 8, i32 8, i32 8, i32 8, i32 8, i32 8, i32 8, i32 8, i32 8, i32 8, i32 8, i32 8, i32 8, i32 8, i32 8>
  %1329 = sub nsw <16 x i32> %1327, %1328
  %1330 = trunc <16 x i32> %1329 to <16 x i8>
  %1331 = bitcast i8* %1323 to <16 x i8>*
  store <16 x i8> %1330, <16 x i8>* %1331, align 1
  %1332 = or i64 %1320, 16
  %1333 = add nsw i64 %1332, %1307
  %1334 = getelementptr inbounds i8, i8* %1206, i64 %1333
  %1335 = bitcast i8* %1334 to <16 x i8>*
  %1336 = load <16 x i8>, <16 x i8>* %1335, align 1
  %1337 = zext <16 x i8> %1336 to <16 x i32>
  %1338 = add nuw nsw <16 x i32> %1337, <i32 255, i32 255, i32 255, i32 255, i32 255, i32 255, i32 255, i32 255, i32 255, i32 255, i32 255, i32 255, i32 255, i32 255, i32 255, i32 255>
  %1339 = lshr <16 x i32> %1338, <i32 8, i32 8, i32 8, i32 8, i32 8, i32 8, i32 8, i32 8, i32 8, i32 8, i32 8, i32 8, i32 8, i32 8, i32 8, i32 8>
  %1340 = sub nsw <16 x i32> %1338, %1339
  %1341 = trunc <16 x i32> %1340 to <16 x i8>
  %1342 = bitcast i8* %1334 to <16 x i8>*
  store <16 x i8> %1341, <16 x i8>* %1342, align 1
  %1343 = add i64 %1320, 32
  %1344 = add i64 %1321, -2
  %1345 = icmp eq i64 %1344, 0
  br i1 %1345, label %1346, label %1319, !llvm.loop !12

; <label>:1346:                                   ; preds = %1319, %1310
  %1347 = phi i64 [ 0, %1310 ], [ %1343, %1319 ]
  %1348 = icmp eq i64 %1315, 0
  br i1 %1348, label %1360, label %1349

; <label>:1349:                                   ; preds = %1346
  %1350 = add nsw i64 %1347, %1307
  %1351 = getelementptr inbounds i8, i8* %1206, i64 %1350
  %1352 = bitcast i8* %1351 to <16 x i8>*
  %1353 = load <16 x i8>, <16 x i8>* %1352, align 1
  %1354 = zext <16 x i8> %1353 to <16 x i32>
  %1355 = add nuw nsw <16 x i32> %1354, <i32 255, i32 255, i32 255, i32 255, i32 255, i32 255, i32 255, i32 255, i32 255, i32 255, i32 255, i32 255, i32 255, i32 255, i32 255, i32 255>
  %1356 = lshr <16 x i32> %1355, <i32 8, i32 8, i32 8, i32 8, i32 8, i32 8, i32 8, i32 8, i32 8, i32 8, i32 8, i32 8, i32 8, i32 8, i32 8, i32 8>
  %1357 = sub nsw <16 x i32> %1355, %1356
  %1358 = trunc <16 x i32> %1357 to <16 x i8>
  %1359 = bitcast i8* %1351 to <16 x i8>*
  store <16 x i8> %1358, <16 x i8>* %1359, align 1
  br label %1360

; <label>:1360:                                   ; preds = %1346, %1349
  %1361 = icmp eq i64 %1311, %1308
  br i1 %1361, label %1376, label %1362

; <label>:1362:                                   ; preds = %1360, %1304
  %1363 = phi i64 [ 0, %1304 ], [ %1311, %1360 ]
  br label %1364

; <label>:1364:                                   ; preds = %1362, %1364
  %1365 = phi i64 [ %1374, %1364 ], [ %1363, %1362 ]
  %1366 = add nsw i64 %1365, %1307
  %1367 = getelementptr inbounds i8, i8* %1206, i64 %1366
  %1368 = load i8, i8* %1367, align 1
  %1369 = zext i8 %1368 to i32
  %1370 = add nuw nsw i32 %1369, 255
  %1371 = lshr i32 %1370, 8
  %1372 = sub nsw i32 %1370, %1371
  %1373 = trunc i32 %1372 to i8
  store i8 %1373, i8* %1367, align 1
  %1374 = add nuw nsw i64 %1365, 1
  %1375 = icmp eq i64 %1374, %1308
  br i1 %1375, label %1376, label %1364, !llvm.loop !13

; <label>:1376:                                   ; preds = %1364, %1360, %1301, %1299
  %1377 = icmp sgt i32 %1244, %1247
  br i1 %1377, label %1378, label %1427

; <label>:1378:                                   ; preds = %1376
  %1379 = sub nsw i32 %1244, %1247
  %1380 = add nsw i32 %1379, 65535
  %1381 = ashr i32 %1380, 16
  switch i32 %1381, label %1425 [
    i32 1, label %1382
    i32 2, label %1390
  ]

; <label>:1382:                                   ; preds = %1378
  %1383 = sub i32 %1243, %1247
  %1384 = add nsw i32 %1383, %1379
  %1385 = lshr i32 %1384, 9
  %1386 = trunc i32 %1385 to i8
  %1387 = ashr i32 %1243, 16
  %1388 = sext i32 %1387 to i64
  %1389 = getelementptr inbounds i8, i8* %1206, i64 %1388
  store i8 %1386, i8* %1389, align 1
  br label %1427

; <label>:1390:                                   ; preds = %1378
  %1391 = sub i32 65536, %1243
  %1392 = add i32 %1391, %1247
  %1393 = sub i32 %1244, %1243
  %1394 = sub i32 %1393, %1392
  %1395 = ashr i32 %1392, 11
  %1396 = ashr i32 %1215, 11
  %1397 = mul i32 %1395, %1396
  %1398 = mul i32 %1397, %1395
  %1399 = lshr i32 %1398, 8
  %1400 = ashr i32 %1394, 11
  %1401 = mul i32 %1400, %1396
  %1402 = mul i32 %1401, %1400
  %1403 = lshr i32 %1402, 8
  %1404 = ashr i32 %1243, 16
  %1405 = sext i32 %1404 to i64
  %1406 = getelementptr inbounds i8, i8* %1206, i64 %1405
  %1407 = load i8, i8* %1406, align 1
  %1408 = zext i8 %1407 to i32
  %1409 = and i32 %1399, 255
  %1410 = xor i32 %1409, 255
  %1411 = add nuw nsw i32 %1410, %1408
  %1412 = lshr i32 %1411, 8
  %1413 = sub nsw i32 %1411, %1412
  %1414 = trunc i32 %1413 to i8
  store i8 %1414, i8* %1406, align 1
  %1415 = add nsw i32 %1404, 1
  %1416 = sext i32 %1415 to i64
  %1417 = getelementptr inbounds i8, i8* %1206, i64 %1416
  %1418 = load i8, i8* %1417, align 1
  %1419 = zext i8 %1418 to i32
  %1420 = and i32 %1403, 255
  %1421 = add nuw nsw i32 %1420, %1419
  %1422 = lshr i32 %1421, 8
  %1423 = sub nsw i32 %1421, %1422
  %1424 = trunc i32 %1423 to i8
  store i8 %1424, i8* %1417, align 1
  br label %1427

; <label>:1425:                                   ; preds = %1378
  call fastcc void @_ZL22blit_aaa_trapezoid_rowP15AdditiveBlitteriiiiiiihPhbbb(%class.AdditiveBlitter* nonnull %224, i32 %1188, i32 %1247, i32 %1243, i32 %1247, i32 %1244, i32 2147483647, i32 %1215, i8 zeroext -1, i8* %1206, i1 zeroext true, i1 zeroext false, i1 zeroext false) #12
  br label %1427

; <label>:1426:                                   ; preds = %1238
  call fastcc void @_ZL22blit_aaa_trapezoid_rowP15AdditiveBlitteriiiiiiihPhbbb(%class.AdditiveBlitter* nonnull %224, i32 %1188, i32 %1240, i32 %1243, i32 %1241, i32 %1244, i32 %1214, i32 %1215, i8 zeroext -1, i8* %1206, i1 zeroext true, i1 zeroext false, i1 zeroext false) #12
  br label %1427

; <label>:1427:                                   ; preds = %1426, %1425, %1390, %1382, %1376, %1232, %1205
  %1428 = load void (%class.AdditiveBlitter*, i32, i32)**, void (%class.AdditiveBlitter*, i32, i32)*** %460, align 8
  %1429 = getelementptr inbounds void (%class.AdditiveBlitter*, i32, i32)*, void (%class.AdditiveBlitter*, i32, i32)** %1428, i64 20
  %1430 = load void (%class.AdditiveBlitter*, i32, i32)*, void (%class.AdditiveBlitter*, i32, i32)** %1429, align 8
  call void %1430(%class.AdditiveBlitter* nonnull %224, i32 %1183, i32 %1207) #12
  %1431 = icmp sgt i32 %1186, 2
  br i1 %1431, label %1182, label %1432

; <label>:1432:                                   ; preds = %1427, %1170, %893
  %1433 = phi i32 [ %873, %893 ], [ %917, %1170 ], [ %1209, %1427 ]
  %1434 = phi i32 [ %872, %893 ], [ %912, %1170 ], [ %1208, %1427 ]
  %1435 = phi i32 [ %474, %893 ], [ %905, %1170 ], [ %1207, %1427 ]
  %1436 = ashr i32 %1435, 16
  %1437 = load i32, i32* %458, align 8
  %1438 = icmp eq i32 %1437, %1436
  br i1 %1438, label %1439, label %1441

; <label>:1439:                                   ; preds = %1432
  %1440 = load i8*, i8** %461, align 8
  br label %1453

; <label>:1441:                                   ; preds = %1432
  store i32 %1436, i32* %458, align 8
  %1442 = load i8*, i8** %462, align 8
  %1443 = load i32, i32* %218, align 4
  %1444 = sub nsw i32 %1436, %1443
  %1445 = load i32, i32* %464, align 8
  %1446 = mul i32 %1444, %1445
  %1447 = zext i32 %1446 to i64
  %1448 = getelementptr inbounds i8, i8* %1442, i64 %1447
  %1449 = load i32, i32* %466, align 8
  %1450 = sext i32 %1449 to i64
  %1451 = sub nsw i64 0, %1450
  %1452 = getelementptr inbounds i8, i8* %1448, i64 %1451
  store i8* %1452, i8** %461, align 8
  br label %1453

; <label>:1453:                                   ; preds = %1441, %1439
  %1454 = phi i8* [ %1452, %1441 ], [ %1440, %1439 ]
  %1455 = sub nsw i32 %665, %1435
  %1456 = sext i32 %671 to i64
  %1457 = sext i32 %1455 to i64
  %1458 = mul nsw i64 %1457, %1456
  %1459 = lshr i64 %1458, 16
  %1460 = trunc i64 %1459 to i32
  %1461 = add nsw i32 %1434, %1460
  %1462 = icmp slt i32 %469, %1461
  %1463 = select i1 %1462, i32 %1461, i32 %469
  %1464 = sext i32 %677 to i64
  %1465 = mul nsw i64 %1457, %1464
  %1466 = lshr i64 %1465, 16
  %1467 = trunc i64 %1466 to i32
  %1468 = add nsw i32 %1433, %1467
  %1469 = icmp slt i32 %1468, %470
  %1470 = select i1 %1469, i32 %1468, i32 %470
  %1471 = and i32 %1434, -4096
  %1472 = and i32 %1433, -4096
  %1473 = and i32 %1463, -4096
  %1474 = and i32 %1470, -4096
  %1475 = getelementptr inbounds %struct.SkAnalyticEdge, %struct.SkAnalyticEdge* %617, i64 0, i32 9
  %1476 = load i32, i32* %1475, align 8
  %1477 = getelementptr inbounds %struct.SkAnalyticEdge, %struct.SkAnalyticEdge* %620, i64 0, i32 9
  %1478 = load i32, i32* %1477, align 8
  %1479 = mul nsw i32 %1455, 255
  %1480 = add nsw i32 %1479, 32768
  %1481 = lshr i32 %1480, 16
  %1482 = trunc i32 %1481 to i8
  %1483 = icmp sgt i32 %1471, %1472
  br i1 %1483, label %1723, label %1484

; <label>:1484:                                   ; preds = %1453
  %1485 = icmp sgt i32 %1473, %1474
  br i1 %1485, label %1486, label %1499

; <label>:1486:                                   ; preds = %1484
  %1487 = icmp sgt i32 %1471, %1473
  %1488 = select i1 %1487, i32 %1473, i32 %1471
  %1489 = select i1 %1487, i32 %1471, i32 %1473
  %1490 = icmp sgt i32 %1472, %1474
  %1491 = select i1 %1490, i32 %1474, i32 %1472
  %1492 = select i1 %1490, i32 %1472, i32 %1474
  %1493 = icmp slt i32 %1491, %1488
  %1494 = select i1 %1493, i32 %1488, i32 %1491
  %1495 = icmp slt i32 %1489, %1492
  %1496 = select i1 %1495, i32 %1489, i32 %1492
  %1497 = add nsw i32 %1494, %1496
  %1498 = ashr exact i32 %1497, 1
  br label %1499

; <label>:1499:                                   ; preds = %1486, %1484
  %1500 = phi i32 [ %1498, %1486 ], [ %1473, %1484 ]
  %1501 = phi i32 [ %1498, %1486 ], [ %1474, %1484 ]
  %1502 = icmp eq i32 %1471, %1472
  %1503 = icmp eq i32 %1500, %1501
  %1504 = and i1 %1502, %1503
  br i1 %1504, label %1723, label %1505

; <label>:1505:                                   ; preds = %1499
  %1506 = icmp slt i32 %1500, %1471
  %1507 = select i1 %1506, i32 %1500, i32 %1471
  %1508 = select i1 %1506, i32 %1471, i32 %1500
  %1509 = icmp slt i32 %1501, %1472
  %1510 = select i1 %1509, i32 %1501, i32 %1472
  %1511 = select i1 %1509, i32 %1472, i32 %1501
  %1512 = add nsw i32 %1508, 65535
  %1513 = and i32 %1512, -65536
  %1514 = and i32 %1510, -65536
  %1515 = icmp slt i32 %1514, %1513
  br i1 %1515, label %1722, label %1516

; <label>:1516:                                   ; preds = %1505
  %1517 = icmp sgt i32 %1513, %1507
  br i1 %1517, label %1518, label %1579

; <label>:1518:                                   ; preds = %1516
  %1519 = sub nsw i32 %1513, %1507
  %1520 = add nsw i32 %1519, 65535
  %1521 = ashr i32 %1520, 16
  switch i32 %1521, label %1578 [
    i32 1, label %1522
    i32 2, label %1543
  ]

; <label>:1522:                                   ; preds = %1518
  %1523 = sub i32 %1513, %1508
  %1524 = add nsw i32 %1523, %1519
  %1525 = lshr i32 %1524, 9
  %1526 = ashr i32 %1507, 16
  %1527 = icmp eq i8 %1482, -1
  %1528 = sext i32 %1526 to i64
  %1529 = getelementptr inbounds i8, i8* %1454, i64 %1528
  br i1 %1527, label %1530, label %1532

; <label>:1530:                                   ; preds = %1522
  %1531 = trunc i32 %1525 to i8
  store i8 %1531, i8* %1529, align 1
  br label %1579

; <label>:1532:                                   ; preds = %1522
  %1533 = and i32 %1525, 255
  %1534 = and i32 %1481, 255
  %1535 = mul nuw nsw i32 %1533, %1534
  %1536 = lshr i32 %1535, 8
  %1537 = load i8, i8* %1529, align 1
  %1538 = zext i8 %1537 to i32
  %1539 = add nuw nsw i32 %1536, %1538
  %1540 = lshr i32 %1539, 8
  %1541 = sub nsw i32 %1539, %1540
  %1542 = trunc i32 %1541 to i8
  store i8 %1542, i8* %1529, align 1
  br label %1579

; <label>:1543:                                   ; preds = %1518
  %1544 = sub i32 -65536, %1507
  %1545 = add i32 %1513, %1544
  %1546 = sub i32 %1508, %1507
  %1547 = sub i32 %1546, %1545
  %1548 = ashr i32 %1545, 11
  %1549 = ashr i32 %1476, 11
  %1550 = mul i32 %1548, %1549
  %1551 = mul i32 %1550, %1548
  %1552 = lshr i32 %1551, 8
  %1553 = ashr i32 %1547, 11
  %1554 = mul i32 %1553, %1549
  %1555 = mul i32 %1554, %1553
  %1556 = lshr i32 %1555, 8
  %1557 = sub nsw i32 %1481, %1556
  %1558 = ashr i32 %1507, 16
  %1559 = sext i32 %1558 to i64
  %1560 = getelementptr inbounds i8, i8* %1454, i64 %1559
  %1561 = load i8, i8* %1560, align 1
  %1562 = zext i8 %1561 to i32
  %1563 = and i32 %1552, 255
  %1564 = add nuw nsw i32 %1563, %1562
  %1565 = lshr i32 %1564, 8
  %1566 = sub nsw i32 %1564, %1565
  %1567 = trunc i32 %1566 to i8
  store i8 %1567, i8* %1560, align 1
  %1568 = add nsw i32 %1558, 1
  %1569 = sext i32 %1568 to i64
  %1570 = getelementptr inbounds i8, i8* %1454, i64 %1569
  %1571 = load i8, i8* %1570, align 1
  %1572 = zext i8 %1571 to i32
  %1573 = and i32 %1557, 255
  %1574 = add nuw nsw i32 %1573, %1572
  %1575 = lshr i32 %1574, 8
  %1576 = sub nsw i32 %1574, %1575
  %1577 = trunc i32 %1576 to i8
  store i8 %1577, i8* %1570, align 1
  br label %1579

; <label>:1578:                                   ; preds = %1518
  call fastcc void @_ZL22blit_aaa_trapezoid_rowP15AdditiveBlitteriiiiiiihPhbbb(%class.AdditiveBlitter* nonnull %224, i32 %1436, i32 %1507, i32 %1513, i32 %1508, i32 %1513, i32 %1476, i32 2147483647, i8 zeroext %1482, i8* %1454, i1 zeroext true, i1 zeroext false, i1 zeroext false) #12
  br label %1579

; <label>:1579:                                   ; preds = %1578, %1543, %1532, %1530, %1516
  %1580 = icmp sgt i32 %1514, %1513
  br i1 %1580, label %1581, label %1659

; <label>:1581:                                   ; preds = %1579
  %1582 = sub nsw i32 %1514, %1513
  %1583 = icmp sgt i32 %1582, 0
  br i1 %1583, label %1584, label %1659

; <label>:1584:                                   ; preds = %1581
  %1585 = lshr exact i32 %1582, 16
  %1586 = ashr i32 %1512, 16
  %1587 = and i32 %1481, 255
  %1588 = sext i32 %1586 to i64
  %1589 = zext i32 %1585 to i64
  %1590 = icmp ult i32 %1582, 1048576
  br i1 %1590, label %1645, label %1591

; <label>:1591:                                   ; preds = %1584
  %1592 = and i64 %1589, 65520
  %1593 = insertelement <16 x i32> undef, i32 %1587, i32 0
  %1594 = shufflevector <16 x i32> %1593, <16 x i32> undef, <16 x i32> zeroinitializer
  %1595 = add nsw i64 %1592, -16
  %1596 = lshr exact i64 %1595, 4
  %1597 = add nuw nsw i64 %1596, 1
  %1598 = and i64 %1597, 1
  %1599 = icmp eq i64 %1595, 0
  br i1 %1599, label %1629, label %1600

; <label>:1600:                                   ; preds = %1591
  %1601 = sub nsw i64 %1597, %1598
  br label %1602

; <label>:1602:                                   ; preds = %1602, %1600
  %1603 = phi i64 [ 0, %1600 ], [ %1626, %1602 ]
  %1604 = phi i64 [ %1601, %1600 ], [ %1627, %1602 ]
  %1605 = add nsw i64 %1603, %1588
  %1606 = getelementptr inbounds i8, i8* %1454, i64 %1605
  %1607 = bitcast i8* %1606 to <16 x i8>*
  %1608 = load <16 x i8>, <16 x i8>* %1607, align 1
  %1609 = zext <16 x i8> %1608 to <16 x i32>
  %1610 = add nuw nsw <16 x i32> %1594, %1609
  %1611 = lshr <16 x i32> %1610, <i32 8, i32 8, i32 8, i32 8, i32 8, i32 8, i32 8, i32 8, i32 8, i32 8, i32 8, i32 8, i32 8, i32 8, i32 8, i32 8>
  %1612 = sub nsw <16 x i32> %1610, %1611
  %1613 = trunc <16 x i32> %1612 to <16 x i8>
  %1614 = bitcast i8* %1606 to <16 x i8>*
  store <16 x i8> %1613, <16 x i8>* %1614, align 1
  %1615 = or i64 %1603, 16
  %1616 = add nsw i64 %1615, %1588
  %1617 = getelementptr inbounds i8, i8* %1454, i64 %1616
  %1618 = bitcast i8* %1617 to <16 x i8>*
  %1619 = load <16 x i8>, <16 x i8>* %1618, align 1
  %1620 = zext <16 x i8> %1619 to <16 x i32>
  %1621 = add nuw nsw <16 x i32> %1594, %1620
  %1622 = lshr <16 x i32> %1621, <i32 8, i32 8, i32 8, i32 8, i32 8, i32 8, i32 8, i32 8, i32 8, i32 8, i32 8, i32 8, i32 8, i32 8, i32 8, i32 8>
  %1623 = sub nsw <16 x i32> %1621, %1622
  %1624 = trunc <16 x i32> %1623 to <16 x i8>
  %1625 = bitcast i8* %1617 to <16 x i8>*
  store <16 x i8> %1624, <16 x i8>* %1625, align 1
  %1626 = add i64 %1603, 32
  %1627 = add i64 %1604, -2
  %1628 = icmp eq i64 %1627, 0
  br i1 %1628, label %1629, label %1602, !llvm.loop !14

; <label>:1629:                                   ; preds = %1602, %1591
  %1630 = phi i64 [ 0, %1591 ], [ %1626, %1602 ]
  %1631 = icmp eq i64 %1598, 0
  br i1 %1631, label %1643, label %1632

; <label>:1632:                                   ; preds = %1629
  %1633 = add nsw i64 %1630, %1588
  %1634 = getelementptr inbounds i8, i8* %1454, i64 %1633
  %1635 = bitcast i8* %1634 to <16 x i8>*
  %1636 = load <16 x i8>, <16 x i8>* %1635, align 1
  %1637 = zext <16 x i8> %1636 to <16 x i32>
  %1638 = add nuw nsw <16 x i32> %1594, %1637
  %1639 = lshr <16 x i32> %1638, <i32 8, i32 8, i32 8, i32 8, i32 8, i32 8, i32 8, i32 8, i32 8, i32 8, i32 8, i32 8, i32 8, i32 8, i32 8, i32 8>
  %1640 = sub nsw <16 x i32> %1638, %1639
  %1641 = trunc <16 x i32> %1640 to <16 x i8>
  %1642 = bitcast i8* %1634 to <16 x i8>*
  store <16 x i8> %1641, <16 x i8>* %1642, align 1
  br label %1643

; <label>:1643:                                   ; preds = %1629, %1632
  %1644 = icmp eq i64 %1592, %1589
  br i1 %1644, label %1659, label %1645

; <label>:1645:                                   ; preds = %1643, %1584
  %1646 = phi i64 [ 0, %1584 ], [ %1592, %1643 ]
  br label %1647

; <label>:1647:                                   ; preds = %1645, %1647
  %1648 = phi i64 [ %1657, %1647 ], [ %1646, %1645 ]
  %1649 = add nsw i64 %1648, %1588
  %1650 = getelementptr inbounds i8, i8* %1454, i64 %1649
  %1651 = load i8, i8* %1650, align 1
  %1652 = zext i8 %1651 to i32
  %1653 = add nuw nsw i32 %1587, %1652
  %1654 = lshr i32 %1653, 8
  %1655 = sub nsw i32 %1653, %1654
  %1656 = trunc i32 %1655 to i8
  store i8 %1656, i8* %1650, align 1
  %1657 = add nuw nsw i64 %1648, 1
  %1658 = icmp eq i64 %1657, %1589
  br i1 %1658, label %1659, label %1647, !llvm.loop !15

; <label>:1659:                                   ; preds = %1647, %1643, %1581, %1579
  %1660 = icmp sgt i32 %1511, %1514
  br i1 %1660, label %1661, label %1723

; <label>:1661:                                   ; preds = %1659
  %1662 = sub nsw i32 %1511, %1514
  %1663 = add nsw i32 %1662, 65535
  %1664 = ashr i32 %1663, 16
  switch i32 %1664, label %1721 [
    i32 1, label %1665
    i32 2, label %1686
  ]

; <label>:1665:                                   ; preds = %1661
  %1666 = sub i32 %1510, %1514
  %1667 = add nsw i32 %1666, %1662
  %1668 = lshr i32 %1667, 9
  %1669 = ashr i32 %1510, 16
  %1670 = icmp eq i8 %1482, -1
  %1671 = sext i32 %1669 to i64
  %1672 = getelementptr inbounds i8, i8* %1454, i64 %1671
  br i1 %1670, label %1673, label %1675

; <label>:1673:                                   ; preds = %1665
  %1674 = trunc i32 %1668 to i8
  store i8 %1674, i8* %1672, align 1
  br label %1723

; <label>:1675:                                   ; preds = %1665
  %1676 = and i32 %1668, 255
  %1677 = and i32 %1481, 255
  %1678 = mul nuw nsw i32 %1676, %1677
  %1679 = lshr i32 %1678, 8
  %1680 = load i8, i8* %1672, align 1
  %1681 = zext i8 %1680 to i32
  %1682 = add nuw nsw i32 %1679, %1681
  %1683 = lshr i32 %1682, 8
  %1684 = sub nsw i32 %1682, %1683
  %1685 = trunc i32 %1684 to i8
  store i8 %1685, i8* %1672, align 1
  br label %1723

; <label>:1686:                                   ; preds = %1661
  %1687 = sub i32 65536, %1510
  %1688 = add i32 %1687, %1514
  %1689 = sub i32 %1511, %1510
  %1690 = sub i32 %1689, %1688
  %1691 = ashr i32 %1688, 11
  %1692 = ashr i32 %1478, 11
  %1693 = mul i32 %1691, %1692
  %1694 = mul i32 %1693, %1691
  %1695 = lshr i32 %1694, 8
  %1696 = sub nsw i32 %1481, %1695
  %1697 = ashr i32 %1690, 11
  %1698 = mul i32 %1697, %1692
  %1699 = mul i32 %1698, %1697
  %1700 = lshr i32 %1699, 8
  %1701 = ashr i32 %1510, 16
  %1702 = sext i32 %1701 to i64
  %1703 = getelementptr inbounds i8, i8* %1454, i64 %1702
  %1704 = load i8, i8* %1703, align 1
  %1705 = zext i8 %1704 to i32
  %1706 = and i32 %1696, 255
  %1707 = add nuw nsw i32 %1706, %1705
  %1708 = lshr i32 %1707, 8
  %1709 = sub nsw i32 %1707, %1708
  %1710 = trunc i32 %1709 to i8
  store i8 %1710, i8* %1703, align 1
  %1711 = add nsw i32 %1701, 1
  %1712 = sext i32 %1711 to i64
  %1713 = getelementptr inbounds i8, i8* %1454, i64 %1712
  %1714 = load i8, i8* %1713, align 1
  %1715 = zext i8 %1714 to i32
  %1716 = and i32 %1700, 255
  %1717 = add nuw nsw i32 %1716, %1715
  %1718 = lshr i32 %1717, 8
  %1719 = sub nsw i32 %1717, %1718
  %1720 = trunc i32 %1719 to i8
  store i8 %1720, i8* %1713, align 1
  br label %1723

; <label>:1721:                                   ; preds = %1661
  call fastcc void @_ZL22blit_aaa_trapezoid_rowP15AdditiveBlitteriiiiiiihPhbbb(%class.AdditiveBlitter* nonnull %224, i32 %1436, i32 %1514, i32 %1510, i32 %1514, i32 %1511, i32 2147483647, i32 %1478, i8 zeroext %1482, i8* %1454, i1 zeroext true, i1 zeroext false, i1 zeroext false) #12
  br label %1723

; <label>:1722:                                   ; preds = %1505
  call fastcc void @_ZL22blit_aaa_trapezoid_rowP15AdditiveBlitteriiiiiiihPhbbb(%class.AdditiveBlitter* nonnull %224, i32 %1436, i32 %1507, i32 %1510, i32 %1508, i32 %1511, i32 %1476, i32 %1478, i8 zeroext %1482, i8* %1454, i1 zeroext true, i1 zeroext false, i1 zeroext false) #12
  br label %1723

; <label>:1723:                                   ; preds = %1722, %1721, %1686, %1675, %1673, %1659, %1499, %1453
  %1724 = load void (%class.AdditiveBlitter*, i32, i32)**, void (%class.AdditiveBlitter*, i32, i32)*** %460, align 8
  %1725 = getelementptr inbounds void (%class.AdditiveBlitter*, i32, i32)*, void (%class.AdditiveBlitter*, i32, i32)** %1724, i64 20
  %1726 = load void (%class.AdditiveBlitter*, i32, i32)*, void (%class.AdditiveBlitter*, i32, i32)** %1725, align 8
  call void %1726(%class.AdditiveBlitter* nonnull %224, i32 %1435, i32 %665) #12
  %1727 = add nsw i32 %1463, -2048
  %1728 = add nsw i32 %1470, -2048
  br label %1729

; <label>:1729:                                   ; preds = %1723, %856, %854, %805, %795, %777
  %1730 = phi i32 [ %1728, %1723 ], [ %675, %795 ], [ %675, %777 ], [ %675, %854 ], [ %675, %856 ], [ %675, %805 ]
  %1731 = phi i32 [ %1727, %1723 ], [ %669, %795 ], [ %669, %777 ], [ %669, %854 ], [ %669, %856 ], [ %669, %805 ]
  store i32 %1731, i32* %666, align 8
  store i32 %1730, i32* %672, align 8
  %1732 = getelementptr inbounds %struct.SkAnalyticEdge, %struct.SkAnalyticEdge* %620, i64 0, i32 6
  store i32 %665, i32* %1732, align 4
  %1733 = getelementptr inbounds %struct.SkAnalyticEdge, %struct.SkAnalyticEdge* %617, i64 0, i32 6
  store i32 %665, i32* %1733, align 4
  br label %471

; <label>:1734:                                   ; preds = %437, %405
  %1735 = load %struct.SkAnalyticEdge*, %struct.SkAnalyticEdge** %368, align 8
  %1736 = getelementptr inbounds %struct.SkAnalyticEdge, %struct.SkAnalyticEdge* %1735, i64 0, i32 8
  %1737 = load i32, i32* %1736, align 4
  %1738 = load %struct.SkAnalyticEdge*, %struct.SkAnalyticEdge** %358, align 8
  %1739 = getelementptr inbounds %struct.SkAnalyticEdge, %struct.SkAnalyticEdge* %1738, i64 0, i32 7
  %1740 = load i32, i32* %1739, align 8
  %1741 = sub nsw i32 %1737, %1740
  %1742 = ashr i32 %1741, 16
  %1743 = shl nsw i32 %1742, 2
  %1744 = call i32 @_ZNK6SkPath11countPointsEv(%class.SkPath* nonnull %0) #12
  %1745 = sub nsw i32 %388, %387
  %1746 = load i8, i8* %74, align 2
  store i32 %424, i32* %365, align 8
  store i32 %424, i32* %362, align 8
  store i32 %427, i32* %376, align 8
  store i32 %427, i32* %373, align 8
  %1747 = load %struct.SkAnalyticEdge*, %struct.SkAnalyticEdge** %358, align 8
  %1748 = getelementptr inbounds %struct.SkAnalyticEdge, %struct.SkAnalyticEdge* %1747, i64 0, i32 7
  %1749 = shl i32 %387, 16
  %1750 = load i32, i32* %1748, align 4
  %1751 = icmp slt i32 %1749, %1750
  %1752 = select i1 %1751, i32 %1750, i32 %1749
  br label %1753

; <label>:1753:                                   ; preds = %1783, %1734
  %1754 = phi i32 [ %1793, %1783 ], [ %1750, %1734 ]
  %1755 = phi %struct.SkAnalyticEdge* [ %1791, %1783 ], [ %1747, %1734 ]
  %1756 = phi i32 [ %1789, %1783 ], [ 2147483647, %1734 ]
  %1757 = getelementptr inbounds %struct.SkAnalyticEdge, %struct.SkAnalyticEdge* %1755, i64 0, i32 6
  %1758 = load i32, i32* %1757, align 4
  %1759 = add nsw i32 %1758, 65536
  %1760 = icmp eq i32 %1759, %1752
  br i1 %1760, label %1761, label %1767

; <label>:1761:                                   ; preds = %1753
  %1762 = getelementptr inbounds %struct.SkAnalyticEdge, %struct.SkAnalyticEdge* %1755, i64 0, i32 3
  %1763 = load i32, i32* %1762, align 8
  %1764 = getelementptr inbounds %struct.SkAnalyticEdge, %struct.SkAnalyticEdge* %1755, i64 0, i32 4
  %1765 = load i32, i32* %1764, align 4
  %1766 = add nsw i32 %1765, %1763
  store i32 %1766, i32* %1762, align 8
  br label %1782

; <label>:1767:                                   ; preds = %1753
  %1768 = icmp eq i32 %1758, %1752
  br i1 %1768, label %1783, label %1769

; <label>:1769:                                   ; preds = %1767
  %1770 = getelementptr inbounds %struct.SkAnalyticEdge, %struct.SkAnalyticEdge* %1755, i64 0, i32 5
  %1771 = load i32, i32* %1770, align 8
  %1772 = getelementptr inbounds %struct.SkAnalyticEdge, %struct.SkAnalyticEdge* %1755, i64 0, i32 4
  %1773 = load i32, i32* %1772, align 4
  %1774 = sub nsw i32 %1752, %1754
  %1775 = sext i32 %1773 to i64
  %1776 = sext i32 %1774 to i64
  %1777 = mul nsw i64 %1775, %1776
  %1778 = lshr i64 %1777, 16
  %1779 = trunc i64 %1778 to i32
  %1780 = add nsw i32 %1771, %1779
  %1781 = getelementptr inbounds %struct.SkAnalyticEdge, %struct.SkAnalyticEdge* %1755, i64 0, i32 3
  store i32 %1780, i32* %1781, align 8
  br label %1782

; <label>:1782:                                   ; preds = %1761, %1769
  store i32 %1752, i32* %1757, align 4
  br label %1783

; <label>:1783:                                   ; preds = %1782, %1767
  %1784 = getelementptr inbounds %struct.SkAnalyticEdge, %struct.SkAnalyticEdge* %1755, i64 0, i32 8
  %1785 = load i32, i32* %1784, align 4
  %1786 = icmp sgt i32 %1785, %1752
  %1787 = icmp sgt i32 %1756, %1785
  %1788 = and i1 %1786, %1787
  %1789 = select i1 %1788, i32 %1785, i32 %1756
  %1790 = getelementptr inbounds %struct.SkAnalyticEdge, %struct.SkAnalyticEdge* %1755, i64 0, i32 0
  %1791 = load %struct.SkAnalyticEdge*, %struct.SkAnalyticEdge** %1790, align 8
  %1792 = getelementptr inbounds %struct.SkAnalyticEdge, %struct.SkAnalyticEdge* %1791, i64 0, i32 7
  %1793 = load i32, i32* %1792, align 8
  %1794 = icmp slt i32 %1752, %1793
  br i1 %1794, label %1795, label %1753

; <label>:1795:                                   ; preds = %1783
  %1796 = add nsw i32 %1743, 4
  %1797 = shl nsw i32 %1745, 1
  %1798 = and i8 %1746, 3
  %1799 = icmp sgt i32 %234, %1796
  %1800 = icmp sgt i32 %1744, %1797
  %1801 = zext i8 %1798 to i32
  %1802 = icmp sgt i32 %1789, %1793
  %1803 = select i1 %1802, i32 %1793, i32 %1789
  %1804 = and i32 %1801, 1
  %1805 = icmp eq i32 %1804, 0
  %1806 = select i1 %1805, i32 -1, i32 1
  %1807 = and i32 %1801, 2
  %1808 = icmp ne i32 %1807, 0
  %1809 = xor i1 %1808, true
  %1810 = icmp sge i32 %1749, %1750
  %1811 = or i1 %1810, %1809
  br i1 %1811, label %1812, label %1816

; <label>:1812:                                   ; preds = %1795
  %1813 = ashr exact i32 %424, 16
  %1814 = getelementptr inbounds %class.AdditiveBlitter, %class.AdditiveBlitter* %224, i64 46, i32 0, i32 1, i32 1
  %1815 = bitcast i64* %1814 to i32*
  br label %1942

; <label>:1816:                                   ; preds = %1795
  %1817 = sub nsw i32 %427, %424
  %1818 = ashr exact i32 %1817, 16
  %1819 = ashr i32 %1752, 16
  %1820 = icmp eq i32 %1819, %387
  br i1 %1820, label %1833, label %1821

; <label>:1821:                                   ; preds = %1816
  %1822 = bitcast %class.MaskAdditiveBlitter* %17 to %class.SkBlitter* (%class.AdditiveBlitter*, i1)***
  %1823 = load %class.SkBlitter* (%class.AdditiveBlitter*, i1)**, %class.SkBlitter* (%class.AdditiveBlitter*, i1)*** %1822, align 8
  %1824 = getelementptr inbounds %class.SkBlitter* (%class.AdditiveBlitter*, i1)*, %class.SkBlitter* (%class.AdditiveBlitter*, i1)** %1823, i64 15
  %1825 = load %class.SkBlitter* (%class.AdditiveBlitter*, i1)*, %class.SkBlitter* (%class.AdditiveBlitter*, i1)** %1824, align 8
  %1826 = call %class.SkBlitter* %1825(%class.AdditiveBlitter* nonnull %224, i1 zeroext false) #12
  %1827 = ashr exact i32 %424, 16
  %1828 = sub nsw i32 %1819, %387
  %1829 = bitcast %class.SkBlitter* %1826 to void (%class.SkBlitter*, i32, i32, i32, i32)***
  %1830 = load void (%class.SkBlitter*, i32, i32, i32, i32)**, void (%class.SkBlitter*, i32, i32, i32, i32)*** %1829, align 8
  %1831 = getelementptr inbounds void (%class.SkBlitter*, i32, i32, i32, i32)*, void (%class.SkBlitter*, i32, i32, i32, i32)** %1830, i64 6
  %1832 = load void (%class.SkBlitter*, i32, i32, i32, i32)*, void (%class.SkBlitter*, i32, i32, i32, i32)** %1831, align 8
  call void %1832(%class.SkBlitter* %1826, i32 %1827, i32 %387, i32 %1818, i32 %1828) #12
  br label %1833

; <label>:1833:                                   ; preds = %1821, %1816
  %1834 = phi i32 [ %1819, %1821 ], [ %387, %1816 ]
  %1835 = getelementptr inbounds %class.AdditiveBlitter, %class.AdditiveBlitter* %224, i64 46, i32 0, i32 1, i32 1
  %1836 = bitcast i64* %1835 to i32*
  %1837 = load i32, i32* %1836, align 8
  %1838 = icmp eq i32 %1837, %1834
  br i1 %1838, label %1839, label %1842

; <label>:1839:                                   ; preds = %1833
  %1840 = getelementptr inbounds %class.AdditiveBlitter, %class.AdditiveBlitter* %224, i64 46, i32 0, i32 1, i32 0, i32 0, i32 0, i32 0
  %1841 = load i8*, i8** %1840, align 8
  br label %1860

; <label>:1842:                                   ; preds = %1833
  store i32 %1834, i32* %1836, align 8
  %1843 = getelementptr inbounds %class.AdditiveBlitter, %class.AdditiveBlitter* %224, i64 1, i32 0, i32 1, i32 0, i32 0, i32 0, i32 0
  %1844 = load i8*, i8** %1843, align 8
  %1845 = load i32, i32* %218, align 4
  %1846 = sub nsw i32 %1834, %1845
  %1847 = getelementptr inbounds %class.AdditiveBlitter, %class.AdditiveBlitter* %224, i64 2, i32 0, i32 1
  %1848 = bitcast %class.SkAutoMalloc* %1847 to i32*
  %1849 = load i32, i32* %1848, align 8
  %1850 = mul i32 %1846, %1849
  %1851 = zext i32 %1850 to i64
  %1852 = getelementptr inbounds i8, i8* %1844, i64 %1851
  %1853 = getelementptr inbounds %class.AdditiveBlitter, %class.AdditiveBlitter* %224, i64 1, i32 0, i32 1, i32 1
  %1854 = bitcast i64* %1853 to i32*
  %1855 = load i32, i32* %1854, align 8
  %1856 = sext i32 %1855 to i64
  %1857 = sub nsw i64 0, %1856
  %1858 = getelementptr inbounds i8, i8* %1852, i64 %1857
  %1859 = getelementptr inbounds %class.AdditiveBlitter, %class.AdditiveBlitter* %224, i64 46, i32 0, i32 1, i32 0, i32 0, i32 0, i32 0
  store i8* %1858, i8** %1859, align 8
  br label %1860

; <label>:1860:                                   ; preds = %1842, %1839
  %1861 = phi i8* [ %1841, %1839 ], [ %1858, %1842 ]
  %1862 = ashr exact i32 %424, 16
  %1863 = icmp sgt i32 %1817, 65535
  br i1 %1863, label %1864, label %1942

; <label>:1864:                                   ; preds = %1860
  %1865 = shl i32 %1834, 16
  %1866 = sub nsw i32 %1752, %1865
  %1867 = mul nsw i32 %1866, 255
  %1868 = add nsw i32 %1867, 32768
  %1869 = lshr i32 %1868, 16
  %1870 = and i32 %1869, 255
  %1871 = sext i32 %1862 to i64
  %1872 = zext i32 %1818 to i64
  %1873 = icmp ult i32 %1818, 16
  br i1 %1873, label %1928, label %1874

; <label>:1874:                                   ; preds = %1864
  %1875 = and i64 %1872, 4294967280
  %1876 = insertelement <16 x i32> undef, i32 %1870, i32 0
  %1877 = shufflevector <16 x i32> %1876, <16 x i32> undef, <16 x i32> zeroinitializer
  %1878 = add nsw i64 %1875, -16
  %1879 = lshr exact i64 %1878, 4
  %1880 = add nuw nsw i64 %1879, 1
  %1881 = and i64 %1880, 1
  %1882 = icmp eq i64 %1878, 0
  br i1 %1882, label %1912, label %1883

; <label>:1883:                                   ; preds = %1874
  %1884 = sub nsw i64 %1880, %1881
  br label %1885

; <label>:1885:                                   ; preds = %1885, %1883
  %1886 = phi i64 [ 0, %1883 ], [ %1909, %1885 ]
  %1887 = phi i64 [ %1884, %1883 ], [ %1910, %1885 ]
  %1888 = add nsw i64 %1886, %1871
  %1889 = getelementptr inbounds i8, i8* %1861, i64 %1888
  %1890 = bitcast i8* %1889 to <16 x i8>*
  %1891 = load <16 x i8>, <16 x i8>* %1890, align 1
  %1892 = zext <16 x i8> %1891 to <16 x i32>
  %1893 = add nuw nsw <16 x i32> %1877, %1892
  %1894 = lshr <16 x i32> %1893, <i32 8, i32 8, i32 8, i32 8, i32 8, i32 8, i32 8, i32 8, i32 8, i32 8, i32 8, i32 8, i32 8, i32 8, i32 8, i32 8>
  %1895 = sub nsw <16 x i32> %1893, %1894
  %1896 = trunc <16 x i32> %1895 to <16 x i8>
  %1897 = bitcast i8* %1889 to <16 x i8>*
  store <16 x i8> %1896, <16 x i8>* %1897, align 1
  %1898 = or i64 %1886, 16
  %1899 = add nsw i64 %1898, %1871
  %1900 = getelementptr inbounds i8, i8* %1861, i64 %1899
  %1901 = bitcast i8* %1900 to <16 x i8>*
  %1902 = load <16 x i8>, <16 x i8>* %1901, align 1
  %1903 = zext <16 x i8> %1902 to <16 x i32>
  %1904 = add nuw nsw <16 x i32> %1877, %1903
  %1905 = lshr <16 x i32> %1904, <i32 8, i32 8, i32 8, i32 8, i32 8, i32 8, i32 8, i32 8, i32 8, i32 8, i32 8, i32 8, i32 8, i32 8, i32 8, i32 8>
  %1906 = sub nsw <16 x i32> %1904, %1905
  %1907 = trunc <16 x i32> %1906 to <16 x i8>
  %1908 = bitcast i8* %1900 to <16 x i8>*
  store <16 x i8> %1907, <16 x i8>* %1908, align 1
  %1909 = add i64 %1886, 32
  %1910 = add i64 %1887, -2
  %1911 = icmp eq i64 %1910, 0
  br i1 %1911, label %1912, label %1885, !llvm.loop !16

; <label>:1912:                                   ; preds = %1885, %1874
  %1913 = phi i64 [ 0, %1874 ], [ %1909, %1885 ]
  %1914 = icmp eq i64 %1881, 0
  br i1 %1914, label %1926, label %1915

; <label>:1915:                                   ; preds = %1912
  %1916 = add nsw i64 %1913, %1871
  %1917 = getelementptr inbounds i8, i8* %1861, i64 %1916
  %1918 = bitcast i8* %1917 to <16 x i8>*
  %1919 = load <16 x i8>, <16 x i8>* %1918, align 1
  %1920 = zext <16 x i8> %1919 to <16 x i32>
  %1921 = add nuw nsw <16 x i32> %1877, %1920
  %1922 = lshr <16 x i32> %1921, <i32 8, i32 8, i32 8, i32 8, i32 8, i32 8, i32 8, i32 8, i32 8, i32 8, i32 8, i32 8, i32 8, i32 8, i32 8, i32 8>
  %1923 = sub nsw <16 x i32> %1921, %1922
  %1924 = trunc <16 x i32> %1923 to <16 x i8>
  %1925 = bitcast i8* %1917 to <16 x i8>*
  store <16 x i8> %1924, <16 x i8>* %1925, align 1
  br label %1926

; <label>:1926:                                   ; preds = %1912, %1915
  %1927 = icmp eq i64 %1875, %1872
  br i1 %1927, label %1942, label %1928

; <label>:1928:                                   ; preds = %1926, %1864
  %1929 = phi i64 [ 0, %1864 ], [ %1875, %1926 ]
  br label %1930

; <label>:1930:                                   ; preds = %1928, %1930
  %1931 = phi i64 [ %1940, %1930 ], [ %1929, %1928 ]
  %1932 = add nsw i64 %1931, %1871
  %1933 = getelementptr inbounds i8, i8* %1861, i64 %1932
  %1934 = load i8, i8* %1933, align 1
  %1935 = zext i8 %1934 to i32
  %1936 = add nuw nsw i32 %1870, %1935
  %1937 = lshr i32 %1936, 8
  %1938 = sub nsw i32 %1936, %1937
  %1939 = trunc i32 %1938 to i8
  store i8 %1939, i8* %1933, align 1
  %1940 = add nuw nsw i64 %1931, 1
  %1941 = icmp eq i64 %1940, %1872
  br i1 %1941, label %1942, label %1930, !llvm.loop !17

; <label>:1942:                                   ; preds = %1930, %1926, %1860, %1812
  %1943 = phi i32* [ %1836, %1860 ], [ %1815, %1812 ], [ %1836, %1926 ], [ %1836, %1930 ]
  %1944 = phi i32 [ %1862, %1860 ], [ %1813, %1812 ], [ %1862, %1926 ], [ %1862, %1930 ]
  %1945 = getelementptr inbounds %class.AdditiveBlitter, %class.AdditiveBlitter* %224, i64 46, i32 0, i32 1, i32 0, i32 0, i32 0, i32 0
  %1946 = getelementptr inbounds %class.AdditiveBlitter, %class.AdditiveBlitter* %224, i64 1, i32 0, i32 1, i32 0, i32 0, i32 0, i32 0
  %1947 = getelementptr inbounds %class.AdditiveBlitter, %class.AdditiveBlitter* %224, i64 2, i32 0, i32 1
  %1948 = bitcast %class.SkAutoMalloc* %1947 to i32*
  %1949 = getelementptr inbounds %class.AdditiveBlitter, %class.AdditiveBlitter* %224, i64 1, i32 0, i32 1, i32 1
  %1950 = bitcast i64* %1949 to i32*
  %1951 = xor i1 %1799, true
  %1952 = shl i32 %388, 16
  %1953 = getelementptr inbounds %struct.SkAnalyticEdge, %struct.SkAnalyticEdge* %11, i64 0, i32 10
  %1954 = getelementptr inbounds %struct.SkAnalyticEdge, %struct.SkAnalyticEdge* %11, i64 0, i32 11
  %1955 = getelementptr inbounds %struct.SkAnalyticEdge, %struct.SkAnalyticEdge* %11, i64 0, i32 12
  %1956 = getelementptr inbounds %struct.SkAnalyticEdge, %struct.SkAnalyticEdge* %11, i64 0, i32 6
  br label %1957

; <label>:1957:                                   ; preds = %2949, %1942
  %1958 = phi i32 [ %1803, %1942 ], [ %2950, %2949 ]
  %1959 = phi i32 [ %1752, %1942 ], [ %1975, %2949 ]
  %1960 = load i32, i32* %362, align 8
  %1961 = add nsw i32 %1959, 65536
  %1962 = and i32 %1961, -65536
  %1963 = icmp slt i32 %1958, %1962
  %1964 = select i1 %1963, i32 %1958, i32 %1962
  %1965 = and i32 %1964, 65535
  %1966 = icmp eq i32 %1965, 0
  %1967 = load %struct.SkAnalyticEdge*, %struct.SkAnalyticEdge** %358, align 8
  %1968 = sub nsw i32 %1964, %1959
  %1969 = and i32 %1968, 16384
  %1970 = icmp eq i32 %1969, 0
  %1971 = add nsw i32 %1959, 16384
  %1972 = lshr i32 %1968, 15
  %1973 = and i32 %1972, 1
  %1974 = select i1 %1970, i32 %1973, i32 2
  %1975 = select i1 %1970, i32 %1964, i32 %1971
  %1976 = sub nsw i32 %1975, %1959
  %1977 = mul nsw i32 %1976, 255
  %1978 = add nsw i32 %1977, 32768
