; ModuleID = '../../third_party/webrtc/audio/channel_receive.cc'
source_filename = "../../third_party/webrtc/audio/channel_receive.cc"
target datalayout = "e-m:e-i64:64-f80:128-n8:16:32:64-S128"
target triple = "x86_64-pc-linux-gnu"

module asm ".symver exp2f, exp2f@GLIBC_2.2.5"
module asm ".symver expf, expf@GLIBC_2.2.5"
module asm ".symver lgamma, lgamma@GLIBC_2.2.5"
module asm ".symver lgammaf, lgammaf@GLIBC_2.2.5"
module asm ".symver lgammal, lgammal@GLIBC_2.2.5"
module asm ".symver log2f, log2f@GLIBC_2.2.5"
module asm ".symver logf, logf@GLIBC_2.2.5"
module asm ".symver powf, powf@GLIBC_2.2.5"

%"class.webrtc::metrics::Histogram" = type opaque
%"class.std::__1::unique_ptr" = type { %"class.std::__1::__compressed_pair" }
%"class.std::__1::__compressed_pair" = type { %"struct.std::__1::__compressed_pair_elem" }
%"struct.std::__1::__compressed_pair_elem" = type { %"class.webrtc::voe::ChannelReceiveInterface"* }
%"class.webrtc::voe::ChannelReceiveInterface" = type { %"class.webrtc::RtpPacketSinkInterface" }
%"class.webrtc::RtpPacketSinkInterface" = type { i32 (...)** }
%"class.webrtc::ProcessThread" = type { i32 (...)** }
%"class.webrtc::AudioDeviceModule" = type { %"class.rtc::RefCountInterface" }
%"class.rtc::RefCountInterface" = type { i32 (...)** }
%"class.webrtc::MediaTransportInterface" = type { i32 (...)** }
%"class.webrtc::Transport" = type { i32 (...)** }
%"class.webrtc::RtcEventLog" = type { i32 (...)** }
%"class.rtc::scoped_refptr" = type { %"class.webrtc::AudioDecoderFactory"* }
%"class.webrtc::AudioDecoderFactory" = type { %"class.rtc::RefCountInterface" }
%"class.absl::optional" = type { %"class.absl::optional_internal::optional_data" }
%"class.absl::optional_internal::optional_data" = type { %"class.absl::optional_internal::optional_data_base" }
%"class.absl::optional_internal::optional_data_base" = type { %"class.absl::optional_internal::optional_data_dtor_base" }
%"class.absl::optional_internal::optional_data_dtor_base" = type { i8, %union.anon }
%union.anon = type { %"class.webrtc::AudioCodecPairId" }
%"class.webrtc::AudioCodecPairId" = type { i64 }
%"class.rtc::scoped_refptr.1" = type { %"class.webrtc::FrameDecryptorInterface"* }
%"class.webrtc::FrameDecryptorInterface" = type { %"class.rtc::RefCountInterface" }
%"struct.webrtc::CryptoOptions" = type { %"struct.webrtc::CryptoOptions::Srtp", %"struct.webrtc::CryptoOptions::SFrame" }
%"struct.webrtc::CryptoOptions::Srtp" = type { i8, i8, i8 }
%"struct.webrtc::CryptoOptions::SFrame" = type { i8 }
%"class.std::__1::unique_ptr.11" = type { %"class.std::__1::__compressed_pair.12" }
%"class.std::__1::__compressed_pair.12" = type { %"struct.std::__1::__compressed_pair_elem.13" }
%"struct.std::__1::__compressed_pair_elem.13" = type { %"class.webrtc::ReceiveStatistics"* }
%"class.webrtc::ReceiveStatistics" = type { %"class.webrtc::ReceiveStatisticsProvider", %"class.webrtc::RtpPacketSinkInterface" }
%"class.webrtc::ReceiveStatisticsProvider" = type { i32 (...)** }
%"struct.webrtc::AudioCodingModule::Config" = type { %"struct.webrtc::NetEq::Config", %"class.webrtc::Clock"*, %"class.rtc::scoped_refptr" }
%"struct.webrtc::NetEq::Config" = type <{ i32, i8, [3 x i8], i64, i32, i32, i8, i8, i8, [5 x i8], %"class.absl::optional", i8, [7 x i8] }>
%"class.webrtc::Clock" = type { i32 (...)** }
%"struct.webrtc::RtpRtcp::Configuration" = type <{ i8, i8, [6 x i8], %"class.webrtc::Clock"*, %"class.webrtc::ReceiveStatisticsProvider"*, %"class.webrtc::Transport"*, %"class.webrtc::RtcpIntraFrameObserver"*, %"class.webrtc::RtcpBandwidthObserver"*, %"class.webrtc::TransportFeedbackObserver"*, %"class.webrtc::VideoBitrateAllocationObserver"*, %"class.webrtc::RtcpRttStats"*, %"class.webrtc::RtcpPacketTypeCounterObserver"*, %"class.webrtc::RemoteBitrateEstimator"*, %"class.webrtc::RtpPacketSender"*, %"class.webrtc::FlexfecSender"*, %"class.webrtc::TransportSequenceNumberAllocator"*, %"class.webrtc::BitrateStatisticsObserver"*, %"class.webrtc::FrameCountObserver"*, %"class.webrtc::SendSideDelayObserver"*, %"class.webrtc::RtcEventLog"*, %"class.webrtc::SendPacketObserver"*, %"class.webrtc::RateLimiter"*, %"class.webrtc::OverheadObserver"*, %"struct.webrtc::RtpKeepAliveConfig", i32, i8, [3 x i8], %"class.webrtc::FrameEncryptorInterface"*, i8, i8, [6 x i8] }>
%"class.webrtc::RtcpIntraFrameObserver" = type { i32 (...)** }
%"class.webrtc::RtcpBandwidthObserver" = type { i32 (...)** }
%"class.webrtc::TransportFeedbackObserver" = type { i32 (...)** }
%"class.webrtc::VideoBitrateAllocationObserver" = type opaque
%"class.webrtc::RtcpRttStats" = type { i32 (...)** }
%"class.webrtc::RtcpPacketTypeCounterObserver" = type { i32 (...)** }
%"class.webrtc::RemoteBitrateEstimator" = type { %"class.webrtc::CallStatsObserver", %"class.webrtc::Module" }
%"class.webrtc::CallStatsObserver" = type { i32 (...)** }
%"class.webrtc::Module" = type { i32 (...)** }
%"class.webrtc::RtpPacketSender" = type { i32 (...)** }
%"class.webrtc::FlexfecSender" = type { %"class.webrtc::Clock"*, %"class.webrtc::Random", i64, i32, i32, i32, i32, %"class.std::__1::basic_string", i16, %"class.webrtc::UlpfecGenerator", %"class.webrtc::RtpHeaderExtensionMap", i64 }
%"class.webrtc::Random" = type { i64 }
%"class.std::__1::basic_string" = type { %"class.std::__1::__compressed_pair.101" }
%"class.std::__1::__compressed_pair.101" = type { %"struct.std::__1::__compressed_pair_elem.102" }
%"struct.std::__1::__compressed_pair_elem.102" = type { %"struct.std::__1::basic_string<char, std::__1::char_traits<char>, std::__1::allocator<char> >::__rep" }
%"struct.std::__1::basic_string<char, std::__1::char_traits<char>, std::__1::allocator<char> >::__rep" = type { %union.anon.103 }
%union.anon.103 = type { %"struct.std::__1::basic_string<char, std::__1::char_traits<char>, std::__1::allocator<char> >::__long" }
%"struct.std::__1::basic_string<char, std::__1::char_traits<char>, std::__1::allocator<char> >::__long" = type { i8*, i64, i64 }
%"class.webrtc::UlpfecGenerator" = type { %"class.std::__1::unique_ptr.107", %"class.std::__1::list.139", i64, %"class.std::__1::list.146", i32, i32, %"struct.webrtc::FecProtectionParams", %"struct.webrtc::FecProtectionParams" }
%"class.std::__1::unique_ptr.107" = type { %"class.std::__1::__compressed_pair.108" }
%"class.std::__1::__compressed_pair.108" = type { %"struct.std::__1::__compressed_pair_elem.109" }
%"struct.std::__1::__compressed_pair_elem.109" = type { %"class.webrtc::ForwardErrorCorrection"* }
%"class.webrtc::ForwardErrorCorrection" = type { i32, i32, %"class.std::__1::unique_ptr.110", %"class.std::__1::unique_ptr.116", %"class.std::__1::vector.122", %"class.std::__1::list.129", [288 x i8], [288 x i8], i64 }
%"class.std::__1::unique_ptr.110" = type { %"class.std::__1::__compressed_pair.111" }
%"class.std::__1::__compressed_pair.111" = type { %"struct.std::__1::__compressed_pair_elem.112" }
%"struct.std::__1::__compressed_pair_elem.112" = type { %"class.webrtc::FecHeaderReader"* }
%"class.webrtc::FecHeaderReader" = type { i32 (...)**, i64, i64 }
%"class.std::__1::unique_ptr.116" = type { %"class.std::__1::__compressed_pair.117" }
%"class.std::__1::__compressed_pair.117" = type { %"struct.std::__1::__compressed_pair_elem.118" }
%"struct.std::__1::__compressed_pair_elem.118" = type { %"class.webrtc::FecHeaderWriter"* }
%"class.webrtc::FecHeaderWriter" = type { i32 (...)**, i64, i64, i64 }
%"class.std::__1::vector.122" = type { %"class.std::__1::__vector_base.123" }
%"class.std::__1::__vector_base.123" = type { %"class.webrtc::ForwardErrorCorrection::Packet"*, %"class.webrtc::ForwardErrorCorrection::Packet"*, %"class.std::__1::__compressed_pair.124" }
%"class.webrtc::ForwardErrorCorrection::Packet" = type { i32 (...)**, i64, [1500 x i8], i32 }
%"class.std::__1::__compressed_pair.124" = type { %"struct.std::__1::__compressed_pair_elem.125" }
%"struct.std::__1::__compressed_pair_elem.125" = type { %"class.webrtc::ForwardErrorCorrection::Packet"* }
%"class.std::__1::list.129" = type { %"class.std::__1::__list_imp.130" }
%"class.std::__1::__list_imp.130" = type { %"struct.std::__1::__list_node_base.131", %"class.std::__1::__compressed_pair.132" }
%"struct.std::__1::__list_node_base.131" = type { %"struct.std::__1::__list_node_base.131"*, %"struct.std::__1::__list_node_base.131"* }
%"class.std::__1::__compressed_pair.132" = type { %"struct.std::__1::__compressed_pair_elem.9" }
%"struct.std::__1::__compressed_pair_elem.9" = type { i64 }
%"class.std::__1::list.139" = type { %"class.std::__1::__list_imp.140" }
%"class.std::__1::__list_imp.140" = type { %"struct.std::__1::__list_node_base.141", %"class.std::__1::__compressed_pair.142" }
%"struct.std::__1::__list_node_base.141" = type { %"struct.std::__1::__list_node_base.141"*, %"struct.std::__1::__list_node_base.141"* }
%"class.std::__1::__compressed_pair.142" = type { %"struct.std::__1::__compressed_pair_elem.9" }
%"class.std::__1::list.146" = type { %"class.std::__1::__list_imp.147" }
%"class.std::__1::__list_imp.147" = type { %"struct.std::__1::__list_node_base.148", %"class.std::__1::__compressed_pair.149" }
%"struct.std::__1::__list_node_base.148" = type { %"struct.std::__1::__list_node_base.148"*, %"struct.std::__1::__list_node_base.148"* }
%"class.std::__1::__compressed_pair.149" = type { %"struct.std::__1::__compressed_pair_elem.9" }
%"struct.webrtc::FecProtectionParams" = type { i32, i32, i32 }
%"class.webrtc::RtpHeaderExtensionMap" = type { [15 x i8], i8 }
%"class.webrtc::TransportSequenceNumberAllocator" = type { i32 (...)** }
%"class.webrtc::BitrateStatisticsObserver" = type { i32 (...)** }
%"class.webrtc::FrameCountObserver" = type { i32 (...)** }
%"class.webrtc::SendSideDelayObserver" = type { i32 (...)** }
%"class.webrtc::SendPacketObserver" = type { i32 (...)** }
%"class.webrtc::RateLimiter" = type opaque
%"class.webrtc::OverheadObserver" = type { i32 (...)** }
%"struct.webrtc::RtpKeepAliveConfig" = type <{ i64, i8, [7 x i8] }>
%"class.webrtc::FrameEncryptorInterface" = type opaque
%"class.rtc::Location" = type { i8*, i8* }
%"class.webrtc::MediaTransportAudioSinkInterface" = type { i32 (...)** }
%"class.rtc::RaceChecker" = type { i32, i64 }
%"class.rtc::CriticalSection" = type <{ %union.pthread_mutex_t, i64, i32, [4 x i8] }>
%union.pthread_mutex_t = type { %struct.__pthread_mutex_s }
%struct.__pthread_mutex_s = type { i32, i32, i32, i32, i32, i16, i16, %struct.__pthread_internal_list }
%struct.__pthread_internal_list = type { %struct.__pthread_internal_list*, %struct.__pthread_internal_list* }
%"class.webrtc::RtcpStatisticsCallback" = type { i32 (...)** }
%"class.webrtc::StreamDataCountersCallback" = type { i32 (...)** }
%"class.webrtc::ContributingSources" = type { %"class.std::__1::map.23", %"class.absl::optional.34" }
%"class.std::__1::map.23" = type { %"class.std::__1::__tree.24" }
%"class.std::__1::__tree.24" = type { %"class.std::__1::__tree_end_node"*, %"class.std::__1::__compressed_pair.25", %"class.std::__1::__compressed_pair.29" }
%"class.std::__1::__tree_end_node" = type { %"class.std::__1::__tree_node_base"* }
%"class.std::__1::__tree_node_base" = type <{ %"class.std::__1::__tree_end_node", %"class.std::__1::__tree_node_base"*, %"class.std::__1::__tree_end_node"*, i8, [7 x i8] }>
%"class.std::__1::__compressed_pair.25" = type { %"struct.std::__1::__compressed_pair_elem.6" }
%"struct.std::__1::__compressed_pair_elem.6" = type { %"class.std::__1::__tree_end_node" }
%"class.std::__1::__compressed_pair.29" = type { %"struct.std::__1::__compressed_pair_elem.9" }
%"class.absl::optional.34" = type { %"class.absl::optional_internal::optional_data.35" }
%"class.absl::optional_internal::optional_data.35" = type { %"class.absl::optional_internal::optional_data_base.36" }
%"class.absl::optional_internal::optional_data_base.36" = type { %"class.absl::optional_internal::optional_data_dtor_base.37" }
%"class.absl::optional_internal::optional_data_dtor_base.37" = type { i8, %union.anon.38 }
%union.anon.38 = type { i64 }
%"class.webrtc::voe::AudioLevel" = type { %"class.rtc::CriticalSection", i16, i16, i16, double, double }
%"class.webrtc::RemoteNtpTimeEstimator" = type { %"class.webrtc::Clock"*, %"class.webrtc::MovingMedianFilter", %"class.webrtc::RtpToNtpEstimator", i64 }
%"class.webrtc::MovingMedianFilter" = type { %"class.webrtc::PercentileFilter", %"class.std::__1::list", i64, i64 }
%"class.webrtc::PercentileFilter" = type { float, %"class.std::__1::multiset", %"class.std::__1::__tree_const_iterator", i64 }
%"class.std::__1::multiset" = type { %"class.std::__1::__tree.55" }
%"class.std::__1::__tree.55" = type { %"class.std::__1::__tree_end_node"*, %"class.std::__1::__compressed_pair.56", %"class.std::__1::__compressed_pair.60" }
%"class.std::__1::__compressed_pair.56" = type { %"struct.std::__1::__compressed_pair_elem.6" }
%"class.std::__1::__compressed_pair.60" = type { %"struct.std::__1::__compressed_pair_elem.9" }
%"class.std::__1::__tree_const_iterator" = type { %"class.std::__1::__tree_end_node"* }
%"class.std::__1::list" = type { %"class.std::__1::__list_imp" }
%"class.std::__1::__list_imp" = type { %"struct.std::__1::__list_node_base", %"class.std::__1::__compressed_pair.64" }
%"struct.std::__1::__list_node_base" = type { %"struct.std::__1::__list_node_base"*, %"struct.std::__1::__list_node_base"* }
%"class.std::__1::__compressed_pair.64" = type { %"struct.std::__1::__compressed_pair_elem.9" }
%"class.webrtc::RtpToNtpEstimator" = type { i32, %"class.std::__1::list.68", %"class.absl::optional.75", %"class.webrtc::Unwrapper" }
%"class.std::__1::list.68" = type { %"class.std::__1::__list_imp.69" }
%"class.std::__1::__list_imp.69" = type { %"struct.std::__1::__list_node_base.70", %"class.std::__1::__compressed_pair.71" }
%"struct.std::__1::__list_node_base.70" = type { %"struct.std::__1::__list_node_base.70"*, %"struct.std::__1::__list_node_base.70"* }
%"class.std::__1::__compressed_pair.71" = type { %"struct.std::__1::__compressed_pair_elem.9" }
%"class.absl::optional.75" = type { %"class.absl::optional_internal::optional_data.76" }
%"class.absl::optional_internal::optional_data.76" = type { %"class.absl::optional_internal::optional_data_base.77" }
%"class.absl::optional_internal::optional_data_base.77" = type { %"class.absl::optional_internal::optional_data_dtor_base.78" }
%"class.absl::optional_internal::optional_data_dtor_base.78" = type { i8, %union.anon.79 }
%union.anon.79 = type { %"struct.webrtc::RtpToNtpEstimator::Parameters" }
%"struct.webrtc::RtpToNtpEstimator::Parameters" = type { double, double }
%"class.webrtc::Unwrapper" = type { %"class.absl::optional.34" }
%"class.rtc::TimestampWrapAroundHandler" = type { i32, i64 }
%"class.webrtc::AudioCodingModule" = type { i32 (...)** }
%"class.webrtc::RtpRtcp" = type { %"class.webrtc::Module", %"class.webrtc::RtcpFeedbackSenderInterface" }
%"class.webrtc::RtcpFeedbackSenderInterface" = type { i32 (...)** }
%"class.webrtc::voe::(anonymous namespace)::ChannelReceive" = type <{ %"class.webrtc::voe::ChannelReceiveInterface", %"class.webrtc::MediaTransportAudioSinkInterface", %"class.rtc::ThreadChecker", %"class.rtc::ThreadChecker", [6 x i8], %"class.rtc::RaceChecker", %"class.rtc::RaceChecker", %"class.rtc::CriticalSection", %"class.rtc::CriticalSection", %"class.rtc::CriticalSection", i8, [7 x i8], %"class.webrtc::RtcEventLog"*, %"class.std::__1::map", %"class.std::__1::unique_ptr.11", %"class.std::__1::unique_ptr.17", i32, [4 x i8], %"class.rtc::CriticalSection", %"class.webrtc::ContributingSources", %"class.absl::optional.39", %"class.absl::optional.34", %"class.absl::optional.44", [6 x i8], %"class.std::__1::unique_ptr.49", %"class.webrtc::AudioSinkInterface"*, %"class.webrtc::voe::AudioLevel", %"class.webrtc::RemoteNtpTimeEstimator", %"class.absl::optional.39", %"class.rtc::CriticalSection", i32, i32, %"class.rtc::CriticalSection", %"class.std::__1::unique_ptr.80", i64, i64, %"class.webrtc::ProcessThread"*, %"class.webrtc::AudioDeviceModule"*, float, [4 x i8], %"class.rtc::CriticalSection", %"class.webrtc::voe::ChannelSendInterface"*, %"class.webrtc::PacketRouter"*, %"class.rtc::ThreadChecker", [7 x i8], %"class.webrtc::MediaTransportInterface"*, %"class.rtc::scoped_refptr.1", %"struct.webrtc::CryptoOptions", [4 x i8] }>
%"class.std::__1::map" = type { %"class.std::__1::__tree" }
%"class.std::__1::__tree" = type { %"class.std::__1::__tree_end_node"*, %"class.std::__1::__compressed_pair.5", %"class.std::__1::__compressed_pair.8" }
%"class.std::__1::__compressed_pair.5" = type { %"struct.std::__1::__compressed_pair_elem.6" }
%"class.std::__1::__compressed_pair.8" = type { %"struct.std::__1::__compressed_pair_elem.9" }
%"class.std::__1::unique_ptr.17" = type { %"class.std::__1::__compressed_pair.18" }
%"class.std::__1::__compressed_pair.18" = type { %"struct.std::__1::__compressed_pair_elem.19" }
%"struct.std::__1::__compressed_pair_elem.19" = type { %"class.webrtc::RtpRtcp"* }
%"class.absl::optional.44" = type { %"class.absl::optional_internal::optional_data.45" }
%"class.absl::optional_internal::optional_data.45" = type { %"class.absl::optional_internal::optional_data_base.46" }
%"class.absl::optional_internal::optional_data_base.46" = type { %"class.absl::optional_internal::optional_data_dtor_base.47" }
%"class.absl::optional_internal::optional_data_dtor_base.47" = type { i8, %union.anon.48 }
%union.anon.48 = type { %"struct.absl::optional_internal::optional_data_dtor_base<unsigned char, true>::dummy_type" }
%"struct.absl::optional_internal::optional_data_dtor_base<unsigned char, true>::dummy_type" = type { [1 x %"struct.absl::optional_internal::empty_struct"] }
%"struct.absl::optional_internal::empty_struct" = type { i8 }
%"class.std::__1::unique_ptr.49" = type { %"class.std::__1::__compressed_pair.50" }
%"class.std::__1::__compressed_pair.50" = type { %"struct.std::__1::__compressed_pair_elem.51" }
%"struct.std::__1::__compressed_pair_elem.51" = type { %"class.webrtc::AudioCodingModule"* }
%"class.webrtc::AudioSinkInterface" = type { i32 (...)** }
%"class.absl::optional.39" = type { %"class.absl::optional_internal::optional_data.40" }
%"class.absl::optional_internal::optional_data.40" = type { %"class.absl::optional_internal::optional_data_base.41" }
%"class.absl::optional_internal::optional_data_base.41" = type { %"class.absl::optional_internal::optional_data_dtor_base.42" }
%"class.absl::optional_internal::optional_data_dtor_base.42" = type { i8, %union.anon.43 }
%union.anon.43 = type { i32 }
%"class.std::__1::unique_ptr.80" = type { %"class.std::__1::__compressed_pair.81" }
%"class.std::__1::__compressed_pair.81" = type { %"struct.std::__1::__compressed_pair_elem.82" }
%"struct.std::__1::__compressed_pair_elem.82" = type { %"class.rtc::TimestampWrapAroundHandler"* }
%"class.webrtc::voe::ChannelSendInterface" = type { i32 (...)** }
%"class.webrtc::PacketRouter" = type <{ %"class.webrtc::PacedSender::PacketSender", %"class.webrtc::TransportSequenceNumberAllocator", %"class.webrtc::RemoteBitrateObserver", %"class.webrtc::TransportFeedbackSenderInterface", %"class.rtc::CriticalSection", %"class.std::__1::list.86", %"class.webrtc::RtpRtcp"*, %"class.std::__1::vector", %"class.rtc::CriticalSection", i64, i64, i64, i64, %"class.std::__1::vector", %"class.std::__1::vector", %"class.webrtc::RtcpFeedbackSenderInterface"*, i32, [4 x i8] }>
%"class.webrtc::PacedSender::PacketSender" = type { i32 (...)** }
%"class.webrtc::RemoteBitrateObserver" = type { i32 (...)** }
%"class.webrtc::TransportFeedbackSenderInterface" = type { i32 (...)** }
%"class.std::__1::list.86" = type { %"class.std::__1::__list_imp.87" }
%"class.std::__1::__list_imp.87" = type { %"struct.std::__1::__list_node_base.88", %"class.std::__1::__compressed_pair.89" }
%"struct.std::__1::__list_node_base.88" = type { %"struct.std::__1::__list_node_base.88"*, %"struct.std::__1::__list_node_base.88"* }
%"class.std::__1::__compressed_pair.89" = type { %"struct.std::__1::__compressed_pair_elem.9" }
%"class.std::__1::vector" = type { %"class.std::__1::__vector_base" }
%"class.std::__1::__vector_base" = type { %"class.webrtc::RtcpFeedbackSenderInterface"**, %"class.webrtc::RtcpFeedbackSenderInterface"**, %"class.std::__1::__compressed_pair.93" }
%"class.std::__1::__compressed_pair.93" = type { %"struct.std::__1::__compressed_pair_elem.94" }
%"struct.std::__1::__compressed_pair_elem.94" = type { %"class.webrtc::RtcpFeedbackSenderInterface"** }
%"class.rtc::ThreadChecker" = type { i8 }
%"class.webrtc::AudioPacketizationCallback" = type { i32 (...)** }
%"class.std::__1::__tree_node" = type { %"class.std::__1::__tree_node_base.base", %"struct.std::__1::__value_type", [4 x i8] }
%"class.std::__1::__tree_node_base.base" = type <{ %"class.std::__1::__tree_end_node", %"class.std::__1::__tree_node_base"*, %"class.std::__1::__tree_end_node"*, i8 }>
%"struct.std::__1::__value_type" = type { %"struct.std::__1::pair.213" }
%"struct.std::__1::pair.213" = type { i8, i32 }
%"class.webrtc::RtpPacketReceived" = type { %"class.webrtc::RtpPacket", %"class.webrtc::NtpTime", i64, i32, i8, %"class.std::__1::vector.167" }
%"class.webrtc::RtpPacket" = type { i8, i8, i8, i16, i32, i32, i64, i64, %"class.webrtc::RtpHeaderExtensionMap", %"class.std::__1::vector.153", i64, %"class.rtc::CopyOnWriteBuffer" }
%"class.std::__1::vector.153" = type { %"class.std::__1::__vector_base.154" }
%"class.std::__1::__vector_base.154" = type { %"struct.webrtc::RtpPacket::ExtensionInfo"*, %"struct.webrtc::RtpPacket::ExtensionInfo"*, %"class.std::__1::__compressed_pair.155" }
%"struct.webrtc::RtpPacket::ExtensionInfo" = type { i8, i8, i16 }
%"class.std::__1::__compressed_pair.155" = type { %"struct.std::__1::__compressed_pair_elem.156" }
%"struct.std::__1::__compressed_pair_elem.156" = type { %"struct.webrtc::RtpPacket::ExtensionInfo"* }
%"class.rtc::CopyOnWriteBuffer" = type { %"class.rtc::scoped_refptr.160" }
%"class.rtc::scoped_refptr.160" = type { %"class.rtc::RefCountedObject"* }
%"class.rtc::RefCountedObject" = type <{ i32 (...)**, %"class.rtc::BufferT", %"class.webrtc::webrtc_impl::RefCounter", [4 x i8] }>
%"class.rtc::BufferT" = type { i64, i64, %"class.std::__1::unique_ptr.161" }
%"class.std::__1::unique_ptr.161" = type { %"class.std::__1::__compressed_pair.162" }
%"class.std::__1::__compressed_pair.162" = type { %"struct.std::__1::__compressed_pair_elem.163" }
%"struct.std::__1::__compressed_pair_elem.163" = type { i8* }
%"class.webrtc::webrtc_impl::RefCounter" = type { i32 }
%"class.webrtc::NtpTime" = type { i64 }
%"class.std::__1::vector.167" = type { %"class.std::__1::__vector_base.168" }
%"class.std::__1::__vector_base.168" = type { i8*, i8*, %"class.std::__1::__compressed_pair.169" }
%"class.std::__1::__compressed_pair.169" = type { %"struct.std::__1::__compressed_pair_elem.163" }
%"struct.webrtc::WebRtcRTPHeader" = type { %"struct.webrtc::RTPVideoHeader", %"struct.webrtc::RTPHeader", i32, i64 }
%"struct.webrtc::RTPVideoHeader" = type { %"class.absl::optional.235", i16, i16, i32, i8, i8, i8, i8, i32, %"struct.webrtc::PlayoutDelay", %"struct.webrtc::VideoSendTiming", %"struct.webrtc::FrameMarking", %"class.absl::optional.221", %"class.absl::variant" }
%"class.absl::optional.235" = type { %"class.absl::optional_internal::optional_data.236" }
%"class.absl::optional_internal::optional_data.236" = type { %"class.absl::optional_internal::optional_data_base.237" }
%"class.absl::optional_internal::optional_data_base.237" = type { %"class.absl::optional_internal::optional_data_dtor_base.238" }
%"class.absl::optional_internal::optional_data_dtor_base.238" = type { i8, %union.anon.239 }
%union.anon.239 = type { %"struct.webrtc::RTPVideoHeader::GenericDescriptorInfo" }
%"struct.webrtc::RTPVideoHeader::GenericDescriptorInfo" = type { i64, i32, i32, %"class.absl::InlinedVector", %"class.absl::InlinedVector.242" }
%"class.absl::InlinedVector" = type { %"class.absl::InlinedVector<long, 5, std::__1::allocator<long> >::AllocatorAndTag", %"union.absl::InlinedVector<long, 5, std::__1::allocator<long> >::Rep" }
%"class.absl::InlinedVector<long, 5, std::__1::allocator<long> >::AllocatorAndTag" = type { %"class.absl::InlinedVector<long, 5, std::__1::allocator<long> >::Tag" }
%"class.absl::InlinedVector<long, 5, std::__1::allocator<long> >::Tag" = type { i64 }
%"union.absl::InlinedVector<long, 5, std::__1::allocator<long> >::Rep" = type { %"struct.absl::InlinedVector<long, 5, std::__1::allocator<long> >::Rep::InlinedRep" }
%"struct.absl::InlinedVector<long, 5, std::__1::allocator<long> >::Rep::InlinedRep" = type { [5 x %"struct.std::__1::aligned_storage<8, 8>::type"] }
%"struct.std::__1::aligned_storage<8, 8>::type" = type { [8 x i8] }
%"class.absl::InlinedVector.242" = type { %"class.absl::InlinedVector<int, 5, std::__1::allocator<int> >::AllocatorAndTag", %"union.absl::InlinedVector<int, 5, std::__1::allocator<int> >::Rep" }
%"class.absl::InlinedVector<int, 5, std::__1::allocator<int> >::AllocatorAndTag" = type { %"class.absl::InlinedVector<int, 5, std::__1::allocator<int> >::Tag" }
%"class.absl::InlinedVector<int, 5, std::__1::allocator<int> >::Tag" = type { i64 }
%"union.absl::InlinedVector<int, 5, std::__1::allocator<int> >::Rep" = type { %"struct.absl::InlinedVector<int, 5, std::__1::allocator<int> >::Rep::InlinedRep", [4 x i8] }
%"struct.absl::InlinedVector<int, 5, std::__1::allocator<int> >::Rep::InlinedRep" = type { [5 x %"struct.std::__1::aligned_storage<4, 4>::type"] }
%"struct.std::__1::aligned_storage<4, 4>::type" = type { [4 x i8] }
%"struct.webrtc::PlayoutDelay" = type { i32, i32 }
%"struct.webrtc::VideoSendTiming" = type { i16, i16, i16, i16, i16, i16, i8 }
%"struct.webrtc::FrameMarking" = type { i8, i8, i8, i8, i8, i8, i8, i8 }
%"class.absl::optional.221" = type { %"class.absl::optional_internal::optional_data.222" }
%"class.absl::optional_internal::optional_data.222" = type { %"class.absl::optional_internal::optional_data_base.223" }
%"class.absl::optional_internal::optional_data_base.223" = type { %"class.absl::optional_internal::optional_data_dtor_base.224" }
%"class.absl::optional_internal::optional_data_dtor_base.224" = type { i8, %union.anon.225 }
%union.anon.225 = type { %"class.webrtc::ColorSpace" }
%"class.webrtc::ColorSpace" = type { i8, i8, i8, i32, i32, i32, %"class.absl::optional.226" }
%"class.absl::optional.226" = type { %"class.absl::optional_internal::optional_data.227" }
%"class.absl::optional_internal::optional_data.227" = type { %"class.absl::optional_internal::optional_data_base.228" }
%"class.absl::optional_internal::optional_data_base.228" = type { %"class.absl::optional_internal::optional_data_dtor_base.229" }
%"class.absl::optional_internal::optional_data_dtor_base.229" = type { i8, %union.anon.230 }
%union.anon.230 = type { %"struct.webrtc::HdrMetadata" }
%"struct.webrtc::HdrMetadata" = type { %"struct.webrtc::HdrMasteringMetadata", i32, i32 }
%"struct.webrtc::HdrMasteringMetadata" = type { %"struct.webrtc::HdrMasteringMetadata::Chromaticity", %"struct.webrtc::HdrMasteringMetadata::Chromaticity", %"struct.webrtc::HdrMasteringMetadata::Chromaticity", %"struct.webrtc::HdrMasteringMetadata::Chromaticity", float, float }
%"struct.webrtc::HdrMasteringMetadata::Chromaticity" = type { float, float }
%"class.absl::variant" = type { %"class.absl::variant_internal::VariantStateBase" }
%"class.absl::variant_internal::VariantStateBase" = type { %"union.absl::variant_internal::Union", i64 }
%"union.absl::variant_internal::Union" = type { %"union.absl::variant_internal::Union.245" }
%"union.absl::variant_internal::Union.245" = type { %"union.absl::variant_internal::Union.246" }
%"union.absl::variant_internal::Union.246" = type { %"struct.webrtc::RTPVideoHeaderVP9" }
%"struct.webrtc::RTPVideoHeaderVP9" = type { i8, i8, i8, i8, i8, i8, i16, i16, i16, i8, i8, i8, i8, i8, i8, [3 x i8], [3 x i16], i64, i8, [8 x i16], [8 x i16], %"struct.webrtc::GofInfoVP9", i8 }
%"struct.webrtc::GofInfoVP9" = type { i64, [255 x i8], [255 x i8], [255 x i8], [255 x [3 x i8]], i16 }
%"struct.webrtc::RTPHeader" = type <{ i8, i8, i16, i32, i32, i8, [3 x i8], [15 x i32], [4 x i8], i64, i64, i32, %"struct.webrtc::RTPHeaderExtension", [4 x i8] }>
%"struct.webrtc::RTPHeaderExtension" = type { i8, i32, i8, i32, i8, i16, i8, i8, i8, i8, i32, i8, i8, i8, %"struct.webrtc::VideoSendTiming", i8, %"struct.webrtc::FrameMarking", %"struct.webrtc::PlayoutDelay", %"class.webrtc::StringRtpHeaderExtension", %"class.webrtc::StringRtpHeaderExtension", %"class.webrtc::StringRtpHeaderExtension", %"class.absl::optional.221" }
%"class.webrtc::StringRtpHeaderExtension" = type { [16 x i8] }
%"class.std::__1::vector.214" = type { %"class.std::__1::__vector_base.215" }
%"class.std::__1::__vector_base.215" = type { i32*, i32*, %"class.std::__1::__compressed_pair.216" }
%"class.std::__1::__compressed_pair.216" = type { %"struct.std::__1::__compressed_pair_elem.217" }
%"struct.std::__1::__compressed_pair_elem.217" = type { i32* }
%"class.rtc::ArrayView.231" = type { %"class.rtc::impl::ArrayViewBase.232" }
%"class.rtc::impl::ArrayViewBase.232" = type { i8*, i64 }
%"class.rtc::ArrayView.249" = type { %"class.rtc::impl::ArrayViewBase.250" }
%"class.rtc::impl::ArrayViewBase.250" = type { i8*, i64 }
%"class.rtc::CritScope" = type { %"class.rtc::CriticalSection"* }
%"class.std::__1::map.173" = type { %"class.std::__1::__tree.174" }
%"class.std::__1::__tree.174" = type { %"class.std::__1::__tree_end_node"*, %"class.std::__1::__compressed_pair.175", %"class.std::__1::__compressed_pair.179" }
%"class.std::__1::__compressed_pair.175" = type { %"struct.std::__1::__compressed_pair_elem.6" }
%"class.std::__1::__compressed_pair.179" = type { %"struct.std::__1::__compressed_pair_elem.9" }
%"class.absl::optional.184" = type { %"class.absl::optional_internal::optional_data.185" }
%"class.absl::optional_internal::optional_data.185" = type { %"class.absl::optional_internal::optional_data_base.186" }
%"class.absl::optional_internal::optional_data_base.186" = type { %"class.absl::optional_internal::optional_data_dtor_base.187" }
%"class.absl::optional_internal::optional_data_dtor_base.187" = type { i8, %union.anon.188 }
%union.anon.188 = type { %"struct.std::__1::pair" }
%"struct.std::__1::pair" = type { i32, %"struct.webrtc::SdpAudioFormat" }
%"struct.webrtc::SdpAudioFormat" = type { %"class.std::__1::basic_string", i32, i64, %"class.std::__1::map.189" }
%"class.std::__1::map.189" = type { %"class.std::__1::__tree.190" }
%"class.std::__1::__tree.190" = type { %"class.std::__1::__tree_end_node"*, %"class.std::__1::__compressed_pair.191", %"class.std::__1::__compressed_pair.195" }
%"class.std::__1::__compressed_pair.191" = type { %"struct.std::__1::__compressed_pair_elem.6" }
%"class.std::__1::__compressed_pair.195" = type { %"struct.std::__1::__compressed_pair_elem.9" }
%"struct.webrtc::NetworkStatistics" = type { i16, i16, i8, i64, i64, i64, i64, i16, %union.anon.200, i16, i16, i16, i16, i16, i16, i32, i32, i32, i32, i32, i64, i64, i64 }
%union.anon.200 = type { i16 }
%"struct.webrtc::AudioDecodingCallStats" = type { i32, i32, i32, i32, i32, i32, i32 }
%"class.absl::optional.201" = type { %"class.absl::optional_internal::optional_data.202" }
%"class.absl::optional_internal::optional_data.202" = type { %"class.absl::optional_internal::optional_data_base.203" }
%"class.absl::optional_internal::optional_data_base.203" = type { %"class.absl::optional_internal::optional_data_dtor_base.204" }
%"class.absl::optional_internal::optional_data_dtor_base.204" = type { i8, [7 x i8], %union.anon.205 }
%union.anon.205 = type { %"struct.absl::optional_internal::optional_data_dtor_base<webrtc::Syncable::Info, true>::dummy_type" }
%"struct.absl::optional_internal::optional_data_dtor_base<webrtc::Syncable::Info, true>::dummy_type" = type { [32 x %"struct.absl::optional_internal::empty_struct"] }
%"struct.webrtc::Syncable::Info" = type <{ i64, i32, i32, i32, i32, i32, [4 x i8] }>
%"struct.webrtc::CallReceiveStatistics" = type { i16, i32, i32, i32, i64, i64, i32, i64 }
%"struct.webrtc::RtcpStatistics" = type { i8, i32, i32, i32 }
%"class.webrtc::StreamStatistician" = type { i32 (...)** }
%"class.webrtc::AudioFrame" = type <{ i32, [4 x i8], i64, i64, i64, i32, [4 x i8], i64, i32, i32, i64, [7680 x i16], i8, [7 x i8] }>
%"class.std::__1::unique_ptr.288" = type { %"class.std::__1::__compressed_pair.289" }
%"class.std::__1::__compressed_pair.289" = type { %"struct.std::__1::__compressed_pair_elem.290" }
%"struct.std::__1::__compressed_pair_elem.290" = type { %"class.webrtc::RtcEvent"* }
%"class.webrtc::RtcEvent" = type { i32 (...)**, i64 }
%"struct.webrtc::AudioSinkInterface::Data" = type <{ i16*, i64, i32, [4 x i8], i64, i32, [4 x i8] }>
%"class.webrtc::RtcEventAudioPlayout" = type <{ %"class.webrtc::RtcEvent", i32, [4 x i8] }>
%"struct.std::__1::basic_string<char, std::__1::char_traits<char>, std::__1::allocator<char> >::__short" = type { [23 x i8], %struct.anon }
%struct.anon = type { i8 }
%"class.std::__1::vector.206" = type { %"class.std::__1::__vector_base.207" }
%"class.std::__1::__vector_base.207" = type { %"class.webrtc::RtpSource"*, %"class.webrtc::RtpSource"*, %"class.std::__1::__compressed_pair.208" }
%"class.webrtc::RtpSource" = type <{ i64, i32, i32, %"class.absl::optional.44", [6 x i8] }>
%"class.std::__1::__compressed_pair.208" = type { %"struct.std::__1::__compressed_pair_elem.209" }
%"struct.std::__1::__compressed_pair_elem.209" = type { %"class.webrtc::RtpSource"* }
%"class.webrtc::MediaTransportEncodedAudioFrame" = type { i32, i32, i32, i32, i32, i32, %"class.std::__1::vector.167" }
%"class.std::__1::vector.251" = type { %"class.std::__1::__vector_base.252" }
%"class.std::__1::__vector_base.252" = type { i16*, i16*, %"class.std::__1::__compressed_pair.253" }
%"class.std::__1::__compressed_pair.253" = type { %"struct.std::__1::__compressed_pair_elem.254" }
%"struct.std::__1::__compressed_pair_elem.254" = type { i16* }
%"class.std::__1::__vector_base_common" = type { i8 }
%"class.absl::optional.272" = type { %"class.absl::optional_internal::optional_data.273" }
%"class.absl::optional_internal::optional_data.273" = type { %"class.absl::optional_internal::optional_data_base.274" }
%"class.absl::optional_internal::optional_data_base.274" = type { %"class.absl::optional_internal::optional_data_dtor_base.275" }
%"class.absl::optional_internal::optional_data_dtor_base.275" = type { i8, %union.anon.276 }
%union.anon.276 = type { %"struct.webrtc::TargetTransferRate" }
%"struct.webrtc::TargetTransferRate" = type { %"class.webrtc::Timestamp", %"struct.webrtc::NetworkEstimate", %"class.webrtc::DataRate" }
%"class.webrtc::Timestamp" = type { %"class.webrtc::rtc_units_impl::UnitBase" }
%"class.webrtc::rtc_units_impl::UnitBase" = type { i64 }
%"struct.webrtc::NetworkEstimate" = type <{ %"class.webrtc::Timestamp", %"class.webrtc::DataRate", %"class.webrtc::TimeDelta", %"class.webrtc::TimeDelta", float, [4 x i8] }>
%"class.webrtc::TimeDelta" = type { %"class.webrtc::rtc_units_impl::RelativeUnit.278" }
%"class.webrtc::rtc_units_impl::RelativeUnit.278" = type { %"class.webrtc::rtc_units_impl::UnitBase.279" }
%"class.webrtc::rtc_units_impl::UnitBase.279" = type { i64 }
%"class.webrtc::DataRate" = type { %"class.webrtc::rtc_units_impl::RelativeUnit" }
%"class.webrtc::rtc_units_impl::RelativeUnit" = type { %"class.webrtc::rtc_units_impl::UnitBase.277" }
%"class.webrtc::rtc_units_impl::UnitBase.277" = type { i64 }
%"class.std::__1::vector.280" = type { %"class.std::__1::__vector_base.281" }
%"class.std::__1::__vector_base.281" = type { %"struct.webrtc::RTCPReportBlock"*, %"struct.webrtc::RTCPReportBlock"*, %"class.std::__1::__compressed_pair.282" }
%"struct.webrtc::RTCPReportBlock" = type { i32, i32, i8, i32, i32, i32, i32, i32 }
%"class.std::__1::__compressed_pair.282" = type { %"struct.std::__1::__compressed_pair_elem.283" }
%"struct.std::__1::__compressed_pair_elem.283" = type { %"struct.webrtc::RTCPReportBlock"* }

$_ZNSt3__16__treeINS_12__value_typeIhiEENS_19__map_value_compareIhS2_NS_4lessIhEELb1EEENS_9allocatorIS2_EEE7destroyEPNS_11__tree_nodeIS2_PvEE = comdat any

$_ZNSt3__127__tree_balance_after_insertIPNS_16__tree_node_baseIPvEEEEvT_S5_ = comdat any

$_ZNSt3__16vectorIN6webrtc9RtpSourceENS_9allocatorIS2_EEE24__emplace_back_slow_pathIJRKlRKjNS1_13RtpSourceTypeEEEEvDpOT_ = comdat any

$_ZZN3rtc18webrtc_checks_impl11LogStreamerIJEE4CallIJEEEvPKciS5_DpRKT_E1t = comdat any

@_ZTVN6webrtc3voe12_GLOBAL__N_114ChannelReceiveE = internal unnamed_addr constant { [31 x i8*], [5 x i8*] } { [31 x i8*] [i8* null, i8* null, i8* bitcast (void (%"class.webrtc::voe::(anonymous namespace)::ChannelReceive"*)* @_ZN6webrtc3voe12_GLOBAL__N_114ChannelReceiveD2Ev to i8*), i8* bitcast (void (%"class.webrtc::voe::(anonymous namespace)::ChannelReceive"*)* @_ZN6webrtc3voe12_GLOBAL__N_114ChannelReceiveD0Ev to i8*), i8* bitcast (void (%"class.webrtc::voe::(anonymous namespace)::ChannelReceive"*, %"class.webrtc::RtpPacketReceived"*)* @_ZN6webrtc3voe12_GLOBAL__N_114ChannelReceive11OnRtpPacketERKNS_17RtpPacketReceivedE to i8*), i8* bitcast (void (%"class.webrtc::voe::(anonymous namespace)::ChannelReceive"*, %"class.webrtc::AudioSinkInterface"*)* @_ZN6webrtc3voe12_GLOBAL__N_114ChannelReceive7SetSinkEPNS_18AudioSinkInterfaceE to i8*), i8* bitcast (void (%"class.webrtc::voe::(anonymous namespace)::ChannelReceive"*, %"class.std::__1::map.173"*)* @_ZN6webrtc3voe12_GLOBAL__N_114ChannelReceive16SetReceiveCodecsERKNSt3__13mapIiNS_14SdpAudioFormatENS3_4lessIiEENS3_9allocatorINS3_4pairIKiS5_EEEEEE to i8*), i8* bitcast (void (%"class.webrtc::voe::(anonymous namespace)::ChannelReceive"*)* @_ZN6webrtc3voe12_GLOBAL__N_114ChannelReceive12StartPlayoutEv to i8*), i8* bitcast (void (%"class.webrtc::voe::(anonymous namespace)::ChannelReceive"*)* @_ZN6webrtc3voe12_GLOBAL__N_114ChannelReceive11StopPlayoutEv to i8*), i8* bitcast (void (%"class.absl::optional.184"*, %"class.webrtc::voe::(anonymous namespace)::ChannelReceive"*)* @_ZNK6webrtc3voe12_GLOBAL__N_114ChannelReceive15GetReceiveCodecEv to i8*), i8* bitcast (i1 (%"class.webrtc::voe::(anonymous namespace)::ChannelReceive"*, i8*, i64)* @_ZN6webrtc3voe12_GLOBAL__N_114ChannelReceive18ReceivedRTCPPacketEPKhm to i8*), i8* bitcast (void (%"class.webrtc::voe::(anonymous namespace)::ChannelReceive"*, float)* @_ZN6webrtc3voe12_GLOBAL__N_114ChannelReceive29SetChannelOutputVolumeScalingEf to i8*), i8* bitcast (i32 (%"class.webrtc::voe::(anonymous namespace)::ChannelReceive"*)* @_ZNK6webrtc3voe12_GLOBAL__N_114ChannelReceive29GetSpeechOutputLevelFullRangeEv to i8*), i8* bitcast (double (%"class.webrtc::voe::(anonymous namespace)::ChannelReceive"*)* @_ZNK6webrtc3voe12_GLOBAL__N_114ChannelReceive20GetTotalOutputEnergyEv to i8*), i8* bitcast (double (%"class.webrtc::voe::(anonymous namespace)::ChannelReceive"*)* @_ZNK6webrtc3voe12_GLOBAL__N_114ChannelReceive22GetTotalOutputDurationEv to i8*), i8* bitcast (void (%"struct.webrtc::NetworkStatistics"*, %"class.webrtc::voe::(anonymous namespace)::ChannelReceive"*)* @_ZNK6webrtc3voe12_GLOBAL__N_114ChannelReceive20GetNetworkStatisticsEv to i8*), i8* bitcast (void (%"struct.webrtc::AudioDecodingCallStats"*, %"class.webrtc::voe::(anonymous namespace)::ChannelReceive"*)* @_ZNK6webrtc3voe12_GLOBAL__N_114ChannelReceive25GetDecodingCallStatisticsEv to i8*), i8* bitcast (i32 (%"class.webrtc::voe::(anonymous namespace)::ChannelReceive"*)* @_ZNK6webrtc3voe12_GLOBAL__N_114ChannelReceive16GetDelayEstimateEv to i8*), i8* bitcast (void (%"class.webrtc::voe::(anonymous namespace)::ChannelReceive"*, i32)* @_ZN6webrtc3voe12_GLOBAL__N_114ChannelReceive22SetMinimumPlayoutDelayEi to i8*), i8* bitcast (i32 (%"class.webrtc::voe::(anonymous namespace)::ChannelReceive"*)* @_ZNK6webrtc3voe12_GLOBAL__N_114ChannelReceive19GetPlayoutTimestampEv to i8*), i8* bitcast (void (%"class.absl::optional.201"*, %"class.webrtc::voe::(anonymous namespace)::ChannelReceive"*)* @_ZNK6webrtc3voe12_GLOBAL__N_114ChannelReceive11GetSyncInfoEv to i8*), i8* bitcast (void (%"class.webrtc::voe::(anonymous namespace)::ChannelReceive"*, i32)* @_ZN6webrtc3voe12_GLOBAL__N_114ChannelReceive12SetLocalSSRCEj to i8*), i8* bitcast (void (%"class.webrtc::voe::(anonymous namespace)::ChannelReceive"*, %"class.webrtc::PacketRouter"*)* @_ZN6webrtc3voe12_GLOBAL__N_114ChannelReceive40RegisterReceiverCongestionControlObjectsEPNS_12PacketRouterE to i8*), i8* bitcast (void (%"class.webrtc::voe::(anonymous namespace)::ChannelReceive"*)* @_ZN6webrtc3voe12_GLOBAL__N_114ChannelReceive37ResetReceiverCongestionControlObjectsEv to i8*), i8* bitcast (void (%"struct.webrtc::CallReceiveStatistics"*, %"class.webrtc::voe::(anonymous namespace)::ChannelReceive"*)* @_ZNK6webrtc3voe12_GLOBAL__N_114ChannelReceive17GetRTCPStatisticsEv to i8*), i8* bitcast (void (%"class.webrtc::voe::(anonymous namespace)::ChannelReceive"*, i1, i32)* @_ZN6webrtc3voe12_GLOBAL__N_114ChannelReceive13SetNACKStatusEbi to i8*), i8* bitcast (i32 (%"class.webrtc::voe::(anonymous namespace)::ChannelReceive"*, i32, %"class.webrtc::AudioFrame"*)* @_ZN6webrtc3voe12_GLOBAL__N_114ChannelReceive21GetAudioFrameWithInfoEiPNS_10AudioFrameE to i8*), i8* bitcast (i32 (%"class.webrtc::voe::(anonymous namespace)::ChannelReceive"*)* @_ZNK6webrtc3voe12_GLOBAL__N_114ChannelReceive19PreferredSampleRateEv to i8*), i8* bitcast (void (%"class.webrtc::voe::(anonymous namespace)::ChannelReceive"*, %"class.webrtc::voe::ChannelSendInterface"*)* @_ZN6webrtc3voe12_GLOBAL__N_114ChannelReceive24SetAssociatedSendChannelEPKNS0_20ChannelSendInterfaceE to i8*), i8* bitcast (void (%"class.std::__1::vector.206"*, %"class.webrtc::voe::(anonymous namespace)::ChannelReceive"*)* @_ZNK6webrtc3voe12_GLOBAL__N_114ChannelReceive10GetSourcesEv to i8*), i8* bitcast (void (%"class.webrtc::voe::(anonymous namespace)::ChannelReceive"*, i64, %"class.webrtc::MediaTransportEncodedAudioFrame"*)* @_ZN6webrtc3voe12_GLOBAL__N_114ChannelReceive6OnDataEmNS_31MediaTransportEncodedAudioFrameE to i8*)], [5 x i8*] [i8* inttoptr (i64 -8 to i8*), i8* null, i8* bitcast (void (%"class.webrtc::voe::(anonymous namespace)::ChannelReceive"*)* @_ZThn8_N6webrtc3voe12_GLOBAL__N_114ChannelReceiveD1Ev to i8*), i8* bitcast (void (%"class.webrtc::voe::(anonymous namespace)::ChannelReceive"*)* @_ZThn8_N6webrtc3voe12_GLOBAL__N_114ChannelReceiveD0Ev to i8*), i8* bitcast (void (%"class.webrtc::voe::(anonymous namespace)::ChannelReceive"*, i64, %"class.webrtc::MediaTransportEncodedAudioFrame"*)* @_ZThn8_N6webrtc3voe12_GLOBAL__N_114ChannelReceive6OnDataEmNS_31MediaTransportEncodedAudioFrameE to i8*)] }, align 8
@__FUNCTION__._ZN6webrtc3voe12_GLOBAL__N_114ChannelReceiveC2EPNS_13ProcessThreadEPNS_17AudioDeviceModuleEPNS_23MediaTransportInterfaceEPNS_9TransportEPNS_11RtcEventLogEjmbibN3rtc13scoped_refptrINS_19AudioDecoderFactoryEEEN4absl8optionalINS_16AudioCodecPairIdEEENSE_INS_23FrameDecryptorInterfaceEEERKNS_13CryptoOptionsE = private unnamed_addr constant [15 x i8] c"ChannelReceive\00", align 1
@.str = private unnamed_addr constant [54 x i8] c"../../third_party/webrtc/audio/channel_receive.cc:511\00", align 1
@.str.2 = private unnamed_addr constant [50 x i8] c"../../third_party/webrtc/audio/channel_receive.cc\00", align 1
@.str.3 = private unnamed_addr constant [18 x i8] c"!media_transport_\00", align 1
@_ZZN3rtc18webrtc_checks_impl11LogStreamerIJEE4CallIJEEEvPKciS5_DpRKT_E1t = linkonce_odr hidden constant [1 x i8] zeroinitializer, comdat, align 1
@_ZZN6webrtc3voe12_GLOBAL__N_114ChannelReceive21GetAudioFrameWithInfoEiPNS_10AudioFrameEE24atomic_histogram_pointer = internal global %"class.webrtc::metrics::Histogram"* null, align 8
@.str.4 = private unnamed_addr constant [39 x i8] c"WebRTC.Audio.TargetJitterBufferDelayMs\00", align 1
@_ZZN6webrtc3voe12_GLOBAL__N_114ChannelReceive21GetAudioFrameWithInfoEiPNS_10AudioFrameEE24atomic_histogram_pointer_0 = internal global %"class.webrtc::metrics::Histogram"* null, align 8
@.str.5 = private unnamed_addr constant [37 x i8] c"WebRTC.Audio.ReceiverDelayEstimateMs\00", align 1
@_ZZN6webrtc3voe12_GLOBAL__N_114ChannelReceive21GetAudioFrameWithInfoEiPNS_10AudioFrameEE24atomic_histogram_pointer_1 = internal global %"class.webrtc::metrics::Histogram"* null, align 8
@.str.6 = private unnamed_addr constant [41 x i8] c"WebRTC.Audio.ReceiverJitterBufferDelayMs\00", align 1
@_ZZN6webrtc3voe12_GLOBAL__N_114ChannelReceive21GetAudioFrameWithInfoEiPNS_10AudioFrameEE24atomic_histogram_pointer_2 = internal global %"class.webrtc::metrics::Histogram"* null, align 8
@.str.7 = private unnamed_addr constant [35 x i8] c"WebRTC.Audio.ReceiverDeviceDelayMs\00", align 1
@.str.8 = private unnamed_addr constant [17 x i8] c"media_transport_\00", align 1

; Function Attrs: nounwind ssp uwtable
define hidden void @_ZN6webrtc3voe20CreateChannelReceiveEPNS_13ProcessThreadEPNS_17AudioDeviceModuleEPNS_23MediaTransportInterfaceEPNS_9TransportEPNS_11RtcEventLogEjmbibN3rtc13scoped_refptrINS_19AudioDecoderFactoryEEEN4absl8optionalINS_16AudioCodecPairIdEEENSC_INS_23FrameDecryptorInterfaceEEERKNS_13CryptoOptionsE(%"class.std::__1::unique_ptr"* noalias nocapture sret, %"class.webrtc::ProcessThread"*, %"class.webrtc::AudioDeviceModule"*, %"class.webrtc::MediaTransportInterface"*, %"class.webrtc::Transport"*, %"class.webrtc::RtcEventLog"*, i32, i64, i1 zeroext, i32, i1 zeroext, %"class.rtc::scoped_refptr"* nocapture readonly, %"class.absl::optional"* byval nocapture readonly align 8, %"class.rtc::scoped_refptr.1"* nocapture readonly, %"struct.webrtc::CryptoOptions"* dereferenceable(4)) local_unnamed_addr #0 {
  %16 = alloca %"class.std::__1::unique_ptr.11", align 8
  %17 = alloca %"struct.webrtc::AudioCodingModule::Config", align 8
  %18 = alloca %"class.rtc::scoped_refptr", align 8
  %19 = alloca %"struct.webrtc::RtpRtcp::Configuration", align 8
  %20 = alloca %"class.rtc::Location", align 8
  %21 = alloca %"class.absl::optional_internal::optional_data_dtor_base", align 8
  %22 = alloca %"class.absl::optional_internal::optional_data_dtor_base", align 8
  %23 = ptrtoint %"class.webrtc::ProcessThread"* %1 to i64
  %24 = ptrtoint %"class.webrtc::AudioDeviceModule"* %2 to i64
  %25 = ptrtoint %"class.webrtc::MediaTransportInterface"* %3 to i64
  %26 = ptrtoint %"class.webrtc::Transport"* %4 to i64
  %27 = ptrtoint %"class.webrtc::RtcEventLog"* %5 to i64
  %28 = zext i1 %8 to i8
  %29 = zext i1 %10 to i8
  %30 = getelementptr inbounds %"class.absl::optional_internal::optional_data_dtor_base", %"class.absl::optional_internal::optional_data_dtor_base"* %22, i64 0, i32 0
  call void @llvm.lifetime.start.p0i8(i64 16, i8* nonnull %30)
  %31 = tail call i8* @_Znwm(i64 968) #8, !noalias !2
  %32 = getelementptr inbounds %"class.rtc::scoped_refptr", %"class.rtc::scoped_refptr"* %11, i64 0, i32 0
  %33 = load %"class.webrtc::AudioDecoderFactory"*, %"class.webrtc::AudioDecoderFactory"** %32, align 8, !noalias !2
  %34 = icmp eq %"class.webrtc::AudioDecoderFactory"* %33, null
  br i1 %34, label %40, label %35

; <label>:35:                                     ; preds = %15
  %36 = getelementptr inbounds %"class.webrtc::AudioDecoderFactory", %"class.webrtc::AudioDecoderFactory"* %33, i64 0, i32 0
  %37 = bitcast %"class.webrtc::AudioDecoderFactory"* %33 to void (%"class.rtc::RefCountInterface"*)***
  %38 = load void (%"class.rtc::RefCountInterface"*)**, void (%"class.rtc::RefCountInterface"*)*** %37, align 8, !noalias !2
  %39 = load void (%"class.rtc::RefCountInterface"*)*, void (%"class.rtc::RefCountInterface"*)** %38, align 8, !noalias !2
  tail call void %39(%"class.rtc::RefCountInterface"* nonnull %36) #9, !noalias !2
  br label %40

; <label>:40:                                     ; preds = %35, %15
  %41 = getelementptr inbounds %"class.absl::optional", %"class.absl::optional"* %12, i64 0, i32 0, i32 0, i32 0, i32 0
  call void @llvm.memcpy.p0i8.p0i8.i64(i8* nonnull align 8 %30, i8* nonnull align 8 %41, i64 16, i1 false) #9, !noalias !2
  %42 = getelementptr inbounds %"class.rtc::scoped_refptr.1", %"class.rtc::scoped_refptr.1"* %13, i64 0, i32 0
  %43 = load %"class.webrtc::FrameDecryptorInterface"*, %"class.webrtc::FrameDecryptorInterface"** %42, align 8, !noalias !2
  %44 = icmp eq %"class.webrtc::FrameDecryptorInterface"* %43, null
  br i1 %44, label %50, label %45

; <label>:45:                                     ; preds = %40
  %46 = getelementptr inbounds %"class.webrtc::FrameDecryptorInterface", %"class.webrtc::FrameDecryptorInterface"* %43, i64 0, i32 0
  %47 = bitcast %"class.webrtc::FrameDecryptorInterface"* %43 to void (%"class.rtc::RefCountInterface"*)***
  %48 = load void (%"class.rtc::RefCountInterface"*)**, void (%"class.rtc::RefCountInterface"*)*** %47, align 8, !noalias !2
  %49 = load void (%"class.rtc::RefCountInterface"*)*, void (%"class.rtc::RefCountInterface"*)** %48, align 8, !noalias !2
  tail call void %49(%"class.rtc::RefCountInterface"* nonnull %46) #9, !noalias !2
  br label %50

; <label>:50:                                     ; preds = %45, %40
  %51 = getelementptr inbounds %"class.absl::optional_internal::optional_data_dtor_base", %"class.absl::optional_internal::optional_data_dtor_base"* %21, i64 0, i32 0
  call void @llvm.lifetime.start.p0i8(i64 16, i8* nonnull %51)
  %52 = bitcast %"class.rtc::scoped_refptr"* %18 to i8*
  call void @llvm.lifetime.start.p0i8(i64 8, i8* nonnull %52) #9, !noalias !2
  call void @llvm.memcpy.p0i8.p0i8.i64(i8* nonnull align 8 %51, i8* nonnull align 8 %30, i64 16, i1 false) #9, !noalias !2
  %53 = getelementptr inbounds i8, i8* %31, i64 8
  %54 = bitcast i8* %53 to %"class.webrtc::MediaTransportAudioSinkInterface"*
  %55 = bitcast i8* %31 to <2 x i32 (...)**>*
  store <2 x i32 (...)**> <i32 (...)** bitcast (i8** getelementptr inbounds ({ [31 x i8*], [5 x i8*] }, { [31 x i8*], [5 x i8*] }* @_ZTVN6webrtc3voe12_GLOBAL__N_114ChannelReceiveE, i64 0, inrange i32 0, i64 2) to i32 (...)**), i32 (...)** bitcast (i8** getelementptr inbounds ({ [31 x i8*], [5 x i8*] }, { [31 x i8*], [5 x i8*] }* @_ZTVN6webrtc3voe12_GLOBAL__N_114ChannelReceiveE, i64 0, inrange i32 1, i64 2) to i32 (...)**)>, <2 x i32 (...)**>* %55, align 8, !noalias !2
  %56 = getelementptr inbounds i8, i8* %31, i64 24
  %57 = bitcast i8* %56 to %"class.rtc::RaceChecker"*
  tail call void @_ZN3rtc11RaceCheckerC1Ev(%"class.rtc::RaceChecker"* nonnull %57) #9, !noalias !2
  %58 = getelementptr inbounds i8, i8* %31, i64 40
  %59 = bitcast i8* %58 to %"class.rtc::RaceChecker"*
  tail call void @_ZN3rtc11RaceCheckerC1Ev(%"class.rtc::RaceChecker"* nonnull %59) #9, !noalias !2
  %60 = getelementptr inbounds i8, i8* %31, i64 56
  %61 = bitcast i8* %60 to %"class.rtc::CriticalSection"*
  tail call void @_ZN3rtc15CriticalSectionC1Ev(%"class.rtc::CriticalSection"* nonnull %61) #9, !noalias !2
  %62 = getelementptr inbounds i8, i8* %31, i64 112
  %63 = bitcast i8* %62 to %"class.rtc::CriticalSection"*
  tail call void @_ZN3rtc15CriticalSectionC1Ev(%"class.rtc::CriticalSection"* nonnull %63) #9, !noalias !2
  %64 = getelementptr inbounds i8, i8* %31, i64 168
  %65 = bitcast i8* %64 to %"class.rtc::CriticalSection"*
  tail call void @_ZN3rtc15CriticalSectionC1Ev(%"class.rtc::CriticalSection"* nonnull %65) #9, !noalias !2
  %66 = getelementptr inbounds i8, i8* %31, i64 224
  store i8 0, i8* %66, align 8, !noalias !2
  %67 = getelementptr inbounds i8, i8* %31, i64 232
  %68 = bitcast i8* %67 to i64*
  store i64 %27, i64* %68, align 8, !noalias !2
  %69 = getelementptr inbounds i8, i8* %31, i64 248
  %70 = getelementptr inbounds i8, i8* %31, i64 240
  tail call void @llvm.memset.p0i8.i64(i8* nonnull align 8 %69, i8 0, i64 16, i1 false) #9, !noalias !2
  %71 = bitcast i8* %70 to i8**
  store i8* %69, i8** %71, align 8, !noalias !2
  %72 = getelementptr inbounds i8, i8* %31, i64 264
  %73 = tail call %"class.webrtc::Clock"* @_ZN6webrtc5Clock16GetRealTimeClockEv() #9, !noalias !2
  %74 = bitcast %"class.std::__1::unique_ptr.11"* %16 to i8*
  call void @llvm.lifetime.start.p0i8(i64 8, i8* nonnull %74) #9, !noalias !2
  call void @_ZN6webrtc17ReceiveStatistics6CreateEPNS_5ClockEPNS_22RtcpStatisticsCallbackEPNS_26StreamDataCountersCallbackE(%"class.std::__1::unique_ptr.11"* nonnull sret %16, %"class.webrtc::Clock"* %73, %"class.webrtc::RtcpStatisticsCallback"* null, %"class.webrtc::StreamDataCountersCallback"* null) #9, !noalias !2
  %75 = bitcast %"class.std::__1::unique_ptr.11"* %16 to i64*
  %76 = load i64, i64* %75, align 8, !noalias !2
  call void @llvm.lifetime.end.p0i8(i64 8, i8* nonnull %74) #9, !noalias !2
  %77 = bitcast i8* %72 to i64*
  store i64 %76, i64* %77, align 8, !noalias !2
  %78 = getelementptr inbounds i8, i8* %31, i64 272
  %79 = bitcast i8* %78 to i64*
  store i64 0, i64* %79, align 8, !noalias !2
  %80 = getelementptr inbounds i8, i8* %31, i64 280
  %81 = bitcast i8* %80 to i32*
  store i32 %6, i32* %81, align 8, !noalias !2
  %82 = getelementptr inbounds i8, i8* %31, i64 288
  %83 = bitcast i8* %82 to %"class.rtc::CriticalSection"*
  call void @_ZN3rtc15CriticalSectionC1Ev(%"class.rtc::CriticalSection"* nonnull %83) #9, !noalias !2
  %84 = getelementptr inbounds i8, i8* %31, i64 344
  %85 = bitcast i8* %84 to %"class.webrtc::ContributingSources"*
  call void @_ZN6webrtc19ContributingSourcesC1Ev(%"class.webrtc::ContributingSources"* nonnull %85) #9, !noalias !2
  %86 = getelementptr inbounds i8, i8* %31, i64 384
  store i8 0, i8* %86, align 4, !noalias !2
  %87 = getelementptr inbounds i8, i8* %31, i64 392
  store i8 0, i8* %87, align 8, !noalias !2
  %88 = getelementptr inbounds i8, i8* %31, i64 408
  store i8 0, i8* %88, align 1, !noalias !2
  %89 = getelementptr inbounds i8, i8* %31, i64 416
  %90 = getelementptr inbounds i8, i8* %31, i64 432
  %91 = bitcast i8* %90 to %"class.webrtc::voe::AudioLevel"*
  call void @llvm.memset.p0i8.i64(i8* nonnull align 8 %89, i8 0, i64 16, i1 false) #9, !noalias !2
  call void @_ZN6webrtc3voe10AudioLevelC1Ev(%"class.webrtc::voe::AudioLevel"* nonnull %91) #9, !noalias !2
  %92 = getelementptr inbounds i8, i8* %31, i64 512
  %93 = bitcast i8* %92 to %"class.webrtc::RemoteNtpTimeEstimator"*
  %94 = call %"class.webrtc::Clock"* @_ZN6webrtc5Clock16GetRealTimeClockEv() #9, !noalias !2
  call void @_ZN6webrtc22RemoteNtpTimeEstimatorC1EPNS_5ClockE(%"class.webrtc::RemoteNtpTimeEstimator"* nonnull %93, %"class.webrtc::Clock"* %94) #9, !noalias !2
  %95 = getelementptr inbounds i8, i8* %31, i64 688
  store i8 0, i8* %95, align 4, !noalias !2
  %96 = getelementptr inbounds i8, i8* %31, i64 696
  %97 = bitcast i8* %96 to %"class.rtc::CriticalSection"*
  call void @_ZN3rtc15CriticalSectionC1Ev(%"class.rtc::CriticalSection"* nonnull %97) #9, !noalias !2
  %98 = getelementptr inbounds i8, i8* %31, i64 752
  %99 = bitcast i8* %98 to i32*
  store i32 0, i32* %99, align 8, !noalias !2
  %100 = getelementptr inbounds i8, i8* %31, i64 756
  %101 = bitcast i8* %100 to i32*
  store i32 0, i32* %101, align 4, !noalias !2
  %102 = getelementptr inbounds i8, i8* %31, i64 760
  %103 = bitcast i8* %102 to %"class.rtc::CriticalSection"*
  call void @_ZN3rtc15CriticalSectionC1Ev(%"class.rtc::CriticalSection"* nonnull %103) #9, !noalias !2
  %104 = getelementptr inbounds i8, i8* %31, i64 816
  %105 = call i8* @_Znwm(i64 16) #8, !noalias !2
  %106 = bitcast i8* %105 to %"class.rtc::TimestampWrapAroundHandler"*
  call void @_ZN3rtc26TimestampWrapAroundHandlerC1Ev(%"class.rtc::TimestampWrapAroundHandler"* nonnull %106) #9, !noalias !2
  %107 = ptrtoint i8* %105 to i64
  %108 = bitcast i8* %104 to i64*
  store i64 %107, i64* %108, align 8, !noalias !2
  %109 = getelementptr inbounds i8, i8* %31, i64 824
  %110 = getelementptr inbounds i8, i8* %31, i64 840
  %111 = bitcast i8* %110 to %"class.webrtc::ProcessThread"**
  call void @llvm.memset.p0i8.i64(i8* nonnull align 8 %109, i8 -1, i64 16, i1 false) #9, !noalias !2
  %112 = bitcast i8* %110 to i64*
  store i64 %23, i64* %112, align 8, !noalias !2
  %113 = getelementptr inbounds i8, i8* %31, i64 848
  %114 = bitcast i8* %113 to i64*
  store i64 %24, i64* %114, align 8, !noalias !2
  %115 = getelementptr inbounds i8, i8* %31, i64 856
  %116 = bitcast i8* %115 to float*
  store float 1.000000e+00, float* %116, align 8, !noalias !2
  %117 = getelementptr inbounds i8, i8* %31, i64 864
  %118 = bitcast i8* %117 to %"class.rtc::CriticalSection"*
  call void @_ZN3rtc15CriticalSectionC1Ev(%"class.rtc::CriticalSection"* nonnull %118) #9, !noalias !2
  %119 = getelementptr inbounds i8, i8* %31, i64 920
  %120 = getelementptr inbounds i8, i8* %31, i64 944
  %121 = bitcast i8* %120 to %"class.webrtc::MediaTransportInterface"**
  call void @llvm.memset.p0i8.i64(i8* nonnull align 8 %119, i8 0, i64 16, i1 false) #9, !noalias !2
  %122 = bitcast i8* %120 to i64*
  store i64 %25, i64* %122, align 8, !noalias !2
  %123 = getelementptr inbounds i8, i8* %31, i64 952
  %124 = bitcast i8* %123 to %"class.webrtc::FrameDecryptorInterface"**
  store %"class.webrtc::FrameDecryptorInterface"* %43, %"class.webrtc::FrameDecryptorInterface"** %124, align 8, !noalias !2
  br i1 %44, label %130, label %125

; <label>:125:                                    ; preds = %50
  %126 = getelementptr inbounds %"class.webrtc::FrameDecryptorInterface", %"class.webrtc::FrameDecryptorInterface"* %43, i64 0, i32 0
  %127 = bitcast %"class.webrtc::FrameDecryptorInterface"* %43 to void (%"class.rtc::RefCountInterface"*)***
  %128 = load void (%"class.rtc::RefCountInterface"*)**, void (%"class.rtc::RefCountInterface"*)*** %127, align 8, !noalias !2
  %129 = load void (%"class.rtc::RefCountInterface"*)*, void (%"class.rtc::RefCountInterface"*)** %128, align 8, !noalias !2
  call void %129(%"class.rtc::RefCountInterface"* nonnull %126) #9, !noalias !2
  br label %130

; <label>:130:                                    ; preds = %125, %50
  %131 = getelementptr inbounds i8, i8* %31, i64 960
  %132 = bitcast i8* %131 to %"struct.webrtc::CryptoOptions"*
  call void @_ZN6webrtc13CryptoOptionsC1ERKS0_(%"struct.webrtc::CryptoOptions"* nonnull %132, %"struct.webrtc::CryptoOptions"* nonnull dereferenceable(4) %14) #9, !noalias !2
  %133 = bitcast %"struct.webrtc::AudioCodingModule::Config"* %17 to i8*
  call void @llvm.lifetime.start.p0i8(i64 72, i8* nonnull %133) #9, !noalias !2
  %134 = getelementptr inbounds %"class.rtc::scoped_refptr", %"class.rtc::scoped_refptr"* %18, i64 0, i32 0
  store %"class.webrtc::AudioDecoderFactory"* null, %"class.webrtc::AudioDecoderFactory"** %134, align 8, !noalias !2
  call void @_ZN6webrtc17AudioCodingModule6ConfigC1EN3rtc13scoped_refptrINS_19AudioDecoderFactoryEEE(%"struct.webrtc::AudioCodingModule::Config"* nonnull %17, %"class.rtc::scoped_refptr"* nonnull %18) #9, !noalias !2
  %135 = load %"class.webrtc::AudioDecoderFactory"*, %"class.webrtc::AudioDecoderFactory"** %134, align 8, !noalias !2
  %136 = icmp eq %"class.webrtc::AudioDecoderFactory"* %135, null
  br i1 %136, label %144, label %137

; <label>:137:                                    ; preds = %130
  %138 = getelementptr inbounds %"class.webrtc::AudioDecoderFactory", %"class.webrtc::AudioDecoderFactory"* %135, i64 0, i32 0
  %139 = bitcast %"class.webrtc::AudioDecoderFactory"* %135 to i32 (%"class.rtc::RefCountInterface"*)***
  %140 = load i32 (%"class.rtc::RefCountInterface"*)**, i32 (%"class.rtc::RefCountInterface"*)*** %139, align 8, !noalias !2
  %141 = getelementptr inbounds i32 (%"class.rtc::RefCountInterface"*)*, i32 (%"class.rtc::RefCountInterface"*)** %140, i64 1
  %142 = load i32 (%"class.rtc::RefCountInterface"*)*, i32 (%"class.rtc::RefCountInterface"*)** %141, align 8, !noalias !2
  %143 = call i32 %142(%"class.rtc::RefCountInterface"* nonnull %138) #9, !noalias !2
  br label %144

; <label>:144:                                    ; preds = %137, %130
  br i1 %34, label %150, label %145

; <label>:145:                                    ; preds = %144
  %146 = getelementptr inbounds %"class.webrtc::AudioDecoderFactory", %"class.webrtc::AudioDecoderFactory"* %33, i64 0, i32 0
  %147 = bitcast %"class.webrtc::AudioDecoderFactory"* %33 to void (%"class.rtc::RefCountInterface"*)***
  %148 = load void (%"class.rtc::RefCountInterface"*)**, void (%"class.rtc::RefCountInterface"*)*** %147, align 8, !noalias !2
  %149 = load void (%"class.rtc::RefCountInterface"*)*, void (%"class.rtc::RefCountInterface"*)** %148, align 8, !noalias !2
  call void %149(%"class.rtc::RefCountInterface"* nonnull %146) #9, !noalias !2
  br label %150

; <label>:150:                                    ; preds = %145, %144
  %151 = getelementptr inbounds %"struct.webrtc::AudioCodingModule::Config", %"struct.webrtc::AudioCodingModule::Config"* %17, i64 0, i32 2, i32 0
  %152 = load %"class.webrtc::AudioDecoderFactory"*, %"class.webrtc::AudioDecoderFactory"** %151, align 8, !noalias !2
  %153 = icmp eq %"class.webrtc::AudioDecoderFactory"* %152, null
  br i1 %153, label %161, label %154

; <label>:154:                                    ; preds = %150
  %155 = getelementptr inbounds %"class.webrtc::AudioDecoderFactory", %"class.webrtc::AudioDecoderFactory"* %152, i64 0, i32 0
  %156 = bitcast %"class.webrtc::AudioDecoderFactory"* %152 to i32 (%"class.rtc::RefCountInterface"*)***
  %157 = load i32 (%"class.rtc::RefCountInterface"*)**, i32 (%"class.rtc::RefCountInterface"*)*** %156, align 8, !noalias !2
  %158 = getelementptr inbounds i32 (%"class.rtc::RefCountInterface"*)*, i32 (%"class.rtc::RefCountInterface"*)** %157, i64 1
  %159 = load i32 (%"class.rtc::RefCountInterface"*)*, i32 (%"class.rtc::RefCountInterface"*)** %158, align 8, !noalias !2
  %160 = call i32 %159(%"class.rtc::RefCountInterface"* nonnull %155) #9, !noalias !2
  br label %161

; <label>:161:                                    ; preds = %154, %150
  store %"class.webrtc::AudioDecoderFactory"* %33, %"class.webrtc::AudioDecoderFactory"** %151, align 8, !noalias !2
  %162 = getelementptr inbounds %"struct.webrtc::AudioCodingModule::Config", %"struct.webrtc::AudioCodingModule::Config"* %17, i64 0, i32 0, i32 10, i32 0, i32 0, i32 0, i32 0
  call void @llvm.memcpy.p0i8.p0i8.i64(i8* nonnull align 8 %162, i8* nonnull align 8 %51, i64 16, i1 false) #9, !noalias !2
  %163 = getelementptr inbounds %"struct.webrtc::AudioCodingModule::Config", %"struct.webrtc::AudioCodingModule::Config"* %17, i64 0, i32 0, i32 3
  store i64 %7, i64* %163, align 8, !noalias !2
  %164 = getelementptr inbounds %"struct.webrtc::AudioCodingModule::Config", %"struct.webrtc::AudioCodingModule::Config"* %17, i64 0, i32 0, i32 6
  store i8 %28, i8* %164, align 8, !noalias !2
  %165 = getelementptr inbounds %"struct.webrtc::AudioCodingModule::Config", %"struct.webrtc::AudioCodingModule::Config"* %17, i64 0, i32 0, i32 5
  store i32 %9, i32* %165, align 4, !noalias !2
  %166 = getelementptr inbounds %"struct.webrtc::AudioCodingModule::Config", %"struct.webrtc::AudioCodingModule::Config"* %17, i64 0, i32 0, i32 7
  store i8 1, i8* %166, align 1, !noalias !2
  %167 = getelementptr inbounds %"struct.webrtc::AudioCodingModule::Config", %"struct.webrtc::AudioCodingModule::Config"* %17, i64 0, i32 0, i32 8
  store i8 %29, i8* %167, align 2, !noalias !2
  %168 = call %"class.webrtc::AudioCodingModule"* @_ZN6webrtc17AudioCodingModule6CreateERKNS0_6ConfigE(%"struct.webrtc::AudioCodingModule::Config"* nonnull dereferenceable(72) %17) #9, !noalias !2
  %169 = bitcast i8* %89 to %"class.webrtc::AudioCodingModule"**
  %170 = load %"class.webrtc::AudioCodingModule"*, %"class.webrtc::AudioCodingModule"** %169, align 8, !noalias !2
  store %"class.webrtc::AudioCodingModule"* %168, %"class.webrtc::AudioCodingModule"** %169, align 8, !noalias !2
  %171 = icmp eq %"class.webrtc::AudioCodingModule"* %170, null
  br i1 %171, label %177, label %172

; <label>:172:                                    ; preds = %161
  %173 = bitcast %"class.webrtc::AudioCodingModule"* %170 to void (%"class.webrtc::AudioCodingModule"*)***
  %174 = load void (%"class.webrtc::AudioCodingModule"*)**, void (%"class.webrtc::AudioCodingModule"*)*** %173, align 8, !noalias !2
  %175 = getelementptr inbounds void (%"class.webrtc::AudioCodingModule"*)*, void (%"class.webrtc::AudioCodingModule"*)** %174, i64 1
  %176 = load void (%"class.webrtc::AudioCodingModule"*)*, void (%"class.webrtc::AudioCodingModule"*)** %175, align 8, !noalias !2
  call void %176(%"class.webrtc::AudioCodingModule"* nonnull %170) #9, !noalias !2
  br label %177

; <label>:177:                                    ; preds = %172, %161
  call void @_ZN6webrtc3voe10AudioLevel5ClearEv(%"class.webrtc::voe::AudioLevel"* nonnull %91) #9, !noalias !2
  %178 = bitcast i8* %72 to %"class.webrtc::ReceiveStatistics"**
  %179 = load %"class.webrtc::ReceiveStatistics"*, %"class.webrtc::ReceiveStatistics"** %178, align 8, !noalias !2
  %180 = load i32, i32* %81, align 8, !noalias !2
  %181 = bitcast %"class.webrtc::ReceiveStatistics"* %179 to void (%"class.webrtc::ReceiveStatistics"*, i32, i1)***
  %182 = load void (%"class.webrtc::ReceiveStatistics"*, i32, i1)**, void (%"class.webrtc::ReceiveStatistics"*, i32, i1)*** %181, align 8, !noalias !2
  %183 = getelementptr inbounds void (%"class.webrtc::ReceiveStatistics"*, i32, i1)*, void (%"class.webrtc::ReceiveStatistics"*, i32, i1)** %182, i64 6
  %184 = load void (%"class.webrtc::ReceiveStatistics"*, i32, i1)*, void (%"class.webrtc::ReceiveStatistics"*, i32, i1)** %183, align 8, !noalias !2
  call void %184(%"class.webrtc::ReceiveStatistics"* %179, i32 %180, i1 zeroext true) #9, !noalias !2
  %185 = getelementptr inbounds %"struct.webrtc::RtpRtcp::Configuration", %"struct.webrtc::RtpRtcp::Configuration"* %19, i64 0, i32 0
  call void @llvm.lifetime.start.p0i8(i64 208, i8* nonnull %185) #9, !noalias !2
  call void @_ZN6webrtc7RtpRtcp13ConfigurationC1Ev(%"struct.webrtc::RtpRtcp::Configuration"* nonnull %19) #9, !noalias !2
  store i8 1, i8* %185, align 8, !noalias !2
  %186 = getelementptr inbounds %"struct.webrtc::RtpRtcp::Configuration", %"struct.webrtc::RtpRtcp::Configuration"* %19, i64 0, i32 1
  store i8 1, i8* %186, align 1, !noalias !2
  %187 = getelementptr inbounds %"struct.webrtc::RtpRtcp::Configuration", %"struct.webrtc::RtpRtcp::Configuration"* %19, i64 0, i32 5
  %188 = bitcast %"class.webrtc::Transport"** %187 to i64*
  store i64 %26, i64* %188, align 8, !noalias !2
  %189 = load %"class.webrtc::ReceiveStatistics"*, %"class.webrtc::ReceiveStatistics"** %178, align 8, !noalias !2
  %190 = getelementptr inbounds %"class.webrtc::ReceiveStatistics", %"class.webrtc::ReceiveStatistics"* %189, i64 0, i32 0
  %191 = getelementptr inbounds %"struct.webrtc::RtpRtcp::Configuration", %"struct.webrtc::RtpRtcp::Configuration"* %19, i64 0, i32 4
  store %"class.webrtc::ReceiveStatisticsProvider"* %190, %"class.webrtc::ReceiveStatisticsProvider"** %191, align 8, !noalias !2
  %192 = load i64, i64* %68, align 8, !noalias !2
  %193 = getelementptr inbounds %"struct.webrtc::RtpRtcp::Configuration", %"struct.webrtc::RtpRtcp::Configuration"* %19, i64 0, i32 19
  %194 = bitcast %"class.webrtc::RtcEventLog"** %193 to i64*
  store i64 %192, i64* %194, align 8, !noalias !2
  %195 = call %"class.webrtc::RtpRtcp"* @_ZN6webrtc7RtpRtcp13CreateRtpRtcpERKNS0_13ConfigurationE(%"struct.webrtc::RtpRtcp::Configuration"* nonnull dereferenceable(208) %19) #9, !noalias !2
  %196 = bitcast i8* %78 to %"class.webrtc::RtpRtcp"**
  %197 = load %"class.webrtc::RtpRtcp"*, %"class.webrtc::RtpRtcp"** %196, align 8, !noalias !2
  store %"class.webrtc::RtpRtcp"* %195, %"class.webrtc::RtpRtcp"** %196, align 8, !noalias !2
  %198 = icmp eq %"class.webrtc::RtpRtcp"* %197, null
  br i1 %198, label %205, label %199

; <label>:199:                                    ; preds = %177
  %200 = bitcast %"class.webrtc::RtpRtcp"* %197 to void (%"class.webrtc::RtpRtcp"*)***
  %201 = load void (%"class.webrtc::RtpRtcp"*)**, void (%"class.webrtc::RtpRtcp"*)*** %200, align 8, !noalias !2
  %202 = getelementptr inbounds void (%"class.webrtc::RtpRtcp"*)*, void (%"class.webrtc::RtpRtcp"*)** %201, i64 4
  %203 = load void (%"class.webrtc::RtpRtcp"*)*, void (%"class.webrtc::RtpRtcp"*)** %202, align 8, !noalias !2
  call void %203(%"class.webrtc::RtpRtcp"* nonnull %197) #9, !noalias !2
  %204 = load %"class.webrtc::RtpRtcp"*, %"class.webrtc::RtpRtcp"** %196, align 8, !noalias !2
  br label %205

; <label>:205:                                    ; preds = %199, %177
  %206 = phi %"class.webrtc::RtpRtcp"* [ %195, %177 ], [ %204, %199 ]
  %207 = bitcast %"class.webrtc::RtpRtcp"* %206 to void (%"class.webrtc::RtpRtcp"*, i1)***
  %208 = load void (%"class.webrtc::RtpRtcp"*, i1)**, void (%"class.webrtc::RtpRtcp"*, i1)*** %207, align 8, !noalias !2
  %209 = getelementptr inbounds void (%"class.webrtc::RtpRtcp"*, i1)*, void (%"class.webrtc::RtpRtcp"*, i1)** %208, i64 37
  %210 = load void (%"class.webrtc::RtpRtcp"*, i1)*, void (%"class.webrtc::RtpRtcp"*, i1)** %209, align 8, !noalias !2
  call void %210(%"class.webrtc::RtpRtcp"* %206, i1 zeroext false) #9, !noalias !2
  %211 = load %"class.webrtc::RtpRtcp"*, %"class.webrtc::RtpRtcp"** %196, align 8, !noalias !2
  %212 = load i32, i32* %81, align 8, !noalias !2
  %213 = bitcast %"class.webrtc::RtpRtcp"* %211 to void (%"class.webrtc::RtpRtcp"*, i32)***
  %214 = load void (%"class.webrtc::RtpRtcp"*, i32)**, void (%"class.webrtc::RtpRtcp"*, i32)*** %213, align 8, !noalias !2
  %215 = getelementptr inbounds void (%"class.webrtc::RtpRtcp"*, i32)*, void (%"class.webrtc::RtpRtcp"*, i32)** %214, i64 6
  %216 = load void (%"class.webrtc::RtpRtcp"*, i32)*, void (%"class.webrtc::RtpRtcp"*, i32)** %215, align 8, !noalias !2
  call void %216(%"class.webrtc::RtpRtcp"* %211, i32 %212) #9, !noalias !2
  %217 = load %"class.webrtc::ProcessThread"*, %"class.webrtc::ProcessThread"** %111, align 8, !noalias !2
  %218 = load %"class.webrtc::RtpRtcp"*, %"class.webrtc::RtpRtcp"** %196, align 8, !noalias !2
  %219 = getelementptr inbounds %"class.webrtc::RtpRtcp", %"class.webrtc::RtpRtcp"* %218, i64 0, i32 0
  %220 = bitcast %"class.rtc::Location"* %20 to i8*
  call void @llvm.lifetime.start.p0i8(i64 16, i8* nonnull %220) #9, !noalias !2
  call void @_ZN3rtc8LocationC1EPKcS2_(%"class.rtc::Location"* nonnull %20, i8* getelementptr inbounds ([15 x i8], [15 x i8]* @__FUNCTION__._ZN6webrtc3voe12_GLOBAL__N_114ChannelReceiveC2EPNS_13ProcessThreadEPNS_17AudioDeviceModuleEPNS_23MediaTransportInterfaceEPNS_9TransportEPNS_11RtcEventLogEjmbibN3rtc13scoped_refptrINS_19AudioDecoderFactoryEEEN4absl8optionalINS_16AudioCodecPairIdEEENSE_INS_23FrameDecryptorInterfaceEEERKNS_13CryptoOptionsE, i64 0, i64 0), i8* getelementptr inbounds ([54 x i8], [54 x i8]* @.str, i64 0, i64 0)) #9, !noalias !2
  %221 = bitcast %"class.webrtc::ProcessThread"* %217 to void (%"class.webrtc::ProcessThread"*, %"class.webrtc::Module"*, %"class.rtc::Location"*)***
  %222 = load void (%"class.webrtc::ProcessThread"*, %"class.webrtc::Module"*, %"class.rtc::Location"*)**, void (%"class.webrtc::ProcessThread"*, %"class.webrtc::Module"*, %"class.rtc::Location"*)*** %221, align 8, !noalias !2
  %223 = getelementptr inbounds void (%"class.webrtc::ProcessThread"*, %"class.webrtc::Module"*, %"class.rtc::Location"*)*, void (%"class.webrtc::ProcessThread"*, %"class.webrtc::Module"*, %"class.rtc::Location"*)** %222, i64 6
  %224 = load void (%"class.webrtc::ProcessThread"*, %"class.webrtc::Module"*, %"class.rtc::Location"*)*, void (%"class.webrtc::ProcessThread"*, %"class.webrtc::Module"*, %"class.rtc::Location"*)** %223, align 8, !noalias !2
  call void %224(%"class.webrtc::ProcessThread"* %217, %"class.webrtc::Module"* %219, %"class.rtc::Location"* nonnull dereferenceable(16) %20) #9, !noalias !2
  call void @llvm.lifetime.end.p0i8(i64 16, i8* nonnull %220) #9, !noalias !2
  %225 = load %"class.webrtc::RtpRtcp"*, %"class.webrtc::RtpRtcp"** %196, align 8, !noalias !2
  %226 = bitcast %"class.webrtc::RtpRtcp"* %225 to void (%"class.webrtc::RtpRtcp"*, i32)***
  %227 = load void (%"class.webrtc::RtpRtcp"*, i32)**, void (%"class.webrtc::RtpRtcp"*, i32)*** %226, align 8, !noalias !2
  %228 = getelementptr inbounds void (%"class.webrtc::RtpRtcp"*, i32)*, void (%"class.webrtc::RtpRtcp"*, i32)** %227, i64 48
  %229 = load void (%"class.webrtc::RtpRtcp"*, i32)*, void (%"class.webrtc::RtpRtcp"*, i32)** %228, align 8, !noalias !2
  call void %229(%"class.webrtc::RtpRtcp"* %225, i32 1) #9, !noalias !2
  %230 = load %"class.webrtc::MediaTransportInterface"*, %"class.webrtc::MediaTransportInterface"** %121, align 8, !noalias !2
  %231 = icmp eq %"class.webrtc::MediaTransportInterface"* %230, null
  br i1 %231, label %237, label %232

; <label>:232:                                    ; preds = %205
  %233 = bitcast %"class.webrtc::MediaTransportInterface"* %230 to void (%"class.webrtc::MediaTransportInterface"*, %"class.webrtc::MediaTransportAudioSinkInterface"*)***
  %234 = load void (%"class.webrtc::MediaTransportInterface"*, %"class.webrtc::MediaTransportAudioSinkInterface"*)**, void (%"class.webrtc::MediaTransportInterface"*, %"class.webrtc::MediaTransportAudioSinkInterface"*)*** %233, align 8, !noalias !2
  %235 = getelementptr inbounds void (%"class.webrtc::MediaTransportInterface"*, %"class.webrtc::MediaTransportAudioSinkInterface"*)*, void (%"class.webrtc::MediaTransportInterface"*, %"class.webrtc::MediaTransportAudioSinkInterface"*)** %234, i64 6
  %236 = load void (%"class.webrtc::MediaTransportInterface"*, %"class.webrtc::MediaTransportAudioSinkInterface"*)*, void (%"class.webrtc::MediaTransportInterface"*, %"class.webrtc::MediaTransportAudioSinkInterface"*)** %235, align 8, !noalias !2
  call void %236(%"class.webrtc::MediaTransportInterface"* nonnull %230, %"class.webrtc::MediaTransportAudioSinkInterface"* nonnull %54) #9, !noalias !2
  br label %237

; <label>:237:                                    ; preds = %232, %205
  call void @llvm.lifetime.end.p0i8(i64 208, i8* nonnull %185) #9, !noalias !2
  call void @_ZN6webrtc17AudioCodingModule6ConfigD1Ev(%"struct.webrtc::AudioCodingModule::Config"* nonnull %17) #9, !noalias !2
  call void @llvm.lifetime.end.p0i8(i64 72, i8* nonnull %133) #9, !noalias !2
  call void @llvm.lifetime.end.p0i8(i64 16, i8* nonnull %51)
  call void @llvm.lifetime.end.p0i8(i64 8, i8* nonnull %52) #9, !noalias !2
  %238 = ptrtoint i8* %31 to i64
  br i1 %44, label %246, label %239

; <label>:239:                                    ; preds = %237
  %240 = getelementptr inbounds %"class.webrtc::FrameDecryptorInterface", %"class.webrtc::FrameDecryptorInterface"* %43, i64 0, i32 0
  %241 = bitcast %"class.webrtc::FrameDecryptorInterface"* %43 to i32 (%"class.rtc::RefCountInterface"*)***
  %242 = load i32 (%"class.rtc::RefCountInterface"*)**, i32 (%"class.rtc::RefCountInterface"*)*** %241, align 8, !noalias !2
  %243 = getelementptr inbounds i32 (%"class.rtc::RefCountInterface"*)*, i32 (%"class.rtc::RefCountInterface"*)** %242, i64 1
  %244 = load i32 (%"class.rtc::RefCountInterface"*)*, i32 (%"class.rtc::RefCountInterface"*)** %243, align 8, !noalias !2
  %245 = call i32 %244(%"class.rtc::RefCountInterface"* nonnull %240) #9, !noalias !2
  br label %246

; <label>:246:                                    ; preds = %239, %237
  br i1 %34, label %254, label %247

; <label>:247:                                    ; preds = %246
  %248 = getelementptr inbounds %"class.webrtc::AudioDecoderFactory", %"class.webrtc::AudioDecoderFactory"* %33, i64 0, i32 0
  %249 = bitcast %"class.webrtc::AudioDecoderFactory"* %33 to i32 (%"class.rtc::RefCountInterface"*)***
  %250 = load i32 (%"class.rtc::RefCountInterface"*)**, i32 (%"class.rtc::RefCountInterface"*)*** %249, align 8, !noalias !2
  %251 = getelementptr inbounds i32 (%"class.rtc::RefCountInterface"*)*, i32 (%"class.rtc::RefCountInterface"*)** %250, i64 1
  %252 = load i32 (%"class.rtc::RefCountInterface"*)*, i32 (%"class.rtc::RefCountInterface"*)** %251, align 8, !noalias !2
  %253 = call i32 %252(%"class.rtc::RefCountInterface"* nonnull %248) #9, !noalias !2
  br label %254

; <label>:254:                                    ; preds = %247, %246
  call void @llvm.lifetime.end.p0i8(i64 16, i8* nonnull %30)
  %255 = bitcast %"class.std::__1::unique_ptr"* %0 to i64*
  store i64 %238, i64* %255, align 8
  ret void
}

; Function Attrs: argmemonly nounwind
declare void @llvm.lifetime.start.p0i8(i64, i8* nocapture) #1

; Function Attrs: argmemonly nounwind
declare void @llvm.lifetime.end.p0i8(i64, i8* nocapture) #1

; Function Attrs: nobuiltin
declare noalias nonnull i8* @_Znwm(i64) local_unnamed_addr #2

; Function Attrs: argmemonly nounwind
declare void @llvm.memcpy.p0i8.p0i8.i64(i8* nocapture writeonly, i8* nocapture readonly, i64, i1) #1

declare void @_ZN3rtc11RaceCheckerC1Ev(%"class.rtc::RaceChecker"*) unnamed_addr #3

declare void @_ZN3rtc15CriticalSectionC1Ev(%"class.rtc::CriticalSection"*) unnamed_addr #3

declare %"class.webrtc::Clock"* @_ZN6webrtc5Clock16GetRealTimeClockEv() local_unnamed_addr #3

declare void @_ZN6webrtc19ContributingSourcesC1Ev(%"class.webrtc::ContributingSources"*) unnamed_addr #3

declare void @_ZN6webrtc3voe10AudioLevelC1Ev(%"class.webrtc::voe::AudioLevel"*) unnamed_addr #3

declare void @_ZN6webrtc22RemoteNtpTimeEstimatorC1EPNS_5ClockE(%"class.webrtc::RemoteNtpTimeEstimator"*, %"class.webrtc::Clock"*) unnamed_addr #3

declare void @_ZN3rtc26TimestampWrapAroundHandlerC1Ev(%"class.rtc::TimestampWrapAroundHandler"*) unnamed_addr #3

declare void @_ZN6webrtc13CryptoOptionsC1ERKS0_(%"struct.webrtc::CryptoOptions"*, %"struct.webrtc::CryptoOptions"* dereferenceable(4)) unnamed_addr #3

declare void @_ZN6webrtc17AudioCodingModule6ConfigC1EN3rtc13scoped_refptrINS_19AudioDecoderFactoryEEE(%"struct.webrtc::AudioCodingModule::Config"*, %"class.rtc::scoped_refptr"*) unnamed_addr #3

declare %"class.webrtc::AudioCodingModule"* @_ZN6webrtc17AudioCodingModule6CreateERKNS0_6ConfigE(%"struct.webrtc::AudioCodingModule::Config"* dereferenceable(72)) local_unnamed_addr #3

declare void @_ZN6webrtc3voe10AudioLevel5ClearEv(%"class.webrtc::voe::AudioLevel"*) local_unnamed_addr #3

declare void @_ZN6webrtc7RtpRtcp13ConfigurationC1Ev(%"struct.webrtc::RtpRtcp::Configuration"*) unnamed_addr #3

declare %"class.webrtc::RtpRtcp"* @_ZN6webrtc7RtpRtcp13CreateRtpRtcpERKNS0_13ConfigurationE(%"struct.webrtc::RtpRtcp::Configuration"* dereferenceable(208)) local_unnamed_addr #3

declare void @_ZN3rtc8LocationC1EPKcS2_(%"class.rtc::Location"*, i8*, i8*) unnamed_addr #3

; Function Attrs: nounwind
declare void @_ZN6webrtc17AudioCodingModule6ConfigD1Ev(%"struct.webrtc::AudioCodingModule::Config"*) unnamed_addr #4

; Function Attrs: nounwind ssp uwtable
define internal void @_ZN6webrtc3voe12_GLOBAL__N_114ChannelReceiveD2Ev(%"class.webrtc::voe::(anonymous namespace)::ChannelReceive"*) unnamed_addr #0 align 2 {
  %2 = bitcast %"class.webrtc::voe::(anonymous namespace)::ChannelReceive"* %0 to <2 x i32 (...)**>*
  store <2 x i32 (...)**> <i32 (...)** bitcast (i8** getelementptr inbounds ({ [31 x i8*], [5 x i8*] }, { [31 x i8*], [5 x i8*] }* @_ZTVN6webrtc3voe12_GLOBAL__N_114ChannelReceiveE, i64 0, inrange i32 0, i64 2) to i32 (...)**), i32 (...)** bitcast (i8** getelementptr inbounds ({ [31 x i8*], [5 x i8*] }, { [31 x i8*], [5 x i8*] }* @_ZTVN6webrtc3voe12_GLOBAL__N_114ChannelReceiveE, i64 0, inrange i32 1, i64 2) to i32 (...)**)>, <2 x i32 (...)**>* %2, align 8
  %3 = getelementptr inbounds %"class.webrtc::voe::(anonymous namespace)::ChannelReceive", %"class.webrtc::voe::(anonymous namespace)::ChannelReceive"* %0, i64 0, i32 45
  %4 = load %"class.webrtc::MediaTransportInterface"*, %"class.webrtc::MediaTransportInterface"** %3, align 8
  %5 = icmp eq %"class.webrtc::MediaTransportInterface"* %4, null
  br i1 %5, label %13, label %6

; <label>:6:                                      ; preds = %1
  %7 = bitcast %"class.webrtc::MediaTransportInterface"* %4 to void (%"class.webrtc::MediaTransportInterface"*, %"class.webrtc::MediaTransportAudioSinkInterface"*)***
  %8 = load void (%"class.webrtc::MediaTransportInterface"*, %"class.webrtc::MediaTransportAudioSinkInterface"*)**, void (%"class.webrtc::MediaTransportInterface"*, %"class.webrtc::MediaTransportAudioSinkInterface"*)*** %7, align 8
  %9 = getelementptr inbounds void (%"class.webrtc::MediaTransportInterface"*, %"class.webrtc::MediaTransportAudioSinkInterface"*)*, void (%"class.webrtc::MediaTransportInterface"*, %"class.webrtc::MediaTransportAudioSinkInterface"*)** %8, i64 6
  %10 = load void (%"class.webrtc::MediaTransportInterface"*, %"class.webrtc::MediaTransportAudioSinkInterface"*)*, void (%"class.webrtc::MediaTransportInterface"*, %"class.webrtc::MediaTransportAudioSinkInterface"*)** %9, align 8
  tail call void %10(%"class.webrtc::MediaTransportInterface"* nonnull %4, %"class.webrtc::MediaTransportAudioSinkInterface"* null) #9
  %11 = bitcast %"class.webrtc::voe::(anonymous namespace)::ChannelReceive"* %0 to void (%"class.webrtc::voe::(anonymous namespace)::ChannelReceive"*)***
  %12 = load void (%"class.webrtc::voe::(anonymous namespace)::ChannelReceive"*)**, void (%"class.webrtc::voe::(anonymous namespace)::ChannelReceive"*)*** %11, align 8
  br label %13

; <label>:13:                                     ; preds = %1, %6
  %14 = phi void (%"class.webrtc::voe::(anonymous namespace)::ChannelReceive"*)** [ %12, %6 ], [ bitcast (i8** getelementptr inbounds ({ [31 x i8*], [5 x i8*] }, { [31 x i8*], [5 x i8*] }* @_ZTVN6webrtc3voe12_GLOBAL__N_114ChannelReceiveE, i64 0, inrange i32 0, i64 2) to void (%"class.webrtc::voe::(anonymous namespace)::ChannelReceive"*)**), %1 ]
  %15 = getelementptr inbounds void (%"class.webrtc::voe::(anonymous namespace)::ChannelReceive"*)*, void (%"class.webrtc::voe::(anonymous namespace)::ChannelReceive"*)** %14, i64 6
  %16 = load void (%"class.webrtc::voe::(anonymous namespace)::ChannelReceive"*)*, void (%"class.webrtc::voe::(anonymous namespace)::ChannelReceive"*)** %15, align 8
  tail call void %16(%"class.webrtc::voe::(anonymous namespace)::ChannelReceive"* nonnull %0) #9
  %17 = getelementptr inbounds %"class.webrtc::voe::(anonymous namespace)::ChannelReceive", %"class.webrtc::voe::(anonymous namespace)::ChannelReceive"* %0, i64 0, i32 24, i32 0, i32 0, i32 0
  %18 = load %"class.webrtc::AudioCodingModule"*, %"class.webrtc::AudioCodingModule"** %17, align 8
  %19 = bitcast %"class.webrtc::AudioCodingModule"* %18 to i32 (%"class.webrtc::AudioCodingModule"*, %"class.webrtc::AudioPacketizationCallback"*)***
  %20 = load i32 (%"class.webrtc::AudioCodingModule"*, %"class.webrtc::AudioPacketizationCallback"*)**, i32 (%"class.webrtc::AudioCodingModule"*, %"class.webrtc::AudioPacketizationCallback"*)*** %19, align 8
  %21 = getelementptr inbounds i32 (%"class.webrtc::AudioCodingModule"*, %"class.webrtc::AudioPacketizationCallback"*)*, i32 (%"class.webrtc::AudioCodingModule"*, %"class.webrtc::AudioPacketizationCallback"*)** %20, i64 4
  %22 = load i32 (%"class.webrtc::AudioCodingModule"*, %"class.webrtc::AudioPacketizationCallback"*)*, i32 (%"class.webrtc::AudioCodingModule"*, %"class.webrtc::AudioPacketizationCallback"*)** %21, align 8
  %23 = tail call i32 %22(%"class.webrtc::AudioCodingModule"* %18, %"class.webrtc::AudioPacketizationCallback"* null) #9
  %24 = getelementptr inbounds %"class.webrtc::voe::(anonymous namespace)::ChannelReceive", %"class.webrtc::voe::(anonymous namespace)::ChannelReceive"* %0, i64 0, i32 36
  %25 = load %"class.webrtc::ProcessThread"*, %"class.webrtc::ProcessThread"** %24, align 8
  %26 = icmp eq %"class.webrtc::ProcessThread"* %25, null
  br i1 %26, label %35, label %27

; <label>:27:                                     ; preds = %13
  %28 = getelementptr inbounds %"class.webrtc::voe::(anonymous namespace)::ChannelReceive", %"class.webrtc::voe::(anonymous namespace)::ChannelReceive"* %0, i64 0, i32 15, i32 0, i32 0, i32 0
  %29 = load %"class.webrtc::RtpRtcp"*, %"class.webrtc::RtpRtcp"** %28, align 8
  %30 = getelementptr inbounds %"class.webrtc::RtpRtcp", %"class.webrtc::RtpRtcp"* %29, i64 0, i32 0
  %31 = bitcast %"class.webrtc::ProcessThread"* %25 to void (%"class.webrtc::ProcessThread"*, %"class.webrtc::Module"*)***
  %32 = load void (%"class.webrtc::ProcessThread"*, %"class.webrtc::Module"*)**, void (%"class.webrtc::ProcessThread"*, %"class.webrtc::Module"*)*** %31, align 8
  %33 = getelementptr inbounds void (%"class.webrtc::ProcessThread"*, %"class.webrtc::Module"*)*, void (%"class.webrtc::ProcessThread"*, %"class.webrtc::Module"*)** %32, i64 7
  %34 = load void (%"class.webrtc::ProcessThread"*, %"class.webrtc::Module"*)*, void (%"class.webrtc::ProcessThread"*, %"class.webrtc::Module"*)** %33, align 8
  tail call void %34(%"class.webrtc::ProcessThread"* nonnull %25, %"class.webrtc::Module"* %30) #9
  br label %35

; <label>:35:                                     ; preds = %13, %27
  %36 = getelementptr inbounds %"class.webrtc::voe::(anonymous namespace)::ChannelReceive", %"class.webrtc::voe::(anonymous namespace)::ChannelReceive"* %0, i64 0, i32 47
  tail call void @_ZN6webrtc13CryptoOptionsD1Ev(%"struct.webrtc::CryptoOptions"* nonnull %36) #9
  %37 = getelementptr inbounds %"class.webrtc::voe::(anonymous namespace)::ChannelReceive", %"class.webrtc::voe::(anonymous namespace)::ChannelReceive"* %0, i64 0, i32 46, i32 0
  %38 = load %"class.webrtc::FrameDecryptorInterface"*, %"class.webrtc::FrameDecryptorInterface"** %37, align 8
  %39 = icmp eq %"class.webrtc::FrameDecryptorInterface"* %38, null
  br i1 %39, label %47, label %40

; <label>:40:                                     ; preds = %35
  %41 = getelementptr inbounds %"class.webrtc::FrameDecryptorInterface", %"class.webrtc::FrameDecryptorInterface"* %38, i64 0, i32 0
  %42 = bitcast %"class.webrtc::FrameDecryptorInterface"* %38 to i32 (%"class.rtc::RefCountInterface"*)***
  %43 = load i32 (%"class.rtc::RefCountInterface"*)**, i32 (%"class.rtc::RefCountInterface"*)*** %42, align 8
  %44 = getelementptr inbounds i32 (%"class.rtc::RefCountInterface"*)*, i32 (%"class.rtc::RefCountInterface"*)** %43, i64 1
  %45 = load i32 (%"class.rtc::RefCountInterface"*)*, i32 (%"class.rtc::RefCountInterface"*)** %44, align 8
  %46 = tail call i32 %45(%"class.rtc::RefCountInterface"* nonnull %41) #9
  br label %47

; <label>:47:                                     ; preds = %35, %40
  %48 = getelementptr inbounds %"class.webrtc::voe::(anonymous namespace)::ChannelReceive", %"class.webrtc::voe::(anonymous namespace)::ChannelReceive"* %0, i64 0, i32 40
  tail call void @_ZN3rtc15CriticalSectionD1Ev(%"class.rtc::CriticalSection"* nonnull %48) #9
  %49 = getelementptr inbounds %"class.webrtc::voe::(anonymous namespace)::ChannelReceive", %"class.webrtc::voe::(anonymous namespace)::ChannelReceive"* %0, i64 0, i32 33, i32 0, i32 0, i32 0
  %50 = load %"class.rtc::TimestampWrapAroundHandler"*, %"class.rtc::TimestampWrapAroundHandler"** %49, align 8
  store %"class.rtc::TimestampWrapAroundHandler"* null, %"class.rtc::TimestampWrapAroundHandler"** %49, align 8
  %51 = icmp eq %"class.rtc::TimestampWrapAroundHandler"* %50, null
  br i1 %51, label %54, label %52

; <label>:52:                                     ; preds = %47
  %53 = bitcast %"class.rtc::TimestampWrapAroundHandler"* %50 to i8*
  tail call void @_ZdlPv(i8* %53) #8
  br label %54

; <label>:54:                                     ; preds = %47, %52
  %55 = getelementptr inbounds %"class.webrtc::voe::(anonymous namespace)::ChannelReceive", %"class.webrtc::voe::(anonymous namespace)::ChannelReceive"* %0, i64 0, i32 32
  tail call void @_ZN3rtc15CriticalSectionD1Ev(%"class.rtc::CriticalSection"* nonnull %55) #9
  %56 = getelementptr inbounds %"class.webrtc::voe::(anonymous namespace)::ChannelReceive", %"class.webrtc::voe::(anonymous namespace)::ChannelReceive"* %0, i64 0, i32 29
  tail call void @_ZN3rtc15CriticalSectionD1Ev(%"class.rtc::CriticalSection"* nonnull %56) #9
  %57 = getelementptr inbounds %"class.webrtc::voe::(anonymous namespace)::ChannelReceive", %"class.webrtc::voe::(anonymous namespace)::ChannelReceive"* %0, i64 0, i32 27
  tail call void @_ZN6webrtc22RemoteNtpTimeEstimatorD1Ev(%"class.webrtc::RemoteNtpTimeEstimator"* nonnull %57) #9
  %58 = getelementptr inbounds %"class.webrtc::voe::(anonymous namespace)::ChannelReceive", %"class.webrtc::voe::(anonymous namespace)::ChannelReceive"* %0, i64 0, i32 26
  tail call void @_ZN6webrtc3voe10AudioLevelD1Ev(%"class.webrtc::voe::AudioLevel"* nonnull %58) #9
  %59 = load %"class.webrtc::AudioCodingModule"*, %"class.webrtc::AudioCodingModule"** %17, align 8
  store %"class.webrtc::AudioCodingModule"* null, %"class.webrtc::AudioCodingModule"** %17, align 8
  %60 = icmp eq %"class.webrtc::AudioCodingModule"* %59, null
  br i1 %60, label %66, label %61

; <label>:61:                                     ; preds = %54
  %62 = bitcast %"class.webrtc::AudioCodingModule"* %59 to void (%"class.webrtc::AudioCodingModule"*)***
  %63 = load void (%"class.webrtc::AudioCodingModule"*)**, void (%"class.webrtc::AudioCodingModule"*)*** %62, align 8
  %64 = getelementptr inbounds void (%"class.webrtc::AudioCodingModule"*)*, void (%"class.webrtc::AudioCodingModule"*)** %63, i64 1
  %65 = load void (%"class.webrtc::AudioCodingModule"*)*, void (%"class.webrtc::AudioCodingModule"*)** %64, align 8
  tail call void %65(%"class.webrtc::AudioCodingModule"* nonnull %59) #9
  br label %66

; <label>:66:                                     ; preds = %54, %61
  %67 = getelementptr inbounds %"class.webrtc::voe::(anonymous namespace)::ChannelReceive", %"class.webrtc::voe::(anonymous namespace)::ChannelReceive"* %0, i64 0, i32 19
  tail call void @_ZN6webrtc19ContributingSourcesD1Ev(%"class.webrtc::ContributingSources"* nonnull %67) #9
  %68 = getelementptr inbounds %"class.webrtc::voe::(anonymous namespace)::ChannelReceive", %"class.webrtc::voe::(anonymous namespace)::ChannelReceive"* %0, i64 0, i32 18
  tail call void @_ZN3rtc15CriticalSectionD1Ev(%"class.rtc::CriticalSection"* nonnull %68) #9
  %69 = getelementptr inbounds %"class.webrtc::voe::(anonymous namespace)::ChannelReceive", %"class.webrtc::voe::(anonymous namespace)::ChannelReceive"* %0, i64 0, i32 15, i32 0, i32 0, i32 0
  %70 = load %"class.webrtc::RtpRtcp"*, %"class.webrtc::RtpRtcp"** %69, align 8
  store %"class.webrtc::RtpRtcp"* null, %"class.webrtc::RtpRtcp"** %69, align 8
  %71 = icmp eq %"class.webrtc::RtpRtcp"* %70, null
  br i1 %71, label %77, label %72

; <label>:72:                                     ; preds = %66
  %73 = bitcast %"class.webrtc::RtpRtcp"* %70 to void (%"class.webrtc::RtpRtcp"*)***
  %74 = load void (%"class.webrtc::RtpRtcp"*)**, void (%"class.webrtc::RtpRtcp"*)*** %73, align 8
  %75 = getelementptr inbounds void (%"class.webrtc::RtpRtcp"*)*, void (%"class.webrtc::RtpRtcp"*)** %74, i64 4
  %76 = load void (%"class.webrtc::RtpRtcp"*)*, void (%"class.webrtc::RtpRtcp"*)** %75, align 8
  tail call void %76(%"class.webrtc::RtpRtcp"* nonnull %70) #9
  br label %77

; <label>:77:                                     ; preds = %66, %72
  %78 = getelementptr inbounds %"class.webrtc::voe::(anonymous namespace)::ChannelReceive", %"class.webrtc::voe::(anonymous namespace)::ChannelReceive"* %0, i64 0, i32 14, i32 0, i32 0, i32 0
  %79 = load %"class.webrtc::ReceiveStatistics"*, %"class.webrtc::ReceiveStatistics"** %78, align 8
  store %"class.webrtc::ReceiveStatistics"* null, %"class.webrtc::ReceiveStatistics"** %78, align 8
  %80 = icmp eq %"class.webrtc::ReceiveStatistics"* %79, null
  br i1 %80, label %86, label %81

; <label>:81:                                     ; preds = %77
  %82 = bitcast %"class.webrtc::ReceiveStatistics"* %79 to void (%"class.webrtc::ReceiveStatistics"*)***
  %83 = load void (%"class.webrtc::ReceiveStatistics"*)**, void (%"class.webrtc::ReceiveStatistics"*)*** %82, align 8
  %84 = getelementptr inbounds void (%"class.webrtc::ReceiveStatistics"*)*, void (%"class.webrtc::ReceiveStatistics"*)** %83, i64 1
  %85 = load void (%"class.webrtc::ReceiveStatistics"*)*, void (%"class.webrtc::ReceiveStatistics"*)** %84, align 8
  tail call void %85(%"class.webrtc::ReceiveStatistics"* nonnull %79) #9
  br label %86

; <label>:86:                                     ; preds = %77, %81
  %87 = getelementptr inbounds %"class.webrtc::voe::(anonymous namespace)::ChannelReceive", %"class.webrtc::voe::(anonymous namespace)::ChannelReceive"* %0, i64 0, i32 13, i32 0
  %88 = getelementptr inbounds %"class.webrtc::voe::(anonymous namespace)::ChannelReceive", %"class.webrtc::voe::(anonymous namespace)::ChannelReceive"* %0, i64 0, i32 13, i32 0, i32 1, i32 0, i32 0
  %89 = bitcast %"class.std::__1::__tree_end_node"* %88 to %"class.std::__1::__tree_node"**
  %90 = load %"class.std::__1::__tree_node"*, %"class.std::__1::__tree_node"** %89, align 8
  tail call void @_ZNSt3__16__treeINS_12__value_typeIhiEENS_19__map_value_compareIhS2_NS_4lessIhEELb1EEENS_9allocatorIS2_EEE7destroyEPNS_11__tree_nodeIS2_PvEE(%"class.std::__1::__tree"* nonnull %87, %"class.std::__1::__tree_node"* %90) #9
  %91 = getelementptr inbounds %"class.webrtc::voe::(anonymous namespace)::ChannelReceive", %"class.webrtc::voe::(anonymous namespace)::ChannelReceive"* %0, i64 0, i32 9
  tail call void @_ZN3rtc15CriticalSectionD1Ev(%"class.rtc::CriticalSection"* nonnull %91) #9
  %92 = getelementptr inbounds %"class.webrtc::voe::(anonymous namespace)::ChannelReceive", %"class.webrtc::voe::(anonymous namespace)::ChannelReceive"* %0, i64 0, i32 8
  tail call void @_ZN3rtc15CriticalSectionD1Ev(%"class.rtc::CriticalSection"* nonnull %92) #9
  %93 = getelementptr inbounds %"class.webrtc::voe::(anonymous namespace)::ChannelReceive", %"class.webrtc::voe::(anonymous namespace)::ChannelReceive"* %0, i64 0, i32 7
  tail call void @_ZN3rtc15CriticalSectionD1Ev(%"class.rtc::CriticalSection"* nonnull %93) #9
  ret void
}

; Function Attrs: nounwind ssp uwtable
define internal void @_ZN6webrtc3voe12_GLOBAL__N_114ChannelReceiveD0Ev(%"class.webrtc::voe::(anonymous namespace)::ChannelReceive"*) unnamed_addr #0 align 2 {
  tail call void @_ZN6webrtc3voe12_GLOBAL__N_114ChannelReceiveD2Ev(%"class.webrtc::voe::(anonymous namespace)::ChannelReceive"* %0) #9
  %2 = bitcast %"class.webrtc::voe::(anonymous namespace)::ChannelReceive"* %0 to i8*
  tail call void @_ZdlPv(i8* %2) #8
  ret void
}

; Function Attrs: nounwind ssp uwtable
define internal void @_ZN6webrtc3voe12_GLOBAL__N_114ChannelReceive11OnRtpPacketERKNS_17RtpPacketReceivedE(%"class.webrtc::voe::(anonymous namespace)::ChannelReceive"*, %"class.webrtc::RtpPacketReceived"* dereferenceable(136)) unnamed_addr #0 align 2 {
  %3 = alloca %"struct.webrtc::WebRtcRTPHeader", align 8
  %4 = alloca i64, align 8
  %5 = alloca %"class.std::__1::vector.214", align 8
  %6 = alloca %"class.rtc::ArrayView.231", align 8
  %7 = alloca %"class.rtc::ArrayView.249", align 8
  %8 = alloca i8, align 1
  %9 = alloca i8, align 1
  %10 = alloca %"class.rtc::CritScope", align 8
  %11 = alloca %"class.std::__1::vector.214", align 8
  %12 = alloca %"class.webrtc::RtpPacketReceived", align 8
  %13 = alloca %"struct.webrtc::RTPHeader", align 8
  %14 = tail call i64 @_ZN3rtc10TimeMillisEv() #9
  call void @llvm.lifetime.start.p0i8(i64 1, i8* nonnull %8) #9
  call void @llvm.lifetime.start.p0i8(i64 1, i8* nonnull %9) #9
  %15 = getelementptr inbounds %"class.webrtc::RtpPacketReceived", %"class.webrtc::RtpPacketReceived"* %1, i64 0, i32 0
  %16 = tail call { i8*, i64 } @_ZNK6webrtc9RtpPacket13FindExtensionENS_16RTPExtensionTypeE(%"class.webrtc::RtpPacket"* nonnull %15, i32 2) #9
  %17 = extractvalue { i8*, i64 } %16, 1
  %18 = icmp eq i64 %17, 0
  br i1 %18, label %22, label %19

; <label>:19:                                     ; preds = %2
  %20 = extractvalue { i8*, i64 } %16, 0
  %21 = call zeroext i1 @_ZN6webrtc10AudioLevel5ParseEN3rtc9ArrayViewIKhLln4711EEEPbPh(i8* %20, i64 %17, i8* nonnull %9, i8* nonnull %8) #9
  br label %22

; <label>:22:                                     ; preds = %2, %19
  %23 = phi i1 [ %21, %19 ], [ false, %2 ]
  %24 = bitcast %"class.rtc::CritScope"* %10 to i8*
  call void @llvm.lifetime.start.p0i8(i64 8, i8* nonnull %24) #9
  %25 = getelementptr inbounds %"class.webrtc::voe::(anonymous namespace)::ChannelReceive", %"class.webrtc::voe::(anonymous namespace)::ChannelReceive"* %0, i64 0, i32 18
  call void @_ZN3rtc9CritScopeC1EPKNS_15CriticalSectionE(%"class.rtc::CritScope"* nonnull %10, %"class.rtc::CriticalSection"* nonnull %25) #9
  %26 = getelementptr inbounds %"class.webrtc::RtpPacketReceived", %"class.webrtc::RtpPacketReceived"* %1, i64 0, i32 0, i32 4
  %27 = load i32, i32* %26, align 8
  %28 = getelementptr inbounds %"class.webrtc::voe::(anonymous namespace)::ChannelReceive", %"class.webrtc::voe::(anonymous namespace)::ChannelReceive"* %0, i64 0, i32 20, i32 0, i32 0, i32 0, i32 0
  %29 = bitcast i8* %28 to i64*
  %30 = zext i32 %27 to i64
  %31 = shl nuw i64 %30, 32
  %32 = or i64 %31, 1
  store i64 %32, i64* %29, align 8
  %33 = getelementptr inbounds %"class.webrtc::voe::(anonymous namespace)::ChannelReceive", %"class.webrtc::voe::(anonymous namespace)::ChannelReceive"* %0, i64 0, i32 21, i32 0, i32 0, i32 0, i32 0
  store i8 1, i8* %33, align 8
  %34 = getelementptr inbounds %"class.webrtc::voe::(anonymous namespace)::ChannelReceive", %"class.webrtc::voe::(anonymous namespace)::ChannelReceive"* %0, i64 0, i32 21, i32 0, i32 0, i32 0, i32 1, i32 0
  store i64 %14, i64* %34, align 8
  br i1 %23, label %35, label %42

; <label>:35:                                     ; preds = %22
  %36 = load i8, i8* %8, align 1
  %37 = getelementptr inbounds %"class.webrtc::voe::(anonymous namespace)::ChannelReceive", %"class.webrtc::voe::(anonymous namespace)::ChannelReceive"* %0, i64 0, i32 22, i32 0, i32 0, i32 0, i32 0
  %38 = bitcast i8* %37 to i16*
  %39 = zext i8 %36 to i16
  %40 = shl nuw i16 %39, 8
  %41 = or i16 %40, 1
  store i16 %41, i16* %38, align 8
  br label %42

; <label>:42:                                     ; preds = %35, %22
  %43 = bitcast %"class.std::__1::vector.214"* %11 to i8*
  call void @llvm.lifetime.start.p0i8(i64 24, i8* nonnull %43) #9
  call void @_ZNK6webrtc9RtpPacket5CsrcsEv(%"class.std::__1::vector.214"* nonnull sret %11, %"class.webrtc::RtpPacket"* nonnull %15) #9
  %44 = getelementptr inbounds %"class.webrtc::voe::(anonymous namespace)::ChannelReceive", %"class.webrtc::voe::(anonymous namespace)::ChannelReceive"* %0, i64 0, i32 19
  %45 = getelementptr inbounds %"class.std::__1::vector.214", %"class.std::__1::vector.214"* %11, i64 0, i32 0, i32 0
  %46 = load i32*, i32** %45, align 8
  %47 = getelementptr inbounds %"class.std::__1::vector.214", %"class.std::__1::vector.214"* %11, i64 0, i32 0, i32 1
  %48 = bitcast i32** %47 to i64*
  %49 = load i64, i64* %48, align 8
  %50 = ptrtoint i32* %46 to i64
  %51 = sub i64 %49, %50
  %52 = ashr exact i64 %51, 2
  %53 = icmp eq i64 %51, 0
  %54 = select i1 %53, i32* null, i32* %46
  %55 = load i8, i8* %8, align 1
  %56 = zext i8 %55 to i16
  %57 = shl nuw i16 %56, 8
  %58 = zext i1 %23 to i16
  %59 = or i16 %57, %58
  call void @_ZN6webrtc19ContributingSources6UpdateElN3rtc9ArrayViewIKjLln4711EEEN4absl8optionalIhEE(%"class.webrtc::ContributingSources"* nonnull %44, i64 %14, i32* %54, i64 %52, i16 %59) #9
  %60 = load i32*, i32** %45, align 8
  %61 = icmp eq i32* %60, null
  br i1 %61, label %65, label %62

; <label>:62:                                     ; preds = %42
  %63 = ptrtoint i32* %60 to i64
  store i64 %63, i64* %48, align 8
  %64 = bitcast i32* %60 to i8*
  call void @_ZdlPv(i8* %64) #8
  br label %65

; <label>:65:                                     ; preds = %42, %62
  call void @llvm.lifetime.end.p0i8(i64 24, i8* nonnull %43) #9
  call void @_ZN3rtc9CritScopeD1Ev(%"class.rtc::CritScope"* nonnull %10) #9
  call void @llvm.lifetime.end.p0i8(i64 8, i8* nonnull %24) #9
  call fastcc void @_ZN6webrtc3voe12_GLOBAL__N_114ChannelReceive22UpdatePlayoutTimestampEb(%"class.webrtc::voe::(anonymous namespace)::ChannelReceive"* nonnull %0, i1 zeroext false)
  %66 = getelementptr inbounds %"class.webrtc::RtpPacketReceived", %"class.webrtc::RtpPacketReceived"* %1, i64 0, i32 0, i32 1
  %67 = load i8, i8* %66, align 1
  %68 = getelementptr inbounds %"class.webrtc::voe::(anonymous namespace)::ChannelReceive", %"class.webrtc::voe::(anonymous namespace)::ChannelReceive"* %0, i64 0, i32 13, i32 0, i32 1, i32 0, i32 0
  %69 = bitcast %"class.std::__1::__tree_end_node"* %68 to %"class.std::__1::__tree_node"**
  %70 = load %"class.std::__1::__tree_node"*, %"class.std::__1::__tree_node"** %69, align 8
  %71 = icmp eq %"class.std::__1::__tree_node"* %70, null
  br i1 %71, label %273, label %72

; <label>:72:                                     ; preds = %65, %72
  %73 = phi %"class.std::__1::__tree_end_node"* [ %83, %72 ], [ %68, %65 ]
  %74 = phi %"class.std::__1::__tree_node"* [ %84, %72 ], [ %70, %65 ]
  %75 = getelementptr inbounds %"class.std::__1::__tree_node", %"class.std::__1::__tree_node"* %74, i64 0, i32 1, i32 0, i32 0
  %76 = load i8, i8* %75, align 1
  %77 = icmp ult i8 %76, %67
  %78 = getelementptr inbounds %"class.std::__1::__tree_node", %"class.std::__1::__tree_node"* %74, i64 0, i32 0, i32 1
  %79 = bitcast %"class.std::__1::__tree_node_base"** %78 to %"class.std::__1::__tree_node"**
  %80 = getelementptr inbounds %"class.std::__1::__tree_node", %"class.std::__1::__tree_node"* %74, i64 0, i32 0, i32 0
  %81 = bitcast %"class.std::__1::__tree_node"* %74 to %"class.std::__1::__tree_node"**
  %82 = select i1 %77, %"class.std::__1::__tree_node"** %79, %"class.std::__1::__tree_node"** %81
  %83 = select i1 %77, %"class.std::__1::__tree_end_node"* %73, %"class.std::__1::__tree_end_node"* %80
  %84 = load %"class.std::__1::__tree_node"*, %"class.std::__1::__tree_node"** %82, align 8
  %85 = icmp eq %"class.std::__1::__tree_node"* %84, null
  br i1 %85, label %86, label %72

; <label>:86:                                     ; preds = %72
  %87 = icmp eq %"class.std::__1::__tree_end_node"* %83, %68
  br i1 %87, label %273, label %88

; <label>:88:                                     ; preds = %86
  %89 = bitcast %"class.std::__1::__tree_end_node"* %83 to %"class.std::__1::__tree_node"*
  %90 = getelementptr inbounds %"class.std::__1::__tree_node", %"class.std::__1::__tree_node"* %89, i64 0, i32 1, i32 0, i32 0
  %91 = load i8, i8* %90, align 1
  %92 = icmp ult i8 %67, %91
  br i1 %92, label %273, label %93

; <label>:93:                                     ; preds = %88
  %94 = getelementptr inbounds %"class.webrtc::RtpPacketReceived", %"class.webrtc::RtpPacketReceived"* %12, i64 0, i32 0, i32 0
  call void @llvm.lifetime.start.p0i8(i64 136, i8* nonnull %94) #9
  call void @_ZN6webrtc17RtpPacketReceivedC1ERKS0_(%"class.webrtc::RtpPacketReceived"* nonnull %12, %"class.webrtc::RtpPacketReceived"* nonnull dereferenceable(136) %1) #9
  %95 = getelementptr inbounds %"class.std::__1::__tree_end_node", %"class.std::__1::__tree_end_node"* %83, i64 4
  %96 = bitcast %"class.std::__1::__tree_end_node"* %95 to i32*
  %97 = load i32, i32* %96, align 4
  %98 = getelementptr inbounds %"class.webrtc::RtpPacketReceived", %"class.webrtc::RtpPacketReceived"* %12, i64 0, i32 3
  store i32 %97, i32* %98, align 8
  %99 = getelementptr inbounds %"class.webrtc::voe::(anonymous namespace)::ChannelReceive", %"class.webrtc::voe::(anonymous namespace)::ChannelReceive"* %0, i64 0, i32 14, i32 0, i32 0, i32 0
  %100 = load %"class.webrtc::ReceiveStatistics"*, %"class.webrtc::ReceiveStatistics"** %99, align 8
  %101 = getelementptr inbounds %"class.webrtc::ReceiveStatistics", %"class.webrtc::ReceiveStatistics"* %100, i64 0, i32 1
  %102 = bitcast %"class.webrtc::RtpPacketSinkInterface"* %101 to void (%"class.webrtc::RtpPacketSinkInterface"*, %"class.webrtc::RtpPacketReceived"*)***
  %103 = load void (%"class.webrtc::RtpPacketSinkInterface"*, %"class.webrtc::RtpPacketReceived"*)**, void (%"class.webrtc::RtpPacketSinkInterface"*, %"class.webrtc::RtpPacketReceived"*)*** %102, align 8
  %104 = getelementptr inbounds void (%"class.webrtc::RtpPacketSinkInterface"*, %"class.webrtc::RtpPacketReceived"*)*, void (%"class.webrtc::RtpPacketSinkInterface"*, %"class.webrtc::RtpPacketReceived"*)** %103, i64 2
  %105 = load void (%"class.webrtc::RtpPacketSinkInterface"*, %"class.webrtc::RtpPacketReceived"*)*, void (%"class.webrtc::RtpPacketSinkInterface"*, %"class.webrtc::RtpPacketReceived"*)** %104, align 8
  call void %105(%"class.webrtc::RtpPacketSinkInterface"* nonnull %101, %"class.webrtc::RtpPacketReceived"* nonnull dereferenceable(136) %12) #9
  %106 = getelementptr inbounds %"struct.webrtc::RTPHeader", %"struct.webrtc::RTPHeader"* %13, i64 0, i32 0
  call void @llvm.lifetime.start.p0i8(i64 288, i8* nonnull %106) #9
  call void @_ZN6webrtc9RTPHeaderC1Ev(%"struct.webrtc::RTPHeader"* nonnull %13) #9
  call void @_ZNK6webrtc17RtpPacketReceived9GetHeaderEPNS_9RTPHeaderE(%"class.webrtc::RtpPacketReceived"* nonnull %12, %"struct.webrtc::RTPHeader"* nonnull %13) #9
  %107 = getelementptr inbounds %"class.webrtc::RtpPacketReceived", %"class.webrtc::RtpPacketReceived"* %12, i64 0, i32 0, i32 11, i32 0, i32 0
  %108 = load %"class.rtc::RefCountedObject"*, %"class.rtc::RefCountedObject"** %107, align 8
  %109 = icmp eq %"class.rtc::RefCountedObject"* %108, null
  br i1 %109, label %113, label %110

; <label>:110:                                    ; preds = %93
  %111 = getelementptr inbounds %"class.rtc::RefCountedObject", %"class.rtc::RefCountedObject"* %108, i64 0, i32 1, i32 2, i32 0, i32 0, i32 0
  %112 = load i8*, i8** %111, align 8
  br label %113

; <label>:113:                                    ; preds = %93, %110
  %114 = phi i8* [ %112, %110 ], [ null, %93 ]
  %115 = getelementptr inbounds %"class.webrtc::RtpPacketReceived", %"class.webrtc::RtpPacketReceived"* %12, i64 0, i32 0, i32 6
  %116 = load i64, i64* %115, align 8
  %117 = getelementptr inbounds %"class.webrtc::RtpPacketReceived", %"class.webrtc::RtpPacketReceived"* %12, i64 0, i32 0, i32 7
  %118 = load i64, i64* %117, align 8
  %119 = add i64 %118, %116
  %120 = getelementptr inbounds %"class.webrtc::RtpPacketReceived", %"class.webrtc::RtpPacketReceived"* %12, i64 0, i32 0, i32 2
  %121 = load i8, i8* %120, align 2
  %122 = zext i8 %121 to i64
  %123 = add i64 %119, %122
  %124 = bitcast %"class.rtc::ArrayView.231"* %6 to i8*
  call void @llvm.lifetime.start.p0i8(i64 16, i8* nonnull %124)
  %125 = bitcast %"class.rtc::ArrayView.249"* %7 to i8*
  call void @llvm.lifetime.start.p0i8(i64 16, i8* nonnull %125)
  %126 = getelementptr inbounds %"struct.webrtc::RTPHeader", %"struct.webrtc::RTPHeader"* %13, i64 0, i32 10
  %127 = load i64, i64* %126, align 8
  %128 = getelementptr inbounds i8, i8* %114, i64 %127
  %129 = sub i64 %123, %127
  %130 = getelementptr inbounds %"struct.webrtc::WebRtcRTPHeader", %"struct.webrtc::WebRtcRTPHeader"* %3, i64 0, i32 0, i32 0, i32 0, i32 0, i32 0, i32 0
  call void @llvm.lifetime.start.p0i8(i64 2168, i8* nonnull %130) #9
  %131 = getelementptr inbounds %"struct.webrtc::WebRtcRTPHeader", %"struct.webrtc::WebRtcRTPHeader"* %3, i64 0, i32 0
  call void @_ZN6webrtc14RTPVideoHeaderC1Ev(%"struct.webrtc::RTPVideoHeader"* nonnull %131) #9
  %132 = getelementptr inbounds %"struct.webrtc::WebRtcRTPHeader", %"struct.webrtc::WebRtcRTPHeader"* %3, i64 0, i32 1
  call void @_ZN6webrtc9RTPHeaderC1Ev(%"struct.webrtc::RTPHeader"* nonnull %132) #9
  %133 = getelementptr inbounds %"struct.webrtc::WebRtcRTPHeader", %"struct.webrtc::WebRtcRTPHeader"* %3, i64 0, i32 2
  store i32 0, i32* %133, align 8
  %134 = getelementptr inbounds %"struct.webrtc::WebRtcRTPHeader", %"struct.webrtc::WebRtcRTPHeader"* %3, i64 0, i32 3
  store i64 0, i64* %134, align 8
  %135 = call dereferenceable(288) %"struct.webrtc::RTPHeader"* @_ZN6webrtc9RTPHeaderaSERKS0_(%"struct.webrtc::RTPHeader"* nonnull %132, %"struct.webrtc::RTPHeader"* nonnull dereferenceable(288) %13) #9
  %136 = getelementptr inbounds %"struct.webrtc::RTPHeader", %"struct.webrtc::RTPHeader"* %13, i64 0, i32 9
  %137 = load i64, i64* %136, align 8
  %138 = sub i64 %129, %137
  %139 = getelementptr inbounds %"class.webrtc::voe::(anonymous namespace)::ChannelReceive", %"class.webrtc::voe::(anonymous namespace)::ChannelReceive"* %0, i64 0, i32 46, i32 0
  %140 = load %"class.webrtc::FrameDecryptorInterface"*, %"class.webrtc::FrameDecryptorInterface"** %139, align 8
  %141 = icmp eq %"class.webrtc::FrameDecryptorInterface"* %140, null
  br i1 %141, label %253, label %142

; <label>:142:                                    ; preds = %113
  %143 = bitcast %"class.webrtc::FrameDecryptorInterface"* %140 to i64 (%"class.webrtc::FrameDecryptorInterface"*, i32, i64)***
  %144 = load i64 (%"class.webrtc::FrameDecryptorInterface"*, i32, i64)**, i64 (%"class.webrtc::FrameDecryptorInterface"*, i32, i64)*** %143, align 8
  %145 = getelementptr inbounds i64 (%"class.webrtc::FrameDecryptorInterface"*, i32, i64)*, i64 (%"class.webrtc::FrameDecryptorInterface"*, i32, i64)** %144, i64 5
  %146 = load i64 (%"class.webrtc::FrameDecryptorInterface"*, i32, i64)*, i64 (%"class.webrtc::FrameDecryptorInterface"*, i32, i64)** %145, align 8
  %147 = call i64 %146(%"class.webrtc::FrameDecryptorInterface"* nonnull %140, i32 0, i64 %129) #9
  %148 = icmp eq i64 %147, 0
  br i1 %148, label %152, label %149

; <label>:149:                                    ; preds = %142
  %150 = call i8* @_Znam(i64 %147) #8
  %151 = ptrtoint i8* %150 to i64
  br label %152

; <label>:152:                                    ; preds = %149, %142
  %153 = phi i64 [ %151, %149 ], [ 0, %142 ]
  %154 = bitcast i64* %4 to i8*
  call void @llvm.lifetime.start.p0i8(i64 8, i8* nonnull %154) #9
  store i64 0, i64* %4, align 8
  %155 = bitcast %"class.std::__1::vector.214"* %5 to i8*
  call void @llvm.lifetime.start.p0i8(i64 24, i8* nonnull %155) #9
  %156 = getelementptr inbounds %"struct.webrtc::RTPHeader", %"struct.webrtc::RTPHeader"* %13, i64 0, i32 5
  %157 = load i8, i8* %156, align 4
  %158 = zext i8 %157 to i64
  %159 = getelementptr inbounds %"struct.webrtc::RTPHeader", %"struct.webrtc::RTPHeader"* %13, i64 0, i32 7, i64 %158
  call void @llvm.memset.p0i8.i64(i8* nonnull align 8 %155, i8 0, i64 24, i1 false) #9
  %160 = icmp eq i8 %157, 0
  br i1 %160, label %211, label %161

; <label>:161:                                    ; preds = %152
  %162 = shl nuw nsw i64 %158, 2
  %163 = getelementptr inbounds %"struct.webrtc::RTPHeader", %"struct.webrtc::RTPHeader"* %13, i64 0, i32 7, i64 0
  %164 = call i8* @_Znwm(i64 %162) #8
  %165 = bitcast i8* %164 to i32*
  %166 = getelementptr inbounds %"class.std::__1::vector.214", %"class.std::__1::vector.214"* %5, i64 0, i32 0, i32 1
  %167 = bitcast i32** %166 to i8**
  store i8* %164, i8** %167, align 8
  %168 = bitcast %"class.std::__1::vector.214"* %5 to i8**
  store i8* %164, i8** %168, align 8
  %169 = getelementptr inbounds i32, i32* %165, i64 %158
  %170 = getelementptr inbounds %"class.std::__1::vector.214", %"class.std::__1::vector.214"* %5, i64 0, i32 0, i32 2, i32 0, i32 0
  store i32* %169, i32** %170, align 8
  %171 = shl nuw nsw i64 %158, 2
  %172 = add nsw i64 %171, -4
  %173 = lshr exact i64 %172, 2
  %174 = add nuw nsw i64 %173, 1
  %175 = and i64 %174, 3
  %176 = icmp eq i64 %175, 0
  br i1 %176, label %187, label %177

; <label>:177:                                    ; preds = %161, %177
  %178 = phi i32* [ %184, %177 ], [ %165, %161 ]
  %179 = phi i32* [ %182, %177 ], [ %163, %161 ]
  %180 = phi i64 [ %185, %177 ], [ %175, %161 ]
  %181 = load i32, i32* %179, align 4
  store i32 %181, i32* %178, align 4
  %182 = getelementptr inbounds i32, i32* %179, i64 1
  %183 = load i32*, i32** %166, align 8
  %184 = getelementptr inbounds i32, i32* %183, i64 1
  store i32* %184, i32** %166, align 8
  %185 = add i64 %180, -1
  %186 = icmp eq i64 %185, 0
  br i1 %186, label %187, label %177, !llvm.loop !5

; <label>:187:                                    ; preds = %177, %161
  %188 = phi i32* [ %165, %161 ], [ %184, %177 ]
  %189 = phi i32* [ %163, %161 ], [ %182, %177 ]
  %190 = icmp ult i64 %172, 12
  br i1 %190, label %211, label %191

; <label>:191:                                    ; preds = %187, %191
  %192 = phi i32* [ %209, %191 ], [ %188, %187 ]
  %193 = phi i32* [ %207, %191 ], [ %189, %187 ]
  %194 = load i32, i32* %193, align 4
  store i32 %194, i32* %192, align 4
  %195 = getelementptr inbounds i32, i32* %193, i64 1
  %196 = load i32*, i32** %166, align 8
  %197 = getelementptr inbounds i32, i32* %196, i64 1
  store i32* %197, i32** %166, align 8
  %198 = load i32, i32* %195, align 4
  store i32 %198, i32* %197, align 4
  %199 = getelementptr inbounds i32, i32* %193, i64 2
  %200 = load i32*, i32** %166, align 8
  %201 = getelementptr inbounds i32, i32* %200, i64 1
  store i32* %201, i32** %166, align 8
  %202 = load i32, i32* %199, align 4
  store i32 %202, i32* %201, align 4
  %203 = getelementptr inbounds i32, i32* %193, i64 3
  %204 = load i32*, i32** %166, align 8
  %205 = getelementptr inbounds i32, i32* %204, i64 1
  store i32* %205, i32** %166, align 8
  %206 = load i32, i32* %203, align 4
  store i32 %206, i32* %205, align 4
  %207 = getelementptr inbounds i32, i32* %193, i64 4
  %208 = load i32*, i32** %166, align 8
  %209 = getelementptr inbounds i32, i32* %208, i64 1
  store i32* %209, i32** %166, align 8
  %210 = icmp eq i32* %207, %159
  br i1 %210, label %211, label %191

; <label>:211:                                    ; preds = %187, %191, %152
  %212 = load %"class.webrtc::FrameDecryptorInterface"*, %"class.webrtc::FrameDecryptorInterface"** %139, align 8
  %213 = getelementptr inbounds %"class.rtc::ArrayView.231", %"class.rtc::ArrayView.231"* %6, i64 0, i32 0, i32 0
  %214 = icmp eq i64 %138, 0
  %215 = select i1 %214, i8* null, i8* %128
  store i8* %215, i8** %213, align 8
  %216 = getelementptr inbounds %"class.rtc::ArrayView.231", %"class.rtc::ArrayView.231"* %6, i64 0, i32 0, i32 1
  store i64 %138, i64* %216, align 8
  %217 = inttoptr i64 %153 to i8*
  %218 = getelementptr inbounds %"class.rtc::ArrayView.249", %"class.rtc::ArrayView.249"* %7, i64 0, i32 0, i32 0
  %219 = select i1 %148, i8* null, i8* %217
  store i8* %219, i8** %218, align 8
  %220 = getelementptr inbounds %"class.rtc::ArrayView.249", %"class.rtc::ArrayView.249"* %7, i64 0, i32 0, i32 1
  store i64 %147, i64* %220, align 8
  %221 = bitcast %"class.webrtc::FrameDecryptorInterface"* %212 to i32 (%"class.webrtc::FrameDecryptorInterface"*, i32, %"class.std::__1::vector.214"*, i8*, i64, %"class.rtc::ArrayView.231"*, %"class.rtc::ArrayView.249"*, i64*)***
  %222 = load i32 (%"class.webrtc::FrameDecryptorInterface"*, i32, %"class.std::__1::vector.214"*, i8*, i64, %"class.rtc::ArrayView.231"*, %"class.rtc::ArrayView.249"*, i64*)**, i32 (%"class.webrtc::FrameDecryptorInterface"*, i32, %"class.std::__1::vector.214"*, i8*, i64, %"class.rtc::ArrayView.231"*, %"class.rtc::ArrayView.249"*, i64*)*** %221, align 8
  %223 = getelementptr inbounds i32 (%"class.webrtc::FrameDecryptorInterface"*, i32, %"class.std::__1::vector.214"*, i8*, i64, %"class.rtc::ArrayView.231"*, %"class.rtc::ArrayView.249"*, i64*)*, i32 (%"class.webrtc::FrameDecryptorInterface"*, i32, %"class.std::__1::vector.214"*, i8*, i64, %"class.rtc::ArrayView.231"*, %"class.rtc::ArrayView.249"*, i64*)** %222, i64 4
  %224 = load i32 (%"class.webrtc::FrameDecryptorInterface"*, i32, %"class.std::__1::vector.214"*, i8*, i64, %"class.rtc::ArrayView.231"*, %"class.rtc::ArrayView.249"*, i64*)*, i32 (%"class.webrtc::FrameDecryptorInterface"*, i32, %"class.std::__1::vector.214"*, i8*, i64, %"class.rtc::ArrayView.231"*, %"class.rtc::ArrayView.249"*, i64*)** %223, align 8
  %225 = call i32 %224(%"class.webrtc::FrameDecryptorInterface"* %212, i32 0, %"class.std::__1::vector.214"* nonnull dereferenceable(24) %5, i8* null, i64 0, %"class.rtc::ArrayView.231"* byval nonnull align 8 %6, %"class.rtc::ArrayView.249"* byval nonnull align 8 %7, i64* nonnull %4) #9
  %226 = icmp eq i32 %225, 0
  br i1 %226, label %228, label %227

; <label>:227:                                    ; preds = %211
  store i64 0, i64* %4, align 8
  br label %240

; <label>:228:                                    ; preds = %211
  %229 = load i64, i64* %4, align 8
  %230 = icmp ult i64 %147, %229
  br i1 %230, label %231, label %240

; <label>:231:                                    ; preds = %228
  %232 = lshr i64 %147, 1
  %233 = add i64 %232, %147
  %234 = icmp ugt i64 %233, %229
  %235 = select i1 %234, i64 %233, i64 %229
  %236 = call i8* @_Znam(i64 %235) #8
  %237 = ptrtoint i8* %236 to i64
  call void @llvm.memcpy.p0i8.p0i8.i64(i8* nonnull align 1 %236, i8* align 1 %217, i64 %147, i1 false) #9
  %238 = icmp eq i64 %153, 0
  br i1 %238, label %240, label %239

; <label>:239:                                    ; preds = %231
  call void @_ZdaPv(i8* nonnull %217) #8
  br label %240

; <label>:240:                                    ; preds = %239, %231, %228, %227
  %241 = phi i64 [ %229, %228 ], [ %229, %239 ], [ %229, %231 ], [ 0, %227 ]
  %242 = phi i64 [ %153, %228 ], [ %237, %239 ], [ %237, %231 ], [ %153, %227 ]
  %243 = inttoptr i64 %242 to i8*
  %244 = getelementptr inbounds %"class.std::__1::vector.214", %"class.std::__1::vector.214"* %5, i64 0, i32 0, i32 0
  %245 = load i32*, i32** %244, align 8
  %246 = icmp eq i32* %245, null
  br i1 %246, label %252, label %247

; <label>:247:                                    ; preds = %240
  %248 = ptrtoint i32* %245 to i64
  %249 = getelementptr inbounds %"class.std::__1::vector.214", %"class.std::__1::vector.214"* %5, i64 0, i32 0, i32 1
  %250 = bitcast i32** %249 to i64*
  store i64 %248, i64* %250, align 8
  %251 = bitcast i32* %245 to i8*
  call void @_ZdlPv(i8* %251) #8
  br label %252

; <label>:252:                                    ; preds = %247, %240
  call void @llvm.lifetime.end.p0i8(i64 24, i8* nonnull %155) #9
  call void @llvm.lifetime.end.p0i8(i64 8, i8* nonnull %154) #9
  br label %257

; <label>:253:                                    ; preds = %113
  %254 = getelementptr inbounds %"class.webrtc::voe::(anonymous namespace)::ChannelReceive", %"class.webrtc::voe::(anonymous namespace)::ChannelReceive"* %0, i64 0, i32 47, i32 1, i32 0
  %255 = load i8, i8* %254, align 1, !range !7
  %256 = icmp eq i8 %255, 0
  br i1 %256, label %257, label %262

; <label>:257:                                    ; preds = %253, %252
  %258 = phi i64 [ %242, %252 ], [ 0, %253 ]
  %259 = phi i64 [ %241, %252 ], [ %138, %253 ]
  %260 = phi i8* [ %243, %252 ], [ %128, %253 ]
  %261 = icmp eq i64 %259, 0
  br i1 %261, label %262, label %265

; <label>:262:                                    ; preds = %257, %253
  %263 = phi i64 [ %258, %257 ], [ 0, %253 ]
  store i32 0, i32* %133, align 8
  %264 = call fastcc i32 @_ZN6webrtc3voe12_GLOBAL__N_114ChannelReceive21OnReceivedPayloadDataEPKhmPKNS_15WebRtcRTPHeaderE(%"class.webrtc::voe::(anonymous namespace)::ChannelReceive"* nonnull %0, i8* null, i64 0, %"struct.webrtc::WebRtcRTPHeader"* nonnull %3) #9
  br label %267

; <label>:265:                                    ; preds = %257
  %266 = call fastcc i32 @_ZN6webrtc3voe12_GLOBAL__N_114ChannelReceive21OnReceivedPayloadDataEPKhmPKNS_15WebRtcRTPHeaderE(%"class.webrtc::voe::(anonymous namespace)::ChannelReceive"* nonnull %0, i8* %260, i64 %259, %"struct.webrtc::WebRtcRTPHeader"* nonnull %3) #9
  br label %267

; <label>:267:                                    ; preds = %265, %262
  %268 = phi i64 [ %258, %265 ], [ %263, %262 ]
  %269 = icmp eq i64 %268, 0
  br i1 %269, label %272, label %270

; <label>:270:                                    ; preds = %267
  %271 = inttoptr i64 %268 to i8*
  call void @_ZdaPv(i8* nonnull %271) #8
  br label %272

; <label>:272:                                    ; preds = %267, %270
  call void @_ZN6webrtc14RTPVideoHeaderD1Ev(%"struct.webrtc::RTPVideoHeader"* nonnull %131) #9
  call void @llvm.lifetime.end.p0i8(i64 2168, i8* nonnull %130) #9
  call void @llvm.lifetime.end.p0i8(i64 16, i8* nonnull %124)
  call void @llvm.lifetime.end.p0i8(i64 16, i8* nonnull %125)
  call void @llvm.lifetime.end.p0i8(i64 288, i8* nonnull %106) #9
  call void @_ZN6webrtc17RtpPacketReceivedD1Ev(%"class.webrtc::RtpPacketReceived"* nonnull %12) #9
  call void @llvm.lifetime.end.p0i8(i64 136, i8* nonnull %94) #9
  br label %273

; <label>:273:                                    ; preds = %88, %86, %65, %272
  call void @llvm.lifetime.end.p0i8(i64 1, i8* nonnull %9) #9
  call void @llvm.lifetime.end.p0i8(i64 1, i8* nonnull %8) #9
  ret void
}

; Function Attrs: nounwind ssp uwtable
define internal void @_ZN6webrtc3voe12_GLOBAL__N_114ChannelReceive7SetSinkEPNS_18AudioSinkInterfaceE(%"class.webrtc::voe::(anonymous namespace)::ChannelReceive"*, %"class.webrtc::AudioSinkInterface"*) unnamed_addr #0 align 2 {
  %3 = alloca %"class.rtc::CritScope", align 8
  %4 = bitcast %"class.rtc::CritScope"* %3 to i8*
  call void @llvm.lifetime.start.p0i8(i64 8, i8* nonnull %4) #9
  %5 = getelementptr inbounds %"class.webrtc::voe::(anonymous namespace)::ChannelReceive", %"class.webrtc::voe::(anonymous namespace)::ChannelReceive"* %0, i64 0, i32 7
  call void @_ZN3rtc9CritScopeC1EPKNS_15CriticalSectionE(%"class.rtc::CritScope"* nonnull %3, %"class.rtc::CriticalSection"* nonnull %5) #9
  %6 = getelementptr inbounds %"class.webrtc::voe::(anonymous namespace)::ChannelReceive", %"class.webrtc::voe::(anonymous namespace)::ChannelReceive"* %0, i64 0, i32 25
  store %"class.webrtc::AudioSinkInterface"* %1, %"class.webrtc::AudioSinkInterface"** %6, align 8
  call void @_ZN3rtc9CritScopeD1Ev(%"class.rtc::CritScope"* nonnull %3) #9
  call void @llvm.lifetime.end.p0i8(i64 8, i8* nonnull %4) #9
  ret void
}

; Function Attrs: nounwind ssp uwtable
define internal void @_ZN6webrtc3voe12_GLOBAL__N_114ChannelReceive16SetReceiveCodecsERKNSt3__13mapIiNS_14SdpAudioFormatENS3_4lessIiEENS3_9allocatorINS3_4pairIKiS5_EEEEEE(%"class.webrtc::voe::(anonymous namespace)::ChannelReceive"*, %"class.std::__1::map.173"* dereferenceable(24)) unnamed_addr #0 align 2 {
  %3 = getelementptr inbounds %"class.std::__1::map.173", %"class.std::__1::map.173"* %1, i64 0, i32 0, i32 0
  %4 = load %"class.std::__1::__tree_end_node"*, %"class.std::__1::__tree_end_node"** %3, align 8
  %5 = getelementptr inbounds %"class.std::__1::map.173", %"class.std::__1::map.173"* %1, i64 0, i32 0, i32 1, i32 0, i32 0
  %6 = icmp eq %"class.std::__1::__tree_end_node"* %4, %5
  br i1 %6, label %16, label %7

; <label>:7:                                      ; preds = %2
  %8 = getelementptr inbounds %"class.webrtc::voe::(anonymous namespace)::ChannelReceive", %"class.webrtc::voe::(anonymous namespace)::ChannelReceive"* %0, i64 0, i32 13
  %9 = getelementptr inbounds %"class.webrtc::voe::(anonymous namespace)::ChannelReceive", %"class.webrtc::voe::(anonymous namespace)::ChannelReceive"* %0, i64 0, i32 13, i32 0, i32 1, i32 0, i32 0
  %10 = bitcast %"class.std::__1::__tree_end_node"* %9 to %"class.std::__1::__tree_node"**
  %11 = getelementptr inbounds %"class.std::__1::__tree_end_node", %"class.std::__1::__tree_end_node"* %9, i64 0, i32 0
  %12 = getelementptr inbounds %"class.webrtc::voe::(anonymous namespace)::ChannelReceive", %"class.webrtc::voe::(anonymous namespace)::ChannelReceive"* %0, i64 0, i32 13, i32 0, i32 1, i32 0, i32 0, i32 0
  %13 = getelementptr inbounds %"class.std::__1::map", %"class.std::__1::map"* %8, i64 0, i32 0, i32 0
  %14 = getelementptr inbounds %"class.webrtc::voe::(anonymous namespace)::ChannelReceive", %"class.webrtc::voe::(anonymous namespace)::ChannelReceive"* %0, i64 0, i32 13, i32 0, i32 2, i32 0, i32 0
  %15 = bitcast %"class.std::__1::map"* %8 to i64*
  br label %23

; <label>:16:                                     ; preds = %118, %2
  %17 = getelementptr inbounds %"class.webrtc::voe::(anonymous namespace)::ChannelReceive", %"class.webrtc::voe::(anonymous namespace)::ChannelReceive"* %0, i64 0, i32 24, i32 0, i32 0, i32 0
  %18 = load %"class.webrtc::AudioCodingModule"*, %"class.webrtc::AudioCodingModule"** %17, align 8
  %19 = bitcast %"class.webrtc::AudioCodingModule"* %18 to void (%"class.webrtc::AudioCodingModule"*, %"class.std::__1::map.173"*)***
  %20 = load void (%"class.webrtc::AudioCodingModule"*, %"class.std::__1::map.173"*)**, void (%"class.webrtc::AudioCodingModule"*, %"class.std::__1::map.173"*)*** %19, align 8
  %21 = getelementptr inbounds void (%"class.webrtc::AudioCodingModule"*, %"class.std::__1::map.173"*)*, void (%"class.webrtc::AudioCodingModule"*, %"class.std::__1::map.173"*)** %20, i64 11
  %22 = load void (%"class.webrtc::AudioCodingModule"*, %"class.std::__1::map.173"*)*, void (%"class.webrtc::AudioCodingModule"*, %"class.std::__1::map.173"*)** %21, align 8
  tail call void %22(%"class.webrtc::AudioCodingModule"* %18, %"class.std::__1::map.173"* nonnull dereferenceable(24) %1) #9
  ret void

; <label>:23:                                     ; preds = %7, %118
  %24 = phi %"class.std::__1::__tree_end_node"* [ %4, %7 ], [ %119, %118 ]
  %25 = getelementptr inbounds %"class.std::__1::__tree_end_node", %"class.std::__1::__tree_end_node"* %24, i64 4
  %26 = getelementptr inbounds %"class.std::__1::__tree_end_node", %"class.std::__1::__tree_end_node"* %24, i64 8
  %27 = bitcast %"class.std::__1::__tree_end_node"* %26 to i32*
  %28 = load i32, i32* %27, align 8
  %29 = bitcast %"class.std::__1::__tree_end_node"* %25 to i32*
  %30 = load i32, i32* %29, align 8
  %31 = trunc i32 %30 to i8
  %32 = load %"class.std::__1::__tree_node"*, %"class.std::__1::__tree_node"** %10, align 8
  %33 = icmp eq %"class.std::__1::__tree_node"* %32, null
  br i1 %33, label %60, label %34

; <label>:34:                                     ; preds = %23, %56
  %35 = phi %"class.std::__1::__tree_node"* [ %59, %56 ], [ %32, %23 ]
  %36 = phi %"class.std::__1::__tree_node_base"** [ %58, %56 ], [ %12, %23 ]
  %37 = getelementptr inbounds %"class.std::__1::__tree_node", %"class.std::__1::__tree_node"* %35, i64 0, i32 1, i32 0, i32 0
  %38 = load i8, i8* %37, align 1
  %39 = icmp ugt i8 %38, %31
  br i1 %39, label %40, label %46

; <label>:40:                                     ; preds = %34
  %41 = getelementptr inbounds %"class.std::__1::__tree_node", %"class.std::__1::__tree_node"* %35, i64 0, i32 0, i32 0, i32 0
  %42 = load %"class.std::__1::__tree_node_base"*, %"class.std::__1::__tree_node_base"** %41, align 8
  %43 = icmp eq %"class.std::__1::__tree_node_base"* %42, null
  br i1 %43, label %44, label %56

; <label>:44:                                     ; preds = %40
  %45 = getelementptr inbounds %"class.std::__1::__tree_node", %"class.std::__1::__tree_node"* %35, i64 0, i32 0, i32 0
  br label %60

; <label>:46:                                     ; preds = %34
  %47 = icmp ult i8 %38, %31
  br i1 %47, label %48, label %54

; <label>:48:                                     ; preds = %46
  %49 = getelementptr inbounds %"class.std::__1::__tree_node", %"class.std::__1::__tree_node"* %35, i64 0, i32 0, i32 1
  %50 = load %"class.std::__1::__tree_node_base"*, %"class.std::__1::__tree_node_base"** %49, align 8
  %51 = icmp eq %"class.std::__1::__tree_node_base"* %50, null
  br i1 %51, label %52, label %56

; <label>:52:                                     ; preds = %48
  %53 = getelementptr inbounds %"class.std::__1::__tree_node", %"class.std::__1::__tree_node"* %35, i64 0, i32 0, i32 0
  br label %60

; <label>:54:                                     ; preds = %46
  %55 = getelementptr inbounds %"class.std::__1::__tree_node", %"class.std::__1::__tree_node"* %35, i64 0, i32 0, i32 0
  br label %60

; <label>:56:                                     ; preds = %48, %40
  %57 = phi %"class.std::__1::__tree_node_base"* [ %42, %40 ], [ %50, %48 ]
  %58 = phi %"class.std::__1::__tree_node_base"** [ %41, %40 ], [ %49, %48 ]
  %59 = bitcast %"class.std::__1::__tree_node_base"* %57 to %"class.std::__1::__tree_node"*
  br label %34

; <label>:60:                                     ; preds = %23, %54, %52, %44
  %61 = phi %"class.std::__1::__tree_end_node"* [ %45, %44 ], [ %53, %52 ], [ %55, %54 ], [ %9, %23 ]
  %62 = phi %"class.std::__1::__tree_node_base"** [ %41, %44 ], [ %49, %52 ], [ %36, %54 ], [ %11, %23 ]
  %63 = bitcast %"class.std::__1::__tree_node_base"** %62 to %"class.std::__1::__tree_node"**
  %64 = load %"class.std::__1::__tree_node"*, %"class.std::__1::__tree_node"** %63, align 8
  %65 = icmp eq %"class.std::__1::__tree_node"* %64, null
  br i1 %65, label %66, label %88

; <label>:66:                                     ; preds = %60
  %67 = tail call i8* @_Znwm(i64 40) #8, !noalias !8
  %68 = getelementptr inbounds i8, i8* %67, i64 28
  store i8 %31, i8* %68, align 4, !noalias !8
  %69 = getelementptr inbounds i8, i8* %67, i64 32
  %70 = bitcast i8* %69 to i32*
  store i32 0, i32* %70, align 4, !noalias !8
  %71 = bitcast i8* %67 to %"class.std::__1::__tree_node"*
  %72 = bitcast i8* %67 to %"class.std::__1::__tree_node_base"*
  %73 = getelementptr inbounds i8, i8* %67, i64 16
  %74 = bitcast i8* %73 to %"class.std::__1::__tree_end_node"**
  tail call void @llvm.memset.p0i8.i64(i8* nonnull align 8 %67, i8 0, i64 16, i1 false) #9
  store %"class.std::__1::__tree_end_node"* %61, %"class.std::__1::__tree_end_node"** %74, align 8
  %75 = bitcast %"class.std::__1::__tree_node_base"** %62 to i8**
  store i8* %67, i8** %75, align 8
  %76 = load %"class.std::__1::__tree_end_node"*, %"class.std::__1::__tree_end_node"** %13, align 8
  %77 = getelementptr inbounds %"class.std::__1::__tree_end_node", %"class.std::__1::__tree_end_node"* %76, i64 0, i32 0
  %78 = load %"class.std::__1::__tree_node_base"*, %"class.std::__1::__tree_node_base"** %77, align 8
  %79 = icmp eq %"class.std::__1::__tree_node_base"* %78, null
  br i1 %79, label %83, label %80

; <label>:80:                                     ; preds = %66
  %81 = ptrtoint %"class.std::__1::__tree_node_base"* %78 to i64
  store i64 %81, i64* %15, align 8
  %82 = load %"class.std::__1::__tree_node_base"*, %"class.std::__1::__tree_node_base"** %62, align 8
  br label %83

; <label>:83:                                     ; preds = %80, %66
  %84 = phi %"class.std::__1::__tree_node_base"* [ %72, %66 ], [ %82, %80 ]
  %85 = load %"class.std::__1::__tree_node_base"*, %"class.std::__1::__tree_node_base"** %12, align 8
  tail call void @_ZNSt3__127__tree_balance_after_insertIPNS_16__tree_node_baseIPvEEEEvT_S5_(%"class.std::__1::__tree_node_base"* %85, %"class.std::__1::__tree_node_base"* %84) #9
  %86 = load i64, i64* %14, align 8
  %87 = add i64 %86, 1
  store i64 %87, i64* %14, align 8
  br label %88

; <label>:88:                                     ; preds = %60, %83
  %89 = phi %"class.std::__1::__tree_node"* [ %71, %83 ], [ %64, %60 ]
  %90 = getelementptr inbounds %"class.std::__1::__tree_node", %"class.std::__1::__tree_node"* %89, i64 0, i32 1, i32 0, i32 1
  store i32 %28, i32* %90, align 4
  %91 = getelementptr inbounds %"class.std::__1::__tree_end_node", %"class.std::__1::__tree_end_node"* %24, i64 1, i32 0
  %92 = load %"class.std::__1::__tree_node_base"*, %"class.std::__1::__tree_node_base"** %91, align 8
  %93 = icmp eq %"class.std::__1::__tree_node_base"* %92, null
  br i1 %93, label %94, label %102

; <label>:94:                                     ; preds = %88
  %95 = bitcast %"class.std::__1::__tree_end_node"* %24 to %"class.std::__1::__tree_node_base"*
  %96 = getelementptr inbounds %"class.std::__1::__tree_end_node", %"class.std::__1::__tree_end_node"* %24, i64 2
  %97 = bitcast %"class.std::__1::__tree_end_node"* %96 to %"class.std::__1::__tree_end_node"**
  %98 = load %"class.std::__1::__tree_end_node"*, %"class.std::__1::__tree_end_node"** %97, align 8
  %99 = getelementptr inbounds %"class.std::__1::__tree_end_node", %"class.std::__1::__tree_end_node"* %98, i64 0, i32 0
  %100 = load %"class.std::__1::__tree_node_base"*, %"class.std::__1::__tree_node_base"** %99, align 8
  %101 = icmp eq %"class.std::__1::__tree_node_base"* %100, %95
  br i1 %101, label %118, label %109

; <label>:102:                                    ; preds = %88, %102
  %103 = phi %"class.std::__1::__tree_node_base"* [ %105, %102 ], [ %92, %88 ]
  %104 = getelementptr inbounds %"class.std::__1::__tree_node_base", %"class.std::__1::__tree_node_base"* %103, i64 0, i32 0, i32 0
  %105 = load %"class.std::__1::__tree_node_base"*, %"class.std::__1::__tree_node_base"** %104, align 8
  %106 = icmp eq %"class.std::__1::__tree_node_base"* %105, null
  br i1 %106, label %107, label %102

; <label>:107:                                    ; preds = %102
  %108 = getelementptr inbounds %"class.std::__1::__tree_node_base", %"class.std::__1::__tree_node_base"* %103, i64 0, i32 0
  br label %118

; <label>:109:                                    ; preds = %94, %109
  %110 = phi %"class.std::__1::__tree_end_node"** [ %113, %109 ], [ %97, %94 ]
  %111 = bitcast %"class.std::__1::__tree_end_node"** %110 to %"class.std::__1::__tree_node_base"**
  %112 = load %"class.std::__1::__tree_node_base"*, %"class.std::__1::__tree_node_base"** %111, align 8
  %113 = getelementptr inbounds %"class.std::__1::__tree_node_base", %"class.std::__1::__tree_node_base"* %112, i64 0, i32 2
  %114 = load %"class.std::__1::__tree_end_node"*, %"class.std::__1::__tree_end_node"** %113, align 8
  %115 = getelementptr inbounds %"class.std::__1::__tree_end_node", %"class.std::__1::__tree_end_node"* %114, i64 0, i32 0
  %116 = load %"class.std::__1::__tree_node_base"*, %"class.std::__1::__tree_node_base"** %115, align 8
  %117 = icmp eq %"class.std::__1::__tree_node_base"* %116, %112
  br i1 %117, label %118, label %109

; <label>:118:                                    ; preds = %109, %94, %107
  %119 = phi %"class.std::__1::__tree_end_node"* [ %108, %107 ], [ %98, %94 ], [ %114, %109 ]
  %120 = icmp eq %"class.std::__1::__tree_end_node"* %119, %5
  br i1 %120, label %16, label %23
}

; Function Attrs: nounwind ssp uwtable
define internal void @_ZN6webrtc3voe12_GLOBAL__N_114ChannelReceive12StartPlayoutEv(%"class.webrtc::voe::(anonymous namespace)::ChannelReceive"*) unnamed_addr #0 align 2 {
  %2 = alloca %"class.rtc::CritScope", align 8
  %3 = bitcast %"class.rtc::CritScope"* %2 to i8*
  call void @llvm.lifetime.start.p0i8(i64 8, i8* nonnull %3) #9
  %4 = getelementptr inbounds %"class.webrtc::voe::(anonymous namespace)::ChannelReceive", %"class.webrtc::voe::(anonymous namespace)::ChannelReceive"* %0, i64 0, i32 9
  call void @_ZN3rtc9CritScopeC1EPKNS_15CriticalSectionE(%"class.rtc::CritScope"* nonnull %2, %"class.rtc::CriticalSection"* nonnull %4) #9
  %5 = getelementptr inbounds %"class.webrtc::voe::(anonymous namespace)::ChannelReceive", %"class.webrtc::voe::(anonymous namespace)::ChannelReceive"* %0, i64 0, i32 10
  store i8 1, i8* %5, align 8
  call void @_ZN3rtc9CritScopeD1Ev(%"class.rtc::CritScope"* nonnull %2) #9
  call void @llvm.lifetime.end.p0i8(i64 8, i8* nonnull %3) #9
  ret void
}

; Function Attrs: nounwind ssp uwtable
define internal void @_ZN6webrtc3voe12_GLOBAL__N_114ChannelReceive11StopPlayoutEv(%"class.webrtc::voe::(anonymous namespace)::ChannelReceive"*) unnamed_addr #0 align 2 {
  %2 = alloca %"class.rtc::CritScope", align 8
  %3 = bitcast %"class.rtc::CritScope"* %2 to i8*
  call void @llvm.lifetime.start.p0i8(i64 8, i8* nonnull %3) #9
  %4 = getelementptr inbounds %"class.webrtc::voe::(anonymous namespace)::ChannelReceive", %"class.webrtc::voe::(anonymous namespace)::ChannelReceive"* %0, i64 0, i32 9
  call void @_ZN3rtc9CritScopeC1EPKNS_15CriticalSectionE(%"class.rtc::CritScope"* nonnull %2, %"class.rtc::CriticalSection"* nonnull %4) #9
  %5 = getelementptr inbounds %"class.webrtc::voe::(anonymous namespace)::ChannelReceive", %"class.webrtc::voe::(anonymous namespace)::ChannelReceive"* %0, i64 0, i32 10
  store i8 0, i8* %5, align 8
  %6 = getelementptr inbounds %"class.webrtc::voe::(anonymous namespace)::ChannelReceive", %"class.webrtc::voe::(anonymous namespace)::ChannelReceive"* %0, i64 0, i32 26
  call void @_ZN6webrtc3voe10AudioLevel5ClearEv(%"class.webrtc::voe::AudioLevel"* nonnull %6) #9
  call void @_ZN3rtc9CritScopeD1Ev(%"class.rtc::CritScope"* nonnull %2) #9
  call void @llvm.lifetime.end.p0i8(i64 8, i8* nonnull %3) #9
  ret void
}

; Function Attrs: nounwind ssp uwtable
define internal void @_ZNK6webrtc3voe12_GLOBAL__N_114ChannelReceive15GetReceiveCodecEv(%"class.absl::optional.184"* noalias sret, %"class.webrtc::voe::(anonymous namespace)::ChannelReceive"* nocapture readonly) unnamed_addr #0 align 2 {
  %3 = getelementptr inbounds %"class.webrtc::voe::(anonymous namespace)::ChannelReceive", %"class.webrtc::voe::(anonymous namespace)::ChannelReceive"* %1, i64 0, i32 24, i32 0, i32 0, i32 0
  %4 = load %"class.webrtc::AudioCodingModule"*, %"class.webrtc::AudioCodingModule"** %3, align 8
  %5 = bitcast %"class.webrtc::AudioCodingModule"* %4 to void (%"class.absl::optional.184"*, %"class.webrtc::AudioCodingModule"*)***
  %6 = load void (%"class.absl::optional.184"*, %"class.webrtc::AudioCodingModule"*)**, void (%"class.absl::optional.184"*, %"class.webrtc::AudioCodingModule"*)*** %5, align 8
  %7 = getelementptr inbounds void (%"class.absl::optional.184"*, %"class.webrtc::AudioCodingModule"*)*, void (%"class.absl::optional.184"*, %"class.webrtc::AudioCodingModule"*)** %6, i64 12
  %8 = load void (%"class.absl::optional.184"*, %"class.webrtc::AudioCodingModule"*)*, void (%"class.absl::optional.184"*, %"class.webrtc::AudioCodingModule"*)** %7, align 8
  tail call void %8(%"class.absl::optional.184"* sret %0, %"class.webrtc::AudioCodingModule"* %4) #9
  ret void
}

; Function Attrs: nounwind ssp uwtable
define internal zeroext i1 @_ZN6webrtc3voe12_GLOBAL__N_114ChannelReceive18ReceivedRTCPPacketEPKhm(%"class.webrtc::voe::(anonymous namespace)::ChannelReceive"*, i8*, i64) unnamed_addr #0 align 2 {
  %4 = alloca i32, align 4
  %5 = alloca i32, align 4
  %6 = alloca i32, align 4
  %7 = alloca %"class.rtc::CritScope", align 8
  tail call fastcc void @_ZN6webrtc3voe12_GLOBAL__N_114ChannelReceive22UpdatePlayoutTimestampEb(%"class.webrtc::voe::(anonymous namespace)::ChannelReceive"* %0, i1 zeroext true)
  %8 = getelementptr inbounds %"class.webrtc::voe::(anonymous namespace)::ChannelReceive", %"class.webrtc::voe::(anonymous namespace)::ChannelReceive"* %0, i64 0, i32 15, i32 0, i32 0, i32 0
  %9 = load %"class.webrtc::RtpRtcp"*, %"class.webrtc::RtpRtcp"** %8, align 8
  %10 = bitcast %"class.webrtc::RtpRtcp"* %9 to void (%"class.webrtc::RtpRtcp"*, i8*, i64)***
  %11 = load void (%"class.webrtc::RtpRtcp"*, i8*, i64)**, void (%"class.webrtc::RtpRtcp"*, i8*, i64)*** %10, align 8
  %12 = getelementptr inbounds void (%"class.webrtc::RtpRtcp"*, i8*, i64)*, void (%"class.webrtc::RtpRtcp"*, i8*, i64)** %11, i64 5
  %13 = load void (%"class.webrtc::RtpRtcp"*, i8*, i64)*, void (%"class.webrtc::RtpRtcp"*, i8*, i64)** %12, align 8
  tail call void %13(%"class.webrtc::RtpRtcp"* %9, i8* %1, i64 %2) #9
  %14 = tail call fastcc i64 @_ZNK6webrtc3voe12_GLOBAL__N_114ChannelReceive6GetRTTEv(%"class.webrtc::voe::(anonymous namespace)::ChannelReceive"* %0)
  %15 = icmp eq i64 %14, 0
  br i1 %15, label %36, label %16

; <label>:16:                                     ; preds = %3
  %17 = bitcast i32* %4 to i8*
  call void @llvm.lifetime.start.p0i8(i64 4, i8* nonnull %17) #9
  store i32 0, i32* %4, align 4
  %18 = bitcast i32* %5 to i8*
  call void @llvm.lifetime.start.p0i8(i64 4, i8* nonnull %18) #9
  store i32 0, i32* %5, align 4
  %19 = bitcast i32* %6 to i8*
  call void @llvm.lifetime.start.p0i8(i64 4, i8* nonnull %19) #9
  store i32 0, i32* %6, align 4
  %20 = load %"class.webrtc::RtpRtcp"*, %"class.webrtc::RtpRtcp"** %8, align 8
  %21 = bitcast %"class.webrtc::RtpRtcp"* %20 to i32 (%"class.webrtc::RtpRtcp"*, i32*, i32*, i32*, i32*, i32*)***
  %22 = load i32 (%"class.webrtc::RtpRtcp"*, i32*, i32*, i32*, i32*, i32*)**, i32 (%"class.webrtc::RtpRtcp"*, i32*, i32*, i32*, i32*, i32*)*** %21, align 8
  %23 = getelementptr inbounds i32 (%"class.webrtc::RtpRtcp"*, i32*, i32*, i32*, i32*, i32*)*, i32 (%"class.webrtc::RtpRtcp"*, i32*, i32*, i32*, i32*, i32*)** %22, i64 51
  %24 = load i32 (%"class.webrtc::RtpRtcp"*, i32*, i32*, i32*, i32*, i32*)*, i32 (%"class.webrtc::RtpRtcp"*, i32*, i32*, i32*, i32*, i32*)** %23, align 8
  %25 = call i32 %24(%"class.webrtc::RtpRtcp"* %20, i32* nonnull %4, i32* nonnull %5, i32* null, i32* null, i32* nonnull %6) #9
  %26 = icmp eq i32 %25, 0
  br i1 %26, label %27, label %35

; <label>:27:                                     ; preds = %16
  %28 = bitcast %"class.rtc::CritScope"* %7 to i8*
  call void @llvm.lifetime.start.p0i8(i64 8, i8* nonnull %28) #9
  %29 = getelementptr inbounds %"class.webrtc::voe::(anonymous namespace)::ChannelReceive", %"class.webrtc::voe::(anonymous namespace)::ChannelReceive"* %0, i64 0, i32 32
  call void @_ZN3rtc9CritScopeC1EPKNS_15CriticalSectionE(%"class.rtc::CritScope"* nonnull %7, %"class.rtc::CriticalSection"* nonnull %29) #9
  %30 = getelementptr inbounds %"class.webrtc::voe::(anonymous namespace)::ChannelReceive", %"class.webrtc::voe::(anonymous namespace)::ChannelReceive"* %0, i64 0, i32 27
  %31 = load i32, i32* %4, align 4
  %32 = load i32, i32* %5, align 4
  %33 = load i32, i32* %6, align 4
  %34 = call zeroext i1 @_ZN6webrtc22RemoteNtpTimeEstimator19UpdateRtcpTimestampEljjj(%"class.webrtc::RemoteNtpTimeEstimator"* nonnull %30, i64 %14, i32 %31, i32 %32, i32 %33) #9
  call void @_ZN3rtc9CritScopeD1Ev(%"class.rtc::CritScope"* nonnull %7) #9
  call void @llvm.lifetime.end.p0i8(i64 8, i8* nonnull %28) #9
  br label %35

; <label>:35:                                     ; preds = %16, %27
  call void @llvm.lifetime.end.p0i8(i64 4, i8* nonnull %19) #9
  call void @llvm.lifetime.end.p0i8(i64 4, i8* nonnull %18) #9
  call void @llvm.lifetime.end.p0i8(i64 4, i8* nonnull %17) #9
  br label %36

; <label>:36:                                     ; preds = %3, %35
  ret i1 true
}

; Function Attrs: nounwind ssp uwtable
define internal void @_ZN6webrtc3voe12_GLOBAL__N_114ChannelReceive29SetChannelOutputVolumeScalingEf(%"class.webrtc::voe::(anonymous namespace)::ChannelReceive"*, float) unnamed_addr #0 align 2 {
  %3 = alloca %"class.rtc::CritScope", align 8
  %4 = bitcast %"class.rtc::CritScope"* %3 to i8*
  call void @llvm.lifetime.start.p0i8(i64 8, i8* nonnull %4) #9
  %5 = getelementptr inbounds %"class.webrtc::voe::(anonymous namespace)::ChannelReceive", %"class.webrtc::voe::(anonymous namespace)::ChannelReceive"* %0, i64 0, i32 8
  call void @_ZN3rtc9CritScopeC1EPKNS_15CriticalSectionE(%"class.rtc::CritScope"* nonnull %3, %"class.rtc::CriticalSection"* nonnull %5) #9
  %6 = getelementptr inbounds %"class.webrtc::voe::(anonymous namespace)::ChannelReceive", %"class.webrtc::voe::(anonymous namespace)::ChannelReceive"* %0, i64 0, i32 38
  store float %1, float* %6, align 8
  call void @_ZN3rtc9CritScopeD1Ev(%"class.rtc::CritScope"* nonnull %3) #9
  call void @llvm.lifetime.end.p0i8(i64 8, i8* nonnull %4) #9
  ret void
}

; Function Attrs: nounwind ssp uwtable
define internal i32 @_ZNK6webrtc3voe12_GLOBAL__N_114ChannelReceive29GetSpeechOutputLevelFullRangeEv(%"class.webrtc::voe::(anonymous namespace)::ChannelReceive"*) unnamed_addr #0 align 2 {
  %2 = getelementptr inbounds %"class.webrtc::voe::(anonymous namespace)::ChannelReceive", %"class.webrtc::voe::(anonymous namespace)::ChannelReceive"* %0, i64 0, i32 26
  %3 = tail call signext i16 @_ZNK6webrtc3voe10AudioLevel14LevelFullRangeEv(%"class.webrtc::voe::AudioLevel"* nonnull %2) #9
  %4 = sext i16 %3 to i32
  ret i32 %4
}

; Function Attrs: nounwind ssp uwtable
define internal double @_ZNK6webrtc3voe12_GLOBAL__N_114ChannelReceive20GetTotalOutputEnergyEv(%"class.webrtc::voe::(anonymous namespace)::ChannelReceive"*) unnamed_addr #0 align 2 {
  %2 = getelementptr inbounds %"class.webrtc::voe::(anonymous namespace)::ChannelReceive", %"class.webrtc::voe::(anonymous namespace)::ChannelReceive"* %0, i64 0, i32 26
  %3 = tail call double @_ZNK6webrtc3voe10AudioLevel11TotalEnergyEv(%"class.webrtc::voe::AudioLevel"* nonnull %2) #9
  ret double %3
}

; Function Attrs: nounwind ssp uwtable
define internal double @_ZNK6webrtc3voe12_GLOBAL__N_114ChannelReceive22GetTotalOutputDurationEv(%"class.webrtc::voe::(anonymous namespace)::ChannelReceive"*) unnamed_addr #0 align 2 {
  %2 = getelementptr inbounds %"class.webrtc::voe::(anonymous namespace)::ChannelReceive", %"class.webrtc::voe::(anonymous namespace)::ChannelReceive"* %0, i64 0, i32 26
  %3 = tail call double @_ZNK6webrtc3voe10AudioLevel13TotalDurationEv(%"class.webrtc::voe::AudioLevel"* nonnull %2) #9
  ret double %3
}

; Function Attrs: nounwind ssp uwtable
define internal void @_ZNK6webrtc3voe12_GLOBAL__N_114ChannelReceive20GetNetworkStatisticsEv(%"struct.webrtc::NetworkStatistics"* noalias sret, %"class.webrtc::voe::(anonymous namespace)::ChannelReceive"* nocapture readonly) unnamed_addr #0 align 2 {
  %3 = getelementptr inbounds %"class.webrtc::voe::(anonymous namespace)::ChannelReceive", %"class.webrtc::voe::(anonymous namespace)::ChannelReceive"* %1, i64 0, i32 24, i32 0, i32 0, i32 0
  %4 = load %"class.webrtc::AudioCodingModule"*, %"class.webrtc::AudioCodingModule"** %3, align 8
  %5 = bitcast %"class.webrtc::AudioCodingModule"* %4 to i32 (%"class.webrtc::AudioCodingModule"*, %"struct.webrtc::NetworkStatistics"*)***
  %6 = load i32 (%"class.webrtc::AudioCodingModule"*, %"struct.webrtc::NetworkStatistics"*)**, i32 (%"class.webrtc::AudioCodingModule"*, %"struct.webrtc::NetworkStatistics"*)*** %5, align 8
  %7 = getelementptr inbounds i32 (%"class.webrtc::AudioCodingModule"*, %"struct.webrtc::NetworkStatistics"*)*, i32 (%"class.webrtc::AudioCodingModule"*, %"struct.webrtc::NetworkStatistics"*)** %6, i64 23
  %8 = load i32 (%"class.webrtc::AudioCodingModule"*, %"struct.webrtc::NetworkStatistics"*)*, i32 (%"class.webrtc::AudioCodingModule"*, %"struct.webrtc::NetworkStatistics"*)** %7, align 8
  %9 = tail call i32 %8(%"class.webrtc::AudioCodingModule"* %4, %"struct.webrtc::NetworkStatistics"* %0) #9
  ret void
}

; Function Attrs: nounwind ssp uwtable
define internal void @_ZNK6webrtc3voe12_GLOBAL__N_114ChannelReceive25GetDecodingCallStatisticsEv(%"struct.webrtc::AudioDecodingCallStats"* noalias sret, %"class.webrtc::voe::(anonymous namespace)::ChannelReceive"* nocapture readonly) unnamed_addr #0 align 2 {
  %3 = bitcast %"struct.webrtc::AudioDecodingCallStats"* %0 to i8*
  tail call void @llvm.memset.p0i8.i64(i8* align 4 %3, i8 0, i64 28, i1 false) #9
  %4 = getelementptr inbounds %"class.webrtc::voe::(anonymous namespace)::ChannelReceive", %"class.webrtc::voe::(anonymous namespace)::ChannelReceive"* %1, i64 0, i32 24, i32 0, i32 0, i32 0
  %5 = load %"class.webrtc::AudioCodingModule"*, %"class.webrtc::AudioCodingModule"** %4, align 8
  %6 = bitcast %"class.webrtc::AudioCodingModule"* %5 to void (%"class.webrtc::AudioCodingModule"*, %"struct.webrtc::AudioDecodingCallStats"*)***
  %7 = load void (%"class.webrtc::AudioCodingModule"*, %"struct.webrtc::AudioDecodingCallStats"*)**, void (%"class.webrtc::AudioCodingModule"*, %"struct.webrtc::AudioDecodingCallStats"*)*** %6, align 8
  %8 = getelementptr inbounds void (%"class.webrtc::AudioCodingModule"*, %"struct.webrtc::AudioDecodingCallStats"*)*, void (%"class.webrtc::AudioCodingModule"*, %"struct.webrtc::AudioDecodingCallStats"*)** %7, i64 27
  %9 = load void (%"class.webrtc::AudioCodingModule"*, %"struct.webrtc::AudioDecodingCallStats"*)*, void (%"class.webrtc::AudioCodingModule"*, %"struct.webrtc::AudioDecodingCallStats"*)** %8, align 8
  tail call void %9(%"class.webrtc::AudioCodingModule"* %5, %"struct.webrtc::AudioDecodingCallStats"* %0) #9
  ret void
}

; Function Attrs: nounwind ssp uwtable
define internal i32 @_ZNK6webrtc3voe12_GLOBAL__N_114ChannelReceive16GetDelayEstimateEv(%"class.webrtc::voe::(anonymous namespace)::ChannelReceive"*) unnamed_addr #0 align 2 {
  %2 = alloca %"class.rtc::CritScope", align 8
  %3 = bitcast %"class.rtc::CritScope"* %2 to i8*
  call void @llvm.lifetime.start.p0i8(i64 8, i8* nonnull %3) #9
  %4 = getelementptr inbounds %"class.webrtc::voe::(anonymous namespace)::ChannelReceive", %"class.webrtc::voe::(anonymous namespace)::ChannelReceive"* %0, i64 0, i32 29
  call void @_ZN3rtc9CritScopeC1EPKNS_15CriticalSectionE(%"class.rtc::CritScope"* nonnull %2, %"class.rtc::CriticalSection"* nonnull %4) #9
  %5 = getelementptr inbounds %"class.webrtc::voe::(anonymous namespace)::ChannelReceive", %"class.webrtc::voe::(anonymous namespace)::ChannelReceive"* %0, i64 0, i32 24, i32 0, i32 0, i32 0
  %6 = load %"class.webrtc::AudioCodingModule"*, %"class.webrtc::AudioCodingModule"** %5, align 8
  %7 = bitcast %"class.webrtc::AudioCodingModule"* %6 to i32 (%"class.webrtc::AudioCodingModule"*)***
  %8 = load i32 (%"class.webrtc::AudioCodingModule"*)**, i32 (%"class.webrtc::AudioCodingModule"*)*** %7, align 8
  %9 = getelementptr inbounds i32 (%"class.webrtc::AudioCodingModule"*)*, i32 (%"class.webrtc::AudioCodingModule"*)** %8, i64 17
  %10 = load i32 (%"class.webrtc::AudioCodingModule"*)*, i32 (%"class.webrtc::AudioCodingModule"*)** %9, align 8
  %11 = call i32 %10(%"class.webrtc::AudioCodingModule"* %6) #9
  %12 = getelementptr inbounds %"class.webrtc::voe::(anonymous namespace)::ChannelReceive", %"class.webrtc::voe::(anonymous namespace)::ChannelReceive"* %0, i64 0, i32 31
  %13 = load i32, i32* %12, align 4
  %14 = add i32 %13, %11
  call void @_ZN3rtc9CritScopeD1Ev(%"class.rtc::CritScope"* nonnull %2) #9
  call void @llvm.lifetime.end.p0i8(i64 8, i8* nonnull %3) #9
  ret i32 %14
}

; Function Attrs: nounwind ssp uwtable
define internal void @_ZN6webrtc3voe12_GLOBAL__N_114ChannelReceive22SetMinimumPlayoutDelayEi(%"class.webrtc::voe::(anonymous namespace)::ChannelReceive"* nocapture readonly, i32) unnamed_addr #0 align 2 {
  %3 = icmp slt i32 %1, 10000
  %4 = select i1 %3, i32 %1, i32 10000
  %5 = icmp sgt i32 %4, 0
  %6 = select i1 %5, i32 %4, i32 0
  %7 = icmp ugt i32 %6, 10000
  br i1 %7, label %16, label %8

; <label>:8:                                      ; preds = %2
  %9 = getelementptr inbounds %"class.webrtc::voe::(anonymous namespace)::ChannelReceive", %"class.webrtc::voe::(anonymous namespace)::ChannelReceive"* %0, i64 0, i32 24, i32 0, i32 0, i32 0
  %10 = load %"class.webrtc::AudioCodingModule"*, %"class.webrtc::AudioCodingModule"** %9, align 8
  %11 = bitcast %"class.webrtc::AudioCodingModule"* %10 to i32 (%"class.webrtc::AudioCodingModule"*, i32)***
  %12 = load i32 (%"class.webrtc::AudioCodingModule"*, i32)**, i32 (%"class.webrtc::AudioCodingModule"*, i32)*** %11, align 8
  %13 = getelementptr inbounds i32 (%"class.webrtc::AudioCodingModule"*, i32)*, i32 (%"class.webrtc::AudioCodingModule"*, i32)** %12, i64 14
  %14 = load i32 (%"class.webrtc::AudioCodingModule"*, i32)*, i32 (%"class.webrtc::AudioCodingModule"*, i32)** %13, align 8
  %15 = tail call i32 %14(%"class.webrtc::AudioCodingModule"* %10, i32 %6) #9
  ret void

; <label>:16:                                     ; preds = %2
  ret void
}

; Function Attrs: nounwind ssp uwtable
define internal i32 @_ZNK6webrtc3voe12_GLOBAL__N_114ChannelReceive19GetPlayoutTimestampEv(%"class.webrtc::voe::(anonymous namespace)::ChannelReceive"*) unnamed_addr #0 align 2 {
  %2 = alloca %"class.rtc::CritScope", align 8
  %3 = bitcast %"class.rtc::CritScope"* %2 to i8*
  call void @llvm.lifetime.start.p0i8(i64 8, i8* nonnull %3) #9
  %4 = getelementptr inbounds %"class.webrtc::voe::(anonymous namespace)::ChannelReceive", %"class.webrtc::voe::(anonymous namespace)::ChannelReceive"* %0, i64 0, i32 29
  call void @_ZN3rtc9CritScopeC1EPKNS_15CriticalSectionE(%"class.rtc::CritScope"* nonnull %2, %"class.rtc::CriticalSection"* nonnull %4) #9
  %5 = getelementptr inbounds %"class.webrtc::voe::(anonymous namespace)::ChannelReceive", %"class.webrtc::voe::(anonymous namespace)::ChannelReceive"* %0, i64 0, i32 30
  %6 = load i32, i32* %5, align 8
  call void @_ZN3rtc9CritScopeD1Ev(%"class.rtc::CritScope"* nonnull %2) #9
  call void @llvm.lifetime.end.p0i8(i64 8, i8* nonnull %3) #9
  ret i32 %6
}

; Function Attrs: nounwind ssp uwtable
define internal void @_ZNK6webrtc3voe12_GLOBAL__N_114ChannelReceive11GetSyncInfoEv(%"class.absl::optional.201"* noalias nocapture sret, %"class.webrtc::voe::(anonymous namespace)::ChannelReceive"*) unnamed_addr #0 align 2 {
  %3 = alloca %"struct.webrtc::Syncable::Info", align 8
  %4 = alloca %"class.rtc::CritScope", align 8
  %5 = bitcast %"struct.webrtc::Syncable::Info"* %3 to i8*
  call void @llvm.lifetime.start.p0i8(i64 32, i8* nonnull %5) #9
  call void @llvm.memset.p0i8.i64(i8* nonnull align 8 %5, i8 0, i64 28, i1 false) #9
  %6 = getelementptr inbounds %"class.webrtc::voe::(anonymous namespace)::ChannelReceive", %"class.webrtc::voe::(anonymous namespace)::ChannelReceive"* %1, i64 0, i32 15, i32 0, i32 0, i32 0
  %7 = load %"class.webrtc::RtpRtcp"*, %"class.webrtc::RtpRtcp"** %6, align 8
  %8 = getelementptr inbounds %"struct.webrtc::Syncable::Info", %"struct.webrtc::Syncable::Info"* %3, i64 0, i32 2
  %9 = getelementptr inbounds %"struct.webrtc::Syncable::Info", %"struct.webrtc::Syncable::Info"* %3, i64 0, i32 3
  %10 = getelementptr inbounds %"struct.webrtc::Syncable::Info", %"struct.webrtc::Syncable::Info"* %3, i64 0, i32 4
  %11 = bitcast %"class.webrtc::RtpRtcp"* %7 to i32 (%"class.webrtc::RtpRtcp"*, i32*, i32*, i32*, i32*, i32*)***
  %12 = load i32 (%"class.webrtc::RtpRtcp"*, i32*, i32*, i32*, i32*, i32*)**, i32 (%"class.webrtc::RtpRtcp"*, i32*, i32*, i32*, i32*, i32*)*** %11, align 8
  %13 = getelementptr inbounds i32 (%"class.webrtc::RtpRtcp"*, i32*, i32*, i32*, i32*, i32*)*, i32 (%"class.webrtc::RtpRtcp"*, i32*, i32*, i32*, i32*, i32*)** %12, i64 51
  %14 = load i32 (%"class.webrtc::RtpRtcp"*, i32*, i32*, i32*, i32*, i32*)*, i32 (%"class.webrtc::RtpRtcp"*, i32*, i32*, i32*, i32*, i32*)** %13, align 8
  %15 = call i32 %14(%"class.webrtc::RtpRtcp"* %7, i32* nonnull %8, i32* nonnull %9, i32* null, i32* null, i32* nonnull %10) #9
  %16 = icmp eq i32 %15, 0
  br i1 %16, label %20, label %17

; <label>:17:                                     ; preds = %2
  %18 = getelementptr inbounds %"class.absl::optional.201", %"class.absl::optional.201"* %0, i64 0, i32 0, i32 0, i32 0, i32 0
  store i8 0, i8* %18, align 8
  %19 = getelementptr inbounds %"class.absl::optional.201", %"class.absl::optional.201"* %0, i64 0, i32 0, i32 0, i32 0, i32 2, i32 0, i32 0, i64 0, i32 0
  call void @llvm.memset.p0i8.i64(i8* nonnull align 8 %19, i8 0, i64 32, i1 false) #9
  br label %42

; <label>:20:                                     ; preds = %2
  %21 = bitcast %"class.rtc::CritScope"* %4 to i8*
  call void @llvm.lifetime.start.p0i8(i64 8, i8* nonnull %21) #9
  %22 = getelementptr inbounds %"class.webrtc::voe::(anonymous namespace)::ChannelReceive", %"class.webrtc::voe::(anonymous namespace)::ChannelReceive"* %1, i64 0, i32 18
  call void @_ZN3rtc9CritScopeC1EPKNS_15CriticalSectionE(%"class.rtc::CritScope"* nonnull %4, %"class.rtc::CriticalSection"* nonnull %22) #9
  %23 = getelementptr inbounds %"class.webrtc::voe::(anonymous namespace)::ChannelReceive", %"class.webrtc::voe::(anonymous namespace)::ChannelReceive"* %1, i64 0, i32 20, i32 0, i32 0, i32 0, i32 0
  %24 = load i8, i8* %23, align 4, !range !7
  %25 = icmp eq i8 %24, 0
  br i1 %25, label %30, label %26

; <label>:26:                                     ; preds = %20
  %27 = getelementptr inbounds %"class.webrtc::voe::(anonymous namespace)::ChannelReceive", %"class.webrtc::voe::(anonymous namespace)::ChannelReceive"* %1, i64 0, i32 21, i32 0, i32 0, i32 0, i32 0
  %28 = load i8, i8* %27, align 8, !range !7
  %29 = icmp eq i8 %28, 0
  br i1 %29, label %30, label %33

; <label>:30:                                     ; preds = %26, %20
  %31 = getelementptr inbounds %"class.absl::optional.201", %"class.absl::optional.201"* %0, i64 0, i32 0, i32 0, i32 0, i32 0
  store i8 0, i8* %31, align 8
  %32 = getelementptr inbounds %"class.absl::optional.201", %"class.absl::optional.201"* %0, i64 0, i32 0, i32 0, i32 0, i32 2, i32 0, i32 0, i64 0, i32 0
  call void @llvm.memset.p0i8.i64(i8* nonnull align 8 %32, i8 0, i64 32, i1 false) #9
  call void @_ZN3rtc9CritScopeD1Ev(%"class.rtc::CritScope"* nonnull %4) #9
  call void @llvm.lifetime.end.p0i8(i64 8, i8* nonnull %21) #9
  br label %42

; <label>:33:                                     ; preds = %26
  %34 = getelementptr inbounds %"class.webrtc::voe::(anonymous namespace)::ChannelReceive", %"class.webrtc::voe::(anonymous namespace)::ChannelReceive"* %1, i64 0, i32 20, i32 0, i32 0, i32 0, i32 1, i32 0
  %35 = load i32, i32* %34, align 4
  %36 = getelementptr inbounds %"struct.webrtc::Syncable::Info", %"struct.webrtc::Syncable::Info"* %3, i64 0, i32 1
  store i32 %35, i32* %36, align 8
  %37 = getelementptr inbounds %"class.webrtc::voe::(anonymous namespace)::ChannelReceive", %"class.webrtc::voe::(anonymous namespace)::ChannelReceive"* %1, i64 0, i32 21, i32 0, i32 0, i32 0, i32 1, i32 0
  %38 = load i64, i64* %37, align 8
  %39 = getelementptr inbounds %"struct.webrtc::Syncable::Info", %"struct.webrtc::Syncable::Info"* %3, i64 0, i32 0
  store i64 %38, i64* %39, align 8
  call void @_ZN3rtc9CritScopeD1Ev(%"class.rtc::CritScope"* nonnull %4) #9
  call void @llvm.lifetime.end.p0i8(i64 8, i8* nonnull %21) #9
  %40 = getelementptr inbounds %"class.absl::optional.201", %"class.absl::optional.201"* %0, i64 0, i32 0, i32 0, i32 0, i32 0
  store i8 1, i8* %40, align 8
  %41 = getelementptr inbounds %"class.absl::optional.201", %"class.absl::optional.201"* %0, i64 0, i32 0, i32 0, i32 0, i32 2, i32 0, i32 0, i64 0, i32 0
  call void @llvm.memcpy.p0i8.p0i8.i64(i8* nonnull align 8 %41, i8* nonnull align 8 %5, i64 32, i1 false) #9
  br label %42

; <label>:42:                                     ; preds = %30, %33, %17
  call void @llvm.lifetime.end.p0i8(i64 32, i8* nonnull %5) #9
  ret void
}

; Function Attrs: nounwind ssp uwtable
define internal void @_ZN6webrtc3voe12_GLOBAL__N_114ChannelReceive12SetLocalSSRCEj(%"class.webrtc::voe::(anonymous namespace)::ChannelReceive"* nocapture readonly, i32) unnamed_addr #0 align 2 {
  %3 = getelementptr inbounds %"class.webrtc::voe::(anonymous namespace)::ChannelReceive", %"class.webrtc::voe::(anonymous namespace)::ChannelReceive"* %0, i64 0, i32 15, i32 0, i32 0, i32 0
  %4 = load %"class.webrtc::RtpRtcp"*, %"class.webrtc::RtpRtcp"** %3, align 8
  %5 = bitcast %"class.webrtc::RtpRtcp"* %4 to void (%"class.webrtc::RtpRtcp"*, i32)***
  %6 = load void (%"class.webrtc::RtpRtcp"*, i32)**, void (%"class.webrtc::RtpRtcp"*, i32)*** %5, align 8
  %7 = getelementptr inbounds void (%"class.webrtc::RtpRtcp"*, i32)*, void (%"class.webrtc::RtpRtcp"*, i32)** %6, i64 26
  %8 = load void (%"class.webrtc::RtpRtcp"*, i32)*, void (%"class.webrtc::RtpRtcp"*, i32)** %7, align 8
  tail call void %8(%"class.webrtc::RtpRtcp"* %4, i32 %1) #9
  ret void
}

; Function Attrs: nounwind ssp uwtable
define internal void @_ZN6webrtc3voe12_GLOBAL__N_114ChannelReceive40RegisterReceiverCongestionControlObjectsEPNS_12PacketRouterE(%"class.webrtc::voe::(anonymous namespace)::ChannelReceive"* nocapture, %"class.webrtc::PacketRouter"*) unnamed_addr #0 align 2 {
  %3 = getelementptr inbounds %"class.webrtc::voe::(anonymous namespace)::ChannelReceive", %"class.webrtc::voe::(anonymous namespace)::ChannelReceive"* %0, i64 0, i32 15, i32 0, i32 0, i32 0
  %4 = load %"class.webrtc::RtpRtcp"*, %"class.webrtc::RtpRtcp"** %3, align 8
  %5 = icmp eq %"class.webrtc::RtpRtcp"* %4, null
  %6 = getelementptr inbounds %"class.webrtc::RtpRtcp", %"class.webrtc::RtpRtcp"* %4, i64 0, i32 1
  %7 = select i1 %5, %"class.webrtc::RtcpFeedbackSenderInterface"* null, %"class.webrtc::RtcpFeedbackSenderInterface"* %6
  tail call void @_ZN6webrtc12PacketRouter19AddReceiveRtpModuleEPNS_27RtcpFeedbackSenderInterfaceEb(%"class.webrtc::PacketRouter"* %1, %"class.webrtc::RtcpFeedbackSenderInterface"* %7, i1 zeroext false) #9
  %8 = getelementptr inbounds %"class.webrtc::voe::(anonymous namespace)::ChannelReceive", %"class.webrtc::voe::(anonymous namespace)::ChannelReceive"* %0, i64 0, i32 42
  store %"class.webrtc::PacketRouter"* %1, %"class.webrtc::PacketRouter"** %8, align 8
  ret void
}

; Function Attrs: nounwind ssp uwtable
define internal void @_ZN6webrtc3voe12_GLOBAL__N_114ChannelReceive37ResetReceiverCongestionControlObjectsEv(%"class.webrtc::voe::(anonymous namespace)::ChannelReceive"* nocapture) unnamed_addr #0 align 2 {
  %2 = getelementptr inbounds %"class.webrtc::voe::(anonymous namespace)::ChannelReceive", %"class.webrtc::voe::(anonymous namespace)::ChannelReceive"* %0, i64 0, i32 42
  %3 = load %"class.webrtc::PacketRouter"*, %"class.webrtc::PacketRouter"** %2, align 8
  %4 = getelementptr inbounds %"class.webrtc::voe::(anonymous namespace)::ChannelReceive", %"class.webrtc::voe::(anonymous namespace)::ChannelReceive"* %0, i64 0, i32 15, i32 0, i32 0, i32 0
  %5 = load %"class.webrtc::RtpRtcp"*, %"class.webrtc::RtpRtcp"** %4, align 8
  %6 = icmp eq %"class.webrtc::RtpRtcp"* %5, null
  %7 = getelementptr inbounds %"class.webrtc::RtpRtcp", %"class.webrtc::RtpRtcp"* %5, i64 0, i32 1
  %8 = select i1 %6, %"class.webrtc::RtcpFeedbackSenderInterface"* null, %"class.webrtc::RtcpFeedbackSenderInterface"* %7
  tail call void @_ZN6webrtc12PacketRouter22RemoveReceiveRtpModuleEPNS_27RtcpFeedbackSenderInterfaceE(%"class.webrtc::PacketRouter"* %3, %"class.webrtc::RtcpFeedbackSenderInterface"* %8) #9
  store %"class.webrtc::PacketRouter"* null, %"class.webrtc::PacketRouter"** %2, align 8
  ret void
}

; Function Attrs: nounwind ssp uwtable
define internal void @_ZNK6webrtc3voe12_GLOBAL__N_114ChannelReceive17GetRTCPStatisticsEv(%"struct.webrtc::CallReceiveStatistics"* noalias nocapture sret, %"class.webrtc::voe::(anonymous namespace)::ChannelReceive"*) unnamed_addr #0 align 2 {
  %3 = alloca %"struct.webrtc::RtcpStatistics", align 4
  %4 = alloca i64, align 8
  %5 = alloca i32, align 4
  %6 = alloca %"class.rtc::CritScope", align 8
  %7 = getelementptr inbounds %"struct.webrtc::RtcpStatistics", %"struct.webrtc::RtcpStatistics"* %3, i64 0, i32 0
  call void @llvm.lifetime.start.p0i8(i64 16, i8* nonnull %7) #9
  store i8 0, i8* %7, align 4
  %8 = getelementptr inbounds %"struct.webrtc::RtcpStatistics", %"struct.webrtc::RtcpStatistics"* %3, i64 0, i32 1
  store i32 0, i32* %8, align 4
  %9 = getelementptr inbounds %"struct.webrtc::RtcpStatistics", %"struct.webrtc::RtcpStatistics"* %3, i64 0, i32 2
  store i32 0, i32* %9, align 4
  %10 = getelementptr inbounds %"struct.webrtc::RtcpStatistics", %"struct.webrtc::RtcpStatistics"* %3, i64 0, i32 3
  store i32 0, i32* %10, align 4
  %11 = getelementptr inbounds %"class.webrtc::voe::(anonymous namespace)::ChannelReceive", %"class.webrtc::voe::(anonymous namespace)::ChannelReceive"* %1, i64 0, i32 14, i32 0, i32 0, i32 0
  %12 = load %"class.webrtc::ReceiveStatistics"*, %"class.webrtc::ReceiveStatistics"** %11, align 8
  %13 = getelementptr inbounds %"class.webrtc::voe::(anonymous namespace)::ChannelReceive", %"class.webrtc::voe::(anonymous namespace)::ChannelReceive"* %1, i64 0, i32 16
  %14 = load i32, i32* %13, align 8
  %15 = bitcast %"class.webrtc::ReceiveStatistics"* %12 to %"class.webrtc::StreamStatistician"* (%"class.webrtc::ReceiveStatistics"*, i32)***
  %16 = load %"class.webrtc::StreamStatistician"* (%"class.webrtc::ReceiveStatistics"*, i32)**, %"class.webrtc::StreamStatistician"* (%"class.webrtc::ReceiveStatistics"*, i32)*** %15, align 8
  %17 = getelementptr inbounds %"class.webrtc::StreamStatistician"* (%"class.webrtc::ReceiveStatistics"*, i32)*, %"class.webrtc::StreamStatistician"* (%"class.webrtc::ReceiveStatistics"*, i32)** %16, i64 4
  %18 = load %"class.webrtc::StreamStatistician"* (%"class.webrtc::ReceiveStatistics"*, i32)*, %"class.webrtc::StreamStatistician"* (%"class.webrtc::ReceiveStatistics"*, i32)** %17, align 8
  %19 = tail call %"class.webrtc::StreamStatistician"* %18(%"class.webrtc::ReceiveStatistics"* %12, i32 %14) #9
  %20 = icmp ne %"class.webrtc::StreamStatistician"* %19, null
  br i1 %20, label %21, label %40

; <label>:21:                                     ; preds = %2
  %22 = getelementptr inbounds %"class.webrtc::voe::(anonymous namespace)::ChannelReceive", %"class.webrtc::voe::(anonymous namespace)::ChannelReceive"* %1, i64 0, i32 15, i32 0, i32 0, i32 0
  %23 = load %"class.webrtc::RtpRtcp"*, %"class.webrtc::RtpRtcp"** %22, align 8
  %24 = bitcast %"class.webrtc::RtpRtcp"* %23 to i32 (%"class.webrtc::RtpRtcp"*)***
  %25 = load i32 (%"class.webrtc::RtpRtcp"*)**, i32 (%"class.webrtc::RtpRtcp"*)*** %24, align 8
  %26 = getelementptr inbounds i32 (%"class.webrtc::RtpRtcp"*)*, i32 (%"class.webrtc::RtpRtcp"*)** %25, i64 47
  %27 = load i32 (%"class.webrtc::RtpRtcp"*)*, i32 (%"class.webrtc::RtpRtcp"*)** %26, align 8
  %28 = tail call i32 %27(%"class.webrtc::RtpRtcp"* %23) #9
  %29 = icmp eq i32 %28, 0
  %30 = bitcast %"class.webrtc::StreamStatistician"* %19 to i1 (%"class.webrtc::StreamStatistician"*, %"struct.webrtc::RtcpStatistics"*, i1)***
  %31 = load i1 (%"class.webrtc::StreamStatistician"*, %"struct.webrtc::RtcpStatistics"*, i1)**, i1 (%"class.webrtc::StreamStatistician"*, %"struct.webrtc::RtcpStatistics"*, i1)*** %30, align 8
  %32 = getelementptr inbounds i1 (%"class.webrtc::StreamStatistician"*, %"struct.webrtc::RtcpStatistics"*, i1)*, i1 (%"class.webrtc::StreamStatistician"*, %"struct.webrtc::RtcpStatistics"*, i1)** %31, i64 2
  %33 = load i1 (%"class.webrtc::StreamStatistician"*, %"struct.webrtc::RtcpStatistics"*, i1)*, i1 (%"class.webrtc::StreamStatistician"*, %"struct.webrtc::RtcpStatistics"*, i1)** %32, align 8
  %34 = call zeroext i1 %33(%"class.webrtc::StreamStatistician"* nonnull %19, %"struct.webrtc::RtcpStatistics"* nonnull %3, i1 zeroext %29) #9
  %35 = load i8, i8* %7, align 4
  %36 = load i32, i32* %8, align 4
  %37 = load i32, i32* %9, align 4
  %38 = load i32, i32* %10, align 4
  %39 = zext i8 %35 to i16
  br label %40

; <label>:40:                                     ; preds = %21, %2
  %41 = phi i32 [ %38, %21 ], [ 0, %2 ]
  %42 = phi i32 [ %37, %21 ], [ 0, %2 ]
  %43 = phi i32 [ %36, %21 ], [ 0, %2 ]
  %44 = phi i16 [ %39, %21 ], [ 0, %2 ]
  %45 = getelementptr inbounds %"struct.webrtc::CallReceiveStatistics", %"struct.webrtc::CallReceiveStatistics"* %0, i64 0, i32 0
  store i16 %44, i16* %45, align 8
  %46 = getelementptr inbounds %"struct.webrtc::CallReceiveStatistics", %"struct.webrtc::CallReceiveStatistics"* %0, i64 0, i32 1
  store i32 %43, i32* %46, align 4
  %47 = getelementptr inbounds %"struct.webrtc::CallReceiveStatistics", %"struct.webrtc::CallReceiveStatistics"* %0, i64 0, i32 2
  store i32 %42, i32* %47, align 8
  %48 = getelementptr inbounds %"struct.webrtc::CallReceiveStatistics", %"struct.webrtc::CallReceiveStatistics"* %0, i64 0, i32 3
  store i32 %41, i32* %48, align 4
  %49 = call fastcc i64 @_ZNK6webrtc3voe12_GLOBAL__N_114ChannelReceive6GetRTTEv(%"class.webrtc::voe::(anonymous namespace)::ChannelReceive"* nonnull %1)
  %50 = getelementptr inbounds %"struct.webrtc::CallReceiveStatistics", %"struct.webrtc::CallReceiveStatistics"* %0, i64 0, i32 4
  store i64 %49, i64* %50, align 8
  %51 = bitcast i64* %4 to i8*
  call void @llvm.lifetime.start.p0i8(i64 8, i8* nonnull %51) #9
  store i64 0, i64* %4, align 8
  %52 = bitcast i32* %5 to i8*
  call void @llvm.lifetime.start.p0i8(i64 4, i8* nonnull %52) #9
  store i32 0, i32* %5, align 4
  br i1 %20, label %53, label %60

; <label>:53:                                     ; preds = %40
  %54 = bitcast %"class.webrtc::StreamStatistician"* %19 to void (%"class.webrtc::StreamStatistician"*, i64*, i32*)***
  %55 = load void (%"class.webrtc::StreamStatistician"*, i64*, i32*)**, void (%"class.webrtc::StreamStatistician"*, i64*, i32*)*** %54, align 8
  %56 = getelementptr inbounds void (%"class.webrtc::StreamStatistician"*, i64*, i32*)*, void (%"class.webrtc::StreamStatistician"*, i64*, i32*)** %55, i64 3
  %57 = load void (%"class.webrtc::StreamStatistician"*, i64*, i32*)*, void (%"class.webrtc::StreamStatistician"*, i64*, i32*)** %56, align 8
  call void %57(%"class.webrtc::StreamStatistician"* nonnull %19, i64* nonnull %4, i32* nonnull %5) #9
  %58 = load i64, i64* %4, align 8
  %59 = load i32, i32* %5, align 4
  br label %60

; <label>:60:                                     ; preds = %53, %40
  %61 = phi i32 [ %59, %53 ], [ 0, %40 ]
  %62 = phi i64 [ %58, %53 ], [ 0, %40 ]
  %63 = getelementptr inbounds %"struct.webrtc::CallReceiveStatistics", %"struct.webrtc::CallReceiveStatistics"* %0, i64 0, i32 5
  store i64 %62, i64* %63, align 8
  %64 = getelementptr inbounds %"struct.webrtc::CallReceiveStatistics", %"struct.webrtc::CallReceiveStatistics"* %0, i64 0, i32 6
  store i32 %61, i32* %64, align 8
  %65 = bitcast %"class.rtc::CritScope"* %6 to i8*
  call void @llvm.lifetime.start.p0i8(i64 8, i8* nonnull %65) #9
  %66 = getelementptr inbounds %"class.webrtc::voe::(anonymous namespace)::ChannelReceive", %"class.webrtc::voe::(anonymous namespace)::ChannelReceive"* %1, i64 0, i32 32
  call void @_ZN3rtc9CritScopeC1EPKNS_15CriticalSectionE(%"class.rtc::CritScope"* nonnull %6, %"class.rtc::CriticalSection"* nonnull %66) #9
  %67 = getelementptr inbounds %"class.webrtc::voe::(anonymous namespace)::ChannelReceive", %"class.webrtc::voe::(anonymous namespace)::ChannelReceive"* %1, i64 0, i32 35
  %68 = load i64, i64* %67, align 8
  %69 = getelementptr inbounds %"struct.webrtc::CallReceiveStatistics", %"struct.webrtc::CallReceiveStatistics"* %0, i64 0, i32 7
  store i64 %68, i64* %69, align 8
  call void @_ZN3rtc9CritScopeD1Ev(%"class.rtc::CritScope"* nonnull %6) #9
  call void @llvm.lifetime.end.p0i8(i64 8, i8* nonnull %65) #9
  call void @llvm.lifetime.end.p0i8(i64 4, i8* nonnull %52) #9
  call void @llvm.lifetime.end.p0i8(i64 8, i8* nonnull %51) #9
  call void @llvm.lifetime.end.p0i8(i64 16, i8* nonnull %7) #9
  ret void
}

; Function Attrs: nounwind ssp uwtable
define internal void @_ZN6webrtc3voe12_GLOBAL__N_114ChannelReceive13SetNACKStatusEbi(%"class.webrtc::voe::(anonymous namespace)::ChannelReceive"* nocapture readonly, i1 zeroext, i32) unnamed_addr #0 align 2 {
  %4 = getelementptr inbounds %"class.webrtc::voe::(anonymous namespace)::ChannelReceive", %"class.webrtc::voe::(anonymous namespace)::ChannelReceive"* %0, i64 0, i32 14, i32 0, i32 0, i32 0
  %5 = load %"class.webrtc::ReceiveStatistics"*, %"class.webrtc::ReceiveStatistics"** %4, align 8
  %6 = bitcast %"class.webrtc::ReceiveStatistics"* %5 to void (%"class.webrtc::ReceiveStatistics"*, i32)***
  %7 = load void (%"class.webrtc::ReceiveStatistics"*, i32)**, void (%"class.webrtc::ReceiveStatistics"*, i32)*** %6, align 8
  %8 = getelementptr inbounds void (%"class.webrtc::ReceiveStatistics"*, i32)*, void (%"class.webrtc::ReceiveStatistics"*, i32)** %7, i64 5
  %9 = load void (%"class.webrtc::ReceiveStatistics"*, i32)*, void (%"class.webrtc::ReceiveStatistics"*, i32)** %8, align 8
  br i1 %1, label %10, label %19

; <label>:10:                                     ; preds = %3
  tail call void %9(%"class.webrtc::ReceiveStatistics"* %5, i32 %2) #9
  %11 = getelementptr inbounds %"class.webrtc::voe::(anonymous namespace)::ChannelReceive", %"class.webrtc::voe::(anonymous namespace)::ChannelReceive"* %0, i64 0, i32 24, i32 0, i32 0, i32 0
  %12 = load %"class.webrtc::AudioCodingModule"*, %"class.webrtc::AudioCodingModule"** %11, align 8
  %13 = sext i32 %2 to i64
  %14 = bitcast %"class.webrtc::AudioCodingModule"* %12 to i32 (%"class.webrtc::AudioCodingModule"*, i64)***
  %15 = load i32 (%"class.webrtc::AudioCodingModule"*, i64)**, i32 (%"class.webrtc::AudioCodingModule"*, i64)*** %14, align 8
  %16 = getelementptr inbounds i32 (%"class.webrtc::AudioCodingModule"*, i64)*, i32 (%"class.webrtc::AudioCodingModule"*, i64)** %15, i64 24
  %17 = load i32 (%"class.webrtc::AudioCodingModule"*, i64)*, i32 (%"class.webrtc::AudioCodingModule"*, i64)** %16, align 8
  %18 = tail call i32 %17(%"class.webrtc::AudioCodingModule"* %12, i64 %13) #9
  br label %26

; <label>:19:                                     ; preds = %3
  tail call void %9(%"class.webrtc::ReceiveStatistics"* %5, i32 50) #9
  %20 = getelementptr inbounds %"class.webrtc::voe::(anonymous namespace)::ChannelReceive", %"class.webrtc::voe::(anonymous namespace)::ChannelReceive"* %0, i64 0, i32 24, i32 0, i32 0, i32 0
  %21 = load %"class.webrtc::AudioCodingModule"*, %"class.webrtc::AudioCodingModule"** %20, align 8
  %22 = bitcast %"class.webrtc::AudioCodingModule"* %21 to void (%"class.webrtc::AudioCodingModule"*)***
  %23 = load void (%"class.webrtc::AudioCodingModule"*)**, void (%"class.webrtc::AudioCodingModule"*)*** %22, align 8
  %24 = getelementptr inbounds void (%"class.webrtc::AudioCodingModule"*)*, void (%"class.webrtc::AudioCodingModule"*)** %23, i64 25
  %25 = load void (%"class.webrtc::AudioCodingModule"*)*, void (%"class.webrtc::AudioCodingModule"*)** %24, align 8
  tail call void %25(%"class.webrtc::AudioCodingModule"* %21) #9
  br label %26

; <label>:26:                                     ; preds = %19, %10
  ret void
}

; Function Attrs: nounwind ssp uwtable
define internal i32 @_ZN6webrtc3voe12_GLOBAL__N_114ChannelReceive21GetAudioFrameWithInfoEiPNS_10AudioFrameE(%"class.webrtc::voe::(anonymous namespace)::ChannelReceive"*, i32, %"class.webrtc::AudioFrame"*) unnamed_addr #0 align 2 {
  %4 = alloca %"class.absl::optional.184", align 8
  %5 = alloca %"class.std::__1::unique_ptr.288", align 8
  %6 = alloca i8, align 1
  %7 = alloca %"class.rtc::CritScope", align 8
  %8 = alloca %"struct.webrtc::AudioSinkInterface::Data", align 8
  %9 = alloca %"class.rtc::CritScope", align 8
  %10 = alloca %"class.rtc::CritScope", align 8
  %11 = alloca %"class.std::__1::basic_string", align 8
  %12 = alloca %"class.rtc::CritScope", align 8
  %13 = alloca %"class.std::__1::basic_string", align 8
  %14 = alloca %"class.std::__1::basic_string", align 8
  %15 = alloca %"class.std::__1::basic_string", align 8
  %16 = getelementptr inbounds %"class.webrtc::AudioFrame", %"class.webrtc::AudioFrame"* %2, i64 0, i32 5
  store i32 %1, i32* %16, align 8
  %17 = getelementptr inbounds %"class.webrtc::voe::(anonymous namespace)::ChannelReceive", %"class.webrtc::voe::(anonymous namespace)::ChannelReceive"* %0, i64 0, i32 12
  %18 = load %"class.webrtc::RtcEventLog"*, %"class.webrtc::RtcEventLog"** %17, align 8
  %19 = getelementptr inbounds %"class.webrtc::voe::(anonymous namespace)::ChannelReceive", %"class.webrtc::voe::(anonymous namespace)::ChannelReceive"* %0, i64 0, i32 16
  %20 = tail call i8* @_Znwm(i64 24) #8, !noalias !11
  %21 = bitcast i8* %20 to %"class.webrtc::RtcEventAudioPlayout"*
  %22 = load i32, i32* %19, align 4, !noalias !11
  tail call void @_ZN6webrtc20RtcEventAudioPlayoutC1Ej(%"class.webrtc::RtcEventAudioPlayout"* nonnull %21, i32 %22) #9, !noalias !11
  %23 = ptrtoint i8* %20 to i64
  %24 = bitcast %"class.std::__1::unique_ptr.288"* %5 to i64*
  store i64 %23, i64* %24, align 8
  %25 = bitcast %"class.webrtc::RtcEventLog"* %18 to void (%"class.webrtc::RtcEventLog"*, %"class.std::__1::unique_ptr.288"*)***
  %26 = load void (%"class.webrtc::RtcEventLog"*, %"class.std::__1::unique_ptr.288"*)**, void (%"class.webrtc::RtcEventLog"*, %"class.std::__1::unique_ptr.288"*)*** %25, align 8
  %27 = getelementptr inbounds void (%"class.webrtc::RtcEventLog"*, %"class.std::__1::unique_ptr.288"*)*, void (%"class.webrtc::RtcEventLog"*, %"class.std::__1::unique_ptr.288"*)** %26, i64 4
  %28 = load void (%"class.webrtc::RtcEventLog"*, %"class.std::__1::unique_ptr.288"*)*, void (%"class.webrtc::RtcEventLog"*, %"class.std::__1::unique_ptr.288"*)** %27, align 8
  call void %28(%"class.webrtc::RtcEventLog"* %18, %"class.std::__1::unique_ptr.288"* nonnull %5) #9
  %29 = getelementptr inbounds %"class.std::__1::unique_ptr.288", %"class.std::__1::unique_ptr.288"* %5, i64 0, i32 0, i32 0, i32 0
  %30 = load %"class.webrtc::RtcEvent"*, %"class.webrtc::RtcEvent"** %29, align 8
  store %"class.webrtc::RtcEvent"* null, %"class.webrtc::RtcEvent"** %29, align 8
  %31 = icmp eq %"class.webrtc::RtcEvent"* %30, null
  br i1 %31, label %37, label %32

; <label>:32:                                     ; preds = %3
  %33 = bitcast %"class.webrtc::RtcEvent"* %30 to void (%"class.webrtc::RtcEvent"*)***
  %34 = load void (%"class.webrtc::RtcEvent"*)**, void (%"class.webrtc::RtcEvent"*)*** %33, align 8
  %35 = getelementptr inbounds void (%"class.webrtc::RtcEvent"*)*, void (%"class.webrtc::RtcEvent"*)** %34, i64 1
  %36 = load void (%"class.webrtc::RtcEvent"*)*, void (%"class.webrtc::RtcEvent"*)** %35, align 8
  call void %36(%"class.webrtc::RtcEvent"* nonnull %30) #9
  br label %37

; <label>:37:                                     ; preds = %32, %3
  call void @llvm.lifetime.start.p0i8(i64 1, i8* nonnull %6) #9
  %38 = getelementptr inbounds %"class.webrtc::voe::(anonymous namespace)::ChannelReceive", %"class.webrtc::voe::(anonymous namespace)::ChannelReceive"* %0, i64 0, i32 24, i32 0, i32 0, i32 0
  %39 = load %"class.webrtc::AudioCodingModule"*, %"class.webrtc::AudioCodingModule"** %38, align 8
  %40 = load i32, i32* %16, align 8
  %41 = bitcast %"class.webrtc::AudioCodingModule"* %39 to i32 (%"class.webrtc::AudioCodingModule"*, i32, %"class.webrtc::AudioFrame"*, i8*)***
  %42 = load i32 (%"class.webrtc::AudioCodingModule"*, i32, %"class.webrtc::AudioFrame"*, i8*)**, i32 (%"class.webrtc::AudioCodingModule"*, i32, %"class.webrtc::AudioFrame"*, i8*)*** %41, align 8
  %43 = getelementptr inbounds i32 (%"class.webrtc::AudioCodingModule"*, i32, %"class.webrtc::AudioFrame"*, i8*)*, i32 (%"class.webrtc::AudioCodingModule"*, i32, %"class.webrtc::AudioFrame"*, i8*)** %42, i64 19
  %44 = load i32 (%"class.webrtc::AudioCodingModule"*, i32, %"class.webrtc::AudioFrame"*, i8*)*, i32 (%"class.webrtc::AudioCodingModule"*, i32, %"class.webrtc::AudioFrame"*, i8*)** %43, align 8
  %45 = call i32 %44(%"class.webrtc::AudioCodingModule"* %39, i32 %40, %"class.webrtc::AudioFrame"* nonnull %2, i8* nonnull %6) #9
  %46 = icmp eq i32 %45, -1
  br i1 %46, label %265, label %47

; <label>:47:                                     ; preds = %37
  %48 = load i8, i8* %6, align 1, !range !7
  %49 = icmp eq i8 %48, 0
  br i1 %49, label %51, label %50

; <label>:50:                                     ; preds = %47
  call void @_ZN6webrtc20AudioFrameOperations4MuteEPNS_10AudioFrameE(%"class.webrtc::AudioFrame"* nonnull %2) #9
  br label %51

; <label>:51:                                     ; preds = %47, %50
  %52 = bitcast %"class.rtc::CritScope"* %7 to i8*
  call void @llvm.lifetime.start.p0i8(i64 8, i8* nonnull %52) #9
  %53 = getelementptr inbounds %"class.webrtc::voe::(anonymous namespace)::ChannelReceive", %"class.webrtc::voe::(anonymous namespace)::ChannelReceive"* %0, i64 0, i32 7
  call void @_ZN3rtc9CritScopeC1EPKNS_15CriticalSectionE(%"class.rtc::CritScope"* nonnull %7, %"class.rtc::CriticalSection"* nonnull %53) #9
  %54 = getelementptr inbounds %"class.webrtc::voe::(anonymous namespace)::ChannelReceive", %"class.webrtc::voe::(anonymous namespace)::ChannelReceive"* %0, i64 0, i32 25
  %55 = load %"class.webrtc::AudioSinkInterface"*, %"class.webrtc::AudioSinkInterface"** %54, align 8
  %56 = icmp eq %"class.webrtc::AudioSinkInterface"* %55, null
  br i1 %56, label %77, label %57

; <label>:57:                                     ; preds = %51
  %58 = bitcast %"struct.webrtc::AudioSinkInterface::Data"* %8 to i8*
  call void @llvm.lifetime.start.p0i8(i64 40, i8* nonnull %58) #9
  %59 = call i16* @_ZNK6webrtc10AudioFrame4dataEv(%"class.webrtc::AudioFrame"* nonnull %2) #9
  %60 = getelementptr inbounds %"class.webrtc::AudioFrame", %"class.webrtc::AudioFrame"* %2, i64 0, i32 4
  %61 = load i64, i64* %60, align 8
  %62 = load i32, i32* %16, align 8
  %63 = getelementptr inbounds %"class.webrtc::AudioFrame", %"class.webrtc::AudioFrame"* %2, i64 0, i32 7
  %64 = load i64, i64* %63, align 8
  %65 = getelementptr inbounds %"class.webrtc::AudioFrame", %"class.webrtc::AudioFrame"* %2, i64 0, i32 0
  %66 = load i32, i32* %65, align 8
  %67 = getelementptr inbounds %"struct.webrtc::AudioSinkInterface::Data", %"struct.webrtc::AudioSinkInterface::Data"* %8, i64 0, i32 0
  store i16* %59, i16** %67, align 8
  %68 = getelementptr inbounds %"struct.webrtc::AudioSinkInterface::Data", %"struct.webrtc::AudioSinkInterface::Data"* %8, i64 0, i32 1
  store i64 %61, i64* %68, align 8
  %69 = getelementptr inbounds %"struct.webrtc::AudioSinkInterface::Data", %"struct.webrtc::AudioSinkInterface::Data"* %8, i64 0, i32 2
  store i32 %62, i32* %69, align 8
  %70 = getelementptr inbounds %"struct.webrtc::AudioSinkInterface::Data", %"struct.webrtc::AudioSinkInterface::Data"* %8, i64 0, i32 4
  store i64 %64, i64* %70, align 8
  %71 = getelementptr inbounds %"struct.webrtc::AudioSinkInterface::Data", %"struct.webrtc::AudioSinkInterface::Data"* %8, i64 0, i32 5
  store i32 %66, i32* %71, align 8
  %72 = load %"class.webrtc::AudioSinkInterface"*, %"class.webrtc::AudioSinkInterface"** %54, align 8
  %73 = bitcast %"class.webrtc::AudioSinkInterface"* %72 to void (%"class.webrtc::AudioSinkInterface"*, %"struct.webrtc::AudioSinkInterface::Data"*)***
  %74 = load void (%"class.webrtc::AudioSinkInterface"*, %"struct.webrtc::AudioSinkInterface::Data"*)**, void (%"class.webrtc::AudioSinkInterface"*, %"struct.webrtc::AudioSinkInterface::Data"*)*** %73, align 8
  %75 = getelementptr inbounds void (%"class.webrtc::AudioSinkInterface"*, %"struct.webrtc::AudioSinkInterface::Data"*)*, void (%"class.webrtc::AudioSinkInterface"*, %"struct.webrtc::AudioSinkInterface::Data"*)** %74, i64 2
  %76 = load void (%"class.webrtc::AudioSinkInterface"*, %"struct.webrtc::AudioSinkInterface::Data"*)*, void (%"class.webrtc::AudioSinkInterface"*, %"struct.webrtc::AudioSinkInterface::Data"*)** %75, align 8
  call void %76(%"class.webrtc::AudioSinkInterface"* %72, %"struct.webrtc::AudioSinkInterface::Data"* nonnull dereferenceable(40) %8) #9
  call void @llvm.lifetime.end.p0i8(i64 40, i8* nonnull %58) #9
  br label %77

; <label>:77:                                     ; preds = %51, %57
  call void @_ZN3rtc9CritScopeD1Ev(%"class.rtc::CritScope"* nonnull %7) #9
  call void @llvm.lifetime.end.p0i8(i64 8, i8* nonnull %52) #9
  %78 = bitcast %"class.rtc::CritScope"* %9 to i8*
  call void @llvm.lifetime.start.p0i8(i64 8, i8* nonnull %78) #9
  %79 = getelementptr inbounds %"class.webrtc::voe::(anonymous namespace)::ChannelReceive", %"class.webrtc::voe::(anonymous namespace)::ChannelReceive"* %0, i64 0, i32 8
  call void @_ZN3rtc9CritScopeC1EPKNS_15CriticalSectionE(%"class.rtc::CritScope"* nonnull %9, %"class.rtc::CriticalSection"* nonnull %79) #9
  %80 = getelementptr inbounds %"class.webrtc::voe::(anonymous namespace)::ChannelReceive", %"class.webrtc::voe::(anonymous namespace)::ChannelReceive"* %0, i64 0, i32 38
  %81 = load float, float* %80, align 8
  call void @_ZN3rtc9CritScopeD1Ev(%"class.rtc::CritScope"* nonnull %9) #9
  call void @llvm.lifetime.end.p0i8(i64 8, i8* nonnull %78) #9
  %82 = fcmp olt float %81, 0x3FEFAE1480000000
  %83 = fcmp ogt float %81, 0x3FF028F5C0000000
  %84 = or i1 %82, %83
  br i1 %84, label %85, label %87

; <label>:85:                                     ; preds = %77
  %86 = call i32 @_ZN6webrtc20AudioFrameOperations12ScaleWithSatEfPNS_10AudioFrameE(float %81, %"class.webrtc::AudioFrame"* nonnull %2) #9
  br label %87

; <label>:87:                                     ; preds = %77, %85
  %88 = getelementptr inbounds %"class.webrtc::voe::(anonymous namespace)::ChannelReceive", %"class.webrtc::voe::(anonymous namespace)::ChannelReceive"* %0, i64 0, i32 26
  call void @_ZN6webrtc3voe10AudioLevel12ComputeLevelERKNS_10AudioFrameEd(%"class.webrtc::voe::AudioLevel"* nonnull %88, %"class.webrtc::AudioFrame"* nonnull dereferenceable(15432) %2, double 1.000000e-02) #9
  %89 = getelementptr inbounds %"class.webrtc::voe::(anonymous namespace)::ChannelReceive", %"class.webrtc::voe::(anonymous namespace)::ChannelReceive"* %0, i64 0, i32 34
  %90 = load i64, i64* %89, align 8
  %91 = icmp slt i64 %90, 0
  %92 = getelementptr inbounds %"class.webrtc::AudioFrame", %"class.webrtc::AudioFrame"* %2, i64 0, i32 0
  br i1 %91, label %93, label %98

; <label>:93:                                     ; preds = %87
  %94 = load i32, i32* %92, align 8
  %95 = icmp eq i32 %94, 0
  br i1 %95, label %147, label %96

; <label>:96:                                     ; preds = %93
  %97 = zext i32 %94 to i64
  store i64 %97, i64* %89, align 8
  br label %98

; <label>:98:                                     ; preds = %87, %96
  %99 = getelementptr inbounds %"class.webrtc::voe::(anonymous namespace)::ChannelReceive", %"class.webrtc::voe::(anonymous namespace)::ChannelReceive"* %0, i64 0, i32 33, i32 0, i32 0, i32 0
  %100 = load %"class.rtc::TimestampWrapAroundHandler"*, %"class.rtc::TimestampWrapAroundHandler"** %99, align 8
  %101 = load i32, i32* %92, align 8
  %102 = call i64 @_ZN3rtc26TimestampWrapAroundHandler6UnwrapEj(%"class.rtc::TimestampWrapAroundHandler"* %100, i32 %101) #9
  %103 = load i64, i64* %89, align 8
  %104 = sub nsw i64 %102, %103
  %105 = getelementptr inbounds %"class.absl::optional.184", %"class.absl::optional.184"* %4, i64 0, i32 0, i32 0, i32 0, i32 0
  call void @llvm.lifetime.start.p0i8(i64 80, i8* nonnull %105) #9
  %106 = load %"class.webrtc::AudioCodingModule"*, %"class.webrtc::AudioCodingModule"** %38, align 8
  %107 = bitcast %"class.webrtc::AudioCodingModule"* %106 to void (%"class.absl::optional.184"*, %"class.webrtc::AudioCodingModule"*)***
  %108 = load void (%"class.absl::optional.184"*, %"class.webrtc::AudioCodingModule"*)**, void (%"class.absl::optional.184"*, %"class.webrtc::AudioCodingModule"*)*** %107, align 8
  %109 = getelementptr inbounds void (%"class.absl::optional.184"*, %"class.webrtc::AudioCodingModule"*)*, void (%"class.absl::optional.184"*, %"class.webrtc::AudioCodingModule"*)** %108, i64 12
  %110 = load void (%"class.absl::optional.184"*, %"class.webrtc::AudioCodingModule"*)*, void (%"class.absl::optional.184"*, %"class.webrtc::AudioCodingModule"*)** %109, align 8
  call void %110(%"class.absl::optional.184"* nonnull sret %4, %"class.webrtc::AudioCodingModule"* %106) #9
  %111 = load i8, i8* %105, align 8, !range !7
  %112 = icmp eq i8 %111, 0
  br i1 %112, label %117, label %113

; <label>:113:                                    ; preds = %98
  %114 = getelementptr inbounds %"class.absl::optional.184", %"class.absl::optional.184"* %4, i64 0, i32 0, i32 0, i32 0, i32 1, i32 0, i32 1, i32 1
  %115 = load i32, i32* %114, align 8
  %116 = icmp eq i32 %115, 0
  br i1 %116, label %117, label %126

; <label>:117:                                    ; preds = %113, %98
  %118 = load %"class.webrtc::AudioCodingModule"*, %"class.webrtc::AudioCodingModule"** %38, align 8
  %119 = bitcast %"class.webrtc::AudioCodingModule"* %118 to i32 (%"class.webrtc::AudioCodingModule"*)***
  %120 = load i32 (%"class.webrtc::AudioCodingModule"*)**, i32 (%"class.webrtc::AudioCodingModule"*)*** %119, align 8
  %121 = getelementptr inbounds i32 (%"class.webrtc::AudioCodingModule"*)*, i32 (%"class.webrtc::AudioCodingModule"*)** %120, i64 10
  %122 = load i32 (%"class.webrtc::AudioCodingModule"*)*, i32 (%"class.webrtc::AudioCodingModule"*)** %121, align 8
  %123 = call i32 %122(%"class.webrtc::AudioCodingModule"* %118) #9
  %124 = load i8, i8* %105, align 8, !range !7
  %125 = icmp eq i8 %124, 0
  br i1 %125, label %129, label %126

; <label>:126:                                    ; preds = %117, %113
  %127 = phi i32 [ %123, %117 ], [ %115, %113 ]
  %128 = getelementptr inbounds %"class.absl::optional.184", %"class.absl::optional.184"* %4, i64 0, i32 0, i32 0, i32 0, i32 1, i32 0, i32 1
  call void @_ZN6webrtc14SdpAudioFormatD1Ev(%"struct.webrtc::SdpAudioFormat"* nonnull %128) #9
  store i8 0, i8* %105, align 8
  br label %129

; <label>:129:                                    ; preds = %117, %126
  %130 = phi i32 [ %123, %117 ], [ %127, %126 ]
  call void @llvm.lifetime.end.p0i8(i64 80, i8* nonnull %105) #9
  %131 = sdiv i32 %130, 1000
  %132 = sext i32 %131 to i64
  %133 = sdiv i64 %104, %132
  %134 = getelementptr inbounds %"class.webrtc::AudioFrame", %"class.webrtc::AudioFrame"* %2, i64 0, i32 2
  store i64 %133, i64* %134, align 8
  %135 = bitcast %"class.rtc::CritScope"* %10 to i8*
  call void @llvm.lifetime.start.p0i8(i64 8, i8* nonnull %135) #9
  %136 = getelementptr inbounds %"class.webrtc::voe::(anonymous namespace)::ChannelReceive", %"class.webrtc::voe::(anonymous namespace)::ChannelReceive"* %0, i64 0, i32 32
  call void @_ZN3rtc9CritScopeC1EPKNS_15CriticalSectionE(%"class.rtc::CritScope"* nonnull %10, %"class.rtc::CriticalSection"* nonnull %136) #9
  %137 = getelementptr inbounds %"class.webrtc::voe::(anonymous namespace)::ChannelReceive", %"class.webrtc::voe::(anonymous namespace)::ChannelReceive"* %0, i64 0, i32 27
  %138 = load i32, i32* %92, align 8
  %139 = call i64 @_ZN6webrtc22RemoteNtpTimeEstimator8EstimateEj(%"class.webrtc::RemoteNtpTimeEstimator"* nonnull %137, i32 %138) #9
  %140 = getelementptr inbounds %"class.webrtc::AudioFrame", %"class.webrtc::AudioFrame"* %2, i64 0, i32 3
  store i64 %139, i64* %140, align 8
  %141 = icmp sgt i64 %139, 0
  br i1 %141, label %142, label %146

; <label>:142:                                    ; preds = %129
  %143 = load i64, i64* %134, align 8
  %144 = sub nsw i64 %139, %143
  %145 = getelementptr inbounds %"class.webrtc::voe::(anonymous namespace)::ChannelReceive", %"class.webrtc::voe::(anonymous namespace)::ChannelReceive"* %0, i64 0, i32 35
  store i64 %144, i64* %145, align 8
  br label %146

; <label>:146:                                    ; preds = %142, %129
  call void @_ZN3rtc9CritScopeD1Ev(%"class.rtc::CritScope"* nonnull %10) #9
  call void @llvm.lifetime.end.p0i8(i64 8, i8* nonnull %135) #9
  br label %147

; <label>:147:                                    ; preds = %93, %146
  %148 = load atomic volatile i64, i64* bitcast (%"class.webrtc::metrics::Histogram"** @_ZZN6webrtc3voe12_GLOBAL__N_114ChannelReceive21GetAudioFrameWithInfoEiPNS_10AudioFrameEE24atomic_histogram_pointer to i64*) acquire, align 8
  %149 = inttoptr i64 %148 to %"class.webrtc::metrics::Histogram"*
  %150 = icmp eq i64 %148, 0
  br i1 %150, label %151, label %169

; <label>:151:                                    ; preds = %147
  %152 = bitcast %"class.std::__1::basic_string"* %11 to i8*
  call void @llvm.lifetime.start.p0i8(i64 24, i8* nonnull %152) #9
  %153 = call i8* @_Znwm(i64 48) #8
  %154 = getelementptr inbounds %"class.std::__1::basic_string", %"class.std::__1::basic_string"* %11, i64 0, i32 0, i32 0, i32 0, i32 0, i32 0, i32 0
  store i8* %153, i8** %154, align 8
  %155 = getelementptr inbounds %"class.std::__1::basic_string", %"class.std::__1::basic_string"* %11, i64 0, i32 0, i32 0, i32 0, i32 0, i32 0, i32 1
  %156 = bitcast i64* %155 to <2 x i64>*
  store <2 x i64> <i64 38, i64 -9223372036854775760>, <2 x i64>* %156, align 8
  call void @llvm.memcpy.p0i8.p0i8.i64(i8* nonnull align 1 %153, i8* align 1 getelementptr inbounds ([39 x i8], [39 x i8]* @.str.4, i64 0, i64 0), i64 38, i1 false) #9
  %157 = getelementptr inbounds i8, i8* %153, i64 38
  store i8 0, i8* %157, align 1
  %158 = call %"class.webrtc::metrics::Histogram"* @_ZN6webrtc7metrics25HistogramFactoryGetCountsERKNSt3__112basic_stringIcNS1_11char_traitsIcEENS1_9allocatorIcEEEEiii(%"class.std::__1::basic_string"* nonnull dereferenceable(24) %11, i32 1, i32 1000, i32 50) #9
  %159 = bitcast %"class.std::__1::basic_string"* %11 to %"struct.std::__1::basic_string<char, std::__1::char_traits<char>, std::__1::allocator<char> >::__short"*
  %160 = getelementptr inbounds %"struct.std::__1::basic_string<char, std::__1::char_traits<char>, std::__1::allocator<char> >::__short", %"struct.std::__1::basic_string<char, std::__1::char_traits<char>, std::__1::allocator<char> >::__short"* %159, i64 0, i32 1, i32 0
  %161 = load i8, i8* %160, align 1
  %162 = icmp slt i8 %161, 0
  br i1 %162, label %163, label %165

; <label>:163:                                    ; preds = %151
  %164 = load i8*, i8** %154, align 8
  call void @_ZdlPv(i8* %164) #8
  br label %165

; <label>:165:                                    ; preds = %163, %151
  call void @llvm.lifetime.end.p0i8(i64 24, i8* nonnull %152) #9
  %166 = ptrtoint %"class.webrtc::metrics::Histogram"* %158 to i64
  %167 = cmpxchg i64* bitcast (%"class.webrtc::metrics::Histogram"** @_ZZN6webrtc3voe12_GLOBAL__N_114ChannelReceive21GetAudioFrameWithInfoEiPNS_10AudioFrameEE24atomic_histogram_pointer to i64*), i64 0, i64 %166 seq_cst seq_cst
  %168 = icmp eq %"class.webrtc::metrics::Histogram"* %158, null
  br i1 %168, label %177, label %169

; <label>:169:                                    ; preds = %147, %165
  %170 = phi %"class.webrtc::metrics::Histogram"* [ %158, %165 ], [ %149, %147 ]
  %171 = load %"class.webrtc::AudioCodingModule"*, %"class.webrtc::AudioCodingModule"** %38, align 8
  %172 = bitcast %"class.webrtc::AudioCodingModule"* %171 to i32 (%"class.webrtc::AudioCodingModule"*)***
  %173 = load i32 (%"class.webrtc::AudioCodingModule"*)**, i32 (%"class.webrtc::AudioCodingModule"*)*** %172, align 8
  %174 = getelementptr inbounds i32 (%"class.webrtc::AudioCodingModule"*)*, i32 (%"class.webrtc::AudioCodingModule"*)** %173, i64 18
  %175 = load i32 (%"class.webrtc::AudioCodingModule"*)*, i32 (%"class.webrtc::AudioCodingModule"*)** %174, align 8
  %176 = call i32 %175(%"class.webrtc::AudioCodingModule"* %171) #9
  call void @_ZN6webrtc7metrics12HistogramAddEPNS0_9HistogramEi(%"class.webrtc::metrics::Histogram"* nonnull %170, i32 %176) #9
  br label %177

; <label>:177:                                    ; preds = %165, %169
  %178 = load %"class.webrtc::AudioCodingModule"*, %"class.webrtc::AudioCodingModule"** %38, align 8
  %179 = bitcast %"class.webrtc::AudioCodingModule"* %178 to i32 (%"class.webrtc::AudioCodingModule"*)***
  %180 = load i32 (%"class.webrtc::AudioCodingModule"*)**, i32 (%"class.webrtc::AudioCodingModule"*)*** %179, align 8
  %181 = getelementptr inbounds i32 (%"class.webrtc::AudioCodingModule"*)*, i32 (%"class.webrtc::AudioCodingModule"*)** %180, i64 17
  %182 = load i32 (%"class.webrtc::AudioCodingModule"*)*, i32 (%"class.webrtc::AudioCodingModule"*)** %181, align 8
  %183 = call i32 %182(%"class.webrtc::AudioCodingModule"* %178) #9
  %184 = bitcast %"class.rtc::CritScope"* %12 to i8*
  call void @llvm.lifetime.start.p0i8(i64 8, i8* nonnull %184) #9
  %185 = getelementptr inbounds %"class.webrtc::voe::(anonymous namespace)::ChannelReceive", %"class.webrtc::voe::(anonymous namespace)::ChannelReceive"* %0, i64 0, i32 29
  call void @_ZN3rtc9CritScopeC1EPKNS_15CriticalSectionE(%"class.rtc::CritScope"* nonnull %12, %"class.rtc::CriticalSection"* nonnull %185) #9
  %186 = load atomic volatile i64, i64* bitcast (%"class.webrtc::metrics::Histogram"** @_ZZN6webrtc3voe12_GLOBAL__N_114ChannelReceive21GetAudioFrameWithInfoEiPNS_10AudioFrameEE24atomic_histogram_pointer_0 to i64*) acquire, align 8
  %187 = inttoptr i64 %186 to %"class.webrtc::metrics::Histogram"*
  %188 = icmp eq i64 %186, 0
  br i1 %188, label %189, label %207

; <label>:189:                                    ; preds = %177
  %190 = bitcast %"class.std::__1::basic_string"* %13 to i8*
  call void @llvm.lifetime.start.p0i8(i64 24, i8* nonnull %190) #9
  %191 = call i8* @_Znwm(i64 48) #8
  %192 = getelementptr inbounds %"class.std::__1::basic_string", %"class.std::__1::basic_string"* %13, i64 0, i32 0, i32 0, i32 0, i32 0, i32 0, i32 0
  store i8* %191, i8** %192, align 8
  %193 = getelementptr inbounds %"class.std::__1::basic_string", %"class.std::__1::basic_string"* %13, i64 0, i32 0, i32 0, i32 0, i32 0, i32 0, i32 1
  %194 = bitcast i64* %193 to <2 x i64>*
  store <2 x i64> <i64 36, i64 -9223372036854775760>, <2 x i64>* %194, align 8
  call void @llvm.memcpy.p0i8.p0i8.i64(i8* nonnull align 1 %191, i8* align 1 getelementptr inbounds ([37 x i8], [37 x i8]* @.str.5, i64 0, i64 0), i64 36, i1 false) #9
  %195 = getelementptr inbounds i8, i8* %191, i64 36
  store i8 0, i8* %195, align 1
  %196 = call %"class.webrtc::metrics::Histogram"* @_ZN6webrtc7metrics25HistogramFactoryGetCountsERKNSt3__112basic_stringIcNS1_11char_traitsIcEENS1_9allocatorIcEEEEiii(%"class.std::__1::basic_string"* nonnull dereferenceable(24) %13, i32 1, i32 1000, i32 50) #9
  %197 = bitcast %"class.std::__1::basic_string"* %13 to %"struct.std::__1::basic_string<char, std::__1::char_traits<char>, std::__1::allocator<char> >::__short"*
  %198 = getelementptr inbounds %"struct.std::__1::basic_string<char, std::__1::char_traits<char>, std::__1::allocator<char> >::__short", %"struct.std::__1::basic_string<char, std::__1::char_traits<char>, std::__1::allocator<char> >::__short"* %197, i64 0, i32 1, i32 0
  %199 = load i8, i8* %198, align 1
  %200 = icmp slt i8 %199, 0
  br i1 %200, label %201, label %203

; <label>:201:                                    ; preds = %189
  %202 = load i8*, i8** %192, align 8
  call void @_ZdlPv(i8* %202) #8
  br label %203

; <label>:203:                                    ; preds = %201, %189
  call void @llvm.lifetime.end.p0i8(i64 24, i8* nonnull %190) #9
  %204 = ptrtoint %"class.webrtc::metrics::Histogram"* %196 to i64
  %205 = cmpxchg i64* bitcast (%"class.webrtc::metrics::Histogram"** @_ZZN6webrtc3voe12_GLOBAL__N_114ChannelReceive21GetAudioFrameWithInfoEiPNS_10AudioFrameEE24atomic_histogram_pointer_0 to i64*), i64 0, i64 %204 seq_cst seq_cst
  %206 = icmp eq %"class.webrtc::metrics::Histogram"* %196, null
  br i1 %206, label %212, label %207

; <label>:207:                                    ; preds = %177, %203
  %208 = phi %"class.webrtc::metrics::Histogram"* [ %196, %203 ], [ %187, %177 ]
  %209 = getelementptr inbounds %"class.webrtc::voe::(anonymous namespace)::ChannelReceive", %"class.webrtc::voe::(anonymous namespace)::ChannelReceive"* %0, i64 0, i32 31
  %210 = load i32, i32* %209, align 4
  %211 = add i32 %210, %183
  call void @_ZN6webrtc7metrics12HistogramAddEPNS0_9HistogramEi(%"class.webrtc::metrics::Histogram"* nonnull %208, i32 %211) #9
  br label %212

; <label>:212:                                    ; preds = %203, %207
  %213 = load atomic volatile i64, i64* bitcast (%"class.webrtc::metrics::Histogram"** @_ZZN6webrtc3voe12_GLOBAL__N_114ChannelReceive21GetAudioFrameWithInfoEiPNS_10AudioFrameEE24atomic_histogram_pointer_1 to i64*) acquire, align 8
  %214 = inttoptr i64 %213 to %"class.webrtc::metrics::Histogram"*
  %215 = icmp eq i64 %213, 0
  br i1 %215, label %216, label %234

; <label>:216:                                    ; preds = %212
  %217 = bitcast %"class.std::__1::basic_string"* %14 to i8*
  call void @llvm.lifetime.start.p0i8(i64 24, i8* nonnull %217) #9
  %218 = call i8* @_Znwm(i64 48) #8
  %219 = getelementptr inbounds %"class.std::__1::basic_string", %"class.std::__1::basic_string"* %14, i64 0, i32 0, i32 0, i32 0, i32 0, i32 0, i32 0
  store i8* %218, i8** %219, align 8
  %220 = getelementptr inbounds %"class.std::__1::basic_string", %"class.std::__1::basic_string"* %14, i64 0, i32 0, i32 0, i32 0, i32 0, i32 0, i32 1
  %221 = bitcast i64* %220 to <2 x i64>*
  store <2 x i64> <i64 40, i64 -9223372036854775760>, <2 x i64>* %221, align 8
  call void @llvm.memcpy.p0i8.p0i8.i64(i8* nonnull align 1 %218, i8* align 1 getelementptr inbounds ([41 x i8], [41 x i8]* @.str.6, i64 0, i64 0), i64 40, i1 false) #9
  %222 = getelementptr inbounds i8, i8* %218, i64 40
  store i8 0, i8* %222, align 1
  %223 = call %"class.webrtc::metrics::Histogram"* @_ZN6webrtc7metrics25HistogramFactoryGetCountsERKNSt3__112basic_stringIcNS1_11char_traitsIcEENS1_9allocatorIcEEEEiii(%"class.std::__1::basic_string"* nonnull dereferenceable(24) %14, i32 1, i32 1000, i32 50) #9
  %224 = bitcast %"class.std::__1::basic_string"* %14 to %"struct.std::__1::basic_string<char, std::__1::char_traits<char>, std::__1::allocator<char> >::__short"*
  %225 = getelementptr inbounds %"struct.std::__1::basic_string<char, std::__1::char_traits<char>, std::__1::allocator<char> >::__short", %"struct.std::__1::basic_string<char, std::__1::char_traits<char>, std::__1::allocator<char> >::__short"* %224, i64 0, i32 1, i32 0
  %226 = load i8, i8* %225, align 1
  %227 = icmp slt i8 %226, 0
  br i1 %227, label %228, label %230

; <label>:228:                                    ; preds = %216
  %229 = load i8*, i8** %219, align 8
  call void @_ZdlPv(i8* %229) #8
  br label %230

; <label>:230:                                    ; preds = %228, %216
  call void @llvm.lifetime.end.p0i8(i64 24, i8* nonnull %217) #9
  %231 = ptrtoint %"class.webrtc::metrics::Histogram"* %223 to i64
  %232 = cmpxchg i64* bitcast (%"class.webrtc::metrics::Histogram"** @_ZZN6webrtc3voe12_GLOBAL__N_114ChannelReceive21GetAudioFrameWithInfoEiPNS_10AudioFrameEE24atomic_histogram_pointer_1 to i64*), i64 0, i64 %231 seq_cst seq_cst
  %233 = icmp eq %"class.webrtc::metrics::Histogram"* %223, null
  br i1 %233, label %236, label %234

; <label>:234:                                    ; preds = %212, %230
  %235 = phi %"class.webrtc::metrics::Histogram"* [ %223, %230 ], [ %214, %212 ]
  call void @_ZN6webrtc7metrics12HistogramAddEPNS0_9HistogramEi(%"class.webrtc::metrics::Histogram"* nonnull %235, i32 %183) #9
  br label %236

; <label>:236:                                    ; preds = %230, %234
  %237 = load atomic volatile i64, i64* bitcast (%"class.webrtc::metrics::Histogram"** @_ZZN6webrtc3voe12_GLOBAL__N_114ChannelReceive21GetAudioFrameWithInfoEiPNS_10AudioFrameEE24atomic_histogram_pointer_2 to i64*) acquire, align 8
  %238 = inttoptr i64 %237 to %"class.webrtc::metrics::Histogram"*
  %239 = icmp eq i64 %237, 0
  br i1 %239, label %240, label %258

; <label>:240:                                    ; preds = %236
  %241 = bitcast %"class.std::__1::basic_string"* %15 to i8*
  call void @llvm.lifetime.start.p0i8(i64 24, i8* nonnull %241) #9
  %242 = call i8* @_Znwm(i64 48) #8
  %243 = getelementptr inbounds %"class.std::__1::basic_string", %"class.std::__1::basic_string"* %15, i64 0, i32 0, i32 0, i32 0, i32 0, i32 0, i32 0
  store i8* %242, i8** %243, align 8
  %244 = getelementptr inbounds %"class.std::__1::basic_string", %"class.std::__1::basic_string"* %15, i64 0, i32 0, i32 0, i32 0, i32 0, i32 0, i32 1
  %245 = bitcast i64* %244 to <2 x i64>*
  store <2 x i64> <i64 34, i64 -9223372036854775760>, <2 x i64>* %245, align 8
  call void @llvm.memcpy.p0i8.p0i8.i64(i8* nonnull align 1 %242, i8* align 1 getelementptr inbounds ([35 x i8], [35 x i8]* @.str.7, i64 0, i64 0), i64 34, i1 false) #9
  %246 = getelementptr inbounds i8, i8* %242, i64 34
  store i8 0, i8* %246, align 1
  %247 = call %"class.webrtc::metrics::Histogram"* @_ZN6webrtc7metrics25HistogramFactoryGetCountsERKNSt3__112basic_stringIcNS1_11char_traitsIcEENS1_9allocatorIcEEEEiii(%"class.std::__1::basic_string"* nonnull dereferenceable(24) %15, i32 1, i32 1000, i32 50) #9
  %248 = bitcast %"class.std::__1::basic_string"* %15 to %"struct.std::__1::basic_string<char, std::__1::char_traits<char>, std::__1::allocator<char> >::__short"*
  %249 = getelementptr inbounds %"struct.std::__1::basic_string<char, std::__1::char_traits<char>, std::__1::allocator<char> >::__short", %"struct.std::__1::basic_string<char, std::__1::char_traits<char>, std::__1::allocator<char> >::__short"* %248, i64 0, i32 1, i32 0
  %250 = load i8, i8* %249, align 1
  %251 = icmp slt i8 %250, 0
  br i1 %251, label %252, label %254

; <label>:252:                                    ; preds = %240
  %253 = load i8*, i8** %243, align 8
  call void @_ZdlPv(i8* %253) #8
  br label %254

; <label>:254:                                    ; preds = %252, %240
  call void @llvm.lifetime.end.p0i8(i64 24, i8* nonnull %241) #9
  %255 = ptrtoint %"class.webrtc::metrics::Histogram"* %247 to i64
  %256 = cmpxchg i64* bitcast (%"class.webrtc::metrics::Histogram"** @_ZZN6webrtc3voe12_GLOBAL__N_114ChannelReceive21GetAudioFrameWithInfoEiPNS_10AudioFrameEE24atomic_histogram_pointer_2 to i64*), i64 0, i64 %255 seq_cst seq_cst
  %257 = icmp eq %"class.webrtc::metrics::Histogram"* %247, null
  br i1 %257, label %262, label %258

; <label>:258:                                    ; preds = %236, %254
  %259 = phi %"class.webrtc::metrics::Histogram"* [ %247, %254 ], [ %238, %236 ]
  %260 = getelementptr inbounds %"class.webrtc::voe::(anonymous namespace)::ChannelReceive", %"class.webrtc::voe::(anonymous namespace)::ChannelReceive"* %0, i64 0, i32 31
  %261 = load i32, i32* %260, align 4
  call void @_ZN6webrtc7metrics12HistogramAddEPNS0_9HistogramEi(%"class.webrtc::metrics::Histogram"* nonnull %259, i32 %261) #9
  br label %262

; <label>:262:                                    ; preds = %254, %258
  call void @_ZN3rtc9CritScopeD1Ev(%"class.rtc::CritScope"* nonnull %12) #9
  call void @llvm.lifetime.end.p0i8(i64 8, i8* nonnull %184) #9
  %263 = load i8, i8* %6, align 1, !range !7
  %264 = zext i8 %263 to i32
  br label %265

; <label>:265:                                    ; preds = %37, %262
  %266 = phi i32 [ %264, %262 ], [ 2, %37 ]
  call void @llvm.lifetime.end.p0i8(i64 1, i8* nonnull %6) #9
  ret i32 %266
}

; Function Attrs: nounwind ssp uwtable
define internal i32 @_ZNK6webrtc3voe12_GLOBAL__N_114ChannelReceive19PreferredSampleRateEv(%"class.webrtc::voe::(anonymous namespace)::ChannelReceive"* nocapture readonly) unnamed_addr #0 align 2 {
  %2 = getelementptr inbounds %"class.webrtc::voe::(anonymous namespace)::ChannelReceive", %"class.webrtc::voe::(anonymous namespace)::ChannelReceive"* %0, i64 0, i32 24, i32 0, i32 0, i32 0
  %3 = load %"class.webrtc::AudioCodingModule"*, %"class.webrtc::AudioCodingModule"** %2, align 8
  %4 = bitcast %"class.webrtc::AudioCodingModule"* %3 to i32 (%"class.webrtc::AudioCodingModule"*)***
  %5 = load i32 (%"class.webrtc::AudioCodingModule"*)**, i32 (%"class.webrtc::AudioCodingModule"*)*** %4, align 8
  %6 = getelementptr inbounds i32 (%"class.webrtc::AudioCodingModule"*)*, i32 (%"class.webrtc::AudioCodingModule"*)** %5, i64 9
  %7 = load i32 (%"class.webrtc::AudioCodingModule"*)*, i32 (%"class.webrtc::AudioCodingModule"*)** %6, align 8
  %8 = tail call i32 %7(%"class.webrtc::AudioCodingModule"* %3) #9
  %9 = load %"class.webrtc::AudioCodingModule"*, %"class.webrtc::AudioCodingModule"** %2, align 8
  %10 = bitcast %"class.webrtc::AudioCodingModule"* %9 to i32 (%"class.webrtc::AudioCodingModule"*)***
  %11 = load i32 (%"class.webrtc::AudioCodingModule"*)**, i32 (%"class.webrtc::AudioCodingModule"*)*** %10, align 8
  %12 = getelementptr inbounds i32 (%"class.webrtc::AudioCodingModule"*)*, i32 (%"class.webrtc::AudioCodingModule"*)** %11, i64 10
  %13 = load i32 (%"class.webrtc::AudioCodingModule"*)*, i32 (%"class.webrtc::AudioCodingModule"*)** %12, align 8
  %14 = tail call i32 %13(%"class.webrtc::AudioCodingModule"* %9) #9
  %15 = icmp slt i32 %8, %14
  %16 = select i1 %15, i32 %14, i32 %8
  ret i32 %16
}

; Function Attrs: nounwind ssp uwtable
define internal void @_ZN6webrtc3voe12_GLOBAL__N_114ChannelReceive24SetAssociatedSendChannelEPKNS0_20ChannelSendInterfaceE(%"class.webrtc::voe::(anonymous namespace)::ChannelReceive"*, %"class.webrtc::voe::ChannelSendInterface"*) unnamed_addr #0 align 2 {
  %3 = alloca %"class.rtc::CritScope", align 8
  %4 = bitcast %"class.rtc::CritScope"* %3 to i8*
  call void @llvm.lifetime.start.p0i8(i64 8, i8* nonnull %4) #9
  %5 = getelementptr inbounds %"class.webrtc::voe::(anonymous namespace)::ChannelReceive", %"class.webrtc::voe::(anonymous namespace)::ChannelReceive"* %0, i64 0, i32 40
  call void @_ZN3rtc9CritScopeC1EPKNS_15CriticalSectionE(%"class.rtc::CritScope"* nonnull %3, %"class.rtc::CriticalSection"* nonnull %5) #9
  %6 = getelementptr inbounds %"class.webrtc::voe::(anonymous namespace)::ChannelReceive", %"class.webrtc::voe::(anonymous namespace)::ChannelReceive"* %0, i64 0, i32 41
  store %"class.webrtc::voe::ChannelSendInterface"* %1, %"class.webrtc::voe::ChannelSendInterface"** %6, align 8
  call void @_ZN3rtc9CritScopeD1Ev(%"class.rtc::CritScope"* nonnull %3) #9
  call void @llvm.lifetime.end.p0i8(i64 8, i8* nonnull %4) #9
  ret void
}

; Function Attrs: nounwind ssp uwtable
define internal void @_ZNK6webrtc3voe12_GLOBAL__N_114ChannelReceive10GetSourcesEv(%"class.std::__1::vector.206"* noalias sret, %"class.webrtc::voe::(anonymous namespace)::ChannelReceive"*) unnamed_addr #0 align 2 {
  %3 = alloca %"class.rtc::CritScope", align 8
  %4 = alloca %"class.std::__1::vector.206", align 16
  %5 = alloca i32, align 4
  %6 = tail call i64 @_ZN3rtc10TimeMillisEv() #9
  %7 = bitcast %"class.rtc::CritScope"* %3 to i8*
  call void @llvm.lifetime.start.p0i8(i64 8, i8* nonnull %7) #9
  %8 = getelementptr inbounds %"class.webrtc::voe::(anonymous namespace)::ChannelReceive", %"class.webrtc::voe::(anonymous namespace)::ChannelReceive"* %1, i64 0, i32 18
  call void @_ZN3rtc9CritScopeC1EPKNS_15CriticalSectionE(%"class.rtc::CritScope"* nonnull %3, %"class.rtc::CriticalSection"* nonnull %8) #9
  %9 = bitcast %"class.std::__1::vector.206"* %4 to i8*
  call void @llvm.lifetime.start.p0i8(i64 24, i8* nonnull %9) #9
  %10 = getelementptr inbounds %"class.webrtc::voe::(anonymous namespace)::ChannelReceive", %"class.webrtc::voe::(anonymous namespace)::ChannelReceive"* %1, i64 0, i32 19
  call void @_ZNK6webrtc19ContributingSources10GetSourcesEl(%"class.std::__1::vector.206"* nonnull sret %4, %"class.webrtc::ContributingSources"* nonnull %10, i64 %6) #9
  %11 = bitcast %"class.std::__1::vector.206"* %4 to <2 x i64>*
  %12 = load <2 x i64>, <2 x i64>* %11, align 16
  %13 = getelementptr inbounds %"class.std::__1::vector.206", %"class.std::__1::vector.206"* %4, i64 0, i32 0, i32 2, i32 0, i32 0
  %14 = bitcast %"class.webrtc::RtpSource"** %13 to i64*
  %15 = load i64, i64* %14, align 16
  %16 = bitcast %"class.std::__1::vector.206"* %0 to <2 x i64>*
  store <2 x i64> %12, <2 x i64>* %16, align 8
  %17 = getelementptr inbounds %"class.std::__1::vector.206", %"class.std::__1::vector.206"* %0, i64 0, i32 0, i32 2, i32 0, i32 0
  %18 = bitcast %"class.webrtc::RtpSource"** %17 to i64*
  store i64 %15, i64* %18, align 8
  %19 = inttoptr i64 %15 to %"class.webrtc::RtpSource"*
  %20 = getelementptr inbounds %"class.webrtc::voe::(anonymous namespace)::ChannelReceive", %"class.webrtc::voe::(anonymous namespace)::ChannelReceive"* %1, i64 0, i32 21, i32 0, i32 0, i32 0, i32 0
  %21 = load i8, i8* %20, align 8, !range !7
  %22 = icmp eq i8 %21, 0
  call void @llvm.lifetime.end.p0i8(i64 24, i8* nonnull %9) #9
  br i1 %22, label %47, label %23

; <label>:23:                                     ; preds = %2
  %24 = add nsw i64 %6, -10000
  %25 = getelementptr inbounds %"class.webrtc::voe::(anonymous namespace)::ChannelReceive", %"class.webrtc::voe::(anonymous namespace)::ChannelReceive"* %1, i64 0, i32 21, i32 0, i32 0, i32 0, i32 1, i32 0
  %26 = load i64, i64* %25, align 8
  %27 = icmp slt i64 %26, %24
  br i1 %27, label %47, label %28

; <label>:28:                                     ; preds = %23
  %29 = getelementptr inbounds %"class.webrtc::voe::(anonymous namespace)::ChannelReceive", %"class.webrtc::voe::(anonymous namespace)::ChannelReceive"* %1, i64 0, i32 16
  %30 = bitcast i32* %5 to i8*
  call void @llvm.lifetime.start.p0i8(i64 4, i8* nonnull %30) #9
  store i32 0, i32* %5, align 4
  %31 = getelementptr inbounds %"class.std::__1::vector.206", %"class.std::__1::vector.206"* %0, i64 0, i32 0, i32 1
  %32 = load %"class.webrtc::RtpSource"*, %"class.webrtc::RtpSource"** %31, align 8
  %33 = icmp ult %"class.webrtc::RtpSource"* %32, %19
  br i1 %33, label %34, label %38

; <label>:34:                                     ; preds = %28
  %35 = load i32, i32* %29, align 4
  call void @_ZN6webrtc9RtpSourceC1EljNS_13RtpSourceTypeE(%"class.webrtc::RtpSource"* %32, i64 %26, i32 %35, i32 0) #9
  %36 = load %"class.webrtc::RtpSource"*, %"class.webrtc::RtpSource"** %31, align 8
  %37 = getelementptr inbounds %"class.webrtc::RtpSource", %"class.webrtc::RtpSource"* %36, i64 1
  store %"class.webrtc::RtpSource"* %37, %"class.webrtc::RtpSource"** %31, align 8
  br label %40

; <label>:38:                                     ; preds = %28
  call void @_ZNSt3__16vectorIN6webrtc9RtpSourceENS_9allocatorIS2_EEE24__emplace_back_slow_pathIJRKlRKjNS1_13RtpSourceTypeEEEEvDpOT_(%"class.std::__1::vector.206"* nonnull %0, i64* nonnull dereferenceable(8) %25, i32* nonnull dereferenceable(4) %29, i32* nonnull dereferenceable(4) %5) #9
  %39 = load %"class.webrtc::RtpSource"*, %"class.webrtc::RtpSource"** %31, align 8
  br label %40

; <label>:40:                                     ; preds = %34, %38
  %41 = phi %"class.webrtc::RtpSource"* [ %37, %34 ], [ %39, %38 ]
  call void @llvm.lifetime.end.p0i8(i64 4, i8* nonnull %30) #9
  %42 = getelementptr inbounds %"class.webrtc::voe::(anonymous namespace)::ChannelReceive", %"class.webrtc::voe::(anonymous namespace)::ChannelReceive"* %1, i64 0, i32 22
  %43 = getelementptr inbounds %"class.webrtc::RtpSource", %"class.webrtc::RtpSource"* %41, i64 -1, i32 3, i32 0, i32 0, i32 0, i32 0
  %44 = bitcast %"class.absl::optional.44"* %42 to i16*
  %45 = bitcast i8* %43 to i16*
  %46 = load i16, i16* %44, align 1
  store i16 %46, i16* %45, align 8
  br label %47

; <label>:47:                                     ; preds = %23, %2, %40
  call void @_ZN3rtc9CritScopeD1Ev(%"class.rtc::CritScope"* nonnull %3) #9
  call void @llvm.lifetime.end.p0i8(i64 8, i8* nonnull %7) #9
  ret void
}

; Function Attrs: nounwind ssp uwtable
define internal void @_ZN6webrtc3voe12_GLOBAL__N_114ChannelReceive6OnDataEmNS_31MediaTransportEncodedAudioFrameE(%"class.webrtc::voe::(anonymous namespace)::ChannelReceive"*, i64, %"class.webrtc::MediaTransportEncodedAudioFrame"* nocapture readonly) unnamed_addr #0 align 2 {
  %4 = alloca %"class.rtc::CritScope", align 8
  %5 = alloca %"struct.webrtc::WebRtcRTPHeader", align 8
  %6 = getelementptr inbounds %"class.webrtc::voe::(anonymous namespace)::ChannelReceive", %"class.webrtc::voe::(anonymous namespace)::ChannelReceive"* %0, i64 0, i32 45
  %7 = load %"class.webrtc::MediaTransportInterface"*, %"class.webrtc::MediaTransportInterface"** %6, align 8
  %8 = icmp eq %"class.webrtc::MediaTransportInterface"* %7, null
  br i1 %8, label %9, label %10

; <label>:9:                                      ; preds = %3
  tail call void (i8*, i32, i8*, i8*, ...) @_ZN3rtc18webrtc_checks_impl8FatalLogEPKciS2_PKNS0_12CheckArgTypeEz(i8* getelementptr inbounds ([50 x i8], [50 x i8]* @.str.2, i64 0, i64 0), i32 314, i8* getelementptr inbounds ([17 x i8], [17 x i8]* @.str.8, i64 0, i64 0), i8* getelementptr inbounds ([1 x i8], [1 x i8]* @_ZZN3rtc18webrtc_checks_impl11LogStreamerIJEE4CallIJEEEvPKciS5_DpRKT_E1t, i64 0, i64 0)) #10
  unreachable

; <label>:10:                                     ; preds = %3
  %11 = bitcast %"class.rtc::CritScope"* %4 to i8*
  call void @llvm.lifetime.start.p0i8(i64 8, i8* nonnull %11) #9
  %12 = getelementptr inbounds %"class.webrtc::voe::(anonymous namespace)::ChannelReceive", %"class.webrtc::voe::(anonymous namespace)::ChannelReceive"* %0, i64 0, i32 9
  call void @_ZN3rtc9CritScopeC1EPKNS_15CriticalSectionE(%"class.rtc::CritScope"* nonnull %4, %"class.rtc::CriticalSection"* nonnull %12) #9
  %13 = getelementptr inbounds %"class.webrtc::voe::(anonymous namespace)::ChannelReceive", %"class.webrtc::voe::(anonymous namespace)::ChannelReceive"* %0, i64 0, i32 10
  %14 = load i8, i8* %13, align 8, !range !7
  %15 = icmp eq i8 %14, 0
  call void @_ZN3rtc9CritScopeD1Ev(%"class.rtc::CritScope"* nonnull %4) #9
  call void @llvm.lifetime.end.p0i8(i64 8, i8* nonnull %11) #9
  br i1 %15, label %58, label %16

; <label>:16:                                     ; preds = %10
  %17 = getelementptr inbounds %"class.webrtc::voe::(anonymous namespace)::ChannelReceive", %"class.webrtc::voe::(anonymous namespace)::ChannelReceive"* %0, i64 0, i32 24, i32 0, i32 0, i32 0
  %18 = load %"class.webrtc::AudioCodingModule"*, %"class.webrtc::AudioCodingModule"** %17, align 8
  %19 = getelementptr inbounds %"class.webrtc::MediaTransportEncodedAudioFrame", %"class.webrtc::MediaTransportEncodedAudioFrame"* %2, i64 0, i32 6, i32 0, i32 0
  %20 = load i8*, i8** %19, align 8
  %21 = getelementptr inbounds %"class.webrtc::MediaTransportEncodedAudioFrame", %"class.webrtc::MediaTransportEncodedAudioFrame"* %2, i64 0, i32 6, i32 0, i32 1
  %22 = bitcast i8** %21 to i64*
  %23 = load i64, i64* %22, align 8
  %24 = ptrtoint i8* %20 to i64
  %25 = sub i64 %23, %24
  %26 = icmp eq i64 %25, 0
  %27 = select i1 %26, i8* null, i8* %20
  %28 = getelementptr inbounds %"struct.webrtc::WebRtcRTPHeader", %"struct.webrtc::WebRtcRTPHeader"* %5, i64 0, i32 0, i32 0, i32 0, i32 0, i32 0, i32 0
  call void @llvm.lifetime.start.p0i8(i64 2168, i8* nonnull %28) #9
  %29 = getelementptr inbounds %"struct.webrtc::WebRtcRTPHeader", %"struct.webrtc::WebRtcRTPHeader"* %5, i64 0, i32 0
  call void @_ZN6webrtc14RTPVideoHeaderC1Ev(%"struct.webrtc::RTPVideoHeader"* nonnull %29) #9
  %30 = getelementptr inbounds %"struct.webrtc::WebRtcRTPHeader", %"struct.webrtc::WebRtcRTPHeader"* %5, i64 0, i32 1
  call void @_ZN6webrtc9RTPHeaderC1Ev(%"struct.webrtc::RTPHeader"* nonnull %30) #9
  %31 = getelementptr inbounds %"struct.webrtc::WebRtcRTPHeader", %"struct.webrtc::WebRtcRTPHeader"* %5, i64 0, i32 2
  %32 = getelementptr inbounds %"struct.webrtc::WebRtcRTPHeader", %"struct.webrtc::WebRtcRTPHeader"* %5, i64 0, i32 3
  store i64 0, i64* %32, align 8, !alias.scope !14
  %33 = getelementptr inbounds %"class.webrtc::MediaTransportEncodedAudioFrame", %"class.webrtc::MediaTransportEncodedAudioFrame"* %2, i64 0, i32 5
  %34 = load i32, i32* %33, align 4, !noalias !14
  %35 = trunc i32 %34 to i8
  %36 = getelementptr inbounds %"struct.webrtc::WebRtcRTPHeader", %"struct.webrtc::WebRtcRTPHeader"* %5, i64 0, i32 1, i32 1
  store i8 %35, i8* %36, align 1, !alias.scope !14
  %37 = getelementptr inbounds %"class.webrtc::MediaTransportEncodedAudioFrame", %"class.webrtc::MediaTransportEncodedAudioFrame"* %2, i64 0, i32 0
  %38 = load i32, i32* %37, align 8, !noalias !14
  %39 = getelementptr inbounds %"struct.webrtc::WebRtcRTPHeader", %"struct.webrtc::WebRtcRTPHeader"* %5, i64 0, i32 1, i32 11
  store i32 %38, i32* %39, align 8, !alias.scope !14
  %40 = getelementptr inbounds %"class.webrtc::MediaTransportEncodedAudioFrame", %"class.webrtc::MediaTransportEncodedAudioFrame"* %2, i64 0, i32 1
  %41 = load i32, i32* %40, align 4, !noalias !14
  %42 = getelementptr inbounds %"struct.webrtc::WebRtcRTPHeader", %"struct.webrtc::WebRtcRTPHeader"* %5, i64 0, i32 1, i32 3
  store i32 %41, i32* %42, align 4, !alias.scope !14
  %43 = getelementptr inbounds %"class.webrtc::MediaTransportEncodedAudioFrame", %"class.webrtc::MediaTransportEncodedAudioFrame"* %2, i64 0, i32 3
  %44 = load i32, i32* %43, align 4, !noalias !14
  %45 = trunc i32 %44 to i16
  %46 = getelementptr inbounds %"struct.webrtc::WebRtcRTPHeader", %"struct.webrtc::WebRtcRTPHeader"* %5, i64 0, i32 1, i32 2
  store i16 %45, i16* %46, align 2, !alias.scope !14
  %47 = getelementptr inbounds %"class.webrtc::MediaTransportEncodedAudioFrame", %"class.webrtc::MediaTransportEncodedAudioFrame"* %2, i64 0, i32 4
  %48 = load i32, i32* %47, align 8, !noalias !14
  %49 = icmp eq i32 %48, 0
  %50 = select i1 %49, i32 1, i32 2
  store i32 %50, i32* %31, align 8, !alias.scope !14
  %51 = trunc i64 %1 to i32
  %52 = getelementptr inbounds %"struct.webrtc::WebRtcRTPHeader", %"struct.webrtc::WebRtcRTPHeader"* %5, i64 0, i32 1, i32 4
  store i32 %51, i32* %52, align 8, !alias.scope !14
  %53 = bitcast %"class.webrtc::AudioCodingModule"* %18 to i32 (%"class.webrtc::AudioCodingModule"*, i8*, i64, %"struct.webrtc::WebRtcRTPHeader"*)***
  %54 = load i32 (%"class.webrtc::AudioCodingModule"*, i8*, i64, %"struct.webrtc::WebRtcRTPHeader"*)**, i32 (%"class.webrtc::AudioCodingModule"*, i8*, i64, %"struct.webrtc::WebRtcRTPHeader"*)*** %53, align 8
  %55 = getelementptr inbounds i32 (%"class.webrtc::AudioCodingModule"*, i8*, i64, %"struct.webrtc::WebRtcRTPHeader"*)*, i32 (%"class.webrtc::AudioCodingModule"*, i8*, i64, %"struct.webrtc::WebRtcRTPHeader"*)** %54, i64 13
  %56 = load i32 (%"class.webrtc::AudioCodingModule"*, i8*, i64, %"struct.webrtc::WebRtcRTPHeader"*)*, i32 (%"class.webrtc::AudioCodingModule"*, i8*, i64, %"struct.webrtc::WebRtcRTPHeader"*)** %55, align 8
  %57 = call i32 %56(%"class.webrtc::AudioCodingModule"* %18, i8* %27, i64 %25, %"struct.webrtc::WebRtcRTPHeader"* nonnull dereferenceable(2168) %5) #9
  call void @_ZN6webrtc14RTPVideoHeaderD1Ev(%"struct.webrtc::RTPVideoHeader"* nonnull %29) #9
  call void @llvm.lifetime.end.p0i8(i64 2168, i8* nonnull %28) #9
  ret void

; <label>:58:                                     ; preds = %10
  ret void
}

; Function Attrs: nounwind ssp uwtable
define internal void @_ZThn8_N6webrtc3voe12_GLOBAL__N_114ChannelReceiveD1Ev(%"class.webrtc::voe::(anonymous namespace)::ChannelReceive"*) unnamed_addr #0 align 2 {
  %2 = getelementptr inbounds %"class.webrtc::voe::(anonymous namespace)::ChannelReceive", %"class.webrtc::voe::(anonymous namespace)::ChannelReceive"* %0, i64 -1, i32 47, i32 0, i32 0
  %3 = bitcast i8* %2 to %"class.webrtc::voe::(anonymous namespace)::ChannelReceive"*
  tail call void @_ZN6webrtc3voe12_GLOBAL__N_114ChannelReceiveD2Ev(%"class.webrtc::voe::(anonymous namespace)::ChannelReceive"* nonnull %3) #9
  ret void
}

; Function Attrs: nounwind ssp uwtable
define internal void @_ZThn8_N6webrtc3voe12_GLOBAL__N_114ChannelReceiveD0Ev(%"class.webrtc::voe::(anonymous namespace)::ChannelReceive"*) unnamed_addr #0 align 2 {
  %2 = getelementptr inbounds %"class.webrtc::voe::(anonymous namespace)::ChannelReceive", %"class.webrtc::voe::(anonymous namespace)::ChannelReceive"* %0, i64 -1, i32 47, i32 0, i32 0
  %3 = bitcast i8* %2 to %"class.webrtc::voe::(anonymous namespace)::ChannelReceive"*
  tail call void @_ZN6webrtc3voe12_GLOBAL__N_114ChannelReceiveD2Ev(%"class.webrtc::voe::(anonymous namespace)::ChannelReceive"* nonnull %3) #9
  tail call void @_ZdlPv(i8* nonnull %2) #8
  ret void
}

; Function Attrs: nounwind ssp uwtable
define internal void @_ZThn8_N6webrtc3voe12_GLOBAL__N_114ChannelReceive6OnDataEmNS_31MediaTransportEncodedAudioFrameE(%"class.webrtc::voe::(anonymous namespace)::ChannelReceive"*, i64, %"class.webrtc::MediaTransportEncodedAudioFrame"* nocapture readonly) unnamed_addr #0 align 2 {
  %4 = getelementptr inbounds %"class.webrtc::voe::(anonymous namespace)::ChannelReceive", %"class.webrtc::voe::(anonymous namespace)::ChannelReceive"* %0, i64 -1, i32 47, i32 0, i32 0
  %5 = bitcast i8* %4 to %"class.webrtc::voe::(anonymous namespace)::ChannelReceive"*
  tail call void @_ZN6webrtc3voe12_GLOBAL__N_114ChannelReceive6OnDataEmNS_31MediaTransportEncodedAudioFrameE(%"class.webrtc::voe::(anonymous namespace)::ChannelReceive"* nonnull %5, i64 %1, %"class.webrtc::MediaTransportEncodedAudioFrame"* %2)
  ret void
}

declare void @_ZN6webrtc17ReceiveStatistics6CreateEPNS_5ClockEPNS_22RtcpStatisticsCallbackEPNS_26StreamDataCountersCallbackE(%"class.std::__1::unique_ptr.11"* sret, %"class.webrtc::Clock"*, %"class.webrtc::RtcpStatisticsCallback"*, %"class.webrtc::StreamDataCountersCallback"*) local_unnamed_addr #3

; Function Attrs: nounwind
declare void @_ZN6webrtc13CryptoOptionsD1Ev(%"struct.webrtc::CryptoOptions"*) unnamed_addr #4

; Function Attrs: nounwind
declare void @_ZN3rtc15CriticalSectionD1Ev(%"class.rtc::CriticalSection"*) unnamed_addr #4

; Function Attrs: nounwind
declare void @_ZN6webrtc22RemoteNtpTimeEstimatorD1Ev(%"class.webrtc::RemoteNtpTimeEstimator"*) unnamed_addr #4

; Function Attrs: nounwind
declare void @_ZN6webrtc3voe10AudioLevelD1Ev(%"class.webrtc::voe::AudioLevel"*) unnamed_addr #4

; Function Attrs: nounwind
declare void @_ZN6webrtc19ContributingSourcesD1Ev(%"class.webrtc::ContributingSources"*) unnamed_addr #4

; Function Attrs: nobuiltin nounwind
declare void @_ZdlPv(i8*) local_unnamed_addr #5

; Function Attrs: nounwind ssp uwtable
define linkonce_odr hidden void @_ZNSt3__16__treeINS_12__value_typeIhiEENS_19__map_value_compareIhS2_NS_4lessIhEELb1EEENS_9allocatorIS2_EEE7destroyEPNS_11__tree_nodeIS2_PvEE(%"class.std::__1::__tree"*, %"class.std::__1::__tree_node"*) local_unnamed_addr #0 comdat align 2 {
  %3 = icmp eq %"class.std::__1::__tree_node"* %1, null
  br i1 %3, label %11, label %4

; <label>:4:                                      ; preds = %2
  %5 = bitcast %"class.std::__1::__tree_node"* %1 to %"class.std::__1::__tree_node"**
  %6 = load %"class.std::__1::__tree_node"*, %"class.std::__1::__tree_node"** %5, align 8
  tail call void @_ZNSt3__16__treeINS_12__value_typeIhiEENS_19__map_value_compareIhS2_NS_4lessIhEELb1EEENS_9allocatorIS2_EEE7destroyEPNS_11__tree_nodeIS2_PvEE(%"class.std::__1::__tree"* %0, %"class.std::__1::__tree_node"* %6) #9
  %7 = getelementptr inbounds %"class.std::__1::__tree_node", %"class.std::__1::__tree_node"* %1, i64 0, i32 0, i32 1
  %8 = bitcast %"class.std::__1::__tree_node_base"** %7 to %"class.std::__1::__tree_node"**
  %9 = load %"class.std::__1::__tree_node"*, %"class.std::__1::__tree_node"** %8, align 8
  tail call void @_ZNSt3__16__treeINS_12__value_typeIhiEENS_19__map_value_compareIhS2_NS_4lessIhEELb1EEENS_9allocatorIS2_EEE7destroyEPNS_11__tree_nodeIS2_PvEE(%"class.std::__1::__tree"* %0, %"class.std::__1::__tree_node"* %9) #9
  %10 = bitcast %"class.std::__1::__tree_node"* %1 to i8*
  tail call void @_ZdlPv(i8* %10) #8
  ret void

; <label>:11:                                     ; preds = %2
  ret void
}

declare i64 @_ZN3rtc10TimeMillisEv() local_unnamed_addr #3

declare void @_ZN3rtc9CritScopeC1EPKNS_15CriticalSectionE(%"class.rtc::CritScope"*, %"class.rtc::CriticalSection"*) unnamed_addr #3

declare void @_ZNK6webrtc9RtpPacket5CsrcsEv(%"class.std::__1::vector.214"* sret, %"class.webrtc::RtpPacket"*) local_unnamed_addr #3

declare void @_ZN6webrtc19ContributingSources6UpdateElN3rtc9ArrayViewIKjLln4711EEEN4absl8optionalIhEE(%"class.webrtc::ContributingSources"*, i64, i32*, i64, i16) local_unnamed_addr #3

; Function Attrs: nounwind
declare void @_ZN3rtc9CritScopeD1Ev(%"class.rtc::CritScope"*) unnamed_addr #4

; Function Attrs: nounwind ssp uwtable
define internal fastcc void @_ZN6webrtc3voe12_GLOBAL__N_114ChannelReceive22UpdatePlayoutTimestampEb(%"class.webrtc::voe::(anonymous namespace)::ChannelReceive"*, i1 zeroext) unnamed_addr #0 align 2 {
  %3 = alloca %"class.absl::optional.184", align 8
  %4 = alloca i16, align 2
  %5 = alloca %"class.rtc::CritScope", align 8
  %6 = getelementptr inbounds %"class.webrtc::voe::(anonymous namespace)::ChannelReceive", %"class.webrtc::voe::(anonymous namespace)::ChannelReceive"* %0, i64 0, i32 24, i32 0, i32 0, i32 0
  %7 = load %"class.webrtc::AudioCodingModule"*, %"class.webrtc::AudioCodingModule"** %6, align 8
  %8 = bitcast %"class.webrtc::AudioCodingModule"* %7 to i64 (%"class.webrtc::AudioCodingModule"*)***
  %9 = load i64 (%"class.webrtc::AudioCodingModule"*)**, i64 (%"class.webrtc::AudioCodingModule"*)*** %8, align 8
  %10 = getelementptr inbounds i64 (%"class.webrtc::AudioCodingModule"*)*, i64 (%"class.webrtc::AudioCodingModule"*)** %9, i64 16
  %11 = load i64 (%"class.webrtc::AudioCodingModule"*)*, i64 (%"class.webrtc::AudioCodingModule"*)** %10, align 8
  %12 = tail call i64 %11(%"class.webrtc::AudioCodingModule"* %7) #9
  %13 = getelementptr inbounds %"class.webrtc::voe::(anonymous namespace)::ChannelReceive", %"class.webrtc::voe::(anonymous namespace)::ChannelReceive"* %0, i64 0, i32 28
  %14 = bitcast %"class.absl::optional.39"* %13 to i64*
  store i64 %12, i64* %14, align 8
  %15 = trunc i64 %12 to i8
  %16 = icmp eq i8 %15, 0
  br i1 %16, label %70, label %17

; <label>:17:                                     ; preds = %2
  %18 = bitcast i16* %4 to i8*
  call void @llvm.lifetime.start.p0i8(i64 2, i8* nonnull %18) #9
  store i16 0, i16* %4, align 2
  %19 = getelementptr inbounds %"class.webrtc::voe::(anonymous namespace)::ChannelReceive", %"class.webrtc::voe::(anonymous namespace)::ChannelReceive"* %0, i64 0, i32 37
  %20 = load %"class.webrtc::AudioDeviceModule"*, %"class.webrtc::AudioDeviceModule"** %19, align 8
  %21 = bitcast %"class.webrtc::AudioDeviceModule"* %20 to i32 (%"class.webrtc::AudioDeviceModule"*, i16*)***
  %22 = load i32 (%"class.webrtc::AudioDeviceModule"*, i16*)**, i32 (%"class.webrtc::AudioDeviceModule"*, i16*)*** %21, align 8
  %23 = getelementptr inbounds i32 (%"class.webrtc::AudioDeviceModule"*, i16*)*, i32 (%"class.webrtc::AudioDeviceModule"*, i16*)** %22, i64 55
  %24 = load i32 (%"class.webrtc::AudioDeviceModule"*, i16*)*, i32 (%"class.webrtc::AudioDeviceModule"*, i16*)** %23, align 8
  %25 = call i32 %24(%"class.webrtc::AudioDeviceModule"* %20, i16* nonnull %4) #9
  %26 = icmp eq i32 %25, -1
  br i1 %26, label %69, label %27

; <label>:27:                                     ; preds = %17
  %28 = getelementptr inbounds %"class.webrtc::voe::(anonymous namespace)::ChannelReceive", %"class.webrtc::voe::(anonymous namespace)::ChannelReceive"* %0, i64 0, i32 28, i32 0, i32 0, i32 0, i32 1, i32 0
  %29 = load i32, i32* %28, align 4
  %30 = load i16, i16* %4, align 2
  %31 = getelementptr inbounds %"class.absl::optional.184", %"class.absl::optional.184"* %3, i64 0, i32 0, i32 0, i32 0, i32 0
  call void @llvm.lifetime.start.p0i8(i64 80, i8* nonnull %31) #9
  %32 = load %"class.webrtc::AudioCodingModule"*, %"class.webrtc::AudioCodingModule"** %6, align 8
  %33 = bitcast %"class.webrtc::AudioCodingModule"* %32 to void (%"class.absl::optional.184"*, %"class.webrtc::AudioCodingModule"*)***
  %34 = load void (%"class.absl::optional.184"*, %"class.webrtc::AudioCodingModule"*)**, void (%"class.absl::optional.184"*, %"class.webrtc::AudioCodingModule"*)*** %33, align 8
  %35 = getelementptr inbounds void (%"class.absl::optional.184"*, %"class.webrtc::AudioCodingModule"*)*, void (%"class.absl::optional.184"*, %"class.webrtc::AudioCodingModule"*)** %34, i64 12
  %36 = load void (%"class.absl::optional.184"*, %"class.webrtc::AudioCodingModule"*)*, void (%"class.absl::optional.184"*, %"class.webrtc::AudioCodingModule"*)** %35, align 8
  call void %36(%"class.absl::optional.184"* nonnull sret %3, %"class.webrtc::AudioCodingModule"* %32) #9
  %37 = load i8, i8* %31, align 8, !range !7
  %38 = icmp eq i8 %37, 0
  br i1 %38, label %43, label %39

; <label>:39:                                     ; preds = %27
  %40 = getelementptr inbounds %"class.absl::optional.184", %"class.absl::optional.184"* %3, i64 0, i32 0, i32 0, i32 0, i32 1, i32 0, i32 1, i32 1
  %41 = load i32, i32* %40, align 8
  %42 = icmp eq i32 %41, 0
  br i1 %42, label %43, label %52

; <label>:43:                                     ; preds = %39, %27
  %44 = load %"class.webrtc::AudioCodingModule"*, %"class.webrtc::AudioCodingModule"** %6, align 8
  %45 = bitcast %"class.webrtc::AudioCodingModule"* %44 to i32 (%"class.webrtc::AudioCodingModule"*)***
  %46 = load i32 (%"class.webrtc::AudioCodingModule"*)**, i32 (%"class.webrtc::AudioCodingModule"*)*** %45, align 8
  %47 = getelementptr inbounds i32 (%"class.webrtc::AudioCodingModule"*)*, i32 (%"class.webrtc::AudioCodingModule"*)** %46, i64 10
  %48 = load i32 (%"class.webrtc::AudioCodingModule"*)*, i32 (%"class.webrtc::AudioCodingModule"*)** %47, align 8
  %49 = call i32 %48(%"class.webrtc::AudioCodingModule"* %44) #9
  %50 = load i8, i8* %31, align 8, !range !7
  %51 = icmp eq i8 %50, 0
  br i1 %51, label %55, label %52

; <label>:52:                                     ; preds = %43, %39
  %53 = phi i32 [ %49, %43 ], [ %41, %39 ]
  %54 = getelementptr inbounds %"class.absl::optional.184", %"class.absl::optional.184"* %3, i64 0, i32 0, i32 0, i32 0, i32 1, i32 0, i32 1
  call void @_ZN6webrtc14SdpAudioFormatD1Ev(%"struct.webrtc::SdpAudioFormat"* nonnull %54) #9
  store i8 0, i8* %31, align 8
  br label %55

; <label>:55:                                     ; preds = %43, %52
  %56 = phi i32 [ %49, %43 ], [ %53, %52 ]
  call void @llvm.lifetime.end.p0i8(i64 80, i8* nonnull %31) #9
  %57 = bitcast %"class.rtc::CritScope"* %5 to i8*
  call void @llvm.lifetime.start.p0i8(i64 8, i8* nonnull %57) #9
  %58 = getelementptr inbounds %"class.webrtc::voe::(anonymous namespace)::ChannelReceive", %"class.webrtc::voe::(anonymous namespace)::ChannelReceive"* %0, i64 0, i32 29
  call void @_ZN3rtc9CritScopeC1EPKNS_15CriticalSectionE(%"class.rtc::CritScope"* nonnull %5, %"class.rtc::CriticalSection"* nonnull %58) #9
  br i1 %1, label %65, label %59

; <label>:59:                                     ; preds = %55
  %60 = sdiv i32 %56, 1000
  %61 = zext i16 %30 to i32
  %62 = mul nsw i32 %60, %61
  %63 = sub i32 %29, %62
  %64 = getelementptr inbounds %"class.webrtc::voe::(anonymous namespace)::ChannelReceive", %"class.webrtc::voe::(anonymous namespace)::ChannelReceive"* %0, i64 0, i32 30
  store i32 %63, i32* %64, align 8
  br label %65

; <label>:65:                                     ; preds = %59, %55
  %66 = load i16, i16* %4, align 2
  %67 = zext i16 %66 to i32
  %68 = getelementptr inbounds %"class.webrtc::voe::(anonymous namespace)::ChannelReceive", %"class.webrtc::voe::(anonymous namespace)::ChannelReceive"* %0, i64 0, i32 31
  store i32 %67, i32* %68, align 4
  call void @_ZN3rtc9CritScopeD1Ev(%"class.rtc::CritScope"* nonnull %5) #9
  call void @llvm.lifetime.end.p0i8(i64 8, i8* nonnull %57) #9
  br label %69

; <label>:69:                                     ; preds = %17, %65
  call void @llvm.lifetime.end.p0i8(i64 2, i8* nonnull %18) #9
  br label %70

; <label>:70:                                     ; preds = %2, %69
  ret void
}

declare void @_ZN6webrtc17RtpPacketReceivedC1ERKS0_(%"class.webrtc::RtpPacketReceived"*, %"class.webrtc::RtpPacketReceived"* dereferenceable(136)) unnamed_addr #3

declare void @_ZN6webrtc9RTPHeaderC1Ev(%"struct.webrtc::RTPHeader"*) unnamed_addr #3

declare void @_ZNK6webrtc17RtpPacketReceived9GetHeaderEPNS_9RTPHeaderE(%"class.webrtc::RtpPacketReceived"*, %"struct.webrtc::RTPHeader"*) local_unnamed_addr #3

; Function Attrs: nounwind
declare void @_ZN6webrtc17RtpPacketReceivedD1Ev(%"class.webrtc::RtpPacketReceived"*) unnamed_addr #4

declare { i8*, i64 } @_ZNK6webrtc9RtpPacket13FindExtensionENS_16RTPExtensionTypeE(%"class.webrtc::RtpPacket"*, i32) local_unnamed_addr #3

declare zeroext i1 @_ZN6webrtc10AudioLevel5ParseEN3rtc9ArrayViewIKhLln4711EEEPbPh(i8*, i64, i8*, i8*) local_unnamed_addr #3

; Function Attrs: nounwind
declare void @_ZN6webrtc14SdpAudioFormatD1Ev(%"struct.webrtc::SdpAudioFormat"*) unnamed_addr #4

declare void @_ZN6webrtc14RTPVideoHeaderC1Ev(%"struct.webrtc::RTPVideoHeader"*) unnamed_addr #3

declare dereferenceable(288) %"struct.webrtc::RTPHeader"* @_ZN6webrtc9RTPHeaderaSERKS0_(%"struct.webrtc::RTPHeader"*, %"struct.webrtc::RTPHeader"* dereferenceable(288)) local_unnamed_addr #3

; Function Attrs: nounwind ssp uwtable
define internal fastcc i32 @_ZN6webrtc3voe12_GLOBAL__N_114ChannelReceive21OnReceivedPayloadDataEPKhmPKNS_15WebRtcRTPHeaderE(%"class.webrtc::voe::(anonymous namespace)::ChannelReceive"*, i8*, i64, %"struct.webrtc::WebRtcRTPHeader"*) unnamed_addr #0 align 2 {
  %5 = alloca %"class.rtc::CritScope", align 8
  %6 = alloca i64, align 8
  %7 = alloca %"class.std::__1::vector.251", align 8
  %8 = getelementptr inbounds %"class.webrtc::voe::(anonymous namespace)::ChannelReceive", %"class.webrtc::voe::(anonymous namespace)::ChannelReceive"* %0, i64 0, i32 45
  %9 = load %"class.webrtc::MediaTransportInterface"*, %"class.webrtc::MediaTransportInterface"** %8, align 8
  %10 = icmp eq %"class.webrtc::MediaTransportInterface"* %9, null
  br i1 %10, label %12, label %11

; <label>:11:                                     ; preds = %4
  tail call void (i8*, i32, i8*, i8*, ...) @_ZN3rtc18webrtc_checks_impl8FatalLogEPKciS2_PKNS0_12CheckArgTypeEz(i8* getelementptr inbounds ([50 x i8], [50 x i8]* @.str.2, i64 0, i64 0), i32 283, i8* getelementptr inbounds ([18 x i8], [18 x i8]* @.str.3, i64 0, i64 0), i8* getelementptr inbounds ([1 x i8], [1 x i8]* @_ZZN3rtc18webrtc_checks_impl11LogStreamerIJEE4CallIJEEEvPKciS5_DpRKT_E1t, i64 0, i64 0)) #10
  unreachable

; <label>:12:                                     ; preds = %4
  %13 = bitcast %"class.rtc::CritScope"* %5 to i8*
  call void @llvm.lifetime.start.p0i8(i64 8, i8* nonnull %13) #9
  %14 = getelementptr inbounds %"class.webrtc::voe::(anonymous namespace)::ChannelReceive", %"class.webrtc::voe::(anonymous namespace)::ChannelReceive"* %0, i64 0, i32 9
  call void @_ZN3rtc9CritScopeC1EPKNS_15CriticalSectionE(%"class.rtc::CritScope"* nonnull %5, %"class.rtc::CriticalSection"* nonnull %14) #9
  %15 = getelementptr inbounds %"class.webrtc::voe::(anonymous namespace)::ChannelReceive", %"class.webrtc::voe::(anonymous namespace)::ChannelReceive"* %0, i64 0, i32 10
  %16 = load i8, i8* %15, align 8, !range !7
  %17 = icmp eq i8 %16, 0
  call void @_ZN3rtc9CritScopeD1Ev(%"class.rtc::CritScope"* nonnull %5) #9
  call void @llvm.lifetime.end.p0i8(i64 8, i8* nonnull %13) #9
  br i1 %17, label %71, label %18

; <label>:18:                                     ; preds = %12
  %19 = getelementptr inbounds %"class.webrtc::voe::(anonymous namespace)::ChannelReceive", %"class.webrtc::voe::(anonymous namespace)::ChannelReceive"* %0, i64 0, i32 24, i32 0, i32 0, i32 0
  %20 = load %"class.webrtc::AudioCodingModule"*, %"class.webrtc::AudioCodingModule"** %19, align 8
  %21 = bitcast %"class.webrtc::AudioCodingModule"* %20 to i32 (%"class.webrtc::AudioCodingModule"*, i8*, i64, %"struct.webrtc::WebRtcRTPHeader"*)***
  %22 = load i32 (%"class.webrtc::AudioCodingModule"*, i8*, i64, %"struct.webrtc::WebRtcRTPHeader"*)**, i32 (%"class.webrtc::AudioCodingModule"*, i8*, i64, %"struct.webrtc::WebRtcRTPHeader"*)*** %21, align 8
  %23 = getelementptr inbounds i32 (%"class.webrtc::AudioCodingModule"*, i8*, i64, %"struct.webrtc::WebRtcRTPHeader"*)*, i32 (%"class.webrtc::AudioCodingModule"*, i8*, i64, %"struct.webrtc::WebRtcRTPHeader"*)** %22, i64 13
  %24 = load i32 (%"class.webrtc::AudioCodingModule"*, i8*, i64, %"struct.webrtc::WebRtcRTPHeader"*)*, i32 (%"class.webrtc::AudioCodingModule"*, i8*, i64, %"struct.webrtc::WebRtcRTPHeader"*)** %23, align 8
  %25 = call i32 %24(%"class.webrtc::AudioCodingModule"* %20, i8* %1, i64 %2, %"struct.webrtc::WebRtcRTPHeader"* dereferenceable(2168) %3) #9
  %26 = icmp eq i32 %25, 0
  br i1 %26, label %27, label %71

; <label>:27:                                     ; preds = %18
  %28 = bitcast i64* %6 to i8*
  call void @llvm.lifetime.start.p0i8(i64 8, i8* nonnull %28) #9
  store i64 0, i64* %6, align 8
  %29 = getelementptr inbounds %"class.webrtc::voe::(anonymous namespace)::ChannelReceive", %"class.webrtc::voe::(anonymous namespace)::ChannelReceive"* %0, i64 0, i32 15, i32 0, i32 0, i32 0
  %30 = load %"class.webrtc::RtpRtcp"*, %"class.webrtc::RtpRtcp"** %29, align 8
  %31 = getelementptr inbounds %"class.webrtc::voe::(anonymous namespace)::ChannelReceive", %"class.webrtc::voe::(anonymous namespace)::ChannelReceive"* %0, i64 0, i32 16
  %32 = load i32, i32* %31, align 8
  %33 = bitcast %"class.webrtc::RtpRtcp"* %30 to i32 (%"class.webrtc::RtpRtcp"*, i32, i64*, i64*, i64*, i64*)***
  %34 = load i32 (%"class.webrtc::RtpRtcp"*, i32, i64*, i64*, i64*, i64*)**, i32 (%"class.webrtc::RtpRtcp"*, i32, i64*, i64*, i64*, i64*)*** %33, align 8
  %35 = getelementptr inbounds i32 (%"class.webrtc::RtpRtcp"*, i32, i64*, i64*, i64*, i64*)*, i32 (%"class.webrtc::RtpRtcp"*, i32, i64*, i64*, i64*, i64*)** %34, i64 54
  %36 = load i32 (%"class.webrtc::RtpRtcp"*, i32, i64*, i64*, i64*, i64*)*, i32 (%"class.webrtc::RtpRtcp"*, i32, i64*, i64*, i64*, i64*)** %35, align 8
  %37 = call i32 %36(%"class.webrtc::RtpRtcp"* %30, i32 %32, i64* nonnull %6, i64* null, i64* null, i64* null) #9
  %38 = bitcast %"class.std::__1::vector.251"* %7 to i8*
  call void @llvm.lifetime.start.p0i8(i64 24, i8* nonnull %38) #9
  %39 = load %"class.webrtc::AudioCodingModule"*, %"class.webrtc::AudioCodingModule"** %19, align 8
  %40 = load i64, i64* %6, align 8
  %41 = bitcast %"class.webrtc::AudioCodingModule"* %39 to void (%"class.std::__1::vector.251"*, %"class.webrtc::AudioCodingModule"*, i64)***
  %42 = load void (%"class.std::__1::vector.251"*, %"class.webrtc::AudioCodingModule"*, i64)**, void (%"class.std::__1::vector.251"*, %"class.webrtc::AudioCodingModule"*, i64)*** %41, align 8
  %43 = getelementptr inbounds void (%"class.std::__1::vector.251"*, %"class.webrtc::AudioCodingModule"*, i64)*, void (%"class.std::__1::vector.251"*, %"class.webrtc::AudioCodingModule"*, i64)** %42, i64 26
  %44 = load void (%"class.std::__1::vector.251"*, %"class.webrtc::AudioCodingModule"*, i64)*, void (%"class.std::__1::vector.251"*, %"class.webrtc::AudioCodingModule"*, i64)** %43, align 8
  call void %44(%"class.std::__1::vector.251"* nonnull sret %7, %"class.webrtc::AudioCodingModule"* %39, i64 %40) #9
  %45 = getelementptr inbounds %"class.std::__1::vector.251", %"class.std::__1::vector.251"* %7, i64 0, i32 0, i32 0
  %46 = load i16*, i16** %45, align 8
  %47 = getelementptr inbounds %"class.std::__1::vector.251", %"class.std::__1::vector.251"* %7, i64 0, i32 0, i32 1
  %48 = load i16*, i16** %47, align 8
  %49 = icmp eq i16* %46, %48
  br i1 %49, label %63, label %50

; <label>:50:                                     ; preds = %27
  %51 = ptrtoint i16* %46 to i64
  %52 = ptrtoint i16* %48 to i64
  %53 = sub i64 %52, %51
  %54 = lshr exact i64 %53, 1
  %55 = load %"class.webrtc::RtpRtcp"*, %"class.webrtc::RtpRtcp"** %29, align 8
  %56 = trunc i64 %54 to i16
  %57 = bitcast %"class.webrtc::RtpRtcp"* %55 to i32 (%"class.webrtc::RtpRtcp"*, i16*, i16)***
  %58 = load i32 (%"class.webrtc::RtpRtcp"*, i16*, i16)**, i32 (%"class.webrtc::RtpRtcp"*, i16*, i16)*** %57, align 8
  %59 = getelementptr inbounds i32 (%"class.webrtc::RtpRtcp"*, i16*, i16)*, i32 (%"class.webrtc::RtpRtcp"*, i16*, i16)** %58, i64 70
  %60 = load i32 (%"class.webrtc::RtpRtcp"*, i16*, i16)*, i32 (%"class.webrtc::RtpRtcp"*, i16*, i16)** %59, align 8
  %61 = call i32 %60(%"class.webrtc::RtpRtcp"* %55, i16* %46, i16 zeroext %56) #9
  %62 = load i16*, i16** %45, align 8
  br label %63

; <label>:63:                                     ; preds = %50, %27
  %64 = phi i16* [ %62, %50 ], [ %46, %27 ]
  %65 = icmp eq i16* %64, null
  br i1 %65, label %70, label %66

; <label>:66:                                     ; preds = %63
  %67 = ptrtoint i16* %64 to i64
  %68 = bitcast i16** %47 to i64*
  store i64 %67, i64* %68, align 8
  %69 = bitcast i16* %64 to i8*
  call void @_ZdlPv(i8* %69) #8
  br label %70

; <label>:70:                                     ; preds = %63, %66
  call void @llvm.lifetime.end.p0i8(i64 24, i8* nonnull %38) #9
  call void @llvm.lifetime.end.p0i8(i64 8, i8* nonnull %28) #9
  br label %71

; <label>:71:                                     ; preds = %12, %18, %70
  %72 = phi i32 [ 0, %70 ], [ 0, %12 ], [ -1, %18 ]
  ret i32 %72
}

; Function Attrs: nobuiltin
declare noalias nonnull i8* @_Znam(i64) local_unnamed_addr #2

; Function Attrs: nobuiltin nounwind
declare void @_ZdaPv(i8*) local_unnamed_addr #5

; Function Attrs: noreturn
declare void @_ZNKSt3__120__vector_base_commonILb1EE20__throw_length_errorEv(%"class.std::__1::__vector_base_common"*) local_unnamed_addr #6

; Function Attrs: noreturn
declare void @_ZN3rtc18webrtc_checks_impl8FatalLogEPKciS2_PKNS0_12CheckArgTypeEz(i8*, i32, i8*, i8*, ...) local_unnamed_addr #6

; Function Attrs: nounwind
declare void @_ZN6webrtc14RTPVideoHeaderD1Ev(%"struct.webrtc::RTPVideoHeader"*) unnamed_addr #4

; Function Attrs: norecurse nounwind ssp uwtable
define linkonce_odr hidden void @_ZNSt3__127__tree_balance_after_insertIPNS_16__tree_node_baseIPvEEEEvT_S5_(%"class.std::__1::__tree_node_base"*, %"class.std::__1::__tree_node_base"*) local_unnamed_addr #7 comdat {
  %3 = icmp eq %"class.std::__1::__tree_node_base"* %1, %0
  %4 = getelementptr inbounds %"class.std::__1::__tree_node_base", %"class.std::__1::__tree_node_base"* %1, i64 0, i32 3
  %5 = zext i1 %3 to i8
  store i8 %5, i8* %4, align 8
  br i1 %3, label %156, label %6

; <label>:6:                                      ; preds = %2, %149
  %7 = phi %"class.std::__1::__tree_node_base"* [ %20, %149 ], [ %1, %2 ]
  %8 = getelementptr inbounds %"class.std::__1::__tree_node_base", %"class.std::__1::__tree_node_base"* %7, i64 0, i32 2
  %9 = bitcast %"class.std::__1::__tree_end_node"** %8 to %"class.std::__1::__tree_node_base"**
  %10 = load %"class.std::__1::__tree_node_base"*, %"class.std::__1::__tree_node_base"** %9, align 8
  %11 = getelementptr inbounds %"class.std::__1::__tree_node_base", %"class.std::__1::__tree_node_base"* %10, i64 0, i32 3
  %12 = load i8, i8* %11, align 8, !range !7
  %13 = icmp eq i8 %12, 0
  br i1 %13, label %14, label %156

; <label>:14:                                     ; preds = %6
  %15 = getelementptr inbounds %"class.std::__1::__tree_node_base", %"class.std::__1::__tree_node_base"* %10, i64 0, i32 2
  %16 = load %"class.std::__1::__tree_end_node"*, %"class.std::__1::__tree_end_node"** %15, align 8
  %17 = getelementptr inbounds %"class.std::__1::__tree_end_node", %"class.std::__1::__tree_end_node"* %16, i64 0, i32 0
  %18 = load %"class.std::__1::__tree_node_base"*, %"class.std::__1::__tree_node_base"** %17, align 8
  %19 = icmp eq %"class.std::__1::__tree_node_base"* %18, %10
  %20 = bitcast %"class.std::__1::__tree_end_node"* %16 to %"class.std::__1::__tree_node_base"*
  br i1 %19, label %21, label %87

; <label>:21:                                     ; preds = %14
  %22 = getelementptr inbounds %"class.std::__1::__tree_end_node", %"class.std::__1::__tree_end_node"* %16, i64 1, i32 0
  %23 = load %"class.std::__1::__tree_node_base"*, %"class.std::__1::__tree_node_base"** %22, align 8
  %24 = icmp eq %"class.std::__1::__tree_node_base"* %23, null
  br i1 %24, label %29, label %25

; <label>:25:                                     ; preds = %21
  %26 = getelementptr inbounds %"class.std::__1::__tree_node_base", %"class.std::__1::__tree_node_base"* %23, i64 0, i32 3
  %27 = load i8, i8* %26, align 8, !range !7
  %28 = icmp eq i8 %27, 0
  br i1 %28, label %149, label %29

; <label>:29:                                     ; preds = %25, %21
  %30 = getelementptr inbounds %"class.std::__1::__tree_node_base", %"class.std::__1::__tree_node_base"* %10, i64 0, i32 2
  %31 = bitcast %"class.std::__1::__tree_end_node"* %16 to %"class.std::__1::__tree_node_base"*
  %32 = getelementptr inbounds %"class.std::__1::__tree_node_base", %"class.std::__1::__tree_node_base"* %10, i64 0, i32 0, i32 0
  %33 = load %"class.std::__1::__tree_node_base"*, %"class.std::__1::__tree_node_base"** %32, align 8
  %34 = icmp eq %"class.std::__1::__tree_node_base"* %33, %7
  br i1 %34, label %62, label %35

; <label>:35:                                     ; preds = %29
  %36 = ptrtoint %"class.std::__1::__tree_end_node"* %16 to i64
  %37 = getelementptr inbounds %"class.std::__1::__tree_node_base", %"class.std::__1::__tree_node_base"* %10, i64 0, i32 1
  %38 = load %"class.std::__1::__tree_node_base"*, %"class.std::__1::__tree_node_base"** %37, align 8
  %39 = getelementptr inbounds %"class.std::__1::__tree_node_base", %"class.std::__1::__tree_node_base"* %38, i64 0, i32 0, i32 0
  %40 = load %"class.std::__1::__tree_node_base"*, %"class.std::__1::__tree_node_base"** %39, align 8
  store %"class.std::__1::__tree_node_base"* %40, %"class.std::__1::__tree_node_base"** %37, align 8
  %41 = icmp eq %"class.std::__1::__tree_node_base"* %40, null
  br i1 %41, label %47, label %42

; <label>:42:                                     ; preds = %35
  %43 = getelementptr inbounds %"class.std::__1::__tree_node_base", %"class.std::__1::__tree_node_base"* %10, i64 0, i32 0
  %44 = getelementptr inbounds %"class.std::__1::__tree_node_base", %"class.std::__1::__tree_node_base"* %40, i64 0, i32 2
  store %"class.std::__1::__tree_end_node"* %43, %"class.std::__1::__tree_end_node"** %44, align 8
  %45 = bitcast %"class.std::__1::__tree_end_node"** %30 to i64*
  %46 = load i64, i64* %45, align 8
  br label %47

; <label>:47:                                     ; preds = %35, %42
  %48 = phi i64 [ %46, %42 ], [ %36, %35 ]
  %49 = getelementptr inbounds %"class.std::__1::__tree_node_base", %"class.std::__1::__tree_node_base"* %38, i64 0, i32 2
  %50 = bitcast %"class.std::__1::__tree_end_node"** %49 to i64*
  store i64 %48, i64* %50, align 8
  %51 = load %"class.std::__1::__tree_end_node"*, %"class.std::__1::__tree_end_node"** %30, align 8
  %52 = getelementptr inbounds %"class.std::__1::__tree_end_node", %"class.std::__1::__tree_end_node"* %51, i64 0, i32 0
  %53 = load %"class.std::__1::__tree_node_base"*, %"class.std::__1::__tree_node_base"** %52, align 8
  %54 = icmp eq %"class.std::__1::__tree_node_base"* %53, %10
  %55 = getelementptr inbounds %"class.std::__1::__tree_end_node", %"class.std::__1::__tree_end_node"* %51, i64 1, i32 0
  %56 = select i1 %54, %"class.std::__1::__tree_node_base"** %52, %"class.std::__1::__tree_node_base"** %55
  store %"class.std::__1::__tree_node_base"* %38, %"class.std::__1::__tree_node_base"** %56, align 8
  store %"class.std::__1::__tree_node_base"* %10, %"class.std::__1::__tree_node_base"** %39, align 8
  %57 = getelementptr inbounds %"class.std::__1::__tree_node_base", %"class.std::__1::__tree_node_base"* %38, i64 0, i32 0
  store %"class.std::__1::__tree_end_node"* %57, %"class.std::__1::__tree_end_node"** %30, align 8
  %58 = getelementptr inbounds %"class.std::__1::__tree_node_base", %"class.std::__1::__tree_node_base"* %38, i64 0, i32 2
  %59 = bitcast %"class.std::__1::__tree_end_node"** %58 to %"class.std::__1::__tree_node_base"**
  %60 = load %"class.std::__1::__tree_node_base"*, %"class.std::__1::__tree_node_base"** %59, align 8
  %61 = getelementptr inbounds %"class.std::__1::__tree_node_base", %"class.std::__1::__tree_node_base"* %38, i64 0, i32 3
  br label %62

; <label>:62:                                     ; preds = %47, %29
  %63 = phi i8* [ %61, %47 ], [ %11, %29 ]
  %64 = phi %"class.std::__1::__tree_node_base"* [ %60, %47 ], [ %31, %29 ]
  store i8 1, i8* %63, align 8
  %65 = getelementptr inbounds %"class.std::__1::__tree_node_base", %"class.std::__1::__tree_node_base"* %64, i64 0, i32 3
  store i8 0, i8* %65, align 8
  %66 = getelementptr inbounds %"class.std::__1::__tree_node_base", %"class.std::__1::__tree_node_base"* %64, i64 0, i32 0, i32 0
  %67 = load %"class.std::__1::__tree_node_base"*, %"class.std::__1::__tree_node_base"** %66, align 8
  %68 = getelementptr inbounds %"class.std::__1::__tree_node_base", %"class.std::__1::__tree_node_base"* %67, i64 0, i32 1
