; ModuleID = '../../third_party/angle/src/compiler/translator/IntermNode.cpp'
source_filename = "../../third_party/angle/src/compiler/translator/IntermNode.cpp"
target datalayout = "e-m:e-i64:64-f80:128-n8:16:32:64-S128"
target triple = "x86_64-pc-linux-gnu"

module asm ".symver exp2f, exp2f@GLIBC_2.2.5"
module asm ".symver expf, expf@GLIBC_2.2.5"
module asm ".symver lgamma, lgamma@GLIBC_2.2.5"
module asm ".symver lgammaf, lgammaf@GLIBC_2.2.5"
module asm ".symver lgammal, lgammal@GLIBC_2.2.5"
module asm ".symver log2f, log2f@GLIBC_2.2.5"
module asm ".symver logf, logf@GLIBC_2.2.5"
module asm ".symver powf, powf@GLIBC_2.2.5"

%"class.sh::TIntermSymbol" = type { %"class.sh::TIntermTyped", %"class.sh::TVariable"* }
%"class.sh::TIntermTyped" = type { %"class.sh::TIntermNode" }
%"class.sh::TIntermNode" = type { i32 (...)**, %"struct.sh::TSourceLoc" }
%"struct.sh::TSourceLoc" = type { i32, i32, i32, i32 }
%"class.sh::TVariable" = type { %"class.sh::TSymbol", %"class.sh::TType"*, %"class.sh::TConstantUnion"* }
%"class.sh::TSymbol" = type { %"class.sh::ImmutableString", %"class.sh::TSymbolUniqueId", i32, i32, i32 }
%"class.sh::ImmutableString" = type { i8*, i64 }
%"class.sh::TSymbolUniqueId" = type { i32 }
%"class.sh::TType" = type { i32, i32, i32, i8, %"struct.sh::TMemoryQualifier", %"struct.sh::TLayoutQualifier", i8, i8, %"class.sh::TVector"*, %"class.sh::TInterfaceBlock"*, %"class.sh::TStructure"*, i8, i8* }
%"struct.sh::TMemoryQualifier" = type { i8, i8, i8, i8, i8 }
%"struct.sh::TLayoutQualifier" = type { i32, i32, i32, i32, %"struct.sh::WorkGroupSize", i32, i32, i32, i32, i8, i32, i32, i32, i32 }
%"struct.sh::WorkGroupSize" = type { %"struct.std::__1::array" }
%"struct.std::__1::array" = type { [3 x i32] }
%"class.sh::TVector" = type { %"class.std::__1::vector" }
%"class.std::__1::vector" = type { %"class.std::__1::__vector_base" }
%"class.std::__1::__vector_base" = type { i32*, i32*, %"class.std::__1::__compressed_pair" }
%"class.std::__1::__compressed_pair" = type { %"struct.std::__1::__compressed_pair_elem" }
%"struct.std::__1::__compressed_pair_elem" = type { i32* }
%"class.sh::TInterfaceBlock" = type { %"class.sh::TSymbol", %"class.sh::TFieldListCollection", i32, i32 }
%"class.sh::TFieldListCollection" = type { %"class.sh::TVector.1"*, i64, i32, %"class.std::__1::basic_string" }
%"class.sh::TVector.1" = type { %"class.std::__1::vector.2" }
%"class.std::__1::vector.2" = type { %"class.std::__1::__vector_base.3" }
%"class.std::__1::__vector_base.3" = type { %"class.sh::TField"**, %"class.sh::TField"**, %"class.std::__1::__compressed_pair.4" }
%"class.sh::TField" = type <{ %"class.sh::TType"*, %"class.sh::ImmutableString", %"struct.sh::TSourceLoc", i32, [4 x i8] }>
%"class.std::__1::__compressed_pair.4" = type { %"struct.std::__1::__compressed_pair_elem.5" }
%"struct.std::__1::__compressed_pair_elem.5" = type { %"class.sh::TField"** }
%"class.std::__1::basic_string" = type { %"class.std::__1::__compressed_pair.9" }
%"class.std::__1::__compressed_pair.9" = type { %"struct.std::__1::__compressed_pair_elem.10" }
%"struct.std::__1::__compressed_pair_elem.10" = type { %"struct.std::__1::basic_string<char, std::__1::char_traits<char>, pool_allocator<char> >::__rep" }
%"struct.std::__1::basic_string<char, std::__1::char_traits<char>, pool_allocator<char> >::__rep" = type { %union.anon }
%union.anon = type { %"struct.std::__1::basic_string<char, std::__1::char_traits<char>, pool_allocator<char> >::__long" }
%"struct.std::__1::basic_string<char, std::__1::char_traits<char>, pool_allocator<char> >::__long" = type { i8*, i64, i64 }
%"class.sh::TStructure" = type <{ %"class.sh::TSymbol", %"class.sh::TFieldListCollection", i8, [7 x i8] }>
%"class.sh::TConstantUnion" = type { %union.anon.14, i32 }
%union.anon.14 = type { i32 }
%"class.sh::TIntermAggregate" = type { %"class.sh::TIntermOperator.base", %"class.sh::TIntermAggregateBase", %"class.sh::TVector.15", i8, i8, %"class.sh::TFunction"* }
%"class.sh::TIntermOperator.base" = type <{ %"class.sh::TIntermExpression", i32 }>
%"class.sh::TIntermExpression" = type { %"class.sh::TIntermTyped", %"class.sh::TType" }
%"class.sh::TIntermAggregateBase" = type { i32 (...)** }
%"class.sh::TVector.15" = type { %"class.std::__1::vector.16" }
%"class.std::__1::vector.16" = type { %"class.std::__1::__vector_base.17" }
%"class.std::__1::__vector_base.17" = type { %"class.sh::TIntermNode"**, %"class.sh::TIntermNode"**, %"class.std::__1::__compressed_pair.18" }
%"class.std::__1::__compressed_pair.18" = type { %"struct.std::__1::__compressed_pair_elem.19" }
%"struct.std::__1::__compressed_pair_elem.19" = type { %"class.sh::TIntermNode"** }
%"class.sh::TFunction" = type <{ %"class.sh::TSymbol", %"class.sh::TVector.31"*, %"class.sh::TVariable"**, i64, %"class.sh::TType"*, %"class.sh::ImmutableString", i32, i8, i8, i8, i8 }>
%"class.sh::TVector.31" = type opaque
%"class.sh::TIntermConstantUnion" = type { %"class.sh::TIntermExpression", %"class.sh::TConstantUnion"* }
%"class.sh::TIntermFunctionPrototype" = type { %"class.sh::TIntermTyped", %"class.sh::TFunction"* }
%"class.sh::TIntermSwizzle" = type <{ %"class.sh::TIntermExpression", %"class.sh::TIntermTyped"*, %"class.sh::TVector.23", i8, [7 x i8] }>
%"class.sh::TVector.23" = type { %"class.std::__1::vector.24" }
%"class.std::__1::vector.24" = type { %"class.std::__1::__vector_base.25" }
%"class.std::__1::__vector_base.25" = type { i32*, i32*, %"class.std::__1::__compressed_pair.26" }
%"class.std::__1::__compressed_pair.26" = type { %"struct.std::__1::__compressed_pair_elem.27" }
%"struct.std::__1::__compressed_pair_elem.27" = type { i32* }
%"class.sh::TIntermBinary" = type <{ %"class.sh::TIntermOperator.base", [4 x i8], %"class.sh::TIntermTyped"*, %"class.sh::TIntermTyped"*, i8, [7 x i8] }>
%"class.sh::TIntermUnary" = type { %"class.sh::TIntermOperator.base", %"class.sh::TIntermTyped"*, i8, %"class.sh::TFunction"* }
%"class.sh::TIntermTernary" = type { %"class.sh::TIntermExpression", %"class.sh::TIntermTyped"*, %"class.sh::TIntermTyped"*, %"class.sh::TIntermTyped"* }
%"class.sh::TIntermInvariantDeclaration" = type { %"class.sh::TIntermNode", %"class.sh::TIntermSymbol"* }
%"class.sh::TIntermLoop" = type { %"class.sh::TIntermNode", i32, %"class.sh::TIntermNode"*, %"class.sh::TIntermTyped"*, %"class.sh::TIntermTyped"*, %"class.sh::TIntermBlock"* }
%"class.sh::TIntermBlock" = type { %"class.sh::TIntermNode", %"class.sh::TIntermAggregateBase", %"class.sh::TVector.15" }
%"class.sh::TIntermIfElse" = type { %"class.sh::TIntermNode", %"class.sh::TIntermTyped"*, %"class.sh::TIntermBlock"*, %"class.sh::TIntermBlock"* }
%"class.sh::TIntermSwitch" = type { %"class.sh::TIntermNode", %"class.sh::TIntermTyped"*, %"class.sh::TIntermBlock"* }
%"class.sh::TIntermPreprocessorDirective" = type { %"class.sh::TIntermNode", i32, %"class.sh::ImmutableString" }
%"class.sh::TIntermBranch" = type { %"class.sh::TIntermNode", i32, %"class.sh::TIntermTyped"* }
%"class.sh::TIntermFunctionDefinition" = type { %"class.sh::TIntermNode", %"class.sh::TIntermFunctionPrototype"*, %"class.sh::TIntermBlock"* }
%"class.sh::TIntermDeclaration" = type { %"class.sh::TIntermNode", %"class.sh::TIntermAggregateBase", %"class.sh::TVector.15" }
%"class.std::__1::__vector_base_common" = type { i8 }
%class.TPoolAllocator = type <{ i64, i64, i64, i64, i64, %"struct.TPoolAllocator::tHeader"*, %"struct.TPoolAllocator::tHeader"*, %"class.std::__1::vector.62", i32, [4 x i8], i64, i8, [7 x i8] }>
%"struct.TPoolAllocator::tHeader" = type { %"struct.TPoolAllocator::tHeader"*, i64 }
%"class.std::__1::vector.62" = type { %"class.std::__1::__vector_base.63" }
%"class.std::__1::__vector_base.63" = type { %"struct.TPoolAllocator::tAllocState"*, %"struct.TPoolAllocator::tAllocState"*, %"class.std::__1::__compressed_pair.64" }
%"struct.TPoolAllocator::tAllocState" = type { i64, %"struct.TPoolAllocator::tHeader"* }
%"class.std::__1::__compressed_pair.64" = type { %"struct.std::__1::__compressed_pair_elem.65" }
%"struct.std::__1::__compressed_pair_elem.65" = type { %"struct.TPoolAllocator::tAllocState"* }
%"class.sh::TIntermOperator" = type <{ %"class.sh::TIntermExpression", i32, [4 x i8] }>
%"class.sh::TIntermCase" = type { %"class.sh::TIntermNode", %"class.sh::TIntermTyped"* }
%"class.sh::TDiagnostics" = type { %"class.angle::pp::Diagnostics", %"class.sh::TInfoSinkBase"*, i32, i32 }
%"class.angle::pp::Diagnostics" = type { i32 (...)** }
%"class.sh::TInfoSinkBase" = type { %"class.std::__1::basic_string.33" }
%"class.std::__1::basic_string.33" = type { %"class.std::__1::__compressed_pair.34" }
%"class.std::__1::__compressed_pair.34" = type { %"struct.std::__1::__compressed_pair_elem.35" }
%"struct.std::__1::__compressed_pair_elem.35" = type { %"struct.std::__1::basic_string<char, std::__1::char_traits<char>, std::__1::allocator<char> >::__rep" }
%"struct.std::__1::basic_string<char, std::__1::char_traits<char>, std::__1::allocator<char> >::__rep" = type { %union.anon.36 }
%union.anon.36 = type { %"struct.std::__1::basic_string<char, std::__1::char_traits<char>, std::__1::allocator<char> >::__long" }
%"struct.std::__1::basic_string<char, std::__1::char_traits<char>, std::__1::allocator<char> >::__long" = type { i8*, i64, i64 }
%"class.angle::Matrix" = type { %"class.std::__1::vector.41", i32, i32 }
%"class.std::__1::vector.41" = type { %"class.std::__1::__vector_base.42" }
%"class.std::__1::__vector_base.42" = type { float*, float*, %"class.std::__1::__compressed_pair.43" }
%"class.std::__1::__compressed_pair.43" = type { %"struct.std::__1::__compressed_pair_elem.44" }
%"struct.std::__1::__compressed_pair_elem.44" = type { float* }
%"class.sh::TIntermTraverser" = type opaque

$_ZNSt3__16vectorIPN2sh11TIntermNodeE14pool_allocatorIS3_EE6insertINS_11__wrap_iterIPKS3_EEEENS_9enable_ifIXaasr21__is_forward_iteratorIT_EE5valuesr16is_constructibleIS3_NS_15iterator_traitsISD_E9referenceEEE5valueENS8_IPS3_EEE4typeESB_SD_SD_ = comdat any

$_ZNSt3__16vectorIPN2sh11TIntermNodeE14pool_allocatorIS3_EE6insertENS_11__wrap_iterIPKS3_EERS8_ = comdat any

$_ZNK5angle6MatrixIfE9transposeEv = comdat any

$_ZNK5angle6MatrixIfE11determinantEv = comdat any

$_ZNK5angle6MatrixIfE7inverseEv = comdat any

$_ZNK5angle6MatrixIfE8compMultERKS1_ = comdat any

$_ZNK5angle6MatrixIfE12outerProductERKS1_ = comdat any

$_ZN2sh11TIntermNodeD2Ev = comdat any

$_ZN2sh12TIntermTypedD0Ev = comdat any

$_ZN2sh12TIntermTyped10getAsTypedEv = comdat any

$_ZN2sh11TIntermNode18getAsConstantUnionEv = comdat any

$_ZN2sh11TIntermNode23getAsFunctionDefinitionEv = comdat any

$_ZN2sh11TIntermNode14getAsAggregateEv = comdat any

$_ZN2sh11TIntermNode10getAsBlockEv = comdat any

$_ZN2sh11TIntermNode26getAsFunctionPrototypeNodeEv = comdat any

$_ZN2sh11TIntermNode29getAsInvariantDeclarationNodeEv = comdat any

$_ZN2sh11TIntermNode20getAsDeclarationNodeEv = comdat any

$_ZN2sh11TIntermNode16getAsSwizzleNodeEv = comdat any

$_ZN2sh11TIntermNode15getAsBinaryNodeEv = comdat any

$_ZN2sh11TIntermNode14getAsUnaryNodeEv = comdat any

$_ZN2sh11TIntermNode16getAsTernaryNodeEv = comdat any

$_ZN2sh11TIntermNode15getAsIfElseNodeEv = comdat any

$_ZN2sh11TIntermNode15getAsSwitchNodeEv = comdat any

$_ZN2sh11TIntermNode13getAsCaseNodeEv = comdat any

$_ZN2sh11TIntermNode15getAsSymbolNodeEv = comdat any

$_ZN2sh11TIntermNode13getAsLoopNodeEv = comdat any

$_ZN2sh11TIntermNode15getAsBranchNodeEv = comdat any

$_ZN2sh11TIntermNode26getAsPreprocessorDirectiveEv = comdat any

$_ZN2sh12TIntermTyped4foldEPNS_12TDiagnosticsE = comdat any

$_ZN2sh13TIntermSymbolD0Ev = comdat any

$_ZN2sh13TIntermSymbol15getAsSymbolNodeEv = comdat any

$_ZN2sh13TIntermSymbol16replaceChildNodeEPNS_11TIntermNodeES2_ = comdat any

$_ZNK2sh13TIntermSymbol8deepCopyEv = comdat any

$_ZNK2sh13TIntermSymbol14hasSideEffectsEv = comdat any

$_ZN2sh20TIntermConstantUnionD0Ev = comdat any

$_ZN2sh20TIntermConstantUnion18getAsConstantUnionEv = comdat any

$_ZN2sh20TIntermConstantUnion16replaceChildNodeEPNS_11TIntermNodeES2_ = comdat any

$_ZNK2sh20TIntermConstantUnion8deepCopyEv = comdat any

$_ZNK2sh20TIntermConstantUnion14hasSideEffectsEv = comdat any

$_ZNK2sh17TIntermExpression7getTypeEv = comdat any

$_ZN2sh16TIntermAggregateD2Ev = comdat any

$_ZN2sh16TIntermAggregateD0Ev = comdat any

$_ZN2sh16TIntermAggregate14getAsAggregateEv = comdat any

$_ZNK2sh16TIntermAggregate8deepCopyEv = comdat any

$_ZN2sh16TIntermAggregate11getSequenceEv = comdat any

$_ZNK2sh16TIntermAggregate11getSequenceEv = comdat any

$_ZThn160_N2sh16TIntermAggregateD1Ev = comdat any

$_ZThn160_N2sh16TIntermAggregateD0Ev = comdat any

$_ZThn160_N2sh16TIntermAggregate11getSequenceEv = comdat any

$_ZThn160_NK2sh16TIntermAggregate11getSequenceEv = comdat any

$_ZN2sh13TIntermBinaryD0Ev = comdat any

$_ZN2sh13TIntermBinary15getAsBinaryNodeEv = comdat any

$_ZNK2sh13TIntermBinary8deepCopyEv = comdat any

$_ZNK2sh13TIntermBinary14hasSideEffectsEv = comdat any

$_ZN2sh11TIntermNode10getAsTypedEv = comdat any

$_ZN2sh28TIntermPreprocessorDirective26getAsPreprocessorDirectiveEv = comdat any

$_ZN2sh28TIntermPreprocessorDirective16replaceChildNodeEPNS_11TIntermNodeES2_ = comdat any

$_ZN2sh17TIntermExpressionD0Ev = comdat any

$_ZN2sh15TIntermOperatorD0Ev = comdat any

$_ZNK2sh15TIntermOperator14hasSideEffectsEv = comdat any

$_ZNSt3__16vectorIi14pool_allocatorIiEE6assignIPiEENS_9enable_ifIXaasr21__is_forward_iteratorIT_EE5valuesr16is_constructibleIiNS_15iterator_traitsIS7_E9referenceEEE5valueEvE4typeES7_S7_ = comdat any

$_ZNSt3__16vectorIfNS_9allocatorIfEEE21__push_back_slow_pathIfEEvOT_ = comdat any

$_ZNSt3__16vectorIPN2sh11TIntermNodeE14pool_allocatorIS3_EE21__push_back_slow_pathIRKS3_EEvOT_ = comdat any

$_ZNSt3__16vectorIPN2sh11TIntermNodeE14pool_allocatorIS3_EE21__push_back_slow_pathIS3_EEvOT_ = comdat any

$_ZNSt3__16vectorIi14pool_allocatorIiEE21__push_back_slow_pathIRKiEEvOT_ = comdat any

$_ZNSt3__16vectorIfNS_9allocatorIfEEE21__push_back_slow_pathIRKfEEvOT_ = comdat any

$_ZTVN2sh17TIntermExpressionE = comdat any

$_ZTVN2sh15TIntermOperatorE = comdat any

@_ZTVN2sh17TIntermExpressionE = linkonce_odr hidden unnamed_addr constant { [34 x i8*] } { [34 x i8*] [i8* null, i8* null, i8* bitcast (void (%"class.sh::TIntermNode"*)* @_ZN2sh11TIntermNodeD2Ev to i8*), i8* bitcast (void (%"class.sh::TIntermExpression"*)* @_ZN2sh17TIntermExpressionD0Ev to i8*), i8* bitcast (void (%"class.sh::TIntermNode"*, %"class.sh::TIntermTraverser"*)* @_ZN2sh11TIntermNode8traverseEPNS_16TIntermTraverserE to i8*), i8* bitcast (void ()* @__cxa_pure_virtual to i8*), i8* bitcast (%"class.sh::TIntermTyped"* (%"class.sh::TIntermTyped"*)* @_ZN2sh12TIntermTyped10getAsTypedEv to i8*), i8* bitcast (%"class.sh::TIntermConstantUnion"* (%"class.sh::TIntermNode"*)* @_ZN2sh11TIntermNode18getAsConstantUnionEv to i8*), i8* bitcast (%"class.sh::TIntermFunctionDefinition"* (%"class.sh::TIntermNode"*)* @_ZN2sh11TIntermNode23getAsFunctionDefinitionEv to i8*), i8* bitcast (%"class.sh::TIntermAggregate"* (%"class.sh::TIntermNode"*)* @_ZN2sh11TIntermNode14getAsAggregateEv to i8*), i8* bitcast (%"class.sh::TIntermBlock"* (%"class.sh::TIntermNode"*)* @_ZN2sh11TIntermNode10getAsBlockEv to i8*), i8* bitcast (%"class.sh::TIntermFunctionPrototype"* (%"class.sh::TIntermNode"*)* @_ZN2sh11TIntermNode26getAsFunctionPrototypeNodeEv to i8*), i8* bitcast (%"class.sh::TIntermInvariantDeclaration"* (%"class.sh::TIntermNode"*)* @_ZN2sh11TIntermNode29getAsInvariantDeclarationNodeEv to i8*), i8* bitcast (%"class.sh::TIntermDeclaration"* (%"class.sh::TIntermNode"*)* @_ZN2sh11TIntermNode20getAsDeclarationNodeEv to i8*), i8* bitcast (%"class.sh::TIntermSwizzle"* (%"class.sh::TIntermNode"*)* @_ZN2sh11TIntermNode16getAsSwizzleNodeEv to i8*), i8* bitcast (%"class.sh::TIntermBinary"* (%"class.sh::TIntermNode"*)* @_ZN2sh11TIntermNode15getAsBinaryNodeEv to i8*), i8* bitcast (%"class.sh::TIntermUnary"* (%"class.sh::TIntermNode"*)* @_ZN2sh11TIntermNode14getAsUnaryNodeEv to i8*), i8* bitcast (%"class.sh::TIntermTernary"* (%"class.sh::TIntermNode"*)* @_ZN2sh11TIntermNode16getAsTernaryNodeEv to i8*), i8* bitcast (%"class.sh::TIntermIfElse"* (%"class.sh::TIntermNode"*)* @_ZN2sh11TIntermNode15getAsIfElseNodeEv to i8*), i8* bitcast (%"class.sh::TIntermSwitch"* (%"class.sh::TIntermNode"*)* @_ZN2sh11TIntermNode15getAsSwitchNodeEv to i8*), i8* bitcast (%"class.sh::TIntermCase"* (%"class.sh::TIntermNode"*)* @_ZN2sh11TIntermNode13getAsCaseNodeEv to i8*), i8* bitcast (%"class.sh::TIntermSymbol"* (%"class.sh::TIntermNode"*)* @_ZN2sh11TIntermNode15getAsSymbolNodeEv to i8*), i8* bitcast (%"class.sh::TIntermLoop"* (%"class.sh::TIntermNode"*)* @_ZN2sh11TIntermNode13getAsLoopNodeEv to i8*), i8* bitcast (%"class.sh::TIntermBranch"* (%"class.sh::TIntermNode"*)* @_ZN2sh11TIntermNode15getAsBranchNodeEv to i8*), i8* bitcast (%"class.sh::TIntermPreprocessorDirective"* (%"class.sh::TIntermNode"*)* @_ZN2sh11TIntermNode26getAsPreprocessorDirectiveEv to i8*), i8* bitcast (void ()* @__cxa_pure_virtual to i8*), i8* bitcast (void ()* @__cxa_pure_virtual to i8*), i8* bitcast (void ()* @__cxa_pure_virtual to i8*), i8* bitcast (void ()* @__cxa_pure_virtual to i8*), i8* bitcast (%"class.sh::TIntermTyped"* (%"class.sh::TIntermTyped"*, %"class.sh::TDiagnostics"*)* @_ZN2sh12TIntermTyped4foldEPNS_12TDiagnosticsE to i8*), i8* bitcast (i1 (%"class.sh::TIntermTyped"*)* @_ZNK2sh12TIntermTyped16hasConstantValueEv to i8*), i8* bitcast (%"class.sh::TConstantUnion"* (%"class.sh::TIntermTyped"*)* @_ZNK2sh12TIntermTyped16getConstantValueEv to i8*), i8* bitcast (void ()* @__cxa_pure_virtual to i8*), i8* bitcast (%"class.sh::TType"* (%"class.sh::TIntermExpression"*)* @_ZNK2sh17TIntermExpression7getTypeEv to i8*)] }, comdat, align 8
@_ZTVN2sh13TIntermSymbolE = hidden unnamed_addr constant { [34 x i8*] } { [34 x i8*] [i8* null, i8* null, i8* bitcast (void (%"class.sh::TIntermNode"*)* @_ZN2sh11TIntermNodeD2Ev to i8*), i8* bitcast (void (%"class.sh::TIntermSymbol"*)* @_ZN2sh13TIntermSymbolD0Ev to i8*), i8* bitcast (void (%"class.sh::TIntermSymbol"*, %"class.sh::TIntermTraverser"*)* @_ZN2sh13TIntermSymbol8traverseEPNS_16TIntermTraverserE to i8*), i8* bitcast (i1 (%"class.sh::TIntermSymbol"*, i32, %"class.sh::TIntermTraverser"*)* @_ZN2sh13TIntermSymbol5visitENS_5VisitEPNS_16TIntermTraverserE to i8*), i8* bitcast (%"class.sh::TIntermTyped"* (%"class.sh::TIntermTyped"*)* @_ZN2sh12TIntermTyped10getAsTypedEv to i8*), i8* bitcast (%"class.sh::TIntermConstantUnion"* (%"class.sh::TIntermNode"*)* @_ZN2sh11TIntermNode18getAsConstantUnionEv to i8*), i8* bitcast (%"class.sh::TIntermFunctionDefinition"* (%"class.sh::TIntermNode"*)* @_ZN2sh11TIntermNode23getAsFunctionDefinitionEv to i8*), i8* bitcast (%"class.sh::TIntermAggregate"* (%"class.sh::TIntermNode"*)* @_ZN2sh11TIntermNode14getAsAggregateEv to i8*), i8* bitcast (%"class.sh::TIntermBlock"* (%"class.sh::TIntermNode"*)* @_ZN2sh11TIntermNode10getAsBlockEv to i8*), i8* bitcast (%"class.sh::TIntermFunctionPrototype"* (%"class.sh::TIntermNode"*)* @_ZN2sh11TIntermNode26getAsFunctionPrototypeNodeEv to i8*), i8* bitcast (%"class.sh::TIntermInvariantDeclaration"* (%"class.sh::TIntermNode"*)* @_ZN2sh11TIntermNode29getAsInvariantDeclarationNodeEv to i8*), i8* bitcast (%"class.sh::TIntermDeclaration"* (%"class.sh::TIntermNode"*)* @_ZN2sh11TIntermNode20getAsDeclarationNodeEv to i8*), i8* bitcast (%"class.sh::TIntermSwizzle"* (%"class.sh::TIntermNode"*)* @_ZN2sh11TIntermNode16getAsSwizzleNodeEv to i8*), i8* bitcast (%"class.sh::TIntermBinary"* (%"class.sh::TIntermNode"*)* @_ZN2sh11TIntermNode15getAsBinaryNodeEv to i8*), i8* bitcast (%"class.sh::TIntermUnary"* (%"class.sh::TIntermNode"*)* @_ZN2sh11TIntermNode14getAsUnaryNodeEv to i8*), i8* bitcast (%"class.sh::TIntermTernary"* (%"class.sh::TIntermNode"*)* @_ZN2sh11TIntermNode16getAsTernaryNodeEv to i8*), i8* bitcast (%"class.sh::TIntermIfElse"* (%"class.sh::TIntermNode"*)* @_ZN2sh11TIntermNode15getAsIfElseNodeEv to i8*), i8* bitcast (%"class.sh::TIntermSwitch"* (%"class.sh::TIntermNode"*)* @_ZN2sh11TIntermNode15getAsSwitchNodeEv to i8*), i8* bitcast (%"class.sh::TIntermCase"* (%"class.sh::TIntermNode"*)* @_ZN2sh11TIntermNode13getAsCaseNodeEv to i8*), i8* bitcast (%"class.sh::TIntermSymbol"* (%"class.sh::TIntermSymbol"*)* @_ZN2sh13TIntermSymbol15getAsSymbolNodeEv to i8*), i8* bitcast (%"class.sh::TIntermLoop"* (%"class.sh::TIntermNode"*)* @_ZN2sh11TIntermNode13getAsLoopNodeEv to i8*), i8* bitcast (%"class.sh::TIntermBranch"* (%"class.sh::TIntermNode"*)* @_ZN2sh11TIntermNode15getAsBranchNodeEv to i8*), i8* bitcast (%"class.sh::TIntermPreprocessorDirective"* (%"class.sh::TIntermNode"*)* @_ZN2sh11TIntermNode26getAsPreprocessorDirectiveEv to i8*), i8* bitcast (i64 (%"class.sh::TIntermSymbol"*)* @_ZNK2sh13TIntermSymbol13getChildCountEv to i8*), i8* bitcast (%"class.sh::TIntermNode"* (%"class.sh::TIntermSymbol"*, i64)* @_ZNK2sh13TIntermSymbol12getChildNodeEm to i8*), i8* bitcast (i1 (%"class.sh::TIntermSymbol"*, %"class.sh::TIntermNode"*, %"class.sh::TIntermNode"*)* @_ZN2sh13TIntermSymbol16replaceChildNodeEPNS_11TIntermNodeES2_ to i8*), i8* bitcast (%"class.sh::TIntermTyped"* (%"class.sh::TIntermSymbol"*)* @_ZNK2sh13TIntermSymbol8deepCopyEv to i8*), i8* bitcast (%"class.sh::TIntermTyped"* (%"class.sh::TIntermTyped"*, %"class.sh::TDiagnostics"*)* @_ZN2sh12TIntermTyped4foldEPNS_12TDiagnosticsE to i8*), i8* bitcast (i1 (%"class.sh::TIntermSymbol"*)* @_ZNK2sh13TIntermSymbol16hasConstantValueEv to i8*), i8* bitcast (%"class.sh::TConstantUnion"* (%"class.sh::TIntermSymbol"*)* @_ZNK2sh13TIntermSymbol16getConstantValueEv to i8*), i8* bitcast (i1 (%"class.sh::TIntermSymbol"*)* @_ZNK2sh13TIntermSymbol14hasSideEffectsEv to i8*), i8* bitcast (%"class.sh::TType"* (%"class.sh::TIntermSymbol"*)* @_ZNK2sh13TIntermSymbol7getTypeEv to i8*)] }, align 8
@_ZTVN2sh16TIntermAggregateE = hidden unnamed_addr constant { [36 x i8*], [6 x i8*] } { [36 x i8*] [i8* null, i8* null, i8* bitcast (void (%"class.sh::TIntermAggregate"*)* @_ZN2sh16TIntermAggregateD2Ev to i8*), i8* bitcast (void (%"class.sh::TIntermAggregate"*)* @_ZN2sh16TIntermAggregateD0Ev to i8*), i8* bitcast (void (%"class.sh::TIntermAggregate"*, %"class.sh::TIntermTraverser"*)* @_ZN2sh16TIntermAggregate8traverseEPNS_16TIntermTraverserE to i8*), i8* bitcast (i1 (%"class.sh::TIntermAggregate"*, i32, %"class.sh::TIntermTraverser"*)* @_ZN2sh16TIntermAggregate5visitENS_5VisitEPNS_16TIntermTraverserE to i8*), i8* bitcast (%"class.sh::TIntermTyped"* (%"class.sh::TIntermTyped"*)* @_ZN2sh12TIntermTyped10getAsTypedEv to i8*), i8* bitcast (%"class.sh::TIntermConstantUnion"* (%"class.sh::TIntermNode"*)* @_ZN2sh11TIntermNode18getAsConstantUnionEv to i8*), i8* bitcast (%"class.sh::TIntermFunctionDefinition"* (%"class.sh::TIntermNode"*)* @_ZN2sh11TIntermNode23getAsFunctionDefinitionEv to i8*), i8* bitcast (%"class.sh::TIntermAggregate"* (%"class.sh::TIntermAggregate"*)* @_ZN2sh16TIntermAggregate14getAsAggregateEv to i8*), i8* bitcast (%"class.sh::TIntermBlock"* (%"class.sh::TIntermNode"*)* @_ZN2sh11TIntermNode10getAsBlockEv to i8*), i8* bitcast (%"class.sh::TIntermFunctionPrototype"* (%"class.sh::TIntermNode"*)* @_ZN2sh11TIntermNode26getAsFunctionPrototypeNodeEv to i8*), i8* bitcast (%"class.sh::TIntermInvariantDeclaration"* (%"class.sh::TIntermNode"*)* @_ZN2sh11TIntermNode29getAsInvariantDeclarationNodeEv to i8*), i8* bitcast (%"class.sh::TIntermDeclaration"* (%"class.sh::TIntermNode"*)* @_ZN2sh11TIntermNode20getAsDeclarationNodeEv to i8*), i8* bitcast (%"class.sh::TIntermSwizzle"* (%"class.sh::TIntermNode"*)* @_ZN2sh11TIntermNode16getAsSwizzleNodeEv to i8*), i8* bitcast (%"class.sh::TIntermBinary"* (%"class.sh::TIntermNode"*)* @_ZN2sh11TIntermNode15getAsBinaryNodeEv to i8*), i8* bitcast (%"class.sh::TIntermUnary"* (%"class.sh::TIntermNode"*)* @_ZN2sh11TIntermNode14getAsUnaryNodeEv to i8*), i8* bitcast (%"class.sh::TIntermTernary"* (%"class.sh::TIntermNode"*)* @_ZN2sh11TIntermNode16getAsTernaryNodeEv to i8*), i8* bitcast (%"class.sh::TIntermIfElse"* (%"class.sh::TIntermNode"*)* @_ZN2sh11TIntermNode15getAsIfElseNodeEv to i8*), i8* bitcast (%"class.sh::TIntermSwitch"* (%"class.sh::TIntermNode"*)* @_ZN2sh11TIntermNode15getAsSwitchNodeEv to i8*), i8* bitcast (%"class.sh::TIntermCase"* (%"class.sh::TIntermNode"*)* @_ZN2sh11TIntermNode13getAsCaseNodeEv to i8*), i8* bitcast (%"class.sh::TIntermSymbol"* (%"class.sh::TIntermNode"*)* @_ZN2sh11TIntermNode15getAsSymbolNodeEv to i8*), i8* bitcast (%"class.sh::TIntermLoop"* (%"class.sh::TIntermNode"*)* @_ZN2sh11TIntermNode13getAsLoopNodeEv to i8*), i8* bitcast (%"class.sh::TIntermBranch"* (%"class.sh::TIntermNode"*)* @_ZN2sh11TIntermNode15getAsBranchNodeEv to i8*), i8* bitcast (%"class.sh::TIntermPreprocessorDirective"* (%"class.sh::TIntermNode"*)* @_ZN2sh11TIntermNode26getAsPreprocessorDirectiveEv to i8*), i8* bitcast (i64 (%"class.sh::TIntermAggregate"*)* @_ZNK2sh16TIntermAggregate13getChildCountEv to i8*), i8* bitcast (%"class.sh::TIntermNode"* (%"class.sh::TIntermAggregate"*, i64)* @_ZNK2sh16TIntermAggregate12getChildNodeEm to i8*), i8* bitcast (i1 (%"class.sh::TIntermAggregate"*, %"class.sh::TIntermNode"*, %"class.sh::TIntermNode"*)* @_ZN2sh16TIntermAggregate16replaceChildNodeEPNS_11TIntermNodeES2_ to i8*), i8* bitcast (%"class.sh::TIntermTyped"* (%"class.sh::TIntermAggregate"*)* @_ZNK2sh16TIntermAggregate8deepCopyEv to i8*), i8* bitcast (%"class.sh::TIntermTyped"* (%"class.sh::TIntermAggregate"*, %"class.sh::TDiagnostics"*)* @_ZN2sh16TIntermAggregate4foldEPNS_12TDiagnosticsE to i8*), i8* bitcast (i1 (%"class.sh::TIntermAggregate"*)* @_ZNK2sh16TIntermAggregate16hasConstantValueEv to i8*), i8* bitcast (%"class.sh::TConstantUnion"* (%"class.sh::TIntermAggregate"*)* @_ZNK2sh16TIntermAggregate16getConstantValueEv to i8*), i8* bitcast (i1 (%"class.sh::TIntermAggregate"*)* @_ZNK2sh16TIntermAggregate14hasSideEffectsEv to i8*), i8* bitcast (%"class.sh::TType"* (%"class.sh::TIntermExpression"*)* @_ZNK2sh17TIntermExpression7getTypeEv to i8*), i8* bitcast (%"class.sh::TVector.15"* (%"class.sh::TIntermAggregate"*)* @_ZN2sh16TIntermAggregate11getSequenceEv to i8*), i8* bitcast (%"class.sh::TVector.15"* (%"class.sh::TIntermAggregate"*)* @_ZNK2sh16TIntermAggregate11getSequenceEv to i8*)], [6 x i8*] [i8* inttoptr (i64 -160 to i8*), i8* null, i8* bitcast (void (%"class.sh::TIntermAggregate"*)* @_ZThn160_N2sh16TIntermAggregateD1Ev to i8*), i8* bitcast (void (%"class.sh::TIntermAggregate"*)* @_ZThn160_N2sh16TIntermAggregateD0Ev to i8*), i8* bitcast (%"class.sh::TVector.15"* (%"class.sh::TIntermAggregate"*)* @_ZThn160_N2sh16TIntermAggregate11getSequenceEv to i8*), i8* bitcast (%"class.sh::TVector.15"* (%"class.sh::TIntermAggregate"*)* @_ZThn160_NK2sh16TIntermAggregate11getSequenceEv to i8*)] }, align 8
@.str = private unnamed_addr constant [12 x i8] c"textureSize\00", align 1
@_ZTVN2sh12TIntermTypedE = hidden unnamed_addr constant { [34 x i8*] } { [34 x i8*] [i8* null, i8* null, i8* bitcast (void (%"class.sh::TIntermNode"*)* @_ZN2sh11TIntermNodeD2Ev to i8*), i8* bitcast (void (%"class.sh::TIntermTyped"*)* @_ZN2sh12TIntermTypedD0Ev to i8*), i8* bitcast (void (%"class.sh::TIntermNode"*, %"class.sh::TIntermTraverser"*)* @_ZN2sh11TIntermNode8traverseEPNS_16TIntermTraverserE to i8*), i8* bitcast (void ()* @__cxa_pure_virtual to i8*), i8* bitcast (%"class.sh::TIntermTyped"* (%"class.sh::TIntermTyped"*)* @_ZN2sh12TIntermTyped10getAsTypedEv to i8*), i8* bitcast (%"class.sh::TIntermConstantUnion"* (%"class.sh::TIntermNode"*)* @_ZN2sh11TIntermNode18getAsConstantUnionEv to i8*), i8* bitcast (%"class.sh::TIntermFunctionDefinition"* (%"class.sh::TIntermNode"*)* @_ZN2sh11TIntermNode23getAsFunctionDefinitionEv to i8*), i8* bitcast (%"class.sh::TIntermAggregate"* (%"class.sh::TIntermNode"*)* @_ZN2sh11TIntermNode14getAsAggregateEv to i8*), i8* bitcast (%"class.sh::TIntermBlock"* (%"class.sh::TIntermNode"*)* @_ZN2sh11TIntermNode10getAsBlockEv to i8*), i8* bitcast (%"class.sh::TIntermFunctionPrototype"* (%"class.sh::TIntermNode"*)* @_ZN2sh11TIntermNode26getAsFunctionPrototypeNodeEv to i8*), i8* bitcast (%"class.sh::TIntermInvariantDeclaration"* (%"class.sh::TIntermNode"*)* @_ZN2sh11TIntermNode29getAsInvariantDeclarationNodeEv to i8*), i8* bitcast (%"class.sh::TIntermDeclaration"* (%"class.sh::TIntermNode"*)* @_ZN2sh11TIntermNode20getAsDeclarationNodeEv to i8*), i8* bitcast (%"class.sh::TIntermSwizzle"* (%"class.sh::TIntermNode"*)* @_ZN2sh11TIntermNode16getAsSwizzleNodeEv to i8*), i8* bitcast (%"class.sh::TIntermBinary"* (%"class.sh::TIntermNode"*)* @_ZN2sh11TIntermNode15getAsBinaryNodeEv to i8*), i8* bitcast (%"class.sh::TIntermUnary"* (%"class.sh::TIntermNode"*)* @_ZN2sh11TIntermNode14getAsUnaryNodeEv to i8*), i8* bitcast (%"class.sh::TIntermTernary"* (%"class.sh::TIntermNode"*)* @_ZN2sh11TIntermNode16getAsTernaryNodeEv to i8*), i8* bitcast (%"class.sh::TIntermIfElse"* (%"class.sh::TIntermNode"*)* @_ZN2sh11TIntermNode15getAsIfElseNodeEv to i8*), i8* bitcast (%"class.sh::TIntermSwitch"* (%"class.sh::TIntermNode"*)* @_ZN2sh11TIntermNode15getAsSwitchNodeEv to i8*), i8* bitcast (%"class.sh::TIntermCase"* (%"class.sh::TIntermNode"*)* @_ZN2sh11TIntermNode13getAsCaseNodeEv to i8*), i8* bitcast (%"class.sh::TIntermSymbol"* (%"class.sh::TIntermNode"*)* @_ZN2sh11TIntermNode15getAsSymbolNodeEv to i8*), i8* bitcast (%"class.sh::TIntermLoop"* (%"class.sh::TIntermNode"*)* @_ZN2sh11TIntermNode13getAsLoopNodeEv to i8*), i8* bitcast (%"class.sh::TIntermBranch"* (%"class.sh::TIntermNode"*)* @_ZN2sh11TIntermNode15getAsBranchNodeEv to i8*), i8* bitcast (%"class.sh::TIntermPreprocessorDirective"* (%"class.sh::TIntermNode"*)* @_ZN2sh11TIntermNode26getAsPreprocessorDirectiveEv to i8*), i8* bitcast (void ()* @__cxa_pure_virtual to i8*), i8* bitcast (void ()* @__cxa_pure_virtual to i8*), i8* bitcast (void ()* @__cxa_pure_virtual to i8*), i8* bitcast (void ()* @__cxa_pure_virtual to i8*), i8* bitcast (%"class.sh::TIntermTyped"* (%"class.sh::TIntermTyped"*, %"class.sh::TDiagnostics"*)* @_ZN2sh12TIntermTyped4foldEPNS_12TDiagnosticsE to i8*), i8* bitcast (i1 (%"class.sh::TIntermTyped"*)* @_ZNK2sh12TIntermTyped16hasConstantValueEv to i8*), i8* bitcast (%"class.sh::TConstantUnion"* (%"class.sh::TIntermTyped"*)* @_ZNK2sh12TIntermTyped16getConstantValueEv to i8*), i8* bitcast (void ()* @__cxa_pure_virtual to i8*), i8* bitcast (void ()* @__cxa_pure_virtual to i8*)] }, align 8
@_ZTVN2sh20TIntermConstantUnionE = hidden unnamed_addr constant { [34 x i8*] } { [34 x i8*] [i8* null, i8* null, i8* bitcast (void (%"class.sh::TIntermNode"*)* @_ZN2sh11TIntermNodeD2Ev to i8*), i8* bitcast (void (%"class.sh::TIntermConstantUnion"*)* @_ZN2sh20TIntermConstantUnionD0Ev to i8*), i8* bitcast (void (%"class.sh::TIntermConstantUnion"*, %"class.sh::TIntermTraverser"*)* @_ZN2sh20TIntermConstantUnion8traverseEPNS_16TIntermTraverserE to i8*), i8* bitcast (i1 (%"class.sh::TIntermConstantUnion"*, i32, %"class.sh::TIntermTraverser"*)* @_ZN2sh20TIntermConstantUnion5visitENS_5VisitEPNS_16TIntermTraverserE to i8*), i8* bitcast (%"class.sh::TIntermTyped"* (%"class.sh::TIntermTyped"*)* @_ZN2sh12TIntermTyped10getAsTypedEv to i8*), i8* bitcast (%"class.sh::TIntermConstantUnion"* (%"class.sh::TIntermConstantUnion"*)* @_ZN2sh20TIntermConstantUnion18getAsConstantUnionEv to i8*), i8* bitcast (%"class.sh::TIntermFunctionDefinition"* (%"class.sh::TIntermNode"*)* @_ZN2sh11TIntermNode23getAsFunctionDefinitionEv to i8*), i8* bitcast (%"class.sh::TIntermAggregate"* (%"class.sh::TIntermNode"*)* @_ZN2sh11TIntermNode14getAsAggregateEv to i8*), i8* bitcast (%"class.sh::TIntermBlock"* (%"class.sh::TIntermNode"*)* @_ZN2sh11TIntermNode10getAsBlockEv to i8*), i8* bitcast (%"class.sh::TIntermFunctionPrototype"* (%"class.sh::TIntermNode"*)* @_ZN2sh11TIntermNode26getAsFunctionPrototypeNodeEv to i8*), i8* bitcast (%"class.sh::TIntermInvariantDeclaration"* (%"class.sh::TIntermNode"*)* @_ZN2sh11TIntermNode29getAsInvariantDeclarationNodeEv to i8*), i8* bitcast (%"class.sh::TIntermDeclaration"* (%"class.sh::TIntermNode"*)* @_ZN2sh11TIntermNode20getAsDeclarationNodeEv to i8*), i8* bitcast (%"class.sh::TIntermSwizzle"* (%"class.sh::TIntermNode"*)* @_ZN2sh11TIntermNode16getAsSwizzleNodeEv to i8*), i8* bitcast (%"class.sh::TIntermBinary"* (%"class.sh::TIntermNode"*)* @_ZN2sh11TIntermNode15getAsBinaryNodeEv to i8*), i8* bitcast (%"class.sh::TIntermUnary"* (%"class.sh::TIntermNode"*)* @_ZN2sh11TIntermNode14getAsUnaryNodeEv to i8*), i8* bitcast (%"class.sh::TIntermTernary"* (%"class.sh::TIntermNode"*)* @_ZN2sh11TIntermNode16getAsTernaryNodeEv to i8*), i8* bitcast (%"class.sh::TIntermIfElse"* (%"class.sh::TIntermNode"*)* @_ZN2sh11TIntermNode15getAsIfElseNodeEv to i8*), i8* bitcast (%"class.sh::TIntermSwitch"* (%"class.sh::TIntermNode"*)* @_ZN2sh11TIntermNode15getAsSwitchNodeEv to i8*), i8* bitcast (%"class.sh::TIntermCase"* (%"class.sh::TIntermNode"*)* @_ZN2sh11TIntermNode13getAsCaseNodeEv to i8*), i8* bitcast (%"class.sh::TIntermSymbol"* (%"class.sh::TIntermNode"*)* @_ZN2sh11TIntermNode15getAsSymbolNodeEv to i8*), i8* bitcast (%"class.sh::TIntermLoop"* (%"class.sh::TIntermNode"*)* @_ZN2sh11TIntermNode13getAsLoopNodeEv to i8*), i8* bitcast (%"class.sh::TIntermBranch"* (%"class.sh::TIntermNode"*)* @_ZN2sh11TIntermNode15getAsBranchNodeEv to i8*), i8* bitcast (%"class.sh::TIntermPreprocessorDirective"* (%"class.sh::TIntermNode"*)* @_ZN2sh11TIntermNode26getAsPreprocessorDirectiveEv to i8*), i8* bitcast (i64 (%"class.sh::TIntermConstantUnion"*)* @_ZNK2sh20TIntermConstantUnion13getChildCountEv to i8*), i8* bitcast (%"class.sh::TIntermNode"* (%"class.sh::TIntermConstantUnion"*, i64)* @_ZNK2sh20TIntermConstantUnion12getChildNodeEm to i8*), i8* bitcast (i1 (%"class.sh::TIntermConstantUnion"*, %"class.sh::TIntermNode"*, %"class.sh::TIntermNode"*)* @_ZN2sh20TIntermConstantUnion16replaceChildNodeEPNS_11TIntermNodeES2_ to i8*), i8* bitcast (%"class.sh::TIntermTyped"* (%"class.sh::TIntermConstantUnion"*)* @_ZNK2sh20TIntermConstantUnion8deepCopyEv to i8*), i8* bitcast (%"class.sh::TIntermTyped"* (%"class.sh::TIntermTyped"*, %"class.sh::TDiagnostics"*)* @_ZN2sh12TIntermTyped4foldEPNS_12TDiagnosticsE to i8*), i8* bitcast (i1 (%"class.sh::TIntermConstantUnion"*)* @_ZNK2sh20TIntermConstantUnion16hasConstantValueEv to i8*), i8* bitcast (%"class.sh::TConstantUnion"* (%"class.sh::TIntermConstantUnion"*)* @_ZNK2sh20TIntermConstantUnion16getConstantValueEv to i8*), i8* bitcast (i1 (%"class.sh::TIntermConstantUnion"*)* @_ZNK2sh20TIntermConstantUnion14hasSideEffectsEv to i8*), i8* bitcast (%"class.sh::TType"* (%"class.sh::TIntermExpression"*)* @_ZNK2sh17TIntermExpression7getTypeEv to i8*)] }, align 8
@_ZTVN2sh24TIntermFunctionPrototypeE = external unnamed_addr constant { [34 x i8*] }
@_ZTVN2sh14TIntermSwizzleE = external unnamed_addr constant { [34 x i8*] }
@_ZTVN2sh13TIntermBinaryE = hidden unnamed_addr constant { [34 x i8*] } { [34 x i8*] [i8* null, i8* null, i8* bitcast (void (%"class.sh::TIntermNode"*)* @_ZN2sh11TIntermNodeD2Ev to i8*), i8* bitcast (void (%"class.sh::TIntermBinary"*)* @_ZN2sh13TIntermBinaryD0Ev to i8*), i8* bitcast (void (%"class.sh::TIntermBinary"*, %"class.sh::TIntermTraverser"*)* @_ZN2sh13TIntermBinary8traverseEPNS_16TIntermTraverserE to i8*), i8* bitcast (i1 (%"class.sh::TIntermBinary"*, i32, %"class.sh::TIntermTraverser"*)* @_ZN2sh13TIntermBinary5visitENS_5VisitEPNS_16TIntermTraverserE to i8*), i8* bitcast (%"class.sh::TIntermTyped"* (%"class.sh::TIntermTyped"*)* @_ZN2sh12TIntermTyped10getAsTypedEv to i8*), i8* bitcast (%"class.sh::TIntermConstantUnion"* (%"class.sh::TIntermNode"*)* @_ZN2sh11TIntermNode18getAsConstantUnionEv to i8*), i8* bitcast (%"class.sh::TIntermFunctionDefinition"* (%"class.sh::TIntermNode"*)* @_ZN2sh11TIntermNode23getAsFunctionDefinitionEv to i8*), i8* bitcast (%"class.sh::TIntermAggregate"* (%"class.sh::TIntermNode"*)* @_ZN2sh11TIntermNode14getAsAggregateEv to i8*), i8* bitcast (%"class.sh::TIntermBlock"* (%"class.sh::TIntermNode"*)* @_ZN2sh11TIntermNode10getAsBlockEv to i8*), i8* bitcast (%"class.sh::TIntermFunctionPrototype"* (%"class.sh::TIntermNode"*)* @_ZN2sh11TIntermNode26getAsFunctionPrototypeNodeEv to i8*), i8* bitcast (%"class.sh::TIntermInvariantDeclaration"* (%"class.sh::TIntermNode"*)* @_ZN2sh11TIntermNode29getAsInvariantDeclarationNodeEv to i8*), i8* bitcast (%"class.sh::TIntermDeclaration"* (%"class.sh::TIntermNode"*)* @_ZN2sh11TIntermNode20getAsDeclarationNodeEv to i8*), i8* bitcast (%"class.sh::TIntermSwizzle"* (%"class.sh::TIntermNode"*)* @_ZN2sh11TIntermNode16getAsSwizzleNodeEv to i8*), i8* bitcast (%"class.sh::TIntermBinary"* (%"class.sh::TIntermBinary"*)* @_ZN2sh13TIntermBinary15getAsBinaryNodeEv to i8*), i8* bitcast (%"class.sh::TIntermUnary"* (%"class.sh::TIntermNode"*)* @_ZN2sh11TIntermNode14getAsUnaryNodeEv to i8*), i8* bitcast (%"class.sh::TIntermTernary"* (%"class.sh::TIntermNode"*)* @_ZN2sh11TIntermNode16getAsTernaryNodeEv to i8*), i8* bitcast (%"class.sh::TIntermIfElse"* (%"class.sh::TIntermNode"*)* @_ZN2sh11TIntermNode15getAsIfElseNodeEv to i8*), i8* bitcast (%"class.sh::TIntermSwitch"* (%"class.sh::TIntermNode"*)* @_ZN2sh11TIntermNode15getAsSwitchNodeEv to i8*), i8* bitcast (%"class.sh::TIntermCase"* (%"class.sh::TIntermNode"*)* @_ZN2sh11TIntermNode13getAsCaseNodeEv to i8*), i8* bitcast (%"class.sh::TIntermSymbol"* (%"class.sh::TIntermNode"*)* @_ZN2sh11TIntermNode15getAsSymbolNodeEv to i8*), i8* bitcast (%"class.sh::TIntermLoop"* (%"class.sh::TIntermNode"*)* @_ZN2sh11TIntermNode13getAsLoopNodeEv to i8*), i8* bitcast (%"class.sh::TIntermBranch"* (%"class.sh::TIntermNode"*)* @_ZN2sh11TIntermNode15getAsBranchNodeEv to i8*), i8* bitcast (%"class.sh::TIntermPreprocessorDirective"* (%"class.sh::TIntermNode"*)* @_ZN2sh11TIntermNode26getAsPreprocessorDirectiveEv to i8*), i8* bitcast (i64 (%"class.sh::TIntermBinary"*)* @_ZNK2sh13TIntermBinary13getChildCountEv to i8*), i8* bitcast (%"class.sh::TIntermNode"* (%"class.sh::TIntermBinary"*, i64)* @_ZNK2sh13TIntermBinary12getChildNodeEm to i8*), i8* bitcast (i1 (%"class.sh::TIntermBinary"*, %"class.sh::TIntermNode"*, %"class.sh::TIntermNode"*)* @_ZN2sh13TIntermBinary16replaceChildNodeEPNS_11TIntermNodeES2_ to i8*), i8* bitcast (%"class.sh::TIntermTyped"* (%"class.sh::TIntermBinary"*)* @_ZNK2sh13TIntermBinary8deepCopyEv to i8*), i8* bitcast (%"class.sh::TIntermTyped"* (%"class.sh::TIntermBinary"*, %"class.sh::TDiagnostics"*)* @_ZN2sh13TIntermBinary4foldEPNS_12TDiagnosticsE to i8*), i8* bitcast (i1 (%"class.sh::TIntermBinary"*)* @_ZNK2sh13TIntermBinary16hasConstantValueEv to i8*), i8* bitcast (%"class.sh::TConstantUnion"* (%"class.sh::TIntermBinary"*)* @_ZNK2sh13TIntermBinary16getConstantValueEv to i8*), i8* bitcast (i1 (%"class.sh::TIntermBinary"*)* @_ZNK2sh13TIntermBinary14hasSideEffectsEv to i8*), i8* bitcast (%"class.sh::TType"* (%"class.sh::TIntermExpression"*)* @_ZNK2sh17TIntermExpression7getTypeEv to i8*)] }, align 8
@_ZTVN2sh12TIntermUnaryE = external unnamed_addr constant { [34 x i8*] }
@_ZTVN2sh14TIntermTernaryE = external unnamed_addr constant { [34 x i8*] }
@_ZTVN2sh27TIntermInvariantDeclarationE = external unnamed_addr constant { [28 x i8*] }
@_ZTVN2sh11TIntermLoopE = external unnamed_addr constant { [28 x i8*] }
@_ZTVN2sh13TIntermIfElseE = external unnamed_addr constant { [28 x i8*] }
@_ZTVN2sh13TIntermSwitchE = external unnamed_addr constant { [28 x i8*] }
@.str.1 = private unnamed_addr constant [2 x i8] c"x\00", align 1
@.str.2 = private unnamed_addr constant [2 x i8] c"y\00", align 1
@.str.3 = private unnamed_addr constant [2 x i8] c"z\00", align 1
@.str.4 = private unnamed_addr constant [2 x i8] c"w\00", align 1
@.str.5 = private unnamed_addr constant [46 x i8] c"casting a negative float to uint is undefined\00", align 1
@.str.6 = private unnamed_addr constant [59 x i8] c"Zero divided by zero during constant folding generated NaN\00", align 1
@.str.7 = private unnamed_addr constant [2 x i8] c"/\00", align 1
@.str.8 = private unnamed_addr constant [39 x i8] c"Divide by zero during constant folding\00", align 1
@.str.9 = private unnamed_addr constant [67 x i8] c"Infinity divided by infinity during constant folding generated NaN\00", align 1
@.str.10 = private unnamed_addr constant [48 x i8] c"Constant folded division overflowed to infinity\00", align 1
@.str.11 = private unnamed_addr constant [45 x i8] c"Divide by zero error during constant folding\00", align 1
@.str.12 = private unnamed_addr constant [94 x i8] c"Negative modulus operator operand encountered during constant folding. Results are undefined.\00", align 1
@.str.13 = private unnamed_addr constant [2 x i8] c"%\00", align 1
@_ZTVN2sh28TIntermPreprocessorDirectiveE = hidden unnamed_addr constant { [28 x i8*] } { [28 x i8*] [i8* null, i8* null, i8* bitcast (void (%"class.sh::TIntermPreprocessorDirective"*)* @_ZN2sh28TIntermPreprocessorDirectiveD2Ev to i8*), i8* bitcast (void (%"class.sh::TIntermPreprocessorDirective"*)* @_ZN2sh28TIntermPreprocessorDirectiveD0Ev to i8*), i8* bitcast (void (%"class.sh::TIntermPreprocessorDirective"*, %"class.sh::TIntermTraverser"*)* @_ZN2sh28TIntermPreprocessorDirective8traverseEPNS_16TIntermTraverserE to i8*), i8* bitcast (i1 (%"class.sh::TIntermPreprocessorDirective"*, i32, %"class.sh::TIntermTraverser"*)* @_ZN2sh28TIntermPreprocessorDirective5visitENS_5VisitEPNS_16TIntermTraverserE to i8*), i8* bitcast (%"class.sh::TIntermTyped"* (%"class.sh::TIntermNode"*)* @_ZN2sh11TIntermNode10getAsTypedEv to i8*), i8* bitcast (%"class.sh::TIntermConstantUnion"* (%"class.sh::TIntermNode"*)* @_ZN2sh11TIntermNode18getAsConstantUnionEv to i8*), i8* bitcast (%"class.sh::TIntermFunctionDefinition"* (%"class.sh::TIntermNode"*)* @_ZN2sh11TIntermNode23getAsFunctionDefinitionEv to i8*), i8* bitcast (%"class.sh::TIntermAggregate"* (%"class.sh::TIntermNode"*)* @_ZN2sh11TIntermNode14getAsAggregateEv to i8*), i8* bitcast (%"class.sh::TIntermBlock"* (%"class.sh::TIntermNode"*)* @_ZN2sh11TIntermNode10getAsBlockEv to i8*), i8* bitcast (%"class.sh::TIntermFunctionPrototype"* (%"class.sh::TIntermNode"*)* @_ZN2sh11TIntermNode26getAsFunctionPrototypeNodeEv to i8*), i8* bitcast (%"class.sh::TIntermInvariantDeclaration"* (%"class.sh::TIntermNode"*)* @_ZN2sh11TIntermNode29getAsInvariantDeclarationNodeEv to i8*), i8* bitcast (%"class.sh::TIntermDeclaration"* (%"class.sh::TIntermNode"*)* @_ZN2sh11TIntermNode20getAsDeclarationNodeEv to i8*), i8* bitcast (%"class.sh::TIntermSwizzle"* (%"class.sh::TIntermNode"*)* @_ZN2sh11TIntermNode16getAsSwizzleNodeEv to i8*), i8* bitcast (%"class.sh::TIntermBinary"* (%"class.sh::TIntermNode"*)* @_ZN2sh11TIntermNode15getAsBinaryNodeEv to i8*), i8* bitcast (%"class.sh::TIntermUnary"* (%"class.sh::TIntermNode"*)* @_ZN2sh11TIntermNode14getAsUnaryNodeEv to i8*), i8* bitcast (%"class.sh::TIntermTernary"* (%"class.sh::TIntermNode"*)* @_ZN2sh11TIntermNode16getAsTernaryNodeEv to i8*), i8* bitcast (%"class.sh::TIntermIfElse"* (%"class.sh::TIntermNode"*)* @_ZN2sh11TIntermNode15getAsIfElseNodeEv to i8*), i8* bitcast (%"class.sh::TIntermSwitch"* (%"class.sh::TIntermNode"*)* @_ZN2sh11TIntermNode15getAsSwitchNodeEv to i8*), i8* bitcast (%"class.sh::TIntermCase"* (%"class.sh::TIntermNode"*)* @_ZN2sh11TIntermNode13getAsCaseNodeEv to i8*), i8* bitcast (%"class.sh::TIntermSymbol"* (%"class.sh::TIntermNode"*)* @_ZN2sh11TIntermNode15getAsSymbolNodeEv to i8*), i8* bitcast (%"class.sh::TIntermLoop"* (%"class.sh::TIntermNode"*)* @_ZN2sh11TIntermNode13getAsLoopNodeEv to i8*), i8* bitcast (%"class.sh::TIntermBranch"* (%"class.sh::TIntermNode"*)* @_ZN2sh11TIntermNode15getAsBranchNodeEv to i8*), i8* bitcast (%"class.sh::TIntermPreprocessorDirective"* (%"class.sh::TIntermPreprocessorDirective"*)* @_ZN2sh28TIntermPreprocessorDirective26getAsPreprocessorDirectiveEv to i8*), i8* bitcast (i64 (%"class.sh::TIntermPreprocessorDirective"*)* @_ZNK2sh28TIntermPreprocessorDirective13getChildCountEv to i8*), i8* bitcast (%"class.sh::TIntermNode"* (%"class.sh::TIntermPreprocessorDirective"*, i64)* @_ZNK2sh28TIntermPreprocessorDirective12getChildNodeEm to i8*), i8* bitcast (i1 (%"class.sh::TIntermPreprocessorDirective"*, %"class.sh::TIntermNode"*, %"class.sh::TIntermNode"*)* @_ZN2sh28TIntermPreprocessorDirective16replaceChildNodeEPNS_11TIntermNodeES2_ to i8*)] }, align 8
@_ZTVN2sh15TIntermOperatorE = linkonce_odr hidden unnamed_addr constant { [34 x i8*] } { [34 x i8*] [i8* null, i8* null, i8* bitcast (void (%"class.sh::TIntermNode"*)* @_ZN2sh11TIntermNodeD2Ev to i8*), i8* bitcast (void (%"class.sh::TIntermOperator"*)* @_ZN2sh15TIntermOperatorD0Ev to i8*), i8* bitcast (void (%"class.sh::TIntermNode"*, %"class.sh::TIntermTraverser"*)* @_ZN2sh11TIntermNode8traverseEPNS_16TIntermTraverserE to i8*), i8* bitcast (void ()* @__cxa_pure_virtual to i8*), i8* bitcast (%"class.sh::TIntermTyped"* (%"class.sh::TIntermTyped"*)* @_ZN2sh12TIntermTyped10getAsTypedEv to i8*), i8* bitcast (%"class.sh::TIntermConstantUnion"* (%"class.sh::TIntermNode"*)* @_ZN2sh11TIntermNode18getAsConstantUnionEv to i8*), i8* bitcast (%"class.sh::TIntermFunctionDefinition"* (%"class.sh::TIntermNode"*)* @_ZN2sh11TIntermNode23getAsFunctionDefinitionEv to i8*), i8* bitcast (%"class.sh::TIntermAggregate"* (%"class.sh::TIntermNode"*)* @_ZN2sh11TIntermNode14getAsAggregateEv to i8*), i8* bitcast (%"class.sh::TIntermBlock"* (%"class.sh::TIntermNode"*)* @_ZN2sh11TIntermNode10getAsBlockEv to i8*), i8* bitcast (%"class.sh::TIntermFunctionPrototype"* (%"class.sh::TIntermNode"*)* @_ZN2sh11TIntermNode26getAsFunctionPrototypeNodeEv to i8*), i8* bitcast (%"class.sh::TIntermInvariantDeclaration"* (%"class.sh::TIntermNode"*)* @_ZN2sh11TIntermNode29getAsInvariantDeclarationNodeEv to i8*), i8* bitcast (%"class.sh::TIntermDeclaration"* (%"class.sh::TIntermNode"*)* @_ZN2sh11TIntermNode20getAsDeclarationNodeEv to i8*), i8* bitcast (%"class.sh::TIntermSwizzle"* (%"class.sh::TIntermNode"*)* @_ZN2sh11TIntermNode16getAsSwizzleNodeEv to i8*), i8* bitcast (%"class.sh::TIntermBinary"* (%"class.sh::TIntermNode"*)* @_ZN2sh11TIntermNode15getAsBinaryNodeEv to i8*), i8* bitcast (%"class.sh::TIntermUnary"* (%"class.sh::TIntermNode"*)* @_ZN2sh11TIntermNode14getAsUnaryNodeEv to i8*), i8* bitcast (%"class.sh::TIntermTernary"* (%"class.sh::TIntermNode"*)* @_ZN2sh11TIntermNode16getAsTernaryNodeEv to i8*), i8* bitcast (%"class.sh::TIntermIfElse"* (%"class.sh::TIntermNode"*)* @_ZN2sh11TIntermNode15getAsIfElseNodeEv to i8*), i8* bitcast (%"class.sh::TIntermSwitch"* (%"class.sh::TIntermNode"*)* @_ZN2sh11TIntermNode15getAsSwitchNodeEv to i8*), i8* bitcast (%"class.sh::TIntermCase"* (%"class.sh::TIntermNode"*)* @_ZN2sh11TIntermNode13getAsCaseNodeEv to i8*), i8* bitcast (%"class.sh::TIntermSymbol"* (%"class.sh::TIntermNode"*)* @_ZN2sh11TIntermNode15getAsSymbolNodeEv to i8*), i8* bitcast (%"class.sh::TIntermLoop"* (%"class.sh::TIntermNode"*)* @_ZN2sh11TIntermNode13getAsLoopNodeEv to i8*), i8* bitcast (%"class.sh::TIntermBranch"* (%"class.sh::TIntermNode"*)* @_ZN2sh11TIntermNode15getAsBranchNodeEv to i8*), i8* bitcast (%"class.sh::TIntermPreprocessorDirective"* (%"class.sh::TIntermNode"*)* @_ZN2sh11TIntermNode26getAsPreprocessorDirectiveEv to i8*), i8* bitcast (void ()* @__cxa_pure_virtual to i8*), i8* bitcast (void ()* @__cxa_pure_virtual to i8*), i8* bitcast (void ()* @__cxa_pure_virtual to i8*), i8* bitcast (void ()* @__cxa_pure_virtual to i8*), i8* bitcast (%"class.sh::TIntermTyped"* (%"class.sh::TIntermTyped"*, %"class.sh::TDiagnostics"*)* @_ZN2sh12TIntermTyped4foldEPNS_12TDiagnosticsE to i8*), i8* bitcast (i1 (%"class.sh::TIntermTyped"*)* @_ZNK2sh12TIntermTyped16hasConstantValueEv to i8*), i8* bitcast (%"class.sh::TConstantUnion"* (%"class.sh::TIntermTyped"*)* @_ZNK2sh12TIntermTyped16getConstantValueEv to i8*), i8* bitcast (i1 (%"class.sh::TIntermOperator"*)* @_ZNK2sh15TIntermOperator14hasSideEffectsEv to i8*), i8* bitcast (%"class.sh::TType"* (%"class.sh::TIntermExpression"*)* @_ZNK2sh17TIntermExpression7getTypeEv to i8*)] }, comdat, align 8
@.str.14 = private unnamed_addr constant [1 x i8] zeroinitializer, align 1
@.str.16 = private unnamed_addr constant [55 x i8] c"operation result is undefined for the values passed in\00", align 1

@_ZN2sh13TIntermSymbolC1EPKNS_9TVariableE = hidden unnamed_addr alias void (%"class.sh::TIntermSymbol"*, %"class.sh::TVariable"*), void (%"class.sh::TIntermSymbol"*, %"class.sh::TVariable"*)* @_ZN2sh13TIntermSymbolC2EPKNS_9TVariableE
@_ZN2sh16TIntermAggregateC1EPKNS_9TFunctionERKNS_5TTypeE9TOperatorPNS_7TVectorIPNS_11TIntermNodeEEE = hidden unnamed_addr alias void (%"class.sh::TIntermAggregate"*, %"class.sh::TFunction"*, %"class.sh::TType"*, i32, %"class.sh::TVector.15"*), void (%"class.sh::TIntermAggregate"*, %"class.sh::TFunction"*, %"class.sh::TType"*, i32, %"class.sh::TVector.15"*)* @_ZN2sh16TIntermAggregateC2EPKNS_9TFunctionERKNS_5TTypeE9TOperatorPNS_7TVectorIPNS_11TIntermNodeEEE
@_ZN2sh20TIntermConstantUnionC1ERKS0_ = hidden unnamed_addr alias void (%"class.sh::TIntermConstantUnion"*, %"class.sh::TIntermConstantUnion"*), void (%"class.sh::TIntermConstantUnion"*, %"class.sh::TIntermConstantUnion"*)* @_ZN2sh20TIntermConstantUnionC2ERKS0_
@_ZN2sh24TIntermFunctionPrototypeC1EPKNS_9TFunctionE = hidden unnamed_addr alias void (%"class.sh::TIntermFunctionPrototype"*, %"class.sh::TFunction"*), void (%"class.sh::TIntermFunctionPrototype"*, %"class.sh::TFunction"*)* @_ZN2sh24TIntermFunctionPrototypeC2EPKNS_9TFunctionE
@_ZN2sh16TIntermAggregateC1ERKS0_ = hidden unnamed_addr alias void (%"class.sh::TIntermAggregate"*, %"class.sh::TIntermAggregate"*), void (%"class.sh::TIntermAggregate"*, %"class.sh::TIntermAggregate"*)* @_ZN2sh16TIntermAggregateC2ERKS0_
@_ZN2sh14TIntermSwizzleC1ERKS0_ = hidden unnamed_addr alias void (%"class.sh::TIntermSwizzle"*, %"class.sh::TIntermSwizzle"*), void (%"class.sh::TIntermSwizzle"*, %"class.sh::TIntermSwizzle"*)* @_ZN2sh14TIntermSwizzleC2ERKS0_
@_ZN2sh13TIntermBinaryC1ERKS0_ = hidden unnamed_addr alias void (%"class.sh::TIntermBinary"*, %"class.sh::TIntermBinary"*), void (%"class.sh::TIntermBinary"*, %"class.sh::TIntermBinary"*)* @_ZN2sh13TIntermBinaryC2ERKS0_
@_ZN2sh12TIntermUnaryC1ERKS0_ = hidden unnamed_addr alias void (%"class.sh::TIntermUnary"*, %"class.sh::TIntermUnary"*), void (%"class.sh::TIntermUnary"*, %"class.sh::TIntermUnary"*)* @_ZN2sh12TIntermUnaryC2ERKS0_
@_ZN2sh14TIntermTernaryC1ERKS0_ = hidden unnamed_addr alias void (%"class.sh::TIntermTernary"*, %"class.sh::TIntermTernary"*), void (%"class.sh::TIntermTernary"*, %"class.sh::TIntermTernary"*)* @_ZN2sh14TIntermTernaryC2ERKS0_
@_ZN2sh14TIntermSwizzleC1EPNS_12TIntermTypedERKNS_7TVectorIiEE = hidden unnamed_addr alias void (%"class.sh::TIntermSwizzle"*, %"class.sh::TIntermTyped"*, %"class.sh::TVector.23"*), void (%"class.sh::TIntermSwizzle"*, %"class.sh::TIntermTyped"*, %"class.sh::TVector.23"*)* @_ZN2sh14TIntermSwizzleC2EPNS_12TIntermTypedERKNS_7TVectorIiEE
@_ZN2sh12TIntermUnaryC1E9TOperatorPNS_12TIntermTypedEPKNS_9TFunctionE = hidden unnamed_addr alias void (%"class.sh::TIntermUnary"*, i32, %"class.sh::TIntermTyped"*, %"class.sh::TFunction"*), void (%"class.sh::TIntermUnary"*, i32, %"class.sh::TIntermTyped"*, %"class.sh::TFunction"*)* @_ZN2sh12TIntermUnaryC2E9TOperatorPNS_12TIntermTypedEPKNS_9TFunctionE
@_ZN2sh13TIntermBinaryC1E9TOperatorPNS_12TIntermTypedES3_ = hidden unnamed_addr alias void (%"class.sh::TIntermBinary"*, i32, %"class.sh::TIntermTyped"*, %"class.sh::TIntermTyped"*), void (%"class.sh::TIntermBinary"*, i32, %"class.sh::TIntermTyped"*, %"class.sh::TIntermTyped"*)* @_ZN2sh13TIntermBinaryC2E9TOperatorPNS_12TIntermTypedES3_
@_ZN2sh27TIntermInvariantDeclarationC1EPNS_13TIntermSymbolERKNS_10TSourceLocE = hidden unnamed_addr alias void (%"class.sh::TIntermInvariantDeclaration"*, %"class.sh::TIntermSymbol"*, %"struct.sh::TSourceLoc"*), void (%"class.sh::TIntermInvariantDeclaration"*, %"class.sh::TIntermSymbol"*, %"struct.sh::TSourceLoc"*)* @_ZN2sh27TIntermInvariantDeclarationC2EPNS_13TIntermSymbolERKNS_10TSourceLocE
@_ZN2sh14TIntermTernaryC1EPNS_12TIntermTypedES2_S2_ = hidden unnamed_addr alias void (%"class.sh::TIntermTernary"*, %"class.sh::TIntermTyped"*, %"class.sh::TIntermTyped"*, %"class.sh::TIntermTyped"*), void (%"class.sh::TIntermTernary"*, %"class.sh::TIntermTyped"*, %"class.sh::TIntermTyped"*, %"class.sh::TIntermTyped"*)* @_ZN2sh14TIntermTernaryC2EPNS_12TIntermTypedES2_S2_
@_ZN2sh11TIntermLoopC1ENS_9TLoopTypeEPNS_11TIntermNodeEPNS_12TIntermTypedES5_PNS_12TIntermBlockE = hidden unnamed_addr alias void (%"class.sh::TIntermLoop"*, i32, %"class.sh::TIntermNode"*, %"class.sh::TIntermTyped"*, %"class.sh::TIntermTyped"*, %"class.sh::TIntermBlock"*), void (%"class.sh::TIntermLoop"*, i32, %"class.sh::TIntermNode"*, %"class.sh::TIntermTyped"*, %"class.sh::TIntermTyped"*, %"class.sh::TIntermBlock"*)* @_ZN2sh11TIntermLoopC2ENS_9TLoopTypeEPNS_11TIntermNodeEPNS_12TIntermTypedES5_PNS_12TIntermBlockE
@_ZN2sh13TIntermIfElseC1EPNS_12TIntermTypedEPNS_12TIntermBlockES4_ = hidden unnamed_addr alias void (%"class.sh::TIntermIfElse"*, %"class.sh::TIntermTyped"*, %"class.sh::TIntermBlock"*, %"class.sh::TIntermBlock"*), void (%"class.sh::TIntermIfElse"*, %"class.sh::TIntermTyped"*, %"class.sh::TIntermBlock"*, %"class.sh::TIntermBlock"*)* @_ZN2sh13TIntermIfElseC2EPNS_12TIntermTypedEPNS_12TIntermBlockES4_
@_ZN2sh13TIntermSwitchC1EPNS_12TIntermTypedEPNS_12TIntermBlockE = hidden unnamed_addr alias void (%"class.sh::TIntermSwitch"*, %"class.sh::TIntermTyped"*, %"class.sh::TIntermBlock"*), void (%"class.sh::TIntermSwitch"*, %"class.sh::TIntermTyped"*, %"class.sh::TIntermBlock"*)* @_ZN2sh13TIntermSwitchC2EPNS_12TIntermTypedEPNS_12TIntermBlockE
@_ZN2sh28TIntermPreprocessorDirectiveC1ENS_21PreprocessorDirectiveENS_15ImmutableStringE = hidden unnamed_addr alias void (%"class.sh::TIntermPreprocessorDirective"*, i32, i8*, i64), void (%"class.sh::TIntermPreprocessorDirective"*, i32, i8*, i64)* @_ZN2sh28TIntermPreprocessorDirectiveC2ENS_21PreprocessorDirectiveENS_15ImmutableStringE
@_ZN2sh28TIntermPreprocessorDirectiveD1Ev = hidden unnamed_addr alias void (%"class.sh::TIntermPreprocessorDirective"*), void (%"class.sh::TIntermPreprocessorDirective"*)* @_ZN2sh28TIntermPreprocessorDirectiveD2Ev

; Function Attrs: nounwind ssp uwtable
define hidden void @_ZN2sh17TIntermExpressionC2ERKNS_5TTypeE(%"class.sh::TIntermExpression"*, %"class.sh::TType"* dereferenceable(128)) unnamed_addr #0 align 2 {
  %3 = getelementptr inbounds %"class.sh::TIntermExpression", %"class.sh::TIntermExpression"* %0, i64 0, i32 0, i32 0, i32 1, i32 0
  %4 = bitcast i32* %3 to i8*
  tail call void @llvm.memset.p0i8.i64(i8* nonnull align 8 %4, i8 0, i64 16, i1 false) #18
  %5 = getelementptr inbounds %"class.sh::TIntermExpression", %"class.sh::TIntermExpression"* %0, i64 0, i32 0, i32 0, i32 0
  store i32 (...)** bitcast (i8** getelementptr inbounds ({ [34 x i8*] }, { [34 x i8*] }* @_ZTVN2sh17TIntermExpressionE, i64 0, inrange i32 0, i64 2) to i32 (...)**), i32 (...)*** %5, align 8
  %6 = getelementptr inbounds %"class.sh::TIntermExpression", %"class.sh::TIntermExpression"* %0, i64 0, i32 1
  tail call void @_ZN2sh5TTypeC1ERKS0_(%"class.sh::TType"* nonnull %6, %"class.sh::TType"* nonnull dereferenceable(128) %1) #18
  ret void
}

declare void @_ZN2sh5TTypeC1ERKS0_(%"class.sh::TType"*, %"class.sh::TType"* dereferenceable(128)) unnamed_addr #1

; Function Attrs: nounwind ssp uwtable
define hidden void @_ZN2sh17TIntermExpression24setTypePreservePrecisionERKNS_5TTypeE(%"class.sh::TIntermExpression"*, %"class.sh::TType"* dereferenceable(128)) local_unnamed_addr #0 align 2 {
  %3 = getelementptr inbounds %"class.sh::TIntermExpression", %"class.sh::TIntermExpression"* %0, i64 0, i32 0
  %4 = bitcast %"class.sh::TIntermExpression"* %0 to %"class.sh::TType"* (%"class.sh::TIntermTyped"*)***
  %5 = load %"class.sh::TType"* (%"class.sh::TIntermTyped"*)**, %"class.sh::TType"* (%"class.sh::TIntermTyped"*)*** %4, align 8
  %6 = getelementptr inbounds %"class.sh::TType"* (%"class.sh::TIntermTyped"*)*, %"class.sh::TType"* (%"class.sh::TIntermTyped"*)** %5, i64 31
  %7 = load %"class.sh::TType"* (%"class.sh::TIntermTyped"*)*, %"class.sh::TType"* (%"class.sh::TIntermTyped"*)** %6, align 8
  %8 = tail call dereferenceable(128) %"class.sh::TType"* %7(%"class.sh::TIntermTyped"* %3) #18
  %9 = getelementptr inbounds %"class.sh::TType", %"class.sh::TType"* %8, i64 0, i32 1
  %10 = load i32, i32* %9, align 4
  %11 = getelementptr inbounds %"class.sh::TIntermExpression", %"class.sh::TIntermExpression"* %0, i64 0, i32 1
  %12 = tail call dereferenceable(128) %"class.sh::TType"* @_ZN2sh5TTypeaSERKS0_(%"class.sh::TType"* nonnull %11, %"class.sh::TType"* nonnull dereferenceable(128) %1) #18
  %13 = getelementptr inbounds %"class.sh::TIntermExpression", %"class.sh::TIntermExpression"* %0, i64 0, i32 1, i32 1
  store i32 %10, i32* %13, align 4
  ret void
}

; Function Attrs: argmemonly nounwind
declare void @llvm.lifetime.start.p0i8(i64, i8* nocapture) #2

declare dereferenceable(128) %"class.sh::TType"* @_ZN2sh5TTypeaSERKS0_(%"class.sh::TType"*, %"class.sh::TType"* dereferenceable(128)) local_unnamed_addr #1

; Function Attrs: argmemonly nounwind
declare void @llvm.lifetime.end.p0i8(i64, i8* nocapture) #2

; Function Attrs: norecurse nounwind readnone ssp uwtable
define hidden i64 @_ZNK2sh13TIntermSymbol13getChildCountEv(%"class.sh::TIntermSymbol"* nocapture readnone) unnamed_addr #3 align 2 {
  ret i64 0
}

; Function Attrs: norecurse nounwind readnone ssp uwtable
define hidden noalias %"class.sh::TIntermNode"* @_ZNK2sh13TIntermSymbol12getChildNodeEm(%"class.sh::TIntermSymbol"* nocapture readnone, i64) unnamed_addr #3 align 2 {
  ret %"class.sh::TIntermNode"* null
}

; Function Attrs: norecurse nounwind readnone ssp uwtable
define hidden i64 @_ZNK2sh20TIntermConstantUnion13getChildCountEv(%"class.sh::TIntermConstantUnion"* nocapture readnone) unnamed_addr #3 align 2 {
  ret i64 0
}

; Function Attrs: norecurse nounwind readnone ssp uwtable
define hidden noalias %"class.sh::TIntermNode"* @_ZNK2sh20TIntermConstantUnion12getChildNodeEm(%"class.sh::TIntermConstantUnion"* nocapture readnone, i64) unnamed_addr #3 align 2 {
  ret %"class.sh::TIntermNode"* null
}

; Function Attrs: norecurse nounwind readonly ssp uwtable
define hidden i64 @_ZNK2sh11TIntermLoop13getChildCountEv(%"class.sh::TIntermLoop"* nocapture readonly) unnamed_addr #4 align 2 {
  %2 = getelementptr inbounds %"class.sh::TIntermLoop", %"class.sh::TIntermLoop"* %0, i64 0, i32 2
  %3 = load %"class.sh::TIntermNode"*, %"class.sh::TIntermNode"** %2, align 8
  %4 = icmp ne %"class.sh::TIntermNode"* %3, null
  %5 = zext i1 %4 to i64
  %6 = getelementptr inbounds %"class.sh::TIntermLoop", %"class.sh::TIntermLoop"* %0, i64 0, i32 3
  %7 = load %"class.sh::TIntermTyped"*, %"class.sh::TIntermTyped"** %6, align 8
  %8 = icmp ne %"class.sh::TIntermTyped"* %7, null
  %9 = zext i1 %8 to i64
  %10 = add nuw nsw i64 %9, %5
  %11 = getelementptr inbounds %"class.sh::TIntermLoop", %"class.sh::TIntermLoop"* %0, i64 0, i32 4
  %12 = load %"class.sh::TIntermTyped"*, %"class.sh::TIntermTyped"** %11, align 8
  %13 = icmp ne %"class.sh::TIntermTyped"* %12, null
  %14 = zext i1 %13 to i64
  %15 = add nuw nsw i64 %10, %14
  %16 = getelementptr inbounds %"class.sh::TIntermLoop", %"class.sh::TIntermLoop"* %0, i64 0, i32 5
  %17 = load %"class.sh::TIntermBlock"*, %"class.sh::TIntermBlock"** %16, align 8
  %18 = icmp ne %"class.sh::TIntermBlock"* %17, null
  %19 = zext i1 %18 to i64
  %20 = add nuw nsw i64 %15, %19
  ret i64 %20
}

; Function Attrs: nounwind readonly ssp uwtable
define hidden %"class.sh::TIntermNode"* @_ZNK2sh11TIntermLoop12getChildNodeEm(%"class.sh::TIntermLoop"* nocapture readonly, i64) unnamed_addr #5 align 2 {
  %3 = alloca [4 x %"class.sh::TIntermNode"*], align 16
  %4 = bitcast [4 x %"class.sh::TIntermNode"*]* %3 to i8*
  call void @llvm.lifetime.start.p0i8(i64 32, i8* nonnull %4) #18
  %5 = getelementptr inbounds %"class.sh::TIntermLoop", %"class.sh::TIntermLoop"* %0, i64 0, i32 2
  %6 = load %"class.sh::TIntermNode"*, %"class.sh::TIntermNode"** %5, align 8
  %7 = icmp eq %"class.sh::TIntermNode"* %6, null
  br i1 %7, label %10, label %8

; <label>:8:                                      ; preds = %2
  %9 = getelementptr inbounds [4 x %"class.sh::TIntermNode"*], [4 x %"class.sh::TIntermNode"*]* %3, i64 0, i64 0
  store %"class.sh::TIntermNode"* %6, %"class.sh::TIntermNode"** %9, align 16
  br label %10

; <label>:10:                                     ; preds = %2, %8
  %11 = phi i32 [ 1, %8 ], [ 0, %2 ]
  %12 = getelementptr inbounds %"class.sh::TIntermLoop", %"class.sh::TIntermLoop"* %0, i64 0, i32 3
  %13 = load %"class.sh::TIntermTyped"*, %"class.sh::TIntermTyped"** %12, align 8
  %14 = icmp eq %"class.sh::TIntermTyped"* %13, null
  br i1 %14, label %20, label %15

; <label>:15:                                     ; preds = %10
  %16 = getelementptr inbounds %"class.sh::TIntermTyped", %"class.sh::TIntermTyped"* %13, i64 0, i32 0
  %17 = zext i32 %11 to i64
  %18 = getelementptr inbounds [4 x %"class.sh::TIntermNode"*], [4 x %"class.sh::TIntermNode"*]* %3, i64 0, i64 %17
  store %"class.sh::TIntermNode"* %16, %"class.sh::TIntermNode"** %18, align 8
  %19 = add nuw nsw i32 %11, 1
  br label %20

; <label>:20:                                     ; preds = %10, %15
  %21 = phi i32 [ %19, %15 ], [ %11, %10 ]
  %22 = getelementptr inbounds %"class.sh::TIntermLoop", %"class.sh::TIntermLoop"* %0, i64 0, i32 4
  %23 = load %"class.sh::TIntermTyped"*, %"class.sh::TIntermTyped"** %22, align 8
  %24 = icmp eq %"class.sh::TIntermTyped"* %23, null
  br i1 %24, label %30, label %25

; <label>:25:                                     ; preds = %20
  %26 = getelementptr inbounds %"class.sh::TIntermTyped", %"class.sh::TIntermTyped"* %23, i64 0, i32 0
  %27 = zext i32 %21 to i64
  %28 = getelementptr inbounds [4 x %"class.sh::TIntermNode"*], [4 x %"class.sh::TIntermNode"*]* %3, i64 0, i64 %27
  store %"class.sh::TIntermNode"* %26, %"class.sh::TIntermNode"** %28, align 8
  %29 = add nsw i32 %21, 1
  br label %30

; <label>:30:                                     ; preds = %20, %25
  %31 = phi i32 [ %29, %25 ], [ %21, %20 ]
  %32 = getelementptr inbounds %"class.sh::TIntermLoop", %"class.sh::TIntermLoop"* %0, i64 0, i32 5
  %33 = load %"class.sh::TIntermBlock"*, %"class.sh::TIntermBlock"** %32, align 8
  %34 = icmp eq %"class.sh::TIntermBlock"* %33, null
  br i1 %34, label %39, label %35

; <label>:35:                                     ; preds = %30
  %36 = getelementptr inbounds %"class.sh::TIntermBlock", %"class.sh::TIntermBlock"* %33, i64 0, i32 0
  %37 = zext i32 %31 to i64
  %38 = getelementptr inbounds [4 x %"class.sh::TIntermNode"*], [4 x %"class.sh::TIntermNode"*]* %3, i64 0, i64 %37
  store %"class.sh::TIntermNode"* %36, %"class.sh::TIntermNode"** %38, align 8
  br label %39

; <label>:39:                                     ; preds = %30, %35
  %40 = getelementptr inbounds [4 x %"class.sh::TIntermNode"*], [4 x %"class.sh::TIntermNode"*]* %3, i64 0, i64 %1
  %41 = load %"class.sh::TIntermNode"*, %"class.sh::TIntermNode"** %40, align 8
  call void @llvm.lifetime.end.p0i8(i64 32, i8* nonnull %4) #18
  ret %"class.sh::TIntermNode"* %41
}

; Function Attrs: norecurse nounwind ssp uwtable
define hidden zeroext i1 @_ZN2sh11TIntermLoop16replaceChildNodeEPNS_11TIntermNodeES2_(%"class.sh::TIntermLoop"* nocapture, %"class.sh::TIntermNode"* readnone, %"class.sh::TIntermNode"*) unnamed_addr #6 align 2 {
  %4 = getelementptr inbounds %"class.sh::TIntermLoop", %"class.sh::TIntermLoop"* %0, i64 0, i32 2
  %5 = load %"class.sh::TIntermNode"*, %"class.sh::TIntermNode"** %4, align 8
  %6 = icmp eq %"class.sh::TIntermNode"* %5, %1
  br i1 %6, label %22, label %7

; <label>:7:                                      ; preds = %3
  %8 = getelementptr inbounds %"class.sh::TIntermLoop", %"class.sh::TIntermLoop"* %0, i64 0, i32 3
  %9 = bitcast %"class.sh::TIntermTyped"** %8 to %"class.sh::TIntermNode"**
  %10 = load %"class.sh::TIntermNode"*, %"class.sh::TIntermNode"** %9, align 8
  %11 = icmp eq %"class.sh::TIntermNode"* %10, %1
  br i1 %11, label %22, label %12

; <label>:12:                                     ; preds = %7
  %13 = getelementptr inbounds %"class.sh::TIntermLoop", %"class.sh::TIntermLoop"* %0, i64 0, i32 4
  %14 = bitcast %"class.sh::TIntermTyped"** %13 to %"class.sh::TIntermNode"**
  %15 = load %"class.sh::TIntermNode"*, %"class.sh::TIntermNode"** %14, align 8
  %16 = icmp eq %"class.sh::TIntermNode"* %15, %1
  br i1 %16, label %22, label %17

; <label>:17:                                     ; preds = %12
  %18 = getelementptr inbounds %"class.sh::TIntermLoop", %"class.sh::TIntermLoop"* %0, i64 0, i32 5
  %19 = bitcast %"class.sh::TIntermBlock"** %18 to %"class.sh::TIntermNode"**
  %20 = load %"class.sh::TIntermNode"*, %"class.sh::TIntermNode"** %19, align 8
  %21 = icmp eq %"class.sh::TIntermNode"* %20, %1
  br i1 %21, label %22, label %24

; <label>:22:                                     ; preds = %17, %12, %7, %3
  %23 = phi %"class.sh::TIntermNode"** [ %4, %3 ], [ %9, %7 ], [ %14, %12 ], [ %19, %17 ]
  store %"class.sh::TIntermNode"* %2, %"class.sh::TIntermNode"** %23, align 8
  br label %24

; <label>:24:                                     ; preds = %22, %17
  %25 = phi i1 [ false, %17 ], [ true, %22 ]
  ret i1 %25
}

; Function Attrs: norecurse nounwind readonly ssp uwtable
define hidden i64 @_ZNK2sh13TIntermBranch13getChildCountEv(%"class.sh::TIntermBranch"* nocapture readonly) unnamed_addr #4 align 2 {
  %2 = getelementptr inbounds %"class.sh::TIntermBranch", %"class.sh::TIntermBranch"* %0, i64 0, i32 2
  %3 = load %"class.sh::TIntermTyped"*, %"class.sh::TIntermTyped"** %2, align 8
  %4 = icmp ne %"class.sh::TIntermTyped"* %3, null
  %5 = zext i1 %4 to i64
  ret i64 %5
}

; Function Attrs: norecurse nounwind readonly ssp uwtable
define hidden %"class.sh::TIntermNode"* @_ZNK2sh13TIntermBranch12getChildNodeEm(%"class.sh::TIntermBranch"* nocapture readonly, i64) unnamed_addr #4 align 2 {
  %3 = getelementptr inbounds %"class.sh::TIntermBranch", %"class.sh::TIntermBranch"* %0, i64 0, i32 2
  %4 = bitcast %"class.sh::TIntermTyped"** %3 to %"class.sh::TIntermNode"**
  %5 = load %"class.sh::TIntermNode"*, %"class.sh::TIntermNode"** %4, align 8
  ret %"class.sh::TIntermNode"* %5
}

; Function Attrs: norecurse nounwind ssp uwtable
define hidden zeroext i1 @_ZN2sh13TIntermBranch16replaceChildNodeEPNS_11TIntermNodeES2_(%"class.sh::TIntermBranch"* nocapture, %"class.sh::TIntermNode"* readnone, %"class.sh::TIntermNode"*) unnamed_addr #6 align 2 {
  %4 = getelementptr inbounds %"class.sh::TIntermBranch", %"class.sh::TIntermBranch"* %0, i64 0, i32 2
  %5 = bitcast %"class.sh::TIntermTyped"** %4 to %"class.sh::TIntermNode"**
  %6 = load %"class.sh::TIntermNode"*, %"class.sh::TIntermNode"** %5, align 8
  %7 = icmp eq %"class.sh::TIntermNode"* %6, %1
  br i1 %7, label %8, label %9

; <label>:8:                                      ; preds = %3
  store %"class.sh::TIntermNode"* %2, %"class.sh::TIntermNode"** %5, align 8
  br label %9

; <label>:9:                                      ; preds = %3, %8
  %10 = phi i1 [ true, %8 ], [ false, %3 ]
  ret i1 %10
}

; Function Attrs: norecurse nounwind readnone ssp uwtable
define hidden i64 @_ZNK2sh14TIntermSwizzle13getChildCountEv(%"class.sh::TIntermSwizzle"* nocapture readnone) unnamed_addr #3 align 2 {
  ret i64 1
}

; Function Attrs: norecurse nounwind readonly ssp uwtable
define hidden %"class.sh::TIntermNode"* @_ZNK2sh14TIntermSwizzle12getChildNodeEm(%"class.sh::TIntermSwizzle"* nocapture readonly, i64) unnamed_addr #4 align 2 {
  %3 = getelementptr inbounds %"class.sh::TIntermSwizzle", %"class.sh::TIntermSwizzle"* %0, i64 0, i32 1
  %4 = bitcast %"class.sh::TIntermTyped"** %3 to %"class.sh::TIntermNode"**
  %5 = load %"class.sh::TIntermNode"*, %"class.sh::TIntermNode"** %4, align 8
  ret %"class.sh::TIntermNode"* %5
}

; Function Attrs: norecurse nounwind ssp uwtable
define hidden zeroext i1 @_ZN2sh14TIntermSwizzle16replaceChildNodeEPNS_11TIntermNodeES2_(%"class.sh::TIntermSwizzle"* nocapture, %"class.sh::TIntermNode"* readnone, %"class.sh::TIntermNode"*) unnamed_addr #6 align 2 {
  %4 = getelementptr inbounds %"class.sh::TIntermSwizzle", %"class.sh::TIntermSwizzle"* %0, i64 0, i32 1
  %5 = bitcast %"class.sh::TIntermTyped"** %4 to %"class.sh::TIntermNode"**
  %6 = load %"class.sh::TIntermNode"*, %"class.sh::TIntermNode"** %5, align 8
  %7 = icmp eq %"class.sh::TIntermNode"* %6, %1
  br i1 %7, label %8, label %9

; <label>:8:                                      ; preds = %3
  store %"class.sh::TIntermNode"* %2, %"class.sh::TIntermNode"** %5, align 8
  br label %9

; <label>:9:                                      ; preds = %3, %8
  %10 = phi i1 [ true, %8 ], [ false, %3 ]
  ret i1 %10
}

; Function Attrs: norecurse nounwind readnone ssp uwtable
define hidden i64 @_ZNK2sh13TIntermBinary13getChildCountEv(%"class.sh::TIntermBinary"* nocapture readnone) unnamed_addr #3 align 2 {
  ret i64 2
}

; Function Attrs: norecurse nounwind readonly ssp uwtable
define hidden %"class.sh::TIntermNode"* @_ZNK2sh13TIntermBinary12getChildNodeEm(%"class.sh::TIntermBinary"* nocapture readonly, i64) unnamed_addr #4 align 2 {
  %3 = icmp eq i64 %1, 0
  %4 = getelementptr inbounds %"class.sh::TIntermBinary", %"class.sh::TIntermBinary"* %0, i64 0, i32 2
  %5 = getelementptr inbounds %"class.sh::TIntermBinary", %"class.sh::TIntermBinary"* %0, i64 0, i32 3
  %6 = select i1 %3, %"class.sh::TIntermTyped"** %4, %"class.sh::TIntermTyped"** %5
  %7 = bitcast %"class.sh::TIntermTyped"** %6 to %"class.sh::TIntermNode"**
  %8 = load %"class.sh::TIntermNode"*, %"class.sh::TIntermNode"** %7, align 8
  ret %"class.sh::TIntermNode"* %8
}

; Function Attrs: norecurse nounwind ssp uwtable
define hidden zeroext i1 @_ZN2sh13TIntermBinary16replaceChildNodeEPNS_11TIntermNodeES2_(%"class.sh::TIntermBinary"* nocapture, %"class.sh::TIntermNode"* readnone, %"class.sh::TIntermNode"*) unnamed_addr #6 align 2 {
  %4 = getelementptr inbounds %"class.sh::TIntermBinary", %"class.sh::TIntermBinary"* %0, i64 0, i32 2
  %5 = bitcast %"class.sh::TIntermTyped"** %4 to %"class.sh::TIntermNode"**
  %6 = load %"class.sh::TIntermNode"*, %"class.sh::TIntermNode"** %5, align 8
  %7 = icmp eq %"class.sh::TIntermNode"* %6, %1
  br i1 %7, label %13, label %8

; <label>:8:                                      ; preds = %3
  %9 = getelementptr inbounds %"class.sh::TIntermBinary", %"class.sh::TIntermBinary"* %0, i64 0, i32 3
  %10 = bitcast %"class.sh::TIntermTyped"** %9 to %"class.sh::TIntermNode"**
  %11 = load %"class.sh::TIntermNode"*, %"class.sh::TIntermNode"** %10, align 8
  %12 = icmp eq %"class.sh::TIntermNode"* %11, %1
  br i1 %12, label %13, label %15

; <label>:13:                                     ; preds = %8, %3
  %14 = phi %"class.sh::TIntermNode"** [ %5, %3 ], [ %10, %8 ]
  store %"class.sh::TIntermNode"* %2, %"class.sh::TIntermNode"** %14, align 8
  br label %15

; <label>:15:                                     ; preds = %13, %8
  %16 = phi i1 [ false, %8 ], [ true, %13 ]
  ret i1 %16
}

; Function Attrs: norecurse nounwind readnone ssp uwtable
define hidden i64 @_ZNK2sh12TIntermUnary13getChildCountEv(%"class.sh::TIntermUnary"* nocapture readnone) unnamed_addr #3 align 2 {
  ret i64 1
}

; Function Attrs: norecurse nounwind readonly ssp uwtable
define hidden %"class.sh::TIntermNode"* @_ZNK2sh12TIntermUnary12getChildNodeEm(%"class.sh::TIntermUnary"* nocapture readonly, i64) unnamed_addr #4 align 2 {
  %3 = getelementptr inbounds %"class.sh::TIntermUnary", %"class.sh::TIntermUnary"* %0, i64 0, i32 1
  %4 = bitcast %"class.sh::TIntermTyped"** %3 to %"class.sh::TIntermNode"**
  %5 = load %"class.sh::TIntermNode"*, %"class.sh::TIntermNode"** %4, align 8
  ret %"class.sh::TIntermNode"* %5
}

; Function Attrs: norecurse nounwind ssp uwtable
define hidden zeroext i1 @_ZN2sh12TIntermUnary16replaceChildNodeEPNS_11TIntermNodeES2_(%"class.sh::TIntermUnary"* nocapture, %"class.sh::TIntermNode"* readnone, %"class.sh::TIntermNode"*) unnamed_addr #6 align 2 {
  %4 = getelementptr inbounds %"class.sh::TIntermUnary", %"class.sh::TIntermUnary"* %0, i64 0, i32 1
  %5 = bitcast %"class.sh::TIntermTyped"** %4 to %"class.sh::TIntermNode"**
  %6 = load %"class.sh::TIntermNode"*, %"class.sh::TIntermNode"** %5, align 8
  %7 = icmp eq %"class.sh::TIntermNode"* %6, %1
  br i1 %7, label %8, label %9

; <label>:8:                                      ; preds = %3
  store %"class.sh::TIntermNode"* %2, %"class.sh::TIntermNode"** %5, align 8
  br label %9

; <label>:9:                                      ; preds = %3, %8
  %10 = phi i1 [ true, %8 ], [ false, %3 ]
  ret i1 %10
}

; Function Attrs: norecurse nounwind readnone ssp uwtable
define hidden i64 @_ZNK2sh27TIntermInvariantDeclaration13getChildCountEv(%"class.sh::TIntermInvariantDeclaration"* nocapture readnone) unnamed_addr #3 align 2 {
  ret i64 1
}

; Function Attrs: norecurse nounwind readonly ssp uwtable
define hidden %"class.sh::TIntermNode"* @_ZNK2sh27TIntermInvariantDeclaration12getChildNodeEm(%"class.sh::TIntermInvariantDeclaration"* nocapture readonly, i64) unnamed_addr #4 align 2 {
  %3 = getelementptr inbounds %"class.sh::TIntermInvariantDeclaration", %"class.sh::TIntermInvariantDeclaration"* %0, i64 0, i32 1
  %4 = bitcast %"class.sh::TIntermSymbol"** %3 to %"class.sh::TIntermNode"**
  %5 = load %"class.sh::TIntermNode"*, %"class.sh::TIntermNode"** %4, align 8
  ret %"class.sh::TIntermNode"* %5
}

; Function Attrs: norecurse nounwind ssp uwtable
define hidden zeroext i1 @_ZN2sh27TIntermInvariantDeclaration16replaceChildNodeEPNS_11TIntermNodeES2_(%"class.sh::TIntermInvariantDeclaration"* nocapture, %"class.sh::TIntermNode"* readnone, %"class.sh::TIntermNode"*) unnamed_addr #6 align 2 {
  %4 = getelementptr inbounds %"class.sh::TIntermInvariantDeclaration", %"class.sh::TIntermInvariantDeclaration"* %0, i64 0, i32 1
  %5 = bitcast %"class.sh::TIntermSymbol"** %4 to %"class.sh::TIntermNode"**
  %6 = load %"class.sh::TIntermNode"*, %"class.sh::TIntermNode"** %5, align 8
  %7 = icmp eq %"class.sh::TIntermNode"* %6, %1
  br i1 %7, label %8, label %9

; <label>:8:                                      ; preds = %3
  store %"class.sh::TIntermNode"* %2, %"class.sh::TIntermNode"** %5, align 8
  br label %9

; <label>:9:                                      ; preds = %3, %8
  %10 = phi i1 [ true, %8 ], [ false, %3 ]
  ret i1 %10
}

; Function Attrs: norecurse nounwind readnone ssp uwtable
define hidden i64 @_ZNK2sh25TIntermFunctionDefinition13getChildCountEv(%"class.sh::TIntermFunctionDefinition"* nocapture readnone) unnamed_addr #3 align 2 {
  ret i64 2
}

; Function Attrs: norecurse nounwind readonly ssp uwtable
define hidden %"class.sh::TIntermNode"* @_ZNK2sh25TIntermFunctionDefinition12getChildNodeEm(%"class.sh::TIntermFunctionDefinition"* nocapture readonly, i64) unnamed_addr #4 align 2 {
  %3 = icmp eq i64 %1, 0
  %4 = getelementptr inbounds %"class.sh::TIntermFunctionDefinition", %"class.sh::TIntermFunctionDefinition"* %0, i64 0, i32 1
  %5 = bitcast %"class.sh::TIntermFunctionPrototype"** %4 to %"class.sh::TIntermNode"**
  %6 = getelementptr inbounds %"class.sh::TIntermFunctionDefinition", %"class.sh::TIntermFunctionDefinition"* %0, i64 0, i32 2
  %7 = bitcast %"class.sh::TIntermBlock"** %6 to %"class.sh::TIntermNode"**
  %8 = select i1 %3, %"class.sh::TIntermNode"** %5, %"class.sh::TIntermNode"** %7
  %9 = load %"class.sh::TIntermNode"*, %"class.sh::TIntermNode"** %8, align 8
  ret %"class.sh::TIntermNode"* %9
}

; Function Attrs: norecurse nounwind ssp uwtable
define hidden zeroext i1 @_ZN2sh25TIntermFunctionDefinition16replaceChildNodeEPNS_11TIntermNodeES2_(%"class.sh::TIntermFunctionDefinition"* nocapture, %"class.sh::TIntermNode"* readnone, %"class.sh::TIntermNode"*) unnamed_addr #6 align 2 {
  %4 = getelementptr inbounds %"class.sh::TIntermFunctionDefinition", %"class.sh::TIntermFunctionDefinition"* %0, i64 0, i32 1
  %5 = bitcast %"class.sh::TIntermFunctionPrototype"** %4 to %"class.sh::TIntermNode"**
  %6 = load %"class.sh::TIntermNode"*, %"class.sh::TIntermNode"** %5, align 8
  %7 = icmp eq %"class.sh::TIntermNode"* %6, %1
  br i1 %7, label %13, label %8

; <label>:8:                                      ; preds = %3
  %9 = getelementptr inbounds %"class.sh::TIntermFunctionDefinition", %"class.sh::TIntermFunctionDefinition"* %0, i64 0, i32 2
  %10 = bitcast %"class.sh::TIntermBlock"** %9 to %"class.sh::TIntermNode"**
  %11 = load %"class.sh::TIntermNode"*, %"class.sh::TIntermNode"** %10, align 8
  %12 = icmp eq %"class.sh::TIntermNode"* %11, %1
  br i1 %12, label %13, label %15

; <label>:13:                                     ; preds = %8, %3
  %14 = phi %"class.sh::TIntermNode"** [ %5, %3 ], [ %10, %8 ]
  store %"class.sh::TIntermNode"* %2, %"class.sh::TIntermNode"** %14, align 8
  br label %15

; <label>:15:                                     ; preds = %13, %8
  %16 = phi i1 [ false, %8 ], [ true, %13 ]
  ret i1 %16
}

; Function Attrs: norecurse nounwind readonly ssp uwtable
define hidden i64 @_ZNK2sh16TIntermAggregate13getChildCountEv(%"class.sh::TIntermAggregate"* nocapture readonly) unnamed_addr #4 align 2 {
  %2 = getelementptr inbounds %"class.sh::TIntermAggregate", %"class.sh::TIntermAggregate"* %0, i64 0, i32 2, i32 0
  %3 = getelementptr inbounds %"class.sh::TIntermAggregate", %"class.sh::TIntermAggregate"* %0, i64 0, i32 2, i32 0, i32 0, i32 1
  %4 = bitcast %"class.sh::TIntermNode"*** %3 to i64*
  %5 = load i64, i64* %4, align 8
  %6 = bitcast %"class.std::__1::vector.16"* %2 to i64*
  %7 = load i64, i64* %6, align 8
  %8 = sub i64 %5, %7
  %9 = ashr exact i64 %8, 3
  ret i64 %9
}

; Function Attrs: norecurse nounwind readonly ssp uwtable
define hidden %"class.sh::TIntermNode"* @_ZNK2sh16TIntermAggregate12getChildNodeEm(%"class.sh::TIntermAggregate"* nocapture readonly, i64) unnamed_addr #4 align 2 {
  %3 = getelementptr inbounds %"class.sh::TIntermAggregate", %"class.sh::TIntermAggregate"* %0, i64 0, i32 2, i32 0, i32 0, i32 0
  %4 = load %"class.sh::TIntermNode"**, %"class.sh::TIntermNode"*** %3, align 8
  %5 = getelementptr inbounds %"class.sh::TIntermNode"*, %"class.sh::TIntermNode"** %4, i64 %1
  %6 = load %"class.sh::TIntermNode"*, %"class.sh::TIntermNode"** %5, align 8
  ret %"class.sh::TIntermNode"* %6
}

; Function Attrs: nounwind ssp uwtable
define hidden zeroext i1 @_ZN2sh16TIntermAggregate16replaceChildNodeEPNS_11TIntermNodeES2_(%"class.sh::TIntermAggregate"*, %"class.sh::TIntermNode"* readnone, %"class.sh::TIntermNode"*) unnamed_addr #0 align 2 {
  %4 = getelementptr inbounds %"class.sh::TIntermAggregate", %"class.sh::TIntermAggregate"* %0, i64 0, i32 1
  %5 = bitcast %"class.sh::TIntermAggregateBase"* %4 to %"class.sh::TVector.15"* (%"class.sh::TIntermAggregateBase"*)***
  %6 = load %"class.sh::TVector.15"* (%"class.sh::TIntermAggregateBase"*)**, %"class.sh::TVector.15"* (%"class.sh::TIntermAggregateBase"*)*** %5, align 8
  %7 = getelementptr inbounds %"class.sh::TVector.15"* (%"class.sh::TIntermAggregateBase"*)*, %"class.sh::TVector.15"* (%"class.sh::TIntermAggregateBase"*)** %6, i64 2
  %8 = load %"class.sh::TVector.15"* (%"class.sh::TIntermAggregateBase"*)*, %"class.sh::TVector.15"* (%"class.sh::TIntermAggregateBase"*)** %7, align 8
  %9 = tail call %"class.sh::TVector.15"* %8(%"class.sh::TIntermAggregateBase"* nonnull %4) #18
  %10 = getelementptr inbounds %"class.sh::TVector.15", %"class.sh::TVector.15"* %9, i64 0, i32 0, i32 0, i32 1
  %11 = bitcast %"class.sh::TIntermNode"*** %10 to i64*
  %12 = load i64, i64* %11, align 8
  %13 = bitcast %"class.sh::TVector.15"* %9 to i64*
  %14 = load i64, i64* %13, align 8
  %15 = icmp eq i64 %12, %14
  br i1 %15, label %49, label %16

; <label>:16:                                     ; preds = %3, %27
  %17 = phi i64 [ %28, %27 ], [ 0, %3 ]
  %18 = load %"class.sh::TVector.15"* (%"class.sh::TIntermAggregateBase"*)**, %"class.sh::TVector.15"* (%"class.sh::TIntermAggregateBase"*)*** %5, align 8
  %19 = getelementptr inbounds %"class.sh::TVector.15"* (%"class.sh::TIntermAggregateBase"*)*, %"class.sh::TVector.15"* (%"class.sh::TIntermAggregateBase"*)** %18, i64 2
  %20 = load %"class.sh::TVector.15"* (%"class.sh::TIntermAggregateBase"*)*, %"class.sh::TVector.15"* (%"class.sh::TIntermAggregateBase"*)** %19, align 8
  %21 = tail call %"class.sh::TVector.15"* %20(%"class.sh::TIntermAggregateBase"* nonnull %4) #18
  %22 = getelementptr inbounds %"class.sh::TVector.15", %"class.sh::TVector.15"* %21, i64 0, i32 0, i32 0, i32 0
  %23 = load %"class.sh::TIntermNode"**, %"class.sh::TIntermNode"*** %22, align 8
  %24 = getelementptr inbounds %"class.sh::TIntermNode"*, %"class.sh::TIntermNode"** %23, i64 %17
  %25 = load %"class.sh::TIntermNode"*, %"class.sh::TIntermNode"** %24, align 8
  %26 = icmp eq %"class.sh::TIntermNode"* %25, %1
  br i1 %26, label %41, label %27

; <label>:27:                                     ; preds = %16
  %28 = add nuw i64 %17, 1
  %29 = load %"class.sh::TVector.15"* (%"class.sh::TIntermAggregateBase"*)**, %"class.sh::TVector.15"* (%"class.sh::TIntermAggregateBase"*)*** %5, align 8
  %30 = getelementptr inbounds %"class.sh::TVector.15"* (%"class.sh::TIntermAggregateBase"*)*, %"class.sh::TVector.15"* (%"class.sh::TIntermAggregateBase"*)** %29, i64 2
  %31 = load %"class.sh::TVector.15"* (%"class.sh::TIntermAggregateBase"*)*, %"class.sh::TVector.15"* (%"class.sh::TIntermAggregateBase"*)** %30, align 8
  %32 = tail call %"class.sh::TVector.15"* %31(%"class.sh::TIntermAggregateBase"* nonnull %4) #18
  %33 = getelementptr inbounds %"class.sh::TVector.15", %"class.sh::TVector.15"* %32, i64 0, i32 0, i32 0, i32 1
  %34 = bitcast %"class.sh::TIntermNode"*** %33 to i64*
  %35 = load i64, i64* %34, align 8
  %36 = bitcast %"class.sh::TVector.15"* %32 to i64*
  %37 = load i64, i64* %36, align 8
  %38 = sub i64 %35, %37
  %39 = ashr exact i64 %38, 3
  %40 = icmp ult i64 %28, %39
  br i1 %40, label %16, label %49

; <label>:41:                                     ; preds = %16
  %42 = load %"class.sh::TVector.15"* (%"class.sh::TIntermAggregateBase"*)**, %"class.sh::TVector.15"* (%"class.sh::TIntermAggregateBase"*)*** %5, align 8
  %43 = getelementptr inbounds %"class.sh::TVector.15"* (%"class.sh::TIntermAggregateBase"*)*, %"class.sh::TVector.15"* (%"class.sh::TIntermAggregateBase"*)** %42, i64 2
  %44 = load %"class.sh::TVector.15"* (%"class.sh::TIntermAggregateBase"*)*, %"class.sh::TVector.15"* (%"class.sh::TIntermAggregateBase"*)** %43, align 8
  %45 = tail call %"class.sh::TVector.15"* %44(%"class.sh::TIntermAggregateBase"* nonnull %4) #18
  %46 = getelementptr inbounds %"class.sh::TVector.15", %"class.sh::TVector.15"* %45, i64 0, i32 0, i32 0, i32 0
  %47 = load %"class.sh::TIntermNode"**, %"class.sh::TIntermNode"*** %46, align 8
  %48 = getelementptr inbounds %"class.sh::TIntermNode"*, %"class.sh::TIntermNode"** %47, i64 %17
  store %"class.sh::TIntermNode"* %2, %"class.sh::TIntermNode"** %48, align 8
  br label %49

; <label>:49:                                     ; preds = %27, %3, %41
  %50 = phi i1 [ true, %41 ], [ false, %3 ], [ false, %27 ]
  ret i1 %50
}

; Function Attrs: nounwind ssp uwtable
define hidden zeroext i1 @_ZN2sh20TIntermAggregateBase24replaceChildNodeInternalEPNS_11TIntermNodeES2_(%"class.sh::TIntermAggregateBase"*, %"class.sh::TIntermNode"* readnone, %"class.sh::TIntermNode"*) local_unnamed_addr #0 align 2 {
  %4 = bitcast %"class.sh::TIntermAggregateBase"* %0 to %"class.sh::TVector.15"* (%"class.sh::TIntermAggregateBase"*)***
  %5 = load %"class.sh::TVector.15"* (%"class.sh::TIntermAggregateBase"*)**, %"class.sh::TVector.15"* (%"class.sh::TIntermAggregateBase"*)*** %4, align 8
  %6 = getelementptr inbounds %"class.sh::TVector.15"* (%"class.sh::TIntermAggregateBase"*)*, %"class.sh::TVector.15"* (%"class.sh::TIntermAggregateBase"*)** %5, i64 2
  %7 = load %"class.sh::TVector.15"* (%"class.sh::TIntermAggregateBase"*)*, %"class.sh::TVector.15"* (%"class.sh::TIntermAggregateBase"*)** %6, align 8
  %8 = tail call %"class.sh::TVector.15"* %7(%"class.sh::TIntermAggregateBase"* %0) #18
  %9 = getelementptr inbounds %"class.sh::TVector.15", %"class.sh::TVector.15"* %8, i64 0, i32 0, i32 0, i32 1
  %10 = bitcast %"class.sh::TIntermNode"*** %9 to i64*
  %11 = load i64, i64* %10, align 8
  %12 = bitcast %"class.sh::TVector.15"* %8 to i64*
  %13 = load i64, i64* %12, align 8
  %14 = icmp eq i64 %11, %13
  br i1 %14, label %48, label %15

; <label>:15:                                     ; preds = %3, %26
  %16 = phi i64 [ %27, %26 ], [ 0, %3 ]
  %17 = load %"class.sh::TVector.15"* (%"class.sh::TIntermAggregateBase"*)**, %"class.sh::TVector.15"* (%"class.sh::TIntermAggregateBase"*)*** %4, align 8
  %18 = getelementptr inbounds %"class.sh::TVector.15"* (%"class.sh::TIntermAggregateBase"*)*, %"class.sh::TVector.15"* (%"class.sh::TIntermAggregateBase"*)** %17, i64 2
  %19 = load %"class.sh::TVector.15"* (%"class.sh::TIntermAggregateBase"*)*, %"class.sh::TVector.15"* (%"class.sh::TIntermAggregateBase"*)** %18, align 8
  %20 = tail call %"class.sh::TVector.15"* %19(%"class.sh::TIntermAggregateBase"* nonnull %0) #18
  %21 = getelementptr inbounds %"class.sh::TVector.15", %"class.sh::TVector.15"* %20, i64 0, i32 0, i32 0, i32 0
  %22 = load %"class.sh::TIntermNode"**, %"class.sh::TIntermNode"*** %21, align 8
  %23 = getelementptr inbounds %"class.sh::TIntermNode"*, %"class.sh::TIntermNode"** %22, i64 %16
  %24 = load %"class.sh::TIntermNode"*, %"class.sh::TIntermNode"** %23, align 8
  %25 = icmp eq %"class.sh::TIntermNode"* %24, %1
  br i1 %25, label %40, label %26

; <label>:26:                                     ; preds = %15
  %27 = add nuw i64 %16, 1
  %28 = load %"class.sh::TVector.15"* (%"class.sh::TIntermAggregateBase"*)**, %"class.sh::TVector.15"* (%"class.sh::TIntermAggregateBase"*)*** %4, align 8
  %29 = getelementptr inbounds %"class.sh::TVector.15"* (%"class.sh::TIntermAggregateBase"*)*, %"class.sh::TVector.15"* (%"class.sh::TIntermAggregateBase"*)** %28, i64 2
  %30 = load %"class.sh::TVector.15"* (%"class.sh::TIntermAggregateBase"*)*, %"class.sh::TVector.15"* (%"class.sh::TIntermAggregateBase"*)** %29, align 8
  %31 = tail call %"class.sh::TVector.15"* %30(%"class.sh::TIntermAggregateBase"* nonnull %0) #18
  %32 = getelementptr inbounds %"class.sh::TVector.15", %"class.sh::TVector.15"* %31, i64 0, i32 0, i32 0, i32 1
  %33 = bitcast %"class.sh::TIntermNode"*** %32 to i64*
  %34 = load i64, i64* %33, align 8
  %35 = bitcast %"class.sh::TVector.15"* %31 to i64*
  %36 = load i64, i64* %35, align 8
  %37 = sub i64 %34, %36
  %38 = ashr exact i64 %37, 3
  %39 = icmp ult i64 %27, %38
  br i1 %39, label %15, label %48

; <label>:40:                                     ; preds = %15
  %41 = load %"class.sh::TVector.15"* (%"class.sh::TIntermAggregateBase"*)**, %"class.sh::TVector.15"* (%"class.sh::TIntermAggregateBase"*)*** %4, align 8
  %42 = getelementptr inbounds %"class.sh::TVector.15"* (%"class.sh::TIntermAggregateBase"*)*, %"class.sh::TVector.15"* (%"class.sh::TIntermAggregateBase"*)** %41, i64 2
  %43 = load %"class.sh::TVector.15"* (%"class.sh::TIntermAggregateBase"*)*, %"class.sh::TVector.15"* (%"class.sh::TIntermAggregateBase"*)** %42, align 8
  %44 = tail call %"class.sh::TVector.15"* %43(%"class.sh::TIntermAggregateBase"* nonnull %0) #18
  %45 = getelementptr inbounds %"class.sh::TVector.15", %"class.sh::TVector.15"* %44, i64 0, i32 0, i32 0, i32 0
  %46 = load %"class.sh::TIntermNode"**, %"class.sh::TIntermNode"*** %45, align 8
  %47 = getelementptr inbounds %"class.sh::TIntermNode"*, %"class.sh::TIntermNode"** %46, i64 %16
  store %"class.sh::TIntermNode"* %2, %"class.sh::TIntermNode"** %47, align 8
  br label %48

; <label>:48:                                     ; preds = %26, %3, %40
  %49 = phi i1 [ true, %40 ], [ false, %3 ], [ false, %26 ]
  ret i1 %49
}

; Function Attrs: norecurse nounwind readonly ssp uwtable
define hidden i64 @_ZNK2sh12TIntermBlock13getChildCountEv(%"class.sh::TIntermBlock"* nocapture readonly) unnamed_addr #4 align 2 {
  %2 = getelementptr inbounds %"class.sh::TIntermBlock", %"class.sh::TIntermBlock"* %0, i64 0, i32 2, i32 0
  %3 = getelementptr inbounds %"class.sh::TIntermBlock", %"class.sh::TIntermBlock"* %0, i64 0, i32 2, i32 0, i32 0, i32 1
  %4 = bitcast %"class.sh::TIntermNode"*** %3 to i64*
  %5 = load i64, i64* %4, align 8
  %6 = bitcast %"class.std::__1::vector.16"* %2 to i64*
  %7 = load i64, i64* %6, align 8
  %8 = sub i64 %5, %7
  %9 = ashr exact i64 %8, 3
  ret i64 %9
}

; Function Attrs: norecurse nounwind readonly ssp uwtable
define hidden %"class.sh::TIntermNode"* @_ZNK2sh12TIntermBlock12getChildNodeEm(%"class.sh::TIntermBlock"* nocapture readonly, i64) unnamed_addr #4 align 2 {
  %3 = getelementptr inbounds %"class.sh::TIntermBlock", %"class.sh::TIntermBlock"* %0, i64 0, i32 2, i32 0, i32 0, i32 0
  %4 = load %"class.sh::TIntermNode"**, %"class.sh::TIntermNode"*** %3, align 8
  %5 = getelementptr inbounds %"class.sh::TIntermNode"*, %"class.sh::TIntermNode"** %4, i64 %1
  %6 = load %"class.sh::TIntermNode"*, %"class.sh::TIntermNode"** %5, align 8
  ret %"class.sh::TIntermNode"* %6
}

; Function Attrs: nounwind ssp uwtable
define hidden zeroext i1 @_ZN2sh12TIntermBlock16replaceChildNodeEPNS_11TIntermNodeES2_(%"class.sh::TIntermBlock"*, %"class.sh::TIntermNode"* readnone, %"class.sh::TIntermNode"*) unnamed_addr #0 align 2 {
  %4 = getelementptr inbounds %"class.sh::TIntermBlock", %"class.sh::TIntermBlock"* %0, i64 0, i32 1
  %5 = bitcast %"class.sh::TIntermAggregateBase"* %4 to %"class.sh::TVector.15"* (%"class.sh::TIntermAggregateBase"*)***
  %6 = load %"class.sh::TVector.15"* (%"class.sh::TIntermAggregateBase"*)**, %"class.sh::TVector.15"* (%"class.sh::TIntermAggregateBase"*)*** %5, align 8
  %7 = getelementptr inbounds %"class.sh::TVector.15"* (%"class.sh::TIntermAggregateBase"*)*, %"class.sh::TVector.15"* (%"class.sh::TIntermAggregateBase"*)** %6, i64 2
  %8 = load %"class.sh::TVector.15"* (%"class.sh::TIntermAggregateBase"*)*, %"class.sh::TVector.15"* (%"class.sh::TIntermAggregateBase"*)** %7, align 8
  %9 = tail call %"class.sh::TVector.15"* %8(%"class.sh::TIntermAggregateBase"* nonnull %4) #18
  %10 = getelementptr inbounds %"class.sh::TVector.15", %"class.sh::TVector.15"* %9, i64 0, i32 0, i32 0, i32 1
  %11 = bitcast %"class.sh::TIntermNode"*** %10 to i64*
  %12 = load i64, i64* %11, align 8
  %13 = bitcast %"class.sh::TVector.15"* %9 to i64*
  %14 = load i64, i64* %13, align 8
  %15 = icmp eq i64 %12, %14
  br i1 %15, label %49, label %16

; <label>:16:                                     ; preds = %3, %27
  %17 = phi i64 [ %28, %27 ], [ 0, %3 ]
  %18 = load %"class.sh::TVector.15"* (%"class.sh::TIntermAggregateBase"*)**, %"class.sh::TVector.15"* (%"class.sh::TIntermAggregateBase"*)*** %5, align 8
  %19 = getelementptr inbounds %"class.sh::TVector.15"* (%"class.sh::TIntermAggregateBase"*)*, %"class.sh::TVector.15"* (%"class.sh::TIntermAggregateBase"*)** %18, i64 2
  %20 = load %"class.sh::TVector.15"* (%"class.sh::TIntermAggregateBase"*)*, %"class.sh::TVector.15"* (%"class.sh::TIntermAggregateBase"*)** %19, align 8
  %21 = tail call %"class.sh::TVector.15"* %20(%"class.sh::TIntermAggregateBase"* nonnull %4) #18
  %22 = getelementptr inbounds %"class.sh::TVector.15", %"class.sh::TVector.15"* %21, i64 0, i32 0, i32 0, i32 0
  %23 = load %"class.sh::TIntermNode"**, %"class.sh::TIntermNode"*** %22, align 8
  %24 = getelementptr inbounds %"class.sh::TIntermNode"*, %"class.sh::TIntermNode"** %23, i64 %17
  %25 = load %"class.sh::TIntermNode"*, %"class.sh::TIntermNode"** %24, align 8
  %26 = icmp eq %"class.sh::TIntermNode"* %25, %1
  br i1 %26, label %41, label %27

; <label>:27:                                     ; preds = %16
  %28 = add nuw i64 %17, 1
  %29 = load %"class.sh::TVector.15"* (%"class.sh::TIntermAggregateBase"*)**, %"class.sh::TVector.15"* (%"class.sh::TIntermAggregateBase"*)*** %5, align 8
  %30 = getelementptr inbounds %"class.sh::TVector.15"* (%"class.sh::TIntermAggregateBase"*)*, %"class.sh::TVector.15"* (%"class.sh::TIntermAggregateBase"*)** %29, i64 2
  %31 = load %"class.sh::TVector.15"* (%"class.sh::TIntermAggregateBase"*)*, %"class.sh::TVector.15"* (%"class.sh::TIntermAggregateBase"*)** %30, align 8
  %32 = tail call %"class.sh::TVector.15"* %31(%"class.sh::TIntermAggregateBase"* nonnull %4) #18
  %33 = getelementptr inbounds %"class.sh::TVector.15", %"class.sh::TVector.15"* %32, i64 0, i32 0, i32 0, i32 1
  %34 = bitcast %"class.sh::TIntermNode"*** %33 to i64*
  %35 = load i64, i64* %34, align 8
  %36 = bitcast %"class.sh::TVector.15"* %32 to i64*
  %37 = load i64, i64* %36, align 8
  %38 = sub i64 %35, %37
  %39 = ashr exact i64 %38, 3
  %40 = icmp ult i64 %28, %39
  br i1 %40, label %16, label %49

; <label>:41:                                     ; preds = %16
  %42 = load %"class.sh::TVector.15"* (%"class.sh::TIntermAggregateBase"*)**, %"class.sh::TVector.15"* (%"class.sh::TIntermAggregateBase"*)*** %5, align 8
  %43 = getelementptr inbounds %"class.sh::TVector.15"* (%"class.sh::TIntermAggregateBase"*)*, %"class.sh::TVector.15"* (%"class.sh::TIntermAggregateBase"*)** %42, i64 2
  %44 = load %"class.sh::TVector.15"* (%"class.sh::TIntermAggregateBase"*)*, %"class.sh::TVector.15"* (%"class.sh::TIntermAggregateBase"*)** %43, align 8
  %45 = tail call %"class.sh::TVector.15"* %44(%"class.sh::TIntermAggregateBase"* nonnull %4) #18
  %46 = getelementptr inbounds %"class.sh::TVector.15", %"class.sh::TVector.15"* %45, i64 0, i32 0, i32 0, i32 0
  %47 = load %"class.sh::TIntermNode"**, %"class.sh::TIntermNode"*** %46, align 8
  %48 = getelementptr inbounds %"class.sh::TIntermNode"*, %"class.sh::TIntermNode"** %47, i64 %17
  store %"class.sh::TIntermNode"* %2, %"class.sh::TIntermNode"** %48, align 8
  br label %49

; <label>:49:                                     ; preds = %27, %3, %41
  %50 = phi i1 [ true, %41 ], [ false, %3 ], [ false, %27 ]
  ret i1 %50
}

; Function Attrs: norecurse nounwind readnone ssp uwtable
define hidden i64 @_ZNK2sh24TIntermFunctionPrototype13getChildCountEv(%"class.sh::TIntermFunctionPrototype"* nocapture readnone) unnamed_addr #3 align 2 {
  ret i64 0
}

; Function Attrs: norecurse nounwind readnone ssp uwtable
define hidden noalias %"class.sh::TIntermNode"* @_ZNK2sh24TIntermFunctionPrototype12getChildNodeEm(%"class.sh::TIntermFunctionPrototype"* nocapture readnone, i64) unnamed_addr #3 align 2 {
  ret %"class.sh::TIntermNode"* null
}

; Function Attrs: norecurse nounwind readnone ssp uwtable
define hidden zeroext i1 @_ZN2sh24TIntermFunctionPrototype16replaceChildNodeEPNS_11TIntermNodeES2_(%"class.sh::TIntermFunctionPrototype"* nocapture readnone, %"class.sh::TIntermNode"* nocapture readnone, %"class.sh::TIntermNode"* nocapture readnone) unnamed_addr #3 align 2 {
  ret i1 false
}

; Function Attrs: norecurse nounwind readonly ssp uwtable
define hidden i64 @_ZNK2sh18TIntermDeclaration13getChildCountEv(%"class.sh::TIntermDeclaration"* nocapture readonly) unnamed_addr #4 align 2 {
  %2 = getelementptr inbounds %"class.sh::TIntermDeclaration", %"class.sh::TIntermDeclaration"* %0, i64 0, i32 2, i32 0
  %3 = getelementptr inbounds %"class.sh::TIntermDeclaration", %"class.sh::TIntermDeclaration"* %0, i64 0, i32 2, i32 0, i32 0, i32 1
  %4 = bitcast %"class.sh::TIntermNode"*** %3 to i64*
  %5 = load i64, i64* %4, align 8
  %6 = bitcast %"class.std::__1::vector.16"* %2 to i64*
  %7 = load i64, i64* %6, align 8
  %8 = sub i64 %5, %7
  %9 = ashr exact i64 %8, 3
  ret i64 %9
}

; Function Attrs: norecurse nounwind readonly ssp uwtable
define hidden %"class.sh::TIntermNode"* @_ZNK2sh18TIntermDeclaration12getChildNodeEm(%"class.sh::TIntermDeclaration"* nocapture readonly, i64) unnamed_addr #4 align 2 {
  %3 = getelementptr inbounds %"class.sh::TIntermDeclaration", %"class.sh::TIntermDeclaration"* %0, i64 0, i32 2, i32 0, i32 0, i32 0
  %4 = load %"class.sh::TIntermNode"**, %"class.sh::TIntermNode"*** %3, align 8
  %5 = getelementptr inbounds %"class.sh::TIntermNode"*, %"class.sh::TIntermNode"** %4, i64 %1
  %6 = load %"class.sh::TIntermNode"*, %"class.sh::TIntermNode"** %5, align 8
  ret %"class.sh::TIntermNode"* %6
}

; Function Attrs: nounwind ssp uwtable
define hidden zeroext i1 @_ZN2sh18TIntermDeclaration16replaceChildNodeEPNS_11TIntermNodeES2_(%"class.sh::TIntermDeclaration"*, %"class.sh::TIntermNode"* readnone, %"class.sh::TIntermNode"*) unnamed_addr #0 align 2 {
  %4 = getelementptr inbounds %"class.sh::TIntermDeclaration", %"class.sh::TIntermDeclaration"* %0, i64 0, i32 1
  %5 = bitcast %"class.sh::TIntermAggregateBase"* %4 to %"class.sh::TVector.15"* (%"class.sh::TIntermAggregateBase"*)***
  %6 = load %"class.sh::TVector.15"* (%"class.sh::TIntermAggregateBase"*)**, %"class.sh::TVector.15"* (%"class.sh::TIntermAggregateBase"*)*** %5, align 8
  %7 = getelementptr inbounds %"class.sh::TVector.15"* (%"class.sh::TIntermAggregateBase"*)*, %"class.sh::TVector.15"* (%"class.sh::TIntermAggregateBase"*)** %6, i64 2
  %8 = load %"class.sh::TVector.15"* (%"class.sh::TIntermAggregateBase"*)*, %"class.sh::TVector.15"* (%"class.sh::TIntermAggregateBase"*)** %7, align 8
  %9 = tail call %"class.sh::TVector.15"* %8(%"class.sh::TIntermAggregateBase"* nonnull %4) #18
  %10 = getelementptr inbounds %"class.sh::TVector.15", %"class.sh::TVector.15"* %9, i64 0, i32 0, i32 0, i32 1
  %11 = bitcast %"class.sh::TIntermNode"*** %10 to i64*
  %12 = load i64, i64* %11, align 8
  %13 = bitcast %"class.sh::TVector.15"* %9 to i64*
  %14 = load i64, i64* %13, align 8
  %15 = icmp eq i64 %12, %14
  br i1 %15, label %49, label %16

; <label>:16:                                     ; preds = %3, %27
  %17 = phi i64 [ %28, %27 ], [ 0, %3 ]
  %18 = load %"class.sh::TVector.15"* (%"class.sh::TIntermAggregateBase"*)**, %"class.sh::TVector.15"* (%"class.sh::TIntermAggregateBase"*)*** %5, align 8
  %19 = getelementptr inbounds %"class.sh::TVector.15"* (%"class.sh::TIntermAggregateBase"*)*, %"class.sh::TVector.15"* (%"class.sh::TIntermAggregateBase"*)** %18, i64 2
  %20 = load %"class.sh::TVector.15"* (%"class.sh::TIntermAggregateBase"*)*, %"class.sh::TVector.15"* (%"class.sh::TIntermAggregateBase"*)** %19, align 8
  %21 = tail call %"class.sh::TVector.15"* %20(%"class.sh::TIntermAggregateBase"* nonnull %4) #18
  %22 = getelementptr inbounds %"class.sh::TVector.15", %"class.sh::TVector.15"* %21, i64 0, i32 0, i32 0, i32 0
  %23 = load %"class.sh::TIntermNode"**, %"class.sh::TIntermNode"*** %22, align 8
  %24 = getelementptr inbounds %"class.sh::TIntermNode"*, %"class.sh::TIntermNode"** %23, i64 %17
  %25 = load %"class.sh::TIntermNode"*, %"class.sh::TIntermNode"** %24, align 8
  %26 = icmp eq %"class.sh::TIntermNode"* %25, %1
  br i1 %26, label %41, label %27

; <label>:27:                                     ; preds = %16
  %28 = add nuw i64 %17, 1
  %29 = load %"class.sh::TVector.15"* (%"class.sh::TIntermAggregateBase"*)**, %"class.sh::TVector.15"* (%"class.sh::TIntermAggregateBase"*)*** %5, align 8
  %30 = getelementptr inbounds %"class.sh::TVector.15"* (%"class.sh::TIntermAggregateBase"*)*, %"class.sh::TVector.15"* (%"class.sh::TIntermAggregateBase"*)** %29, i64 2
  %31 = load %"class.sh::TVector.15"* (%"class.sh::TIntermAggregateBase"*)*, %"class.sh::TVector.15"* (%"class.sh::TIntermAggregateBase"*)** %30, align 8
  %32 = tail call %"class.sh::TVector.15"* %31(%"class.sh::TIntermAggregateBase"* nonnull %4) #18
  %33 = getelementptr inbounds %"class.sh::TVector.15", %"class.sh::TVector.15"* %32, i64 0, i32 0, i32 0, i32 1
  %34 = bitcast %"class.sh::TIntermNode"*** %33 to i64*
  %35 = load i64, i64* %34, align 8
  %36 = bitcast %"class.sh::TVector.15"* %32 to i64*
  %37 = load i64, i64* %36, align 8
  %38 = sub i64 %35, %37
  %39 = ashr exact i64 %38, 3
  %40 = icmp ult i64 %28, %39
  br i1 %40, label %16, label %49

; <label>:41:                                     ; preds = %16
  %42 = load %"class.sh::TVector.15"* (%"class.sh::TIntermAggregateBase"*)**, %"class.sh::TVector.15"* (%"class.sh::TIntermAggregateBase"*)*** %5, align 8
  %43 = getelementptr inbounds %"class.sh::TVector.15"* (%"class.sh::TIntermAggregateBase"*)*, %"class.sh::TVector.15"* (%"class.sh::TIntermAggregateBase"*)** %42, i64 2
  %44 = load %"class.sh::TVector.15"* (%"class.sh::TIntermAggregateBase"*)*, %"class.sh::TVector.15"* (%"class.sh::TIntermAggregateBase"*)** %43, align 8
  %45 = tail call %"class.sh::TVector.15"* %44(%"class.sh::TIntermAggregateBase"* nonnull %4) #18
  %46 = getelementptr inbounds %"class.sh::TVector.15", %"class.sh::TVector.15"* %45, i64 0, i32 0, i32 0, i32 0
  %47 = load %"class.sh::TIntermNode"**, %"class.sh::TIntermNode"*** %46, align 8
  %48 = getelementptr inbounds %"class.sh::TIntermNode"*, %"class.sh::TIntermNode"** %47, i64 %17
  store %"class.sh::TIntermNode"* %2, %"class.sh::TIntermNode"** %48, align 8
  br label %49

; <label>:49:                                     ; preds = %27, %3, %41
  %50 = phi i1 [ true, %41 ], [ false, %3 ], [ false, %27 ]
  ret i1 %50
}

; Function Attrs: nounwind ssp uwtable
define hidden zeroext i1 @_ZN2sh20TIntermAggregateBase28replaceChildNodeWithMultipleEPNS_11TIntermNodeERKNS_7TVectorIS2_EE(%"class.sh::TIntermAggregateBase"*, %"class.sh::TIntermNode"* readnone, %"class.sh::TVector.15"* nocapture readonly dereferenceable(24)) local_unnamed_addr #0 align 2 {
  %4 = bitcast %"class.sh::TIntermAggregateBase"* %0 to %"class.sh::TVector.15"* (%"class.sh::TIntermAggregateBase"*)***
  %5 = load %"class.sh::TVector.15"* (%"class.sh::TIntermAggregateBase"*)**, %"class.sh::TVector.15"* (%"class.sh::TIntermAggregateBase"*)*** %4, align 8
  %6 = getelementptr inbounds %"class.sh::TVector.15"* (%"class.sh::TIntermAggregateBase"*)*, %"class.sh::TVector.15"* (%"class.sh::TIntermAggregateBase"*)** %5, i64 2
  %7 = load %"class.sh::TVector.15"* (%"class.sh::TIntermAggregateBase"*)*, %"class.sh::TVector.15"* (%"class.sh::TIntermAggregateBase"*)** %6, align 8
  %8 = tail call %"class.sh::TVector.15"* %7(%"class.sh::TIntermAggregateBase"* %0) #18
  %9 = getelementptr inbounds %"class.sh::TVector.15", %"class.sh::TVector.15"* %8, i64 0, i32 0, i32 0, i32 0
  %10 = load %"class.sh::TIntermNode"**, %"class.sh::TIntermNode"*** %9, align 8
  %11 = load %"class.sh::TVector.15"* (%"class.sh::TIntermAggregateBase"*)**, %"class.sh::TVector.15"* (%"class.sh::TIntermAggregateBase"*)*** %4, align 8
  %12 = getelementptr inbounds %"class.sh::TVector.15"* (%"class.sh::TIntermAggregateBase"*)*, %"class.sh::TVector.15"* (%"class.sh::TIntermAggregateBase"*)** %11, i64 2
  %13 = load %"class.sh::TVector.15"* (%"class.sh::TIntermAggregateBase"*)*, %"class.sh::TVector.15"* (%"class.sh::TIntermAggregateBase"*)** %12, align 8
  %14 = tail call %"class.sh::TVector.15"* %13(%"class.sh::TIntermAggregateBase"* nonnull %0) #18
  %15 = getelementptr inbounds %"class.sh::TVector.15", %"class.sh::TVector.15"* %14, i64 0, i32 0, i32 0, i32 1
  %16 = load %"class.sh::TIntermNode"**, %"class.sh::TIntermNode"*** %15, align 8
  %17 = icmp ult %"class.sh::TIntermNode"** %10, %16
  br i1 %17, label %18, label %59

; <label>:18:                                     ; preds = %3, %38
  %19 = phi %"class.sh::TIntermNode"** [ %39, %38 ], [ %10, %3 ]
  %20 = load %"class.sh::TIntermNode"*, %"class.sh::TIntermNode"** %19, align 8
  %21 = icmp eq %"class.sh::TIntermNode"* %20, %1
  br i1 %21, label %22, label %38

; <label>:22:                                     ; preds = %18
  %23 = load %"class.sh::TVector.15"* (%"class.sh::TIntermAggregateBase"*)**, %"class.sh::TVector.15"* (%"class.sh::TIntermAggregateBase"*)*** %4, align 8
  %24 = getelementptr inbounds %"class.sh::TVector.15"* (%"class.sh::TIntermAggregateBase"*)*, %"class.sh::TVector.15"* (%"class.sh::TIntermAggregateBase"*)** %23, i64 2
  %25 = load %"class.sh::TVector.15"* (%"class.sh::TIntermAggregateBase"*)*, %"class.sh::TVector.15"* (%"class.sh::TIntermAggregateBase"*)** %24, align 8
  %26 = tail call %"class.sh::TVector.15"* %25(%"class.sh::TIntermAggregateBase"* nonnull %0) #18
  %27 = getelementptr inbounds %"class.sh::TIntermNode"*, %"class.sh::TIntermNode"** %19, i64 1
  %28 = getelementptr inbounds %"class.sh::TVector.15", %"class.sh::TVector.15"* %26, i64 0, i32 0, i32 0, i32 1
  %29 = bitcast %"class.sh::TIntermNode"*** %28 to i64*
  %30 = load i64, i64* %29, align 8
  %31 = ptrtoint %"class.sh::TIntermNode"** %27 to i64
  %32 = sub i64 %30, %31
  %33 = ashr exact i64 %32, 3
  %34 = icmp eq i64 %32, 0
  br i1 %34, label %47, label %35

; <label>:35:                                     ; preds = %22
  %36 = bitcast %"class.sh::TIntermNode"** %19 to i8*
  %37 = bitcast %"class.sh::TIntermNode"** %27 to i8*
  tail call void @llvm.memmove.p0i8.p0i8.i64(i8* align 8 %36, i8* nonnull align 8 %37, i64 %32, i1 false) #18
  br label %47

; <label>:38:                                     ; preds = %18
  %39 = getelementptr inbounds %"class.sh::TIntermNode"*, %"class.sh::TIntermNode"** %19, i64 1
  %40 = load %"class.sh::TVector.15"* (%"class.sh::TIntermAggregateBase"*)**, %"class.sh::TVector.15"* (%"class.sh::TIntermAggregateBase"*)*** %4, align 8
  %41 = getelementptr inbounds %"class.sh::TVector.15"* (%"class.sh::TIntermAggregateBase"*)*, %"class.sh::TVector.15"* (%"class.sh::TIntermAggregateBase"*)** %40, i64 2
  %42 = load %"class.sh::TVector.15"* (%"class.sh::TIntermAggregateBase"*)*, %"class.sh::TVector.15"* (%"class.sh::TIntermAggregateBase"*)** %41, align 8
  %43 = tail call %"class.sh::TVector.15"* %42(%"class.sh::TIntermAggregateBase"* nonnull %0) #18
  %44 = getelementptr inbounds %"class.sh::TVector.15", %"class.sh::TVector.15"* %43, i64 0, i32 0, i32 0, i32 1
  %45 = load %"class.sh::TIntermNode"**, %"class.sh::TIntermNode"*** %44, align 8
  %46 = icmp ult %"class.sh::TIntermNode"** %39, %45
  br i1 %46, label %18, label %59

; <label>:47:                                     ; preds = %35, %22
  %48 = getelementptr inbounds %"class.sh::TIntermNode"*, %"class.sh::TIntermNode"** %19, i64 %33
  store %"class.sh::TIntermNode"** %48, %"class.sh::TIntermNode"*** %28, align 8
  %49 = load %"class.sh::TVector.15"* (%"class.sh::TIntermAggregateBase"*)**, %"class.sh::TVector.15"* (%"class.sh::TIntermAggregateBase"*)*** %4, align 8
  %50 = getelementptr inbounds %"class.sh::TVector.15"* (%"class.sh::TIntermAggregateBase"*)*, %"class.sh::TVector.15"* (%"class.sh::TIntermAggregateBase"*)** %49, i64 2
  %51 = load %"class.sh::TVector.15"* (%"class.sh::TIntermAggregateBase"*)*, %"class.sh::TVector.15"* (%"class.sh::TIntermAggregateBase"*)** %50, align 8
  %52 = tail call %"class.sh::TVector.15"* %51(%"class.sh::TIntermAggregateBase"* nonnull %0) #18
  %53 = getelementptr inbounds %"class.sh::TVector.15", %"class.sh::TVector.15"* %52, i64 0, i32 0
  %54 = getelementptr inbounds %"class.sh::TVector.15", %"class.sh::TVector.15"* %2, i64 0, i32 0, i32 0, i32 0
  %55 = load %"class.sh::TIntermNode"**, %"class.sh::TIntermNode"*** %54, align 8
  %56 = getelementptr inbounds %"class.sh::TVector.15", %"class.sh::TVector.15"* %2, i64 0, i32 0, i32 0, i32 1
  %57 = load %"class.sh::TIntermNode"**, %"class.sh::TIntermNode"*** %56, align 8
  %58 = tail call %"class.sh::TIntermNode"** @_ZNSt3__16vectorIPN2sh11TIntermNodeE14pool_allocatorIS3_EE6insertINS_11__wrap_iterIPKS3_EEEENS_9enable_ifIXaasr21__is_forward_iteratorIT_EE5valuesr16is_constructibleIS3_NS_15iterator_traitsISD_E9referenceEEE5valueENS8_IPS3_EEE4typeESB_SD_SD_(%"class.std::__1::vector.16"* %53, %"class.sh::TIntermNode"** nonnull %19, %"class.sh::TIntermNode"** %55, %"class.sh::TIntermNode"** %57)
  br label %59

; <label>:59:                                     ; preds = %38, %3, %47
  %60 = phi i1 [ true, %47 ], [ false, %3 ], [ false, %38 ]
  ret i1 %60
}

; Function Attrs: argmemonly nounwind
declare void @llvm.memcpy.p0i8.p0i8.i64(i8* nocapture writeonly, i8* nocapture readonly, i64, i1) #2

; Function Attrs: nounwind ssp uwtable
define linkonce_odr hidden %"class.sh::TIntermNode"** @_ZNSt3__16vectorIPN2sh11TIntermNodeE14pool_allocatorIS3_EE6insertINS_11__wrap_iterIPKS3_EEEENS_9enable_ifIXaasr21__is_forward_iteratorIT_EE5valuesr16is_constructibleIS3_NS_15iterator_traitsISD_E9referenceEEE5valueENS8_IPS3_EEE4typeESB_SD_SD_(%"class.std::__1::vector.16"*, %"class.sh::TIntermNode"**, %"class.sh::TIntermNode"**, %"class.sh::TIntermNode"**) local_unnamed_addr #0 comdat align 2 {
  %5 = ptrtoint %"class.sh::TIntermNode"** %2 to i64
  %6 = ptrtoint %"class.sh::TIntermNode"** %1 to i64
  %7 = bitcast %"class.sh::TIntermNode"** %1 to i8*
  %8 = getelementptr inbounds %"class.std::__1::vector.16", %"class.std::__1::vector.16"* %0, i64 0, i32 0, i32 0
  %9 = ptrtoint %"class.sh::TIntermNode"** %3 to i64
  %10 = sub i64 %9, %5
  %11 = ashr exact i64 %10, 3
  %12 = icmp sgt i64 %10, 0
  br i1 %12, label %13, label %777

; <label>:13:                                     ; preds = %4
  %14 = getelementptr inbounds %"class.std::__1::vector.16", %"class.std::__1::vector.16"* %0, i64 0, i32 0, i32 2, i32 0, i32 0
  %15 = bitcast %"class.sh::TIntermNode"*** %14 to i64*
  %16 = load i64, i64* %15, align 8
  %17 = getelementptr inbounds %"class.std::__1::vector.16", %"class.std::__1::vector.16"* %0, i64 0, i32 0, i32 1
  %18 = load %"class.sh::TIntermNode"**, %"class.sh::TIntermNode"*** %17, align 8
  %19 = ptrtoint %"class.sh::TIntermNode"** %18 to i64
  %20 = sub i64 %16, %19
  %21 = ashr exact i64 %20, 3
  %22 = icmp sgt i64 %11, %21
  %23 = bitcast %"class.sh::TIntermNode"*** %17 to i64*
  br i1 %22, label %332, label %24

; <label>:24:                                     ; preds = %13
  %25 = sub i64 %19, %6
  %26 = ashr exact i64 %25, 3
  %27 = icmp sgt i64 %11, %26
  br i1 %27, label %28, label %90

; <label>:28:                                     ; preds = %24
  %29 = getelementptr inbounds %"class.sh::TIntermNode"*, %"class.sh::TIntermNode"** %2, i64 %26
  %30 = icmp eq %"class.sh::TIntermNode"** %29, %3
  br i1 %30, label %85, label %31

; <label>:31:                                     ; preds = %28
  %32 = xor i64 %26, -1
  %33 = getelementptr %"class.sh::TIntermNode"*, %"class.sh::TIntermNode"** %3, i64 %32
  %34 = ptrtoint %"class.sh::TIntermNode"** %33 to i64
  %35 = sub i64 %34, %5
  %36 = lshr i64 %35, 3
  %37 = add nuw nsw i64 %36, 1
  %38 = and i64 %37, 3
  %39 = icmp eq i64 %38, 0
  br i1 %39, label %52, label %40

; <label>:40:                                     ; preds = %31, %40
  %41 = phi %"class.sh::TIntermNode"** [ %49, %40 ], [ %18, %31 ]
  %42 = phi %"class.sh::TIntermNode"** [ %47, %40 ], [ %29, %31 ]
  %43 = phi i64 [ %50, %40 ], [ %38, %31 ]
  %44 = bitcast %"class.sh::TIntermNode"** %41 to i64*
  %45 = bitcast %"class.sh::TIntermNode"** %42 to i64*
  %46 = load i64, i64* %45, align 8
  store i64 %46, i64* %44, align 8
  %47 = getelementptr inbounds %"class.sh::TIntermNode"*, %"class.sh::TIntermNode"** %42, i64 1
  %48 = load %"class.sh::TIntermNode"**, %"class.sh::TIntermNode"*** %17, align 8
  %49 = getelementptr inbounds %"class.sh::TIntermNode"*, %"class.sh::TIntermNode"** %48, i64 1
  store %"class.sh::TIntermNode"** %49, %"class.sh::TIntermNode"*** %17, align 8
  %50 = add i64 %43, -1
  %51 = icmp eq i64 %50, 0
  br i1 %51, label %52, label %40, !llvm.loop !2

; <label>:52:                                     ; preds = %40, %31
  %53 = phi %"class.sh::TIntermNode"** [ undef, %31 ], [ %49, %40 ]
  %54 = phi %"class.sh::TIntermNode"** [ %18, %31 ], [ %49, %40 ]
  %55 = phi %"class.sh::TIntermNode"** [ %29, %31 ], [ %47, %40 ]
  %56 = icmp ult i64 %35, 24
  br i1 %56, label %85, label %57

; <label>:57:                                     ; preds = %52, %57
  %58 = phi %"class.sh::TIntermNode"** [ %83, %57 ], [ %54, %52 ]
  %59 = phi %"class.sh::TIntermNode"** [ %81, %57 ], [ %55, %52 ]
  %60 = bitcast %"class.sh::TIntermNode"** %58 to i64*
  %61 = bitcast %"class.sh::TIntermNode"** %59 to i64*
  %62 = load i64, i64* %61, align 8
  store i64 %62, i64* %60, align 8
  %63 = getelementptr inbounds %"class.sh::TIntermNode"*, %"class.sh::TIntermNode"** %59, i64 1
  %64 = load %"class.sh::TIntermNode"**, %"class.sh::TIntermNode"*** %17, align 8
  %65 = getelementptr inbounds %"class.sh::TIntermNode"*, %"class.sh::TIntermNode"** %64, i64 1
  store %"class.sh::TIntermNode"** %65, %"class.sh::TIntermNode"*** %17, align 8
  %66 = bitcast %"class.sh::TIntermNode"** %65 to i64*
  %67 = bitcast %"class.sh::TIntermNode"** %63 to i64*
  %68 = load i64, i64* %67, align 8
  store i64 %68, i64* %66, align 8
  %69 = getelementptr inbounds %"class.sh::TIntermNode"*, %"class.sh::TIntermNode"** %59, i64 2
  %70 = load %"class.sh::TIntermNode"**, %"class.sh::TIntermNode"*** %17, align 8
  %71 = getelementptr inbounds %"class.sh::TIntermNode"*, %"class.sh::TIntermNode"** %70, i64 1
  store %"class.sh::TIntermNode"** %71, %"class.sh::TIntermNode"*** %17, align 8
  %72 = bitcast %"class.sh::TIntermNode"** %71 to i64*
  %73 = bitcast %"class.sh::TIntermNode"** %69 to i64*
  %74 = load i64, i64* %73, align 8
  store i64 %74, i64* %72, align 8
  %75 = getelementptr inbounds %"class.sh::TIntermNode"*, %"class.sh::TIntermNode"** %59, i64 3
  %76 = load %"class.sh::TIntermNode"**, %"class.sh::TIntermNode"*** %17, align 8
  %77 = getelementptr inbounds %"class.sh::TIntermNode"*, %"class.sh::TIntermNode"** %76, i64 1
  store %"class.sh::TIntermNode"** %77, %"class.sh::TIntermNode"*** %17, align 8
  %78 = bitcast %"class.sh::TIntermNode"** %77 to i64*
  %79 = bitcast %"class.sh::TIntermNode"** %75 to i64*
  %80 = load i64, i64* %79, align 8
  store i64 %80, i64* %78, align 8
  %81 = getelementptr inbounds %"class.sh::TIntermNode"*, %"class.sh::TIntermNode"** %59, i64 4
  %82 = load %"class.sh::TIntermNode"**, %"class.sh::TIntermNode"*** %17, align 8
  %83 = getelementptr inbounds %"class.sh::TIntermNode"*, %"class.sh::TIntermNode"** %82, i64 1
  store %"class.sh::TIntermNode"** %83, %"class.sh::TIntermNode"*** %17, align 8
  %84 = icmp eq %"class.sh::TIntermNode"** %81, %3
  br i1 %84, label %85, label %57

; <label>:85:                                     ; preds = %52, %57, %28
  %86 = phi %"class.sh::TIntermNode"** [ %18, %28 ], [ %53, %52 ], [ %83, %57 ]
  %87 = icmp sgt i64 %25, 0
  br i1 %87, label %88, label %777

; <label>:88:                                     ; preds = %85
  %89 = ptrtoint %"class.sh::TIntermNode"** %86 to i64
  br label %90

; <label>:90:                                     ; preds = %88, %24
  %91 = phi i64 [ %89, %88 ], [ %19, %24 ]
  %92 = phi %"class.sh::TIntermNode"** [ %86, %88 ], [ %18, %24 ]
  %93 = phi %"class.sh::TIntermNode"** [ %29, %88 ], [ %3, %24 ]
  %94 = getelementptr inbounds %"class.sh::TIntermNode"*, %"class.sh::TIntermNode"** %1, i64 %11
  %95 = ptrtoint %"class.sh::TIntermNode"** %94 to i64
  %96 = sub i64 %91, %95
  %97 = ashr exact i64 %96, 3
  %98 = getelementptr inbounds %"class.sh::TIntermNode"*, %"class.sh::TIntermNode"** %1, i64 %97
  %99 = icmp ult %"class.sh::TIntermNode"** %98, %18
  br i1 %99, label %100, label %127

; <label>:100:                                    ; preds = %90
  %101 = sub nsw i64 0, %97
  %102 = getelementptr %"class.sh::TIntermNode"*, %"class.sh::TIntermNode"** %18, i64 %101
  %103 = bitcast %"class.sh::TIntermNode"** %102 to i8*
  %104 = xor i64 %6, -1
  %105 = getelementptr i8, i8* %103, i64 %104
  %106 = ptrtoint i8* %105 to i64
  %107 = lshr i64 %106, 3
  %108 = add nuw nsw i64 %107, 1
  %109 = and i64 %108, 3
  %110 = icmp eq i64 %109, 0
  br i1 %110, label %123, label %111

; <label>:111:                                    ; preds = %100, %111
  %112 = phi %"class.sh::TIntermNode"** [ %120, %111 ], [ %92, %100 ]
  %113 = phi %"class.sh::TIntermNode"** [ %118, %111 ], [ %98, %100 ]
  %114 = phi i64 [ %121, %111 ], [ %109, %100 ]
  %115 = bitcast %"class.sh::TIntermNode"** %112 to i64*
  %116 = bitcast %"class.sh::TIntermNode"** %113 to i64*
  %117 = load i64, i64* %116, align 8
  store i64 %117, i64* %115, align 8
  %118 = getelementptr inbounds %"class.sh::TIntermNode"*, %"class.sh::TIntermNode"** %113, i64 1
  %119 = load %"class.sh::TIntermNode"**, %"class.sh::TIntermNode"*** %17, align 8
  %120 = getelementptr inbounds %"class.sh::TIntermNode"*, %"class.sh::TIntermNode"** %119, i64 1
  store %"class.sh::TIntermNode"** %120, %"class.sh::TIntermNode"*** %17, align 8
  %121 = add i64 %114, -1
  %122 = icmp eq i64 %121, 0
  br i1 %122, label %123, label %111, !llvm.loop !4

; <label>:123:                                    ; preds = %111, %100
  %124 = phi %"class.sh::TIntermNode"** [ %92, %100 ], [ %120, %111 ]
  %125 = phi %"class.sh::TIntermNode"** [ %98, %100 ], [ %118, %111 ]
  %126 = icmp ult i8* %105, inttoptr (i64 24 to i8*)
  br i1 %126, label %127, label %133

; <label>:127:                                    ; preds = %123, %133, %90
  %128 = icmp eq i64 %96, 0
  br i1 %128, label %161, label %129

; <label>:129:                                    ; preds = %127
  %130 = sub nsw i64 0, %97
  %131 = getelementptr inbounds %"class.sh::TIntermNode"*, %"class.sh::TIntermNode"** %92, i64 %130
  %132 = bitcast %"class.sh::TIntermNode"** %131 to i8*
  tail call void @llvm.memmove.p0i8.p0i8.i64(i8* align 8 %132, i8* align 8 %7, i64 %96, i1 false) #18
  br label %161

; <label>:133:                                    ; preds = %123, %133
  %134 = phi %"class.sh::TIntermNode"** [ %159, %133 ], [ %124, %123 ]
  %135 = phi %"class.sh::TIntermNode"** [ %157, %133 ], [ %125, %123 ]
  %136 = bitcast %"class.sh::TIntermNode"** %134 to i64*
  %137 = bitcast %"class.sh::TIntermNode"** %135 to i64*
  %138 = load i64, i64* %137, align 8
  store i64 %138, i64* %136, align 8
  %139 = getelementptr inbounds %"class.sh::TIntermNode"*, %"class.sh::TIntermNode"** %135, i64 1
  %140 = load %"class.sh::TIntermNode"**, %"class.sh::TIntermNode"*** %17, align 8
  %141 = getelementptr inbounds %"class.sh::TIntermNode"*, %"class.sh::TIntermNode"** %140, i64 1
  store %"class.sh::TIntermNode"** %141, %"class.sh::TIntermNode"*** %17, align 8
  %142 = bitcast %"class.sh::TIntermNode"** %141 to i64*
  %143 = bitcast %"class.sh::TIntermNode"** %139 to i64*
  %144 = load i64, i64* %143, align 8
  store i64 %144, i64* %142, align 8
  %145 = getelementptr inbounds %"class.sh::TIntermNode"*, %"class.sh::TIntermNode"** %135, i64 2
  %146 = load %"class.sh::TIntermNode"**, %"class.sh::TIntermNode"*** %17, align 8
  %147 = getelementptr inbounds %"class.sh::TIntermNode"*, %"class.sh::TIntermNode"** %146, i64 1
  store %"class.sh::TIntermNode"** %147, %"class.sh::TIntermNode"*** %17, align 8
  %148 = bitcast %"class.sh::TIntermNode"** %147 to i64*
  %149 = bitcast %"class.sh::TIntermNode"** %145 to i64*
  %150 = load i64, i64* %149, align 8
  store i64 %150, i64* %148, align 8
  %151 = getelementptr inbounds %"class.sh::TIntermNode"*, %"class.sh::TIntermNode"** %135, i64 3
  %152 = load %"class.sh::TIntermNode"**, %"class.sh::TIntermNode"*** %17, align 8
  %153 = getelementptr inbounds %"class.sh::TIntermNode"*, %"class.sh::TIntermNode"** %152, i64 1
  store %"class.sh::TIntermNode"** %153, %"class.sh::TIntermNode"*** %17, align 8
  %154 = bitcast %"class.sh::TIntermNode"** %153 to i64*
  %155 = bitcast %"class.sh::TIntermNode"** %151 to i64*
  %156 = load i64, i64* %155, align 8
  store i64 %156, i64* %154, align 8
  %157 = getelementptr inbounds %"class.sh::TIntermNode"*, %"class.sh::TIntermNode"** %135, i64 4
  %158 = load %"class.sh::TIntermNode"**, %"class.sh::TIntermNode"*** %17, align 8
  %159 = getelementptr inbounds %"class.sh::TIntermNode"*, %"class.sh::TIntermNode"** %158, i64 1
  store %"class.sh::TIntermNode"** %159, %"class.sh::TIntermNode"*** %17, align 8
  %160 = icmp ult %"class.sh::TIntermNode"** %157, %18
  br i1 %160, label %133, label %127

; <label>:161:                                    ; preds = %127, %129
  %162 = icmp eq %"class.sh::TIntermNode"** %93, %2
  br i1 %162, label %777, label %163

; <label>:163:                                    ; preds = %161
  %164 = getelementptr %"class.sh::TIntermNode"*, %"class.sh::TIntermNode"** %93, i64 -1
  %165 = ptrtoint %"class.sh::TIntermNode"** %164 to i64
  %166 = sub i64 %165, %5
  %167 = lshr i64 %166, 3
  %168 = add nuw nsw i64 %167, 1
  %169 = icmp ult i64 %168, 4
  br i1 %169, label %262, label %170

; <label>:170:                                    ; preds = %163
  %171 = getelementptr %"class.sh::TIntermNode"*, %"class.sh::TIntermNode"** %93, i64 -1
  %172 = ptrtoint %"class.sh::TIntermNode"** %171 to i64
  %173 = sub i64 %172, %5
  %174 = lshr i64 %173, 3
  %175 = add nuw nsw i64 %174, 1
  %176 = getelementptr %"class.sh::TIntermNode"*, %"class.sh::TIntermNode"** %1, i64 %175
  %177 = getelementptr %"class.sh::TIntermNode"*, %"class.sh::TIntermNode"** %2, i64 %175
  %178 = icmp ugt %"class.sh::TIntermNode"** %177, %1
  %179 = icmp ugt %"class.sh::TIntermNode"** %176, %2
  %180 = and i1 %178, %179
  br i1 %180, label %262, label %181

; <label>:181:                                    ; preds = %170
  %182 = and i64 %168, 4611686018427387900
  %183 = getelementptr %"class.sh::TIntermNode"*, %"class.sh::TIntermNode"** %1, i64 %182
  %184 = getelementptr %"class.sh::TIntermNode"*, %"class.sh::TIntermNode"** %2, i64 %182
  %185 = add nsw i64 %182, -4
  %186 = lshr exact i64 %185, 2
  %187 = add nuw nsw i64 %186, 1
  %188 = and i64 %187, 3
  %189 = icmp ult i64 %185, 12
  br i1 %189, label %241, label %190

; <label>:190:                                    ; preds = %181
  %191 = sub nsw i64 %187, %188
  br label %192

; <label>:192:                                    ; preds = %192, %190
  %193 = phi i64 [ 0, %190 ], [ %238, %192 ]
  %194 = phi i64 [ %191, %190 ], [ %239, %192 ]
  %195 = getelementptr %"class.sh::TIntermNode"*, %"class.sh::TIntermNode"** %1, i64 %193
  %196 = getelementptr %"class.sh::TIntermNode"*, %"class.sh::TIntermNode"** %2, i64 %193
  %197 = bitcast %"class.sh::TIntermNode"** %196 to <2 x i64>*
  %198 = load <2 x i64>, <2 x i64>* %197, align 8, !alias.scope !5
  %199 = getelementptr %"class.sh::TIntermNode"*, %"class.sh::TIntermNode"** %196, i64 2
  %200 = bitcast %"class.sh::TIntermNode"** %199 to <2 x i64>*
  %201 = load <2 x i64>, <2 x i64>* %200, align 8, !alias.scope !5
  %202 = bitcast %"class.sh::TIntermNode"** %195 to <2 x i64>*
  store <2 x i64> %198, <2 x i64>* %202, align 8, !alias.scope !8, !noalias !5
  %203 = getelementptr %"class.sh::TIntermNode"*, %"class.sh::TIntermNode"** %195, i64 2
  %204 = bitcast %"class.sh::TIntermNode"** %203 to <2 x i64>*
  store <2 x i64> %201, <2 x i64>* %204, align 8, !alias.scope !8, !noalias !5
  %205 = or i64 %193, 4
  %206 = getelementptr %"class.sh::TIntermNode"*, %"class.sh::TIntermNode"** %1, i64 %205
  %207 = getelementptr %"class.sh::TIntermNode"*, %"class.sh::TIntermNode"** %2, i64 %205
  %208 = bitcast %"class.sh::TIntermNode"** %207 to <2 x i64>*
  %209 = load <2 x i64>, <2 x i64>* %208, align 8, !alias.scope !5
  %210 = getelementptr %"class.sh::TIntermNode"*, %"class.sh::TIntermNode"** %207, i64 2
  %211 = bitcast %"class.sh::TIntermNode"** %210 to <2 x i64>*
  %212 = load <2 x i64>, <2 x i64>* %211, align 8, !alias.scope !5
  %213 = bitcast %"class.sh::TIntermNode"** %206 to <2 x i64>*
  store <2 x i64> %209, <2 x i64>* %213, align 8, !alias.scope !8, !noalias !5
  %214 = getelementptr %"class.sh::TIntermNode"*, %"class.sh::TIntermNode"** %206, i64 2
  %215 = bitcast %"class.sh::TIntermNode"** %214 to <2 x i64>*
  store <2 x i64> %212, <2 x i64>* %215, align 8, !alias.scope !8, !noalias !5
  %216 = or i64 %193, 8
  %217 = getelementptr %"class.sh::TIntermNode"*, %"class.sh::TIntermNode"** %1, i64 %216
  %218 = getelementptr %"class.sh::TIntermNode"*, %"class.sh::TIntermNode"** %2, i64 %216
  %219 = bitcast %"class.sh::TIntermNode"** %218 to <2 x i64>*
  %220 = load <2 x i64>, <2 x i64>* %219, align 8, !alias.scope !5
  %221 = getelementptr %"class.sh::TIntermNode"*, %"class.sh::TIntermNode"** %218, i64 2
  %222 = bitcast %"class.sh::TIntermNode"** %221 to <2 x i64>*
  %223 = load <2 x i64>, <2 x i64>* %222, align 8, !alias.scope !5
  %224 = bitcast %"class.sh::TIntermNode"** %217 to <2 x i64>*
  store <2 x i64> %220, <2 x i64>* %224, align 8, !alias.scope !8, !noalias !5
  %225 = getelementptr %"class.sh::TIntermNode"*, %"class.sh::TIntermNode"** %217, i64 2
  %226 = bitcast %"class.sh::TIntermNode"** %225 to <2 x i64>*
  store <2 x i64> %223, <2 x i64>* %226, align 8, !alias.scope !8, !noalias !5
  %227 = or i64 %193, 12
  %228 = getelementptr %"class.sh::TIntermNode"*, %"class.sh::TIntermNode"** %1, i64 %227
  %229 = getelementptr %"class.sh::TIntermNode"*, %"class.sh::TIntermNode"** %2, i64 %227
  %230 = bitcast %"class.sh::TIntermNode"** %229 to <2 x i64>*
  %231 = load <2 x i64>, <2 x i64>* %230, align 8, !alias.scope !5
  %232 = getelementptr %"class.sh::TIntermNode"*, %"class.sh::TIntermNode"** %229, i64 2
  %233 = bitcast %"class.sh::TIntermNode"** %232 to <2 x i64>*
  %234 = load <2 x i64>, <2 x i64>* %233, align 8, !alias.scope !5
  %235 = bitcast %"class.sh::TIntermNode"** %228 to <2 x i64>*
  store <2 x i64> %231, <2 x i64>* %235, align 8, !alias.scope !8, !noalias !5
  %236 = getelementptr %"class.sh::TIntermNode"*, %"class.sh::TIntermNode"** %228, i64 2
  %237 = bitcast %"class.sh::TIntermNode"** %236 to <2 x i64>*
  store <2 x i64> %234, <2 x i64>* %237, align 8, !alias.scope !8, !noalias !5
  %238 = add i64 %193, 16
  %239 = add i64 %194, -4
  %240 = icmp eq i64 %239, 0
  br i1 %240, label %241, label %192, !llvm.loop !10

; <label>:241:                                    ; preds = %192, %181
  %242 = phi i64 [ 0, %181 ], [ %238, %192 ]
  %243 = icmp eq i64 %188, 0
  br i1 %243, label %260, label %244

; <label>:244:                                    ; preds = %241, %244
  %245 = phi i64 [ %257, %244 ], [ %242, %241 ]
  %246 = phi i64 [ %258, %244 ], [ %188, %241 ]
  %247 = getelementptr %"class.sh::TIntermNode"*, %"class.sh::TIntermNode"** %1, i64 %245
  %248 = getelementptr %"class.sh::TIntermNode"*, %"class.sh::TIntermNode"** %2, i64 %245
  %249 = bitcast %"class.sh::TIntermNode"** %248 to <2 x i64>*
  %250 = load <2 x i64>, <2 x i64>* %249, align 8, !alias.scope !5
  %251 = getelementptr %"class.sh::TIntermNode"*, %"class.sh::TIntermNode"** %248, i64 2
  %252 = bitcast %"class.sh::TIntermNode"** %251 to <2 x i64>*
  %253 = load <2 x i64>, <2 x i64>* %252, align 8, !alias.scope !5
  %254 = bitcast %"class.sh::TIntermNode"** %247 to <2 x i64>*
  store <2 x i64> %250, <2 x i64>* %254, align 8, !alias.scope !8, !noalias !5
  %255 = getelementptr %"class.sh::TIntermNode"*, %"class.sh::TIntermNode"** %247, i64 2
  %256 = bitcast %"class.sh::TIntermNode"** %255 to <2 x i64>*
  store <2 x i64> %253, <2 x i64>* %256, align 8, !alias.scope !8, !noalias !5
  %257 = add i64 %245, 4
  %258 = add i64 %246, -1
  %259 = icmp eq i64 %258, 0
  br i1 %259, label %260, label %244, !llvm.loop !12

; <label>:260:                                    ; preds = %244, %241
  %261 = icmp eq i64 %168, %182
  br i1 %261, label %777, label %262

; <label>:262:                                    ; preds = %260, %170, %163
  %263 = phi %"class.sh::TIntermNode"** [ %1, %170 ], [ %1, %163 ], [ %183, %260 ]
  %264 = phi %"class.sh::TIntermNode"** [ %2, %170 ], [ %2, %163 ], [ %184, %260 ]
  %265 = ptrtoint %"class.sh::TIntermNode"** %264 to i64
  %266 = getelementptr %"class.sh::TIntermNode"*, %"class.sh::TIntermNode"** %93, i64 -1
  %267 = ptrtoint %"class.sh::TIntermNode"** %266 to i64
  %268 = sub i64 %267, %265
  %269 = lshr i64 %268, 3
  %270 = add nuw nsw i64 %269, 1
  %271 = and i64 %270, 7
  %272 = icmp eq i64 %271, 0
  br i1 %272, label %284, label %273

; <label>:273:                                    ; preds = %262, %273
  %274 = phi %"class.sh::TIntermNode"** [ %281, %273 ], [ %263, %262 ]
  %275 = phi %"class.sh::TIntermNode"** [ %280, %273 ], [ %264, %262 ]
  %276 = phi i64 [ %282, %273 ], [ %271, %262 ]
  %277 = bitcast %"class.sh::TIntermNode"** %275 to i64*
  %278 = load i64, i64* %277, align 8
  %279 = bitcast %"class.sh::TIntermNode"** %274 to i64*
  store i64 %278, i64* %279, align 8
  %280 = getelementptr inbounds %"class.sh::TIntermNode"*, %"class.sh::TIntermNode"** %275, i64 1
  %281 = getelementptr inbounds %"class.sh::TIntermNode"*, %"class.sh::TIntermNode"** %274, i64 1
  %282 = add i64 %276, -1
  %283 = icmp eq i64 %282, 0
  br i1 %283, label %284, label %273, !llvm.loop !13

; <label>:284:                                    ; preds = %273, %262
  %285 = phi %"class.sh::TIntermNode"** [ %263, %262 ], [ %281, %273 ]
  %286 = phi %"class.sh::TIntermNode"** [ %264, %262 ], [ %280, %273 ]
  %287 = icmp ult i64 %268, 56
  br i1 %287, label %777, label %288

; <label>:288:                                    ; preds = %284, %288
  %289 = phi %"class.sh::TIntermNode"** [ %330, %288 ], [ %285, %284 ]
  %290 = phi %"class.sh::TIntermNode"** [ %329, %288 ], [ %286, %284 ]
  %291 = bitcast %"class.sh::TIntermNode"** %290 to i64*
  %292 = load i64, i64* %291, align 8
  %293 = bitcast %"class.sh::TIntermNode"** %289 to i64*
  store i64 %292, i64* %293, align 8
  %294 = getelementptr inbounds %"class.sh::TIntermNode"*, %"class.sh::TIntermNode"** %290, i64 1
  %295 = getelementptr inbounds %"class.sh::TIntermNode"*, %"class.sh::TIntermNode"** %289, i64 1
  %296 = bitcast %"class.sh::TIntermNode"** %294 to i64*
  %297 = load i64, i64* %296, align 8
  %298 = bitcast %"class.sh::TIntermNode"** %295 to i64*
  store i64 %297, i64* %298, align 8
  %299 = getelementptr inbounds %"class.sh::TIntermNode"*, %"class.sh::TIntermNode"** %290, i64 2
  %300 = getelementptr inbounds %"class.sh::TIntermNode"*, %"class.sh::TIntermNode"** %289, i64 2
  %301 = bitcast %"class.sh::TIntermNode"** %299 to i64*
  %302 = load i64, i64* %301, align 8
  %303 = bitcast %"class.sh::TIntermNode"** %300 to i64*
  store i64 %302, i64* %303, align 8
  %304 = getelementptr inbounds %"class.sh::TIntermNode"*, %"class.sh::TIntermNode"** %290, i64 3
  %305 = getelementptr inbounds %"class.sh::TIntermNode"*, %"class.sh::TIntermNode"** %289, i64 3
  %306 = bitcast %"class.sh::TIntermNode"** %304 to i64*
  %307 = load i64, i64* %306, align 8
  %308 = bitcast %"class.sh::TIntermNode"** %305 to i64*
  store i64 %307, i64* %308, align 8
  %309 = getelementptr inbounds %"class.sh::TIntermNode"*, %"class.sh::TIntermNode"** %290, i64 4
  %310 = getelementptr inbounds %"class.sh::TIntermNode"*, %"class.sh::TIntermNode"** %289, i64 4
  %311 = bitcast %"class.sh::TIntermNode"** %309 to i64*
  %312 = load i64, i64* %311, align 8
  %313 = bitcast %"class.sh::TIntermNode"** %310 to i64*
  store i64 %312, i64* %313, align 8
  %314 = getelementptr inbounds %"class.sh::TIntermNode"*, %"class.sh::TIntermNode"** %290, i64 5
  %315 = getelementptr inbounds %"class.sh::TIntermNode"*, %"class.sh::TIntermNode"** %289, i64 5
  %316 = bitcast %"class.sh::TIntermNode"** %314 to i64*
  %317 = load i64, i64* %316, align 8
  %318 = bitcast %"class.sh::TIntermNode"** %315 to i64*
  store i64 %317, i64* %318, align 8
  %319 = getelementptr inbounds %"class.sh::TIntermNode"*, %"class.sh::TIntermNode"** %290, i64 6
  %320 = getelementptr inbounds %"class.sh::TIntermNode"*, %"class.sh::TIntermNode"** %289, i64 6
  %321 = bitcast %"class.sh::TIntermNode"** %319 to i64*
  %322 = load i64, i64* %321, align 8
  %323 = bitcast %"class.sh::TIntermNode"** %320 to i64*
  store i64 %322, i64* %323, align 8
  %324 = getelementptr inbounds %"class.sh::TIntermNode"*, %"class.sh::TIntermNode"** %290, i64 7
  %325 = getelementptr inbounds %"class.sh::TIntermNode"*, %"class.sh::TIntermNode"** %289, i64 7
  %326 = bitcast %"class.sh::TIntermNode"** %324 to i64*
  %327 = load i64, i64* %326, align 8
  %328 = bitcast %"class.sh::TIntermNode"** %325 to i64*
  store i64 %327, i64* %328, align 8
  %329 = getelementptr inbounds %"class.sh::TIntermNode"*, %"class.sh::TIntermNode"** %290, i64 8
  %330 = getelementptr inbounds %"class.sh::TIntermNode"*, %"class.sh::TIntermNode"** %289, i64 8
  %331 = icmp eq %"class.sh::TIntermNode"** %329, %93
  br i1 %331, label %777, label %288, !llvm.loop !14

; <label>:332:                                    ; preds = %13
  %333 = bitcast %"class.std::__1::vector.16"* %0 to i64*
  %334 = load i64, i64* %333, align 8
  %335 = sub i64 %19, %334
  %336 = ashr exact i64 %335, 3
  %337 = add nsw i64 %336, %11
  %338 = icmp ugt i64 %337, 2305843009213693951
  br i1 %338, label %339, label %341

; <label>:339:                                    ; preds = %332
  %340 = bitcast %"class.std::__1::vector.16"* %0 to %"class.std::__1::__vector_base_common"*
  tail call void @_ZNKSt3__120__vector_base_commonILb1EE20__throw_length_errorEv(%"class.std::__1::__vector_base_common"* %340) #12
  unreachable

; <label>:341:                                    ; preds = %332
  %342 = sub i64 %16, %334
  %343 = ashr exact i64 %342, 3
  %344 = icmp ult i64 %343, 1152921504606846975
  br i1 %344, label %348, label %345

; <label>:345:                                    ; preds = %341
  %346 = sub i64 %6, %334
  %347 = ashr exact i64 %346, 3
  br label %355

; <label>:348:                                    ; preds = %341
  %349 = ashr exact i64 %342, 2
  %350 = icmp ult i64 %349, %337
  %351 = select i1 %350, i64 %337, i64 %349
  %352 = sub i64 %6, %334
  %353 = ashr exact i64 %352, 3
  %354 = icmp eq i64 %351, 0
  br i1 %354, label %362, label %355

; <label>:355:                                    ; preds = %345, %348
  %356 = phi i64 [ %347, %345 ], [ %353, %348 ]
  %357 = phi i64 [ 2305843009213693951, %345 ], [ %351, %348 ]
  %358 = tail call %class.TPoolAllocator* @_Z22GetGlobalPoolAllocatorv() #18
  %359 = shl i64 %357, 3
  %360 = tail call i8* @_ZN14TPoolAllocator8allocateEm(%class.TPoolAllocator* nonnull %358, i64 %359) #18
  %361 = bitcast i8* %360 to %"class.sh::TIntermNode"**
  br label %362

; <label>:362:                                    ; preds = %348, %355
  %363 = phi i64 [ %356, %355 ], [ %353, %348 ]
  %364 = phi i64 [ %357, %355 ], [ 0, %348 ]
  %365 = phi %"class.sh::TIntermNode"** [ %361, %355 ], [ null, %348 ]
  %366 = getelementptr inbounds %"class.sh::TIntermNode"*, %"class.sh::TIntermNode"** %365, i64 %363
  %367 = ptrtoint %"class.sh::TIntermNode"** %366 to i64
  %368 = getelementptr inbounds %"class.sh::TIntermNode"*, %"class.sh::TIntermNode"** %365, i64 %364
  %369 = ptrtoint %"class.sh::TIntermNode"** %368 to i64
  %370 = icmp eq %"class.sh::TIntermNode"** %2, %3
  br i1 %370, label %551, label %371

; <label>:371:                                    ; preds = %362
  %372 = getelementptr %"class.sh::TIntermNode"*, %"class.sh::TIntermNode"** %3, i64 -1
  %373 = ptrtoint %"class.sh::TIntermNode"** %372 to i64
  %374 = sub i64 %373, %5
  %375 = lshr i64 %374, 3
  %376 = add nsw i64 %363, %375
  %377 = add nsw i64 %376, 1
  %378 = getelementptr %"class.sh::TIntermNode"*, %"class.sh::TIntermNode"** %3, i64 -1
  %379 = ptrtoint %"class.sh::TIntermNode"** %378 to i64
  %380 = sub i64 %379, %5
  %381 = lshr i64 %380, 3
  %382 = add nuw nsw i64 %381, 1
  %383 = icmp ult i64 %382, 4
  br i1 %383, label %478, label %384

; <label>:384:                                    ; preds = %371
  %385 = getelementptr %"class.sh::TIntermNode"*, %"class.sh::TIntermNode"** %3, i64 -1
  %386 = ptrtoint %"class.sh::TIntermNode"** %385 to i64
  %387 = sub i64 %386, %5
  %388 = lshr i64 %387, 3
  %389 = add nsw i64 %363, %388
  %390 = add nsw i64 %389, 1
  %391 = getelementptr %"class.sh::TIntermNode"*, %"class.sh::TIntermNode"** %365, i64 %390
  %392 = add nuw nsw i64 %388, 1
  %393 = getelementptr %"class.sh::TIntermNode"*, %"class.sh::TIntermNode"** %2, i64 %392
  %394 = icmp ult %"class.sh::TIntermNode"** %366, %393
  %395 = icmp ugt %"class.sh::TIntermNode"** %391, %2
  %396 = and i1 %394, %395
  br i1 %396, label %478, label %397

; <label>:397:                                    ; preds = %384
  %398 = and i64 %382, 4611686018427387900
  %399 = getelementptr %"class.sh::TIntermNode"*, %"class.sh::TIntermNode"** %366, i64 %398
  %400 = getelementptr %"class.sh::TIntermNode"*, %"class.sh::TIntermNode"** %2, i64 %398
  %401 = add nsw i64 %398, -4
  %402 = lshr exact i64 %401, 2
  %403 = add nuw nsw i64 %402, 1
  %404 = and i64 %403, 3
  %405 = icmp ult i64 %401, 12
  br i1 %405, label %457, label %406

; <label>:406:                                    ; preds = %397
  %407 = sub nsw i64 %403, %404
  br label %408

; <label>:408:                                    ; preds = %408, %406
  %409 = phi i64 [ 0, %406 ], [ %454, %408 ]
  %410 = phi i64 [ %407, %406 ], [ %455, %408 ]
  %411 = getelementptr %"class.sh::TIntermNode"*, %"class.sh::TIntermNode"** %366, i64 %409
  %412 = getelementptr %"class.sh::TIntermNode"*, %"class.sh::TIntermNode"** %2, i64 %409
  %413 = bitcast %"class.sh::TIntermNode"** %412 to <2 x i64>*
  %414 = load <2 x i64>, <2 x i64>* %413, align 8, !alias.scope !15
  %415 = getelementptr %"class.sh::TIntermNode"*, %"class.sh::TIntermNode"** %412, i64 2
  %416 = bitcast %"class.sh::TIntermNode"** %415 to <2 x i64>*
  %417 = load <2 x i64>, <2 x i64>* %416, align 8, !alias.scope !15
  %418 = bitcast %"class.sh::TIntermNode"** %411 to <2 x i64>*
  store <2 x i64> %414, <2 x i64>* %418, align 8, !alias.scope !18, !noalias !15
  %419 = getelementptr %"class.sh::TIntermNode"*, %"class.sh::TIntermNode"** %411, i64 2
  %420 = bitcast %"class.sh::TIntermNode"** %419 to <2 x i64>*
  store <2 x i64> %417, <2 x i64>* %420, align 8, !alias.scope !18, !noalias !15
  %421 = or i64 %409, 4
  %422 = getelementptr %"class.sh::TIntermNode"*, %"class.sh::TIntermNode"** %366, i64 %421
  %423 = getelementptr %"class.sh::TIntermNode"*, %"class.sh::TIntermNode"** %2, i64 %421
  %424 = bitcast %"class.sh::TIntermNode"** %423 to <2 x i64>*
  %425 = load <2 x i64>, <2 x i64>* %424, align 8, !alias.scope !15
  %426 = getelementptr %"class.sh::TIntermNode"*, %"class.sh::TIntermNode"** %423, i64 2
  %427 = bitcast %"class.sh::TIntermNode"** %426 to <2 x i64>*
  %428 = load <2 x i64>, <2 x i64>* %427, align 8, !alias.scope !15
  %429 = bitcast %"class.sh::TIntermNode"** %422 to <2 x i64>*
  store <2 x i64> %425, <2 x i64>* %429, align 8, !alias.scope !18, !noalias !15
  %430 = getelementptr %"class.sh::TIntermNode"*, %"class.sh::TIntermNode"** %422, i64 2
  %431 = bitcast %"class.sh::TIntermNode"** %430 to <2 x i64>*
  store <2 x i64> %428, <2 x i64>* %431, align 8, !alias.scope !18, !noalias !15
  %432 = or i64 %409, 8
  %433 = getelementptr %"class.sh::TIntermNode"*, %"class.sh::TIntermNode"** %366, i64 %432
  %434 = getelementptr %"class.sh::TIntermNode"*, %"class.sh::TIntermNode"** %2, i64 %432
  %435 = bitcast %"class.sh::TIntermNode"** %434 to <2 x i64>*
  %436 = load <2 x i64>, <2 x i64>* %435, align 8, !alias.scope !15
  %437 = getelementptr %"class.sh::TIntermNode"*, %"class.sh::TIntermNode"** %434, i64 2
  %438 = bitcast %"class.sh::TIntermNode"** %437 to <2 x i64>*
  %439 = load <2 x i64>, <2 x i64>* %438, align 8, !alias.scope !15
  %440 = bitcast %"class.sh::TIntermNode"** %433 to <2 x i64>*
  store <2 x i64> %436, <2 x i64>* %440, align 8, !alias.scope !18, !noalias !15
  %441 = getelementptr %"class.sh::TIntermNode"*, %"class.sh::TIntermNode"** %433, i64 2
  %442 = bitcast %"class.sh::TIntermNode"** %441 to <2 x i64>*
  store <2 x i64> %439, <2 x i64>* %442, align 8, !alias.scope !18, !noalias !15
  %443 = or i64 %409, 12
  %444 = getelementptr %"class.sh::TIntermNode"*, %"class.sh::TIntermNode"** %366, i64 %443
  %445 = getelementptr %"class.sh::TIntermNode"*, %"class.sh::TIntermNode"** %2, i64 %443
  %446 = bitcast %"class.sh::TIntermNode"** %445 to <2 x i64>*
  %447 = load <2 x i64>, <2 x i64>* %446, align 8, !alias.scope !15
  %448 = getelementptr %"class.sh::TIntermNode"*, %"class.sh::TIntermNode"** %445, i64 2
  %449 = bitcast %"class.sh::TIntermNode"** %448 to <2 x i64>*
  %450 = load <2 x i64>, <2 x i64>* %449, align 8, !alias.scope !15
  %451 = bitcast %"class.sh::TIntermNode"** %444 to <2 x i64>*
  store <2 x i64> %447, <2 x i64>* %451, align 8, !alias.scope !18, !noalias !15
  %452 = getelementptr %"class.sh::TIntermNode"*, %"class.sh::TIntermNode"** %444, i64 2
  %453 = bitcast %"class.sh::TIntermNode"** %452 to <2 x i64>*
  store <2 x i64> %450, <2 x i64>* %453, align 8, !alias.scope !18, !noalias !15
  %454 = add i64 %409, 16
  %455 = add i64 %410, -4
  %456 = icmp eq i64 %455, 0
  br i1 %456, label %457, label %408, !llvm.loop !20

; <label>:457:                                    ; preds = %408, %397
  %458 = phi i64 [ 0, %397 ], [ %454, %408 ]
  %459 = icmp eq i64 %404, 0
  br i1 %459, label %476, label %460

; <label>:460:                                    ; preds = %457, %460
  %461 = phi i64 [ %473, %460 ], [ %458, %457 ]
  %462 = phi i64 [ %474, %460 ], [ %404, %457 ]
  %463 = getelementptr %"class.sh::TIntermNode"*, %"class.sh::TIntermNode"** %366, i64 %461
  %464 = getelementptr %"class.sh::TIntermNode"*, %"class.sh::TIntermNode"** %2, i64 %461
  %465 = bitcast %"class.sh::TIntermNode"** %464 to <2 x i64>*
  %466 = load <2 x i64>, <2 x i64>* %465, align 8, !alias.scope !15
  %467 = getelementptr %"class.sh::TIntermNode"*, %"class.sh::TIntermNode"** %464, i64 2
  %468 = bitcast %"class.sh::TIntermNode"** %467 to <2 x i64>*
  %469 = load <2 x i64>, <2 x i64>* %468, align 8, !alias.scope !15
  %470 = bitcast %"class.sh::TIntermNode"** %463 to <2 x i64>*
  store <2 x i64> %466, <2 x i64>* %470, align 8, !alias.scope !18, !noalias !15
  %471 = getelementptr %"class.sh::TIntermNode"*, %"class.sh::TIntermNode"** %463, i64 2
  %472 = bitcast %"class.sh::TIntermNode"** %471 to <2 x i64>*
  store <2 x i64> %469, <2 x i64>* %472, align 8, !alias.scope !18, !noalias !15
  %473 = add i64 %461, 4
  %474 = add i64 %462, -1
  %475 = icmp eq i64 %474, 0
  br i1 %475, label %476, label %460, !llvm.loop !21

; <label>:476:                                    ; preds = %460, %457
  %477 = icmp eq i64 %382, %398
  br i1 %477, label %548, label %478

; <label>:478:                                    ; preds = %476, %384, %371
  %479 = phi %"class.sh::TIntermNode"** [ %366, %384 ], [ %366, %371 ], [ %399, %476 ]
  %480 = phi %"class.sh::TIntermNode"** [ %2, %384 ], [ %2, %371 ], [ %400, %476 ]
  %481 = ptrtoint %"class.sh::TIntermNode"** %480 to i64
  %482 = getelementptr %"class.sh::TIntermNode"*, %"class.sh::TIntermNode"** %3, i64 -1
  %483 = ptrtoint %"class.sh::TIntermNode"** %482 to i64
  %484 = sub i64 %483, %481
  %485 = lshr i64 %484, 3
  %486 = add nuw nsw i64 %485, 1
  %487 = and i64 %486, 7
  %488 = icmp eq i64 %487, 0
  br i1 %488, label %500, label %489

; <label>:489:                                    ; preds = %478, %489
  %490 = phi %"class.sh::TIntermNode"** [ %496, %489 ], [ %479, %478 ]
  %491 = phi %"class.sh::TIntermNode"** [ %497, %489 ], [ %480, %478 ]
  %492 = phi i64 [ %498, %489 ], [ %487, %478 ]
  %493 = bitcast %"class.sh::TIntermNode"** %490 to i64*
  %494 = bitcast %"class.sh::TIntermNode"** %491 to i64*
  %495 = load i64, i64* %494, align 8
  store i64 %495, i64* %493, align 8
  %496 = getelementptr inbounds %"class.sh::TIntermNode"*, %"class.sh::TIntermNode"** %490, i64 1
  %497 = getelementptr inbounds %"class.sh::TIntermNode"*, %"class.sh::TIntermNode"** %491, i64 1
  %498 = add i64 %492, -1
  %499 = icmp eq i64 %498, 0
  br i1 %499, label %500, label %489, !llvm.loop !22

; <label>:500:                                    ; preds = %489, %478
  %501 = phi %"class.sh::TIntermNode"** [ %479, %478 ], [ %496, %489 ]
  %502 = phi %"class.sh::TIntermNode"** [ %480, %478 ], [ %497, %489 ]
  %503 = icmp ult i64 %484, 56
  br i1 %503, label %548, label %504

; <label>:504:                                    ; preds = %500, %504
  %505 = phi %"class.sh::TIntermNode"** [ %545, %504 ], [ %501, %500 ]
  %506 = phi %"class.sh::TIntermNode"** [ %546, %504 ], [ %502, %500 ]
  %507 = bitcast %"class.sh::TIntermNode"** %505 to i64*
  %508 = bitcast %"class.sh::TIntermNode"** %506 to i64*
  %509 = load i64, i64* %508, align 8
  store i64 %509, i64* %507, align 8
  %510 = getelementptr inbounds %"class.sh::TIntermNode"*, %"class.sh::TIntermNode"** %505, i64 1
  %511 = getelementptr inbounds %"class.sh::TIntermNode"*, %"class.sh::TIntermNode"** %506, i64 1
  %512 = bitcast %"class.sh::TIntermNode"** %510 to i64*
  %513 = bitcast %"class.sh::TIntermNode"** %511 to i64*
  %514 = load i64, i64* %513, align 8
  store i64 %514, i64* %512, align 8
  %515 = getelementptr inbounds %"class.sh::TIntermNode"*, %"class.sh::TIntermNode"** %505, i64 2
  %516 = getelementptr inbounds %"class.sh::TIntermNode"*, %"class.sh::TIntermNode"** %506, i64 2
  %517 = bitcast %"class.sh::TIntermNode"** %515 to i64*
  %518 = bitcast %"class.sh::TIntermNode"** %516 to i64*
  %519 = load i64, i64* %518, align 8
  store i64 %519, i64* %517, align 8
  %520 = getelementptr inbounds %"class.sh::TIntermNode"*, %"class.sh::TIntermNode"** %505, i64 3
  %521 = getelementptr inbounds %"class.sh::TIntermNode"*, %"class.sh::TIntermNode"** %506, i64 3
  %522 = bitcast %"class.sh::TIntermNode"** %520 to i64*
  %523 = bitcast %"class.sh::TIntermNode"** %521 to i64*
  %524 = load i64, i64* %523, align 8
  store i64 %524, i64* %522, align 8
  %525 = getelementptr inbounds %"class.sh::TIntermNode"*, %"class.sh::TIntermNode"** %505, i64 4
  %526 = getelementptr inbounds %"class.sh::TIntermNode"*, %"class.sh::TIntermNode"** %506, i64 4
  %527 = bitcast %"class.sh::TIntermNode"** %525 to i64*
  %528 = bitcast %"class.sh::TIntermNode"** %526 to i64*
  %529 = load i64, i64* %528, align 8
  store i64 %529, i64* %527, align 8
  %530 = getelementptr inbounds %"class.sh::TIntermNode"*, %"class.sh::TIntermNode"** %505, i64 5
  %531 = getelementptr inbounds %"class.sh::TIntermNode"*, %"class.sh::TIntermNode"** %506, i64 5
  %532 = bitcast %"class.sh::TIntermNode"** %530 to i64*
  %533 = bitcast %"class.sh::TIntermNode"** %531 to i64*
  %534 = load i64, i64* %533, align 8
  store i64 %534, i64* %532, align 8
  %535 = getelementptr inbounds %"class.sh::TIntermNode"*, %"class.sh::TIntermNode"** %505, i64 6
  %536 = getelementptr inbounds %"class.sh::TIntermNode"*, %"class.sh::TIntermNode"** %506, i64 6
  %537 = bitcast %"class.sh::TIntermNode"** %535 to i64*
  %538 = bitcast %"class.sh::TIntermNode"** %536 to i64*
  %539 = load i64, i64* %538, align 8
  store i64 %539, i64* %537, align 8
  %540 = getelementptr inbounds %"class.sh::TIntermNode"*, %"class.sh::TIntermNode"** %505, i64 7
  %541 = getelementptr inbounds %"class.sh::TIntermNode"*, %"class.sh::TIntermNode"** %506, i64 7
  %542 = bitcast %"class.sh::TIntermNode"** %540 to i64*
  %543 = bitcast %"class.sh::TIntermNode"** %541 to i64*
  %544 = load i64, i64* %543, align 8
  store i64 %544, i64* %542, align 8
  %545 = getelementptr inbounds %"class.sh::TIntermNode"*, %"class.sh::TIntermNode"** %505, i64 8
  %546 = getelementptr inbounds %"class.sh::TIntermNode"*, %"class.sh::TIntermNode"** %506, i64 8
  %547 = icmp eq %"class.sh::TIntermNode"** %546, %3
  br i1 %547, label %548, label %504, !llvm.loop !23

; <label>:548:                                    ; preds = %500, %504, %476
  %549 = getelementptr %"class.sh::TIntermNode"*, %"class.sh::TIntermNode"** %365, i64 %377
  %550 = ptrtoint %"class.sh::TIntermNode"** %549 to i64
  br label %551

; <label>:551:                                    ; preds = %548, %362
  %552 = phi i64 [ %367, %362 ], [ %550, %548 ]
  %553 = inttoptr i64 %552 to %"class.sh::TIntermNode"**
  %554 = load %"class.sh::TIntermNode"**, %"class.sh::TIntermNode"*** %8, align 8
  %555 = ptrtoint %"class.sh::TIntermNode"** %554 to i64
  %556 = icmp eq %"class.sh::TIntermNode"** %554, %1
  br i1 %556, label %686, label %557

; <label>:557:                                    ; preds = %551
  %558 = getelementptr %"class.sh::TIntermNode"*, %"class.sh::TIntermNode"** %1, i64 -1
  %559 = ptrtoint %"class.sh::TIntermNode"** %558 to i64
  %560 = sub i64 %559, %555
  %561 = lshr i64 %560, 3
  %562 = xor i64 %561, -1
  %563 = add nsw i64 %363, %562
  %564 = getelementptr %"class.sh::TIntermNode"*, %"class.sh::TIntermNode"** %1, i64 -1
  %565 = ptrtoint %"class.sh::TIntermNode"** %564 to i64
  %566 = sub i64 %565, %555
  %567 = lshr i64 %566, 3
  %568 = add nuw nsw i64 %567, 1
  %569 = icmp ult i64 %568, 4
  br i1 %569, label %614, label %570

; <label>:570:                                    ; preds = %557
  %571 = getelementptr %"class.sh::TIntermNode"*, %"class.sh::TIntermNode"** %1, i64 -1
  %572 = ptrtoint %"class.sh::TIntermNode"** %571 to i64
  %573 = sub i64 %572, %555
  %574 = lshr i64 %573, 3
  %575 = xor i64 %574, -1
  %576 = add nsw i64 %363, %575
  %577 = getelementptr %"class.sh::TIntermNode"*, %"class.sh::TIntermNode"** %365, i64 %576
  %578 = xor i64 %574, -1
  %579 = getelementptr %"class.sh::TIntermNode"*, %"class.sh::TIntermNode"** %1, i64 %578
  %580 = icmp ult %"class.sh::TIntermNode"** %577, %1
  %581 = icmp ult %"class.sh::TIntermNode"** %579, %366
  %582 = and i1 %580, %581
  br i1 %582, label %614, label %583

; <label>:583:                                    ; preds = %570
  %584 = and i64 %568, 3
  %585 = sub nsw i64 %568, %584
  %586 = xor i64 %567, -1
  %587 = add nsw i64 %584, %586
  %588 = getelementptr %"class.sh::TIntermNode"*, %"class.sh::TIntermNode"** %366, i64 %587
  %589 = getelementptr %"class.sh::TIntermNode"*, %"class.sh::TIntermNode"** %1, i64 %587
  %590 = getelementptr %"class.sh::TIntermNode"*, %"class.sh::TIntermNode"** %366, i64 -1
  %591 = getelementptr %"class.sh::TIntermNode"*, %"class.sh::TIntermNode"** %1, i64 -1
  br label %592

; <label>:592:                                    ; preds = %592, %583
  %593 = phi i64 [ 0, %583 ], [ %610, %592 ]
  %594 = sub i64 0, %593
  %595 = sub i64 0, %593
  %596 = getelementptr inbounds %"class.sh::TIntermNode"*, %"class.sh::TIntermNode"** %590, i64 %594
  %597 = getelementptr inbounds %"class.sh::TIntermNode"*, %"class.sh::TIntermNode"** %591, i64 %595
  %598 = getelementptr inbounds %"class.sh::TIntermNode"*, %"class.sh::TIntermNode"** %597, i64 -1
  %599 = bitcast %"class.sh::TIntermNode"** %598 to <2 x i64>*
  %600 = load <2 x i64>, <2 x i64>* %599, align 8, !alias.scope !24
  %601 = getelementptr inbounds %"class.sh::TIntermNode"*, %"class.sh::TIntermNode"** %597, i64 -2
  %602 = getelementptr inbounds %"class.sh::TIntermNode"*, %"class.sh::TIntermNode"** %601, i64 -1
  %603 = bitcast %"class.sh::TIntermNode"** %602 to <2 x i64>*
  %604 = load <2 x i64>, <2 x i64>* %603, align 8, !alias.scope !24
  %605 = getelementptr inbounds %"class.sh::TIntermNode"*, %"class.sh::TIntermNode"** %596, i64 -1
  %606 = bitcast %"class.sh::TIntermNode"** %605 to <2 x i64>*
  store <2 x i64> %600, <2 x i64>* %606, align 8, !alias.scope !27, !noalias !24
  %607 = getelementptr inbounds %"class.sh::TIntermNode"*, %"class.sh::TIntermNode"** %596, i64 -2
  %608 = getelementptr inbounds %"class.sh::TIntermNode"*, %"class.sh::TIntermNode"** %607, i64 -1
  %609 = bitcast %"class.sh::TIntermNode"** %608 to <2 x i64>*
  store <2 x i64> %604, <2 x i64>* %609, align 8, !alias.scope !27, !noalias !24
  %610 = add i64 %593, 4
  %611 = icmp eq i64 %610, %585
  br i1 %611, label %612, label %592, !llvm.loop !29

; <label>:612:                                    ; preds = %592
  %613 = icmp eq i64 %584, 0
  br i1 %613, label %683, label %614

; <label>:614:                                    ; preds = %612, %570, %557
  %615 = phi %"class.sh::TIntermNode"** [ %366, %570 ], [ %366, %557 ], [ %588, %612 ]
  %616 = phi %"class.sh::TIntermNode"** [ %1, %570 ], [ %1, %557 ], [ %589, %612 ]
  %617 = getelementptr %"class.sh::TIntermNode"*, %"class.sh::TIntermNode"** %616, i64 -1
  %618 = ptrtoint %"class.sh::TIntermNode"** %617 to i64
  %619 = sub i64 %618, %555
  %620 = lshr i64 %619, 3
  %621 = add nuw nsw i64 %620, 1
  %622 = and i64 %621, 7
  %623 = icmp eq i64 %622, 0
  br i1 %623, label %635, label %624

; <label>:624:                                    ; preds = %614, %624
  %625 = phi %"class.sh::TIntermNode"** [ %628, %624 ], [ %615, %614 ]
  %626 = phi %"class.sh::TIntermNode"** [ %629, %624 ], [ %616, %614 ]
  %627 = phi i64 [ %633, %624 ], [ %622, %614 ]
  %628 = getelementptr inbounds %"class.sh::TIntermNode"*, %"class.sh::TIntermNode"** %625, i64 -1
  %629 = getelementptr inbounds %"class.sh::TIntermNode"*, %"class.sh::TIntermNode"** %626, i64 -1
  %630 = bitcast %"class.sh::TIntermNode"** %629 to i64*
  %631 = load i64, i64* %630, align 8
  %632 = bitcast %"class.sh::TIntermNode"** %628 to i64*
  store i64 %631, i64* %632, align 8
  %633 = add i64 %627, -1
  %634 = icmp eq i64 %633, 0
  br i1 %634, label %635, label %624, !llvm.loop !30

; <label>:635:                                    ; preds = %624, %614
  %636 = phi %"class.sh::TIntermNode"** [ %615, %614 ], [ %628, %624 ]
  %637 = phi %"class.sh::TIntermNode"** [ %616, %614 ], [ %629, %624 ]
  %638 = icmp ult i64 %619, 56
  br i1 %638, label %683, label %639

; <label>:639:                                    ; preds = %635, %639
  %640 = phi %"class.sh::TIntermNode"** [ %677, %639 ], [ %636, %635 ]
  %641 = phi %"class.sh::TIntermNode"** [ %678, %639 ], [ %637, %635 ]
  %642 = getelementptr inbounds %"class.sh::TIntermNode"*, %"class.sh::TIntermNode"** %640, i64 -1
  %643 = getelementptr inbounds %"class.sh::TIntermNode"*, %"class.sh::TIntermNode"** %641, i64 -1
  %644 = bitcast %"class.sh::TIntermNode"** %643 to i64*
  %645 = load i64, i64* %644, align 8
  %646 = bitcast %"class.sh::TIntermNode"** %642 to i64*
  store i64 %645, i64* %646, align 8
  %647 = getelementptr inbounds %"class.sh::TIntermNode"*, %"class.sh::TIntermNode"** %640, i64 -2
  %648 = getelementptr inbounds %"class.sh::TIntermNode"*, %"class.sh::TIntermNode"** %641, i64 -2
  %649 = bitcast %"class.sh::TIntermNode"** %648 to i64*
  %650 = load i64, i64* %649, align 8
  %651 = bitcast %"class.sh::TIntermNode"** %647 to i64*
  store i64 %650, i64* %651, align 8
  %652 = getelementptr inbounds %"class.sh::TIntermNode"*, %"class.sh::TIntermNode"** %640, i64 -3
  %653 = getelementptr inbounds %"class.sh::TIntermNode"*, %"class.sh::TIntermNode"** %641, i64 -3
  %654 = bitcast %"class.sh::TIntermNode"** %653 to i64*
  %655 = load i64, i64* %654, align 8
  %656 = bitcast %"class.sh::TIntermNode"** %652 to i64*
  store i64 %655, i64* %656, align 8
  %657 = getelementptr inbounds %"class.sh::TIntermNode"*, %"class.sh::TIntermNode"** %640, i64 -4
  %658 = getelementptr inbounds %"class.sh::TIntermNode"*, %"class.sh::TIntermNode"** %641, i64 -4
  %659 = bitcast %"class.sh::TIntermNode"** %658 to i64*
  %660 = load i64, i64* %659, align 8
  %661 = bitcast %"class.sh::TIntermNode"** %657 to i64*
  store i64 %660, i64* %661, align 8
  %662 = getelementptr inbounds %"class.sh::TIntermNode"*, %"class.sh::TIntermNode"** %640, i64 -5
  %663 = getelementptr inbounds %"class.sh::TIntermNode"*, %"class.sh::TIntermNode"** %641, i64 -5
  %664 = bitcast %"class.sh::TIntermNode"** %663 to i64*
  %665 = load i64, i64* %664, align 8
  %666 = bitcast %"class.sh::TIntermNode"** %662 to i64*
  store i64 %665, i64* %666, align 8
  %667 = getelementptr inbounds %"class.sh::TIntermNode"*, %"class.sh::TIntermNode"** %640, i64 -6
  %668 = getelementptr inbounds %"class.sh::TIntermNode"*, %"class.sh::TIntermNode"** %641, i64 -6
  %669 = bitcast %"class.sh::TIntermNode"** %668 to i64*
  %670 = load i64, i64* %669, align 8
  %671 = bitcast %"class.sh::TIntermNode"** %667 to i64*
  store i64 %670, i64* %671, align 8
  %672 = getelementptr inbounds %"class.sh::TIntermNode"*, %"class.sh::TIntermNode"** %640, i64 -7
  %673 = getelementptr inbounds %"class.sh::TIntermNode"*, %"class.sh::TIntermNode"** %641, i64 -7
  %674 = bitcast %"class.sh::TIntermNode"** %673 to i64*
  %675 = load i64, i64* %674, align 8
  %676 = bitcast %"class.sh::TIntermNode"** %672 to i64*
  store i64 %675, i64* %676, align 8
  %677 = getelementptr inbounds %"class.sh::TIntermNode"*, %"class.sh::TIntermNode"** %640, i64 -8
  %678 = getelementptr inbounds %"class.sh::TIntermNode"*, %"class.sh::TIntermNode"** %641, i64 -8
  %679 = bitcast %"class.sh::TIntermNode"** %678 to i64*
  %680 = load i64, i64* %679, align 8
  %681 = bitcast %"class.sh::TIntermNode"** %677 to i64*
  store i64 %680, i64* %681, align 8
  %682 = icmp eq %"class.sh::TIntermNode"** %678, %554
  br i1 %682, label %683, label %639, !llvm.loop !31

; <label>:683:                                    ; preds = %635, %639, %612
  %684 = getelementptr %"class.sh::TIntermNode"*, %"class.sh::TIntermNode"** %365, i64 %563
  %685 = ptrtoint %"class.sh::TIntermNode"** %684 to i64
  br label %686

; <label>:686:                                    ; preds = %683, %551
  %687 = phi i64 [ %367, %551 ], [ %685, %683 ]
  %688 = phi %"class.sh::TIntermNode"** [ %366, %551 ], [ %684, %683 ]
  %689 = load %"class.sh::TIntermNode"**, %"class.sh::TIntermNode"*** %17, align 8
  %690 = icmp eq %"class.sh::TIntermNode"** %689, %1
  br i1 %690, label %691, label %693

; <label>:691:                                    ; preds = %686
  %692 = ptrtoint %"class.sh::TIntermNode"** %688 to i64
  br label %774

; <label>:693:                                    ; preds = %686
  %694 = inttoptr i64 %552 to i64*
  %695 = getelementptr %"class.sh::TIntermNode"*, %"class.sh::TIntermNode"** %689, i64 -1
  %696 = ptrtoint %"class.sh::TIntermNode"** %695 to i64
  %697 = sub i64 %696, %6
  %698 = lshr i64 %697, 3
  %699 = add nuw nsw i64 %698, 1
  %700 = getelementptr %"class.sh::TIntermNode"*, %"class.sh::TIntermNode"** %689, i64 -1
  %701 = ptrtoint %"class.sh::TIntermNode"** %700 to i64
  %702 = sub i64 %701, %6
  %703 = lshr i64 %702, 3
  %704 = add nuw nsw i64 %703, 1
  %705 = and i64 %704, 7
  %706 = icmp eq i64 %705, 0
  br i1 %706, label %721, label %707

; <label>:707:                                    ; preds = %693, %707
  %708 = phi %"class.sh::TIntermNode"** [ %715, %707 ], [ %553, %693 ]
  %709 = phi i64* [ %716, %707 ], [ %694, %693 ]
  %710 = phi %"class.sh::TIntermNode"** [ %714, %707 ], [ %1, %693 ]
  %711 = phi i64 [ %717, %707 ], [ %705, %693 ]
  %712 = bitcast %"class.sh::TIntermNode"** %710 to i64*
  %713 = load i64, i64* %712, align 8
  store i64 %713, i64* %709, align 8
  %714 = getelementptr inbounds %"class.sh::TIntermNode"*, %"class.sh::TIntermNode"** %710, i64 1
  %715 = getelementptr inbounds %"class.sh::TIntermNode"*, %"class.sh::TIntermNode"** %708, i64 1
  %716 = bitcast %"class.sh::TIntermNode"** %715 to i64*
  %717 = add i64 %711, -1
  %718 = icmp eq i64 %717, 0
  br i1 %718, label %719, label %707, !llvm.loop !32

; <label>:719:                                    ; preds = %707
  %720 = bitcast %"class.sh::TIntermNode"** %715 to i64*
  br label %721

; <label>:721:                                    ; preds = %693, %719
  %722 = phi %"class.sh::TIntermNode"** [ %553, %693 ], [ %715, %719 ]
  %723 = phi i64* [ %694, %693 ], [ %720, %719 ]
  %724 = phi %"class.sh::TIntermNode"** [ %1, %693 ], [ %714, %719 ]
  %725 = icmp ult i64 %702, 56
  br i1 %725, label %771, label %726

; <label>:726:                                    ; preds = %721, %726
  %727 = phi %"class.sh::TIntermNode"** [ %768, %726 ], [ %722, %721 ]
  %728 = phi i64* [ %770, %726 ], [ %723, %721 ]
  %729 = phi %"class.sh::TIntermNode"** [ %767, %726 ], [ %724, %721 ]
  %730 = bitcast %"class.sh::TIntermNode"** %729 to i64*
  %731 = load i64, i64* %730, align 8
  store i64 %731, i64* %728, align 8
  %732 = getelementptr inbounds %"class.sh::TIntermNode"*, %"class.sh::TIntermNode"** %729, i64 1
  %733 = getelementptr inbounds %"class.sh::TIntermNode"*, %"class.sh::TIntermNode"** %727, i64 1
  %734 = bitcast %"class.sh::TIntermNode"** %733 to i64*
  %735 = bitcast %"class.sh::TIntermNode"** %732 to i64*
  %736 = load i64, i64* %735, align 8
  store i64 %736, i64* %734, align 8
  %737 = getelementptr inbounds %"class.sh::TIntermNode"*, %"class.sh::TIntermNode"** %729, i64 2
  %738 = getelementptr inbounds %"class.sh::TIntermNode"*, %"class.sh::TIntermNode"** %727, i64 2
  %739 = bitcast %"class.sh::TIntermNode"** %738 to i64*
  %740 = bitcast %"class.sh::TIntermNode"** %737 to i64*
  %741 = load i64, i64* %740, align 8
  store i64 %741, i64* %739, align 8
  %742 = getelementptr inbounds %"class.sh::TIntermNode"*, %"class.sh::TIntermNode"** %729, i64 3
  %743 = getelementptr inbounds %"class.sh::TIntermNode"*, %"class.sh::TIntermNode"** %727, i64 3
  %744 = bitcast %"class.sh::TIntermNode"** %743 to i64*
  %745 = bitcast %"class.sh::TIntermNode"** %742 to i64*
  %746 = load i64, i64* %745, align 8
  store i64 %746, i64* %744, align 8
  %747 = getelementptr inbounds %"class.sh::TIntermNode"*, %"class.sh::TIntermNode"** %729, i64 4
  %748 = getelementptr inbounds %"class.sh::TIntermNode"*, %"class.sh::TIntermNode"** %727, i64 4
  %749 = bitcast %"class.sh::TIntermNode"** %748 to i64*
  %750 = bitcast %"class.sh::TIntermNode"** %747 to i64*
  %751 = load i64, i64* %750, align 8
  store i64 %751, i64* %749, align 8
  %752 = getelementptr inbounds %"class.sh::TIntermNode"*, %"class.sh::TIntermNode"** %729, i64 5
  %753 = getelementptr inbounds %"class.sh::TIntermNode"*, %"class.sh::TIntermNode"** %727, i64 5
  %754 = bitcast %"class.sh::TIntermNode"** %753 to i64*
  %755 = bitcast %"class.sh::TIntermNode"** %752 to i64*
  %756 = load i64, i64* %755, align 8
  store i64 %756, i64* %754, align 8
  %757 = getelementptr inbounds %"class.sh::TIntermNode"*, %"class.sh::TIntermNode"** %729, i64 6
  %758 = getelementptr inbounds %"class.sh::TIntermNode"*, %"class.sh::TIntermNode"** %727, i64 6
  %759 = bitcast %"class.sh::TIntermNode"** %758 to i64*
  %760 = bitcast %"class.sh::TIntermNode"** %757 to i64*
  %761 = load i64, i64* %760, align 8
  store i64 %761, i64* %759, align 8
  %762 = getelementptr inbounds %"class.sh::TIntermNode"*, %"class.sh::TIntermNode"** %729, i64 7
  %763 = getelementptr inbounds %"class.sh::TIntermNode"*, %"class.sh::TIntermNode"** %727, i64 7
  %764 = bitcast %"class.sh::TIntermNode"** %763 to i64*
  %765 = bitcast %"class.sh::TIntermNode"** %762 to i64*
  %766 = load i64, i64* %765, align 8
  store i64 %766, i64* %764, align 8
  %767 = getelementptr inbounds %"class.sh::TIntermNode"*, %"class.sh::TIntermNode"** %729, i64 8
  %768 = getelementptr inbounds %"class.sh::TIntermNode"*, %"class.sh::TIntermNode"** %727, i64 8
  %769 = icmp eq %"class.sh::TIntermNode"** %767, %689
  %770 = bitcast %"class.sh::TIntermNode"** %768 to i64*
  br i1 %769, label %771, label %726

; <label>:771:                                    ; preds = %726, %721
  %772 = getelementptr %"class.sh::TIntermNode"*, %"class.sh::TIntermNode"** %553, i64 %699
  %773 = ptrtoint %"class.sh::TIntermNode"** %772 to i64
  br label %774

; <label>:774:                                    ; preds = %771, %691
  %775 = phi i64 [ %552, %691 ], [ %773, %771 ]
  %776 = phi i64 [ %692, %691 ], [ %687, %771 ]
  store i64 %776, i64* %333, align 8
  store i64 %775, i64* %23, align 8
  store i64 %369, i64* %15, align 8
  ret %"class.sh::TIntermNode"** %366

; <label>:777:                                    ; preds = %284, %288, %260, %85, %161, %4
  ret %"class.sh::TIntermNode"** %1
}

; Function Attrs: nounwind ssp uwtable
define hidden zeroext i1 @_ZN2sh20TIntermAggregateBase16insertChildNodesEmRKNS_7TVectorIPNS_11TIntermNodeEEE(%"class.sh::TIntermAggregateBase"*, i64, %"class.sh::TVector.15"* nocapture readonly dereferenceable(24)) local_unnamed_addr #0 align 2 {
  %4 = bitcast %"class.sh::TIntermAggregateBase"* %0 to %"class.sh::TVector.15"* (%"class.sh::TIntermAggregateBase"*)***
  %5 = load %"class.sh::TVector.15"* (%"class.sh::TIntermAggregateBase"*)**, %"class.sh::TVector.15"* (%"class.sh::TIntermAggregateBase"*)*** %4, align 8
  %6 = getelementptr inbounds %"class.sh::TVector.15"* (%"class.sh::TIntermAggregateBase"*)*, %"class.sh::TVector.15"* (%"class.sh::TIntermAggregateBase"*)** %5, i64 2
  %7 = load %"class.sh::TVector.15"* (%"class.sh::TIntermAggregateBase"*)*, %"class.sh::TVector.15"* (%"class.sh::TIntermAggregateBase"*)** %6, align 8
  %8 = tail call %"class.sh::TVector.15"* %7(%"class.sh::TIntermAggregateBase"* %0) #18
  %9 = getelementptr inbounds %"class.sh::TVector.15", %"class.sh::TVector.15"* %8, i64 0, i32 0, i32 0, i32 1
  %10 = bitcast %"class.sh::TIntermNode"*** %9 to i64*
  %11 = load i64, i64* %10, align 8
  %12 = bitcast %"class.sh::TVector.15"* %8 to i64*
  %13 = load i64, i64* %12, align 8
  %14 = sub i64 %11, %13
  %15 = ashr exact i64 %14, 3
  %16 = icmp ult i64 %15, %1
  br i1 %16, label %35, label %17

; <label>:17:                                     ; preds = %3
  %18 = load %"class.sh::TVector.15"* (%"class.sh::TIntermAggregateBase"*)**, %"class.sh::TVector.15"* (%"class.sh::TIntermAggregateBase"*)*** %4, align 8
  %19 = getelementptr inbounds %"class.sh::TVector.15"* (%"class.sh::TIntermAggregateBase"*)*, %"class.sh::TVector.15"* (%"class.sh::TIntermAggregateBase"*)** %18, i64 2
  %20 = load %"class.sh::TVector.15"* (%"class.sh::TIntermAggregateBase"*)*, %"class.sh::TVector.15"* (%"class.sh::TIntermAggregateBase"*)** %19, align 8
  %21 = tail call %"class.sh::TVector.15"* %20(%"class.sh::TIntermAggregateBase"* nonnull %0) #18
  %22 = getelementptr inbounds %"class.sh::TVector.15", %"class.sh::TVector.15"* %21, i64 0, i32 0, i32 0, i32 0
  %23 = load %"class.sh::TIntermNode"**, %"class.sh::TIntermNode"*** %22, align 8
  %24 = getelementptr inbounds %"class.sh::TIntermNode"*, %"class.sh::TIntermNode"** %23, i64 %1
  %25 = load %"class.sh::TVector.15"* (%"class.sh::TIntermAggregateBase"*)**, %"class.sh::TVector.15"* (%"class.sh::TIntermAggregateBase"*)*** %4, align 8
  %26 = getelementptr inbounds %"class.sh::TVector.15"* (%"class.sh::TIntermAggregateBase"*)*, %"class.sh::TVector.15"* (%"class.sh::TIntermAggregateBase"*)** %25, i64 2
  %27 = load %"class.sh::TVector.15"* (%"class.sh::TIntermAggregateBase"*)*, %"class.sh::TVector.15"* (%"class.sh::TIntermAggregateBase"*)** %26, align 8
  %28 = tail call %"class.sh::TVector.15"* %27(%"class.sh::TIntermAggregateBase"* nonnull %0) #18
  %29 = getelementptr inbounds %"class.sh::TVector.15", %"class.sh::TVector.15"* %28, i64 0, i32 0
  %30 = getelementptr inbounds %"class.sh::TVector.15", %"class.sh::TVector.15"* %2, i64 0, i32 0, i32 0, i32 0
  %31 = load %"class.sh::TIntermNode"**, %"class.sh::TIntermNode"*** %30, align 8
  %32 = getelementptr inbounds %"class.sh::TVector.15", %"class.sh::TVector.15"* %2, i64 0, i32 0, i32 0, i32 1
  %33 = load %"class.sh::TIntermNode"**, %"class.sh::TIntermNode"*** %32, align 8
  %34 = tail call %"class.sh::TIntermNode"** @_ZNSt3__16vectorIPN2sh11TIntermNodeE14pool_allocatorIS3_EE6insertINS_11__wrap_iterIPKS3_EEEENS_9enable_ifIXaasr21__is_forward_iteratorIT_EE5valuesr16is_constructibleIS3_NS_15iterator_traitsISD_E9referenceEEE5valueENS8_IPS3_EEE4typeESB_SD_SD_(%"class.std::__1::vector.16"* %29, %"class.sh::TIntermNode"** %24, %"class.sh::TIntermNode"** %31, %"class.sh::TIntermNode"** %33)
  br label %35

; <label>:35:                                     ; preds = %3, %17
  %36 = phi i1 [ true, %17 ], [ false, %3 ]
  ret i1 %36
}

; Function Attrs: nounwind ssp uwtable
define hidden void @_ZN2sh13TIntermSymbolC2EPKNS_9TVariableE(%"class.sh::TIntermSymbol"* nocapture, %"class.sh::TVariable"*) unnamed_addr #0 align 2 {
  %3 = getelementptr inbounds %"class.sh::TIntermSymbol", %"class.sh::TIntermSymbol"* %0, i64 0, i32 0, i32 0, i32 1, i32 0
  %4 = bitcast i32* %3 to i8*
  tail call void @llvm.memset.p0i8.i64(i8* nonnull align 8 %4, i8 0, i64 16, i1 false) #18
  %5 = getelementptr inbounds %"class.sh::TIntermSymbol", %"class.sh::TIntermSymbol"* %0, i64 0, i32 0, i32 0, i32 0
  store i32 (...)** bitcast (i8** getelementptr inbounds ({ [34 x i8*] }, { [34 x i8*] }* @_ZTVN2sh13TIntermSymbolE, i64 0, inrange i32 0, i64 2) to i32 (...)**), i32 (...)*** %5, align 8
  %6 = getelementptr inbounds %"class.sh::TIntermSymbol", %"class.sh::TIntermSymbol"* %0, i64 0, i32 1
  store %"class.sh::TVariable"* %1, %"class.sh::TVariable"** %6, align 8
  ret void
}

; Function Attrs: norecurse nounwind readonly ssp uwtable
define hidden zeroext i1 @_ZNK2sh13TIntermSymbol16hasConstantValueEv(%"class.sh::TIntermSymbol"* nocapture readonly) unnamed_addr #4 align 2 {
  %2 = getelementptr inbounds %"class.sh::TIntermSymbol", %"class.sh::TIntermSymbol"* %0, i64 0, i32 1
  %3 = load %"class.sh::TVariable"*, %"class.sh::TVariable"** %2, align 8
  %4 = getelementptr inbounds %"class.sh::TVariable", %"class.sh::TVariable"* %3, i64 0, i32 2
  %5 = load %"class.sh::TConstantUnion"*, %"class.sh::TConstantUnion"** %4, align 8
  %6 = icmp ne %"class.sh::TConstantUnion"* %5, null
  ret i1 %6
}

; Function Attrs: norecurse nounwind readonly ssp uwtable
define hidden %"class.sh::TConstantUnion"* @_ZNK2sh13TIntermSymbol16getConstantValueEv(%"class.sh::TIntermSymbol"* nocapture readonly) unnamed_addr #4 align 2 {
  %2 = getelementptr inbounds %"class.sh::TIntermSymbol", %"class.sh::TIntermSymbol"* %0, i64 0, i32 1
  %3 = load %"class.sh::TVariable"*, %"class.sh::TVariable"** %2, align 8
  %4 = getelementptr inbounds %"class.sh::TVariable", %"class.sh::TVariable"* %3, i64 0, i32 2
  %5 = load %"class.sh::TConstantUnion"*, %"class.sh::TConstantUnion"** %4, align 8
  ret %"class.sh::TConstantUnion"* %5
}

; Function Attrs: norecurse nounwind readonly ssp uwtable
define hidden nonnull dereferenceable(4) %"class.sh::TSymbolUniqueId"* @_ZNK2sh13TIntermSymbol8uniqueIdEv(%"class.sh::TIntermSymbol"* nocapture readonly) local_unnamed_addr #4 align 2 {
  %2 = getelementptr inbounds %"class.sh::TIntermSymbol", %"class.sh::TIntermSymbol"* %0, i64 0, i32 1
  %3 = bitcast %"class.sh::TVariable"** %2 to %"class.sh::TSymbol"**
  %4 = load %"class.sh::TSymbol"*, %"class.sh::TSymbol"** %3, align 8
  %5 = getelementptr inbounds %"class.sh::TSymbol", %"class.sh::TSymbol"* %4, i64 0, i32 1
  ret %"class.sh::TSymbolUniqueId"* %5
}

; Function Attrs: nounwind ssp uwtable
define hidden { i8*, i64 } @_ZNK2sh13TIntermSymbol7getNameEv(%"class.sh::TIntermSymbol"* nocapture readonly) local_unnamed_addr #0 align 2 {
  %2 = getelementptr inbounds %"class.sh::TIntermSymbol", %"class.sh::TIntermSymbol"* %0, i64 0, i32 1
  %3 = bitcast %"class.sh::TVariable"** %2 to %"class.sh::TSymbol"**
  %4 = load %"class.sh::TSymbol"*, %"class.sh::TSymbol"** %3, align 8
  %5 = tail call { i8*, i64 } @_ZNK2sh7TSymbol4nameEv(%"class.sh::TSymbol"* %4) #18
  ret { i8*, i64 } %5
}

declare { i8*, i64 } @_ZNK2sh7TSymbol4nameEv(%"class.sh::TSymbol"*) local_unnamed_addr #1

; Function Attrs: norecurse nounwind readonly ssp uwtable
define hidden dereferenceable(128) %"class.sh::TType"* @_ZNK2sh13TIntermSymbol7getTypeEv(%"class.sh::TIntermSymbol"* nocapture readonly) unnamed_addr #4 align 2 {
  %2 = getelementptr inbounds %"class.sh::TIntermSymbol", %"class.sh::TIntermSymbol"* %0, i64 0, i32 1
  %3 = load %"class.sh::TVariable"*, %"class.sh::TVariable"** %2, align 8
  %4 = getelementptr inbounds %"class.sh::TVariable", %"class.sh::TVariable"* %3, i64 0, i32 1
  %5 = load %"class.sh::TType"*, %"class.sh::TType"** %4, align 8
  ret %"class.sh::TType"* %5
}

; Function Attrs: nounwind ssp uwtable
define hidden %"class.sh::TIntermAggregate"* @_ZN2sh16TIntermAggregate18CreateFunctionCallERKNS_9TFunctionEPNS_7TVectorIPNS_11TIntermNodeEEE(%"class.sh::TFunction"* dereferenceable(88), %"class.sh::TVector.15"*) local_unnamed_addr #0 align 2 {
  %3 = tail call %class.TPoolAllocator* @_Z22GetGlobalPoolAllocatorv() #18
  %4 = tail call i8* @_ZN14TPoolAllocator8allocateEm(%class.TPoolAllocator* %3, i64 208) #18
  %5 = bitcast i8* %4 to %"class.sh::TIntermAggregate"*
  %6 = getelementptr inbounds %"class.sh::TFunction", %"class.sh::TFunction"* %0, i64 0, i32 4
  %7 = load %"class.sh::TType"*, %"class.sh::TType"** %6, align 8
  %8 = getelementptr inbounds i8, i8* %4, i64 8
  tail call void @llvm.memset.p0i8.i64(i8* nonnull align 8 %8, i8 0, i64 16, i1 false) #18
  %9 = bitcast i8* %4 to i32 (...)***
  store i32 (...)** bitcast (i8** getelementptr inbounds ({ [34 x i8*] }, { [34 x i8*] }* @_ZTVN2sh17TIntermExpressionE, i64 0, inrange i32 0, i64 2) to i32 (...)**), i32 (...)*** %9, align 8
  %10 = getelementptr inbounds i8, i8* %4, i64 24
  %11 = bitcast i8* %10 to %"class.sh::TType"*
  tail call void @_ZN2sh5TTypeC1ERKS0_(%"class.sh::TType"* nonnull %11, %"class.sh::TType"* nonnull dereferenceable(128) %7) #18
  %12 = getelementptr inbounds i8, i8* %4, i64 152
  %13 = bitcast i8* %12 to i32*
  store i32 1, i32* %13, align 8
  %14 = getelementptr inbounds i8, i8* %4, i64 160
  %15 = bitcast i8* %14 to i32 (...)***
  store i32 (...)** bitcast (i8** getelementptr inbounds ({ [36 x i8*], [6 x i8*] }, { [36 x i8*], [6 x i8*] }* @_ZTVN2sh16TIntermAggregateE, i64 0, inrange i32 0, i64 2) to i32 (...)**), i32 (...)*** %9, align 8
  store i32 (...)** bitcast (i8** getelementptr inbounds ({ [36 x i8*], [6 x i8*] }, { [36 x i8*], [6 x i8*] }* @_ZTVN2sh16TIntermAggregateE, i64 0, inrange i32 1, i64 2) to i32 (...)**), i32 (...)*** %15, align 8
  %16 = getelementptr inbounds i8, i8* %4, i64 168
  %17 = getelementptr inbounds i8, i8* %4, i64 200
  %18 = bitcast i8* %17 to %"class.sh::TFunction"**
  tail call void @llvm.memset.p0i8.i64(i8* nonnull align 8 %16, i8 0, i64 26, i1 false) #18
  store %"class.sh::TFunction"* %0, %"class.sh::TFunction"** %18, align 8
  %19 = icmp eq %"class.sh::TVector.15"* %1, null
  br i1 %19, label %36, label %20

; <label>:20:                                     ; preds = %2
  %21 = bitcast i8* %16 to i64*
  %22 = bitcast %"class.sh::TVector.15"* %1 to i64*
  %23 = load i64, i64* %22, align 8
  store i64 %23, i64* %21, align 8
  store i64 0, i64* %22, align 8
  %24 = getelementptr inbounds i8, i8* %4, i64 176
  %25 = getelementptr inbounds %"class.sh::TVector.15", %"class.sh::TVector.15"* %1, i64 0, i32 0, i32 0, i32 1
  %26 = bitcast i8* %24 to i64*
  %27 = load i64, i64* %26, align 8
  %28 = bitcast %"class.sh::TIntermNode"*** %25 to i64*
  %29 = load i64, i64* %28, align 8
  store i64 %29, i64* %26, align 8
  store i64 %27, i64* %28, align 8
  %30 = getelementptr inbounds i8, i8* %4, i64 184
  %31 = getelementptr inbounds %"class.sh::TVector.15", %"class.sh::TVector.15"* %1, i64 0, i32 0, i32 0, i32 2, i32 0, i32 0
  %32 = bitcast i8* %30 to i64*
  %33 = load i64, i64* %32, align 8
  %34 = bitcast %"class.sh::TIntermNode"*** %31 to i64*
  %35 = load i64, i64* %34, align 8
  store i64 %35, i64* %32, align 8
  store i64 %33, i64* %34, align 8
  br label %36

; <label>:36:                                     ; preds = %2, %20
  tail call void @_ZN2sh16TIntermAggregate24setPrecisionAndQualifierEv(%"class.sh::TIntermAggregate"* nonnull %5) #18
  ret %"class.sh::TIntermAggregate"* %5
}

; Function Attrs: nounwind ssp uwtable
define hidden %"class.sh::TIntermAggregate"* @_ZN2sh16TIntermAggregate21CreateRawFunctionCallERKNS_9TFunctionEPNS_7TVectorIPNS_11TIntermNodeEEE(%"class.sh::TFunction"* dereferenceable(88), %"class.sh::TVector.15"*) local_unnamed_addr #0 align 2 {
  %3 = tail call %class.TPoolAllocator* @_Z22GetGlobalPoolAllocatorv() #18
  %4 = tail call i8* @_ZN14TPoolAllocator8allocateEm(%class.TPoolAllocator* %3, i64 208) #18
  %5 = bitcast i8* %4 to %"class.sh::TIntermAggregate"*
  %6 = getelementptr inbounds %"class.sh::TFunction", %"class.sh::TFunction"* %0, i64 0, i32 4
  %7 = load %"class.sh::TType"*, %"class.sh::TType"** %6, align 8
  %8 = getelementptr inbounds i8, i8* %4, i64 8
  tail call void @llvm.memset.p0i8.i64(i8* nonnull align 8 %8, i8 0, i64 16, i1 false) #18
  %9 = bitcast i8* %4 to i32 (...)***
  store i32 (...)** bitcast (i8** getelementptr inbounds ({ [34 x i8*] }, { [34 x i8*] }* @_ZTVN2sh17TIntermExpressionE, i64 0, inrange i32 0, i64 2) to i32 (...)**), i32 (...)*** %9, align 8
  %10 = getelementptr inbounds i8, i8* %4, i64 24
  %11 = bitcast i8* %10 to %"class.sh::TType"*
  tail call void @_ZN2sh5TTypeC1ERKS0_(%"class.sh::TType"* nonnull %11, %"class.sh::TType"* nonnull dereferenceable(128) %7) #18
  %12 = getelementptr inbounds i8, i8* %4, i64 152
  %13 = bitcast i8* %12 to i32*
  store i32 2, i32* %13, align 8
  %14 = getelementptr inbounds i8, i8* %4, i64 160
  %15 = bitcast i8* %14 to i32 (...)***
  store i32 (...)** bitcast (i8** getelementptr inbounds ({ [36 x i8*], [6 x i8*] }, { [36 x i8*], [6 x i8*] }* @_ZTVN2sh16TIntermAggregateE, i64 0, inrange i32 0, i64 2) to i32 (...)**), i32 (...)*** %9, align 8
  store i32 (...)** bitcast (i8** getelementptr inbounds ({ [36 x i8*], [6 x i8*] }, { [36 x i8*], [6 x i8*] }* @_ZTVN2sh16TIntermAggregateE, i64 0, inrange i32 1, i64 2) to i32 (...)**), i32 (...)*** %15, align 8
  %16 = getelementptr inbounds i8, i8* %4, i64 168
  %17 = getelementptr inbounds i8, i8* %4, i64 200
  %18 = bitcast i8* %17 to %"class.sh::TFunction"**
  tail call void @llvm.memset.p0i8.i64(i8* nonnull align 8 %16, i8 0, i64 26, i1 false) #18
  store %"class.sh::TFunction"* %0, %"class.sh::TFunction"** %18, align 8
  %19 = icmp eq %"class.sh::TVector.15"* %1, null
  br i1 %19, label %36, label %20

; <label>:20:                                     ; preds = %2
  %21 = bitcast i8* %16 to i64*
  %22 = bitcast %"class.sh::TVector.15"* %1 to i64*
  %23 = load i64, i64* %22, align 8
  store i64 %23, i64* %21, align 8
  store i64 0, i64* %22, align 8
  %24 = getelementptr inbounds i8, i8* %4, i64 176
  %25 = getelementptr inbounds %"class.sh::TVector.15", %"class.sh::TVector.15"* %1, i64 0, i32 0, i32 0, i32 1
  %26 = bitcast i8* %24 to i64*
  %27 = load i64, i64* %26, align 8
  %28 = bitcast %"class.sh::TIntermNode"*** %25 to i64*
  %29 = load i64, i64* %28, align 8
  store i64 %29, i64* %26, align 8
  store i64 %27, i64* %28, align 8
  %30 = getelementptr inbounds i8, i8* %4, i64 184
  %31 = getelementptr inbounds %"class.sh::TVector.15", %"class.sh::TVector.15"* %1, i64 0, i32 0, i32 0, i32 2, i32 0, i32 0
  %32 = bitcast i8* %30 to i64*
  %33 = load i64, i64* %32, align 8
  %34 = bitcast %"class.sh::TIntermNode"*** %31 to i64*
  %35 = load i64, i64* %34, align 8
  store i64 %35, i64* %32, align 8
  store i64 %33, i64* %34, align 8
  br label %36

; <label>:36:                                     ; preds = %2, %20
  tail call void @_ZN2sh16TIntermAggregate24setPrecisionAndQualifierEv(%"class.sh::TIntermAggregate"* nonnull %5) #18
  ret %"class.sh::TIntermAggregate"* %5
}

; Function Attrs: nounwind ssp uwtable
define hidden %"class.sh::TIntermAggregate"* @_ZN2sh16TIntermAggregate25CreateBuiltInFunctionCallERKNS_9TFunctionEPNS_7TVectorIPNS_11TIntermNodeEEE(%"class.sh::TFunction"* dereferenceable(88), %"class.sh::TVector.15"*) local_unnamed_addr #0 align 2 {
  %3 = tail call %class.TPoolAllocator* @_Z22GetGlobalPoolAllocatorv() #18
  %4 = tail call i8* @_ZN14TPoolAllocator8allocateEm(%class.TPoolAllocator* %3, i64 208) #18
  %5 = bitcast i8* %4 to %"class.sh::TIntermAggregate"*
  %6 = getelementptr inbounds %"class.sh::TFunction", %"class.sh::TFunction"* %0, i64 0, i32 4
  %7 = load %"class.sh::TType"*, %"class.sh::TType"** %6, align 8
  %8 = getelementptr inbounds %"class.sh::TFunction", %"class.sh::TFunction"* %0, i64 0, i32 6
  %9 = load i32, i32* %8, align 8
  %10 = getelementptr inbounds i8, i8* %4, i64 8
  tail call void @llvm.memset.p0i8.i64(i8* nonnull align 8 %10, i8 0, i64 16, i1 false) #18
  %11 = bitcast i8* %4 to i32 (...)***
  store i32 (...)** bitcast (i8** getelementptr inbounds ({ [34 x i8*] }, { [34 x i8*] }* @_ZTVN2sh17TIntermExpressionE, i64 0, inrange i32 0, i64 2) to i32 (...)**), i32 (...)*** %11, align 8
  %12 = getelementptr inbounds i8, i8* %4, i64 24
  %13 = bitcast i8* %12 to %"class.sh::TType"*
  tail call void @_ZN2sh5TTypeC1ERKS0_(%"class.sh::TType"* nonnull %13, %"class.sh::TType"* nonnull dereferenceable(128) %7) #18
  %14 = getelementptr inbounds i8, i8* %4, i64 152
  %15 = bitcast i8* %14 to i32*
  store i32 %9, i32* %15, align 8
  %16 = getelementptr inbounds i8, i8* %4, i64 160
  %17 = bitcast i8* %16 to i32 (...)***
  store i32 (...)** bitcast (i8** getelementptr inbounds ({ [36 x i8*], [6 x i8*] }, { [36 x i8*], [6 x i8*] }* @_ZTVN2sh16TIntermAggregateE, i64 0, inrange i32 0, i64 2) to i32 (...)**), i32 (...)*** %11, align 8
  store i32 (...)** bitcast (i8** getelementptr inbounds ({ [36 x i8*], [6 x i8*] }, { [36 x i8*], [6 x i8*] }* @_ZTVN2sh16TIntermAggregateE, i64 0, inrange i32 1, i64 2) to i32 (...)**), i32 (...)*** %17, align 8
  %18 = getelementptr inbounds i8, i8* %4, i64 168
  %19 = getelementptr inbounds i8, i8* %4, i64 200
  %20 = bitcast i8* %19 to %"class.sh::TFunction"**
  tail call void @llvm.memset.p0i8.i64(i8* nonnull align 8 %18, i8 0, i64 26, i1 false) #18
  store %"class.sh::TFunction"* %0, %"class.sh::TFunction"** %20, align 8
  %21 = icmp eq %"class.sh::TVector.15"* %1, null
  br i1 %21, label %38, label %22

; <label>:22:                                     ; preds = %2
  %23 = bitcast i8* %18 to i64*
  %24 = bitcast %"class.sh::TVector.15"* %1 to i64*
  %25 = load i64, i64* %24, align 8
  store i64 %25, i64* %23, align 8
  store i64 0, i64* %24, align 8
  %26 = getelementptr inbounds i8, i8* %4, i64 176
  %27 = getelementptr inbounds %"class.sh::TVector.15", %"class.sh::TVector.15"* %1, i64 0, i32 0, i32 0, i32 1
  %28 = bitcast i8* %26 to i64*
  %29 = load i64, i64* %28, align 8
  %30 = bitcast %"class.sh::TIntermNode"*** %27 to i64*
  %31 = load i64, i64* %30, align 8
  store i64 %31, i64* %28, align 8
  store i64 %29, i64* %30, align 8
  %32 = getelementptr inbounds i8, i8* %4, i64 184
  %33 = getelementptr inbounds %"class.sh::TVector.15", %"class.sh::TVector.15"* %1, i64 0, i32 0, i32 0, i32 2, i32 0, i32 0
  %34 = bitcast i8* %32 to i64*
  %35 = load i64, i64* %34, align 8
  %36 = bitcast %"class.sh::TIntermNode"*** %33 to i64*
  %37 = load i64, i64* %36, align 8
  store i64 %37, i64* %34, align 8
  store i64 %35, i64* %36, align 8
  br label %38

; <label>:38:                                     ; preds = %2, %22
  tail call void @_ZN2sh16TIntermAggregate24setPrecisionAndQualifierEv(%"class.sh::TIntermAggregate"* nonnull %5) #18
  ret %"class.sh::TIntermAggregate"* %5
}

; Function Attrs: nounwind ssp uwtable
define hidden %"class.sh::TIntermAggregate"* @_ZN2sh16TIntermAggregate17CreateConstructorERKNS_5TTypeEPNS_7TVectorIPNS_11TIntermNodeEEE(%"class.sh::TType"* dereferenceable(128), %"class.sh::TVector.15"*) local_unnamed_addr #0 align 2 {
  %3 = tail call %class.TPoolAllocator* @_Z22GetGlobalPoolAllocatorv() #18
  %4 = tail call i8* @_ZN14TPoolAllocator8allocateEm(%class.TPoolAllocator* %3, i64 208) #18
  %5 = bitcast i8* %4 to %"class.sh::TIntermAggregate"*
  %6 = getelementptr inbounds i8, i8* %4, i64 8
  tail call void @llvm.memset.p0i8.i64(i8* nonnull align 8 %6, i8 0, i64 16, i1 false) #18
  %7 = bitcast i8* %4 to i32 (...)***
  store i32 (...)** bitcast (i8** getelementptr inbounds ({ [34 x i8*] }, { [34 x i8*] }* @_ZTVN2sh17TIntermExpressionE, i64 0, inrange i32 0, i64 2) to i32 (...)**), i32 (...)*** %7, align 8
  %8 = getelementptr inbounds i8, i8* %4, i64 24
  %9 = bitcast i8* %8 to %"class.sh::TType"*
  tail call void @_ZN2sh5TTypeC1ERKS0_(%"class.sh::TType"* nonnull %9, %"class.sh::TType"* nonnull dereferenceable(128) %0) #18
  %10 = getelementptr inbounds i8, i8* %4, i64 152
  %11 = bitcast i8* %10 to i32*
  store i32 136, i32* %11, align 8
  %12 = getelementptr inbounds i8, i8* %4, i64 160
  %13 = bitcast i8* %12 to i32 (...)***
  store i32 (...)** bitcast (i8** getelementptr inbounds ({ [36 x i8*], [6 x i8*] }, { [36 x i8*], [6 x i8*] }* @_ZTVN2sh16TIntermAggregateE, i64 0, inrange i32 0, i64 2) to i32 (...)**), i32 (...)*** %7, align 8
  store i32 (...)** bitcast (i8** getelementptr inbounds ({ [36 x i8*], [6 x i8*] }, { [36 x i8*], [6 x i8*] }* @_ZTVN2sh16TIntermAggregateE, i64 0, inrange i32 1, i64 2) to i32 (...)**), i32 (...)*** %13, align 8
  %14 = getelementptr inbounds i8, i8* %4, i64 168
  %15 = getelementptr inbounds i8, i8* %4, i64 200
  %16 = bitcast i8* %15 to %"class.sh::TFunction"**
  tail call void @llvm.memset.p0i8.i64(i8* nonnull align 8 %14, i8 0, i64 26, i1 false) #18
  store %"class.sh::TFunction"* null, %"class.sh::TFunction"** %16, align 8
  %17 = icmp eq %"class.sh::TVector.15"* %1, null
  br i1 %17, label %34, label %18

; <label>:18:                                     ; preds = %2
  %19 = bitcast i8* %14 to i64*
  %20 = bitcast %"class.sh::TVector.15"* %1 to i64*
  %21 = load i64, i64* %20, align 8
  store i64 %21, i64* %19, align 8
  store i64 0, i64* %20, align 8
  %22 = getelementptr inbounds i8, i8* %4, i64 176
  %23 = getelementptr inbounds %"class.sh::TVector.15", %"class.sh::TVector.15"* %1, i64 0, i32 0, i32 0, i32 1
  %24 = bitcast i8* %22 to i64*
  %25 = load i64, i64* %24, align 8
  %26 = bitcast %"class.sh::TIntermNode"*** %23 to i64*
  %27 = load i64, i64* %26, align 8
  store i64 %27, i64* %24, align 8
  store i64 %25, i64* %26, align 8
  %28 = getelementptr inbounds i8, i8* %4, i64 184
  %29 = getelementptr inbounds %"class.sh::TVector.15", %"class.sh::TVector.15"* %1, i64 0, i32 0, i32 0, i32 2, i32 0, i32 0
  %30 = bitcast i8* %28 to i64*
  %31 = load i64, i64* %30, align 8
  %32 = bitcast %"class.sh::TIntermNode"*** %29 to i64*
  %33 = load i64, i64* %32, align 8
  store i64 %33, i64* %30, align 8
  store i64 %31, i64* %32, align 8
  br label %34

; <label>:34:                                     ; preds = %2, %18
  tail call void @_ZN2sh16TIntermAggregate24setPrecisionAndQualifierEv(%"class.sh::TIntermAggregate"* nonnull %5) #18
  ret %"class.sh::TIntermAggregate"* %5
}

; Function Attrs: nounwind ssp uwtable
define hidden void @_ZN2sh16TIntermAggregateC2EPKNS_9TFunctionERKNS_5TTypeE9TOperatorPNS_7TVectorIPNS_11TIntermNodeEEE(%"class.sh::TIntermAggregate"*, %"class.sh::TFunction"*, %"class.sh::TType"* dereferenceable(128), i32, %"class.sh::TVector.15"*) unnamed_addr #0 align 2 {
  %6 = getelementptr inbounds %"class.sh::TIntermAggregate", %"class.sh::TIntermAggregate"* %0, i64 0, i32 0, i32 0, i32 0, i32 0, i32 1, i32 0
  %7 = bitcast i32* %6 to i8*
  tail call void @llvm.memset.p0i8.i64(i8* nonnull align 8 %7, i8 0, i64 16, i1 false) #18
  %8 = getelementptr inbounds %"class.sh::TIntermAggregate", %"class.sh::TIntermAggregate"* %0, i64 0, i32 0, i32 0, i32 0, i32 0, i32 0
  store i32 (...)** bitcast (i8** getelementptr inbounds ({ [34 x i8*] }, { [34 x i8*] }* @_ZTVN2sh17TIntermExpressionE, i64 0, inrange i32 0, i64 2) to i32 (...)**), i32 (...)*** %8, align 8
  %9 = getelementptr inbounds %"class.sh::TIntermAggregate", %"class.sh::TIntermAggregate"* %0, i64 0, i32 0, i32 0, i32 1
  tail call void @_ZN2sh5TTypeC1ERKS0_(%"class.sh::TType"* nonnull %9, %"class.sh::TType"* nonnull dereferenceable(128) %2) #18
  %10 = getelementptr inbounds %"class.sh::TIntermAggregate", %"class.sh::TIntermAggregate"* %0, i64 0, i32 0, i32 1
  store i32 %3, i32* %10, align 8
  %11 = getelementptr inbounds %"class.sh::TIntermAggregate", %"class.sh::TIntermAggregate"* %0, i64 0, i32 1, i32 0
  store i32 (...)** bitcast (i8** getelementptr inbounds ({ [36 x i8*], [6 x i8*] }, { [36 x i8*], [6 x i8*] }* @_ZTVN2sh16TIntermAggregateE, i64 0, inrange i32 0, i64 2) to i32 (...)**), i32 (...)*** %8, align 8
  store i32 (...)** bitcast (i8** getelementptr inbounds ({ [36 x i8*], [6 x i8*] }, { [36 x i8*], [6 x i8*] }* @_ZTVN2sh16TIntermAggregateE, i64 0, inrange i32 1, i64 2) to i32 (...)**), i32 (...)*** %11, align 8
  %12 = getelementptr inbounds %"class.sh::TIntermAggregate", %"class.sh::TIntermAggregate"* %0, i64 0, i32 2
  %13 = getelementptr inbounds %"class.sh::TIntermAggregate", %"class.sh::TIntermAggregate"* %0, i64 0, i32 5
  %14 = bitcast %"class.sh::TVector.15"* %12 to i8*
  call void @llvm.memset.p0i8.i64(i8* nonnull align 8 %14, i8 0, i64 26, i1 false)
  store %"class.sh::TFunction"* %1, %"class.sh::TFunction"** %13, align 8
  %15 = icmp eq %"class.sh::TVector.15"* %4, null
  br i1 %15, label %32, label %16

; <label>:16:                                     ; preds = %5
  %17 = bitcast %"class.sh::TVector.15"* %12 to i64*
  %18 = bitcast %"class.sh::TVector.15"* %4 to i64*
  %19 = load i64, i64* %18, align 8
  store i64 %19, i64* %17, align 8
  store i64 0, i64* %18, align 8
  %20 = getelementptr inbounds %"class.sh::TIntermAggregate", %"class.sh::TIntermAggregate"* %0, i64 0, i32 2, i32 0, i32 0, i32 1
  %21 = getelementptr inbounds %"class.sh::TVector.15", %"class.sh::TVector.15"* %4, i64 0, i32 0, i32 0, i32 1
  %22 = bitcast %"class.sh::TIntermNode"*** %20 to i64*
  %23 = load i64, i64* %22, align 8
  %24 = bitcast %"class.sh::TIntermNode"*** %21 to i64*
  %25 = load i64, i64* %24, align 8
  store i64 %25, i64* %22, align 8
  store i64 %23, i64* %24, align 8
  %26 = getelementptr inbounds %"class.sh::TIntermAggregate", %"class.sh::TIntermAggregate"* %0, i64 0, i32 2, i32 0, i32 0, i32 2, i32 0, i32 0
  %27 = getelementptr inbounds %"class.sh::TVector.15", %"class.sh::TVector.15"* %4, i64 0, i32 0, i32 0, i32 2, i32 0, i32 0
  %28 = bitcast %"class.sh::TIntermNode"*** %26 to i64*
  %29 = load i64, i64* %28, align 8
  %30 = bitcast %"class.sh::TIntermNode"*** %27 to i64*
  %31 = load i64, i64* %30, align 8
  store i64 %31, i64* %28, align 8
  store i64 %29, i64* %30, align 8
  br label %32

; <label>:32:                                     ; preds = %5, %16
  tail call void @_ZN2sh16TIntermAggregate24setPrecisionAndQualifierEv(%"class.sh::TIntermAggregate"* nonnull %0)
  ret void
}

; Function Attrs: nounwind ssp uwtable
define hidden void @_ZN2sh16TIntermAggregate24setPrecisionAndQualifierEv(%"class.sh::TIntermAggregate"*) local_unnamed_addr #0 align 2 {
  %2 = getelementptr inbounds %"class.sh::TIntermAggregate", %"class.sh::TIntermAggregate"* %0, i64 0, i32 0, i32 0, i32 1, i32 2
  store i32 0, i32* %2, align 8
  %3 = getelementptr inbounds %"class.sh::TIntermAggregate", %"class.sh::TIntermAggregate"* %0, i64 0, i32 0, i32 1
  %4 = load i32, i32* %3, align 8
  %5 = icmp eq i32 %4, 3
  br i1 %5, label %6, label %55

; <label>:6:                                      ; preds = %1
  %7 = getelementptr inbounds %"class.sh::TIntermAggregate", %"class.sh::TIntermAggregate"* %0, i64 0, i32 2, i32 0, i32 0, i32 0
  %8 = load %"class.sh::TIntermNode"**, %"class.sh::TIntermNode"*** %7, align 8
  %9 = getelementptr inbounds %"class.sh::TIntermAggregate", %"class.sh::TIntermAggregate"* %0, i64 0, i32 2, i32 0, i32 0, i32 1
  %10 = load %"class.sh::TIntermNode"**, %"class.sh::TIntermNode"*** %9, align 8
  %11 = icmp eq %"class.sh::TIntermNode"** %8, %10
  br i1 %11, label %42, label %12

; <label>:12:                                     ; preds = %6, %39
  %13 = phi %"class.sh::TIntermNode"** [ %40, %39 ], [ %8, %6 ]
  %14 = load %"class.sh::TIntermNode"*, %"class.sh::TIntermNode"** %13, align 8
  %15 = bitcast %"class.sh::TIntermNode"* %14 to %"class.sh::TIntermTyped"* (%"class.sh::TIntermNode"*)***
  %16 = load %"class.sh::TIntermTyped"* (%"class.sh::TIntermNode"*)**, %"class.sh::TIntermTyped"* (%"class.sh::TIntermNode"*)*** %15, align 8
  %17 = getelementptr inbounds %"class.sh::TIntermTyped"* (%"class.sh::TIntermNode"*)*, %"class.sh::TIntermTyped"* (%"class.sh::TIntermNode"*)** %16, i64 4
  %18 = load %"class.sh::TIntermTyped"* (%"class.sh::TIntermNode"*)*, %"class.sh::TIntermTyped"* (%"class.sh::TIntermNode"*)** %17, align 8
  %19 = tail call %"class.sh::TIntermTyped"* %18(%"class.sh::TIntermNode"* %14) #18
  %20 = icmp eq %"class.sh::TIntermTyped"* %19, null
  br i1 %20, label %39, label %21

; <label>:21:                                     ; preds = %12
  %22 = bitcast %"class.sh::TIntermTyped"* %19 to %"class.sh::TType"* (%"class.sh::TIntermTyped"*)***
  %23 = load %"class.sh::TType"* (%"class.sh::TIntermTyped"*)**, %"class.sh::TType"* (%"class.sh::TIntermTyped"*)*** %22, align 8
  %24 = getelementptr inbounds %"class.sh::TType"* (%"class.sh::TIntermTyped"*)*, %"class.sh::TType"* (%"class.sh::TIntermTyped"*)** %23, i64 31
  %25 = load %"class.sh::TType"* (%"class.sh::TIntermTyped"*)*, %"class.sh::TType"* (%"class.sh::TIntermTyped"*)** %24, align 8
  %26 = tail call dereferenceable(128) %"class.sh::TType"* %25(%"class.sh::TIntermTyped"* nonnull %19) #18
  %27 = getelementptr inbounds %"class.sh::TType", %"class.sh::TType"* %26, i64 0, i32 0
  %28 = load i32, i32* %27, align 8
  %29 = add i32 %28, -7
  %30 = icmp ult i32 %29, 24
  br i1 %30, label %31, label %39

; <label>:31:                                     ; preds = %21
  %32 = bitcast %"class.sh::TIntermTyped"* %19 to %"class.sh::TType"* (%"class.sh::TIntermTyped"*)***
  %33 = load %"class.sh::TType"* (%"class.sh::TIntermTyped"*)**, %"class.sh::TType"* (%"class.sh::TIntermTyped"*)*** %32, align 8
  %34 = getelementptr inbounds %"class.sh::TType"* (%"class.sh::TIntermTyped"*)*, %"class.sh::TType"* (%"class.sh::TIntermTyped"*)** %33, i64 31
  %35 = load %"class.sh::TType"* (%"class.sh::TIntermTyped"*)*, %"class.sh::TType"* (%"class.sh::TIntermTyped"*)** %34, align 8
  %36 = tail call dereferenceable(128) %"class.sh::TType"* %35(%"class.sh::TIntermTyped"* nonnull %19) #18
  %37 = getelementptr inbounds %"class.sh::TType", %"class.sh::TType"* %36, i64 0, i32 1
  %38 = load i32, i32* %37, align 4
  br label %42

; <label>:39:                                     ; preds = %21, %12
  %40 = getelementptr inbounds %"class.sh::TIntermNode"*, %"class.sh::TIntermNode"** %13, i64 1
  %41 = icmp eq %"class.sh::TIntermNode"** %40, %10
  br i1 %41, label %42, label %12

; <label>:42:                                     ; preds = %39, %6, %31
  %43 = phi i32 [ %38, %31 ], [ 0, %6 ], [ 0, %39 ]
  %44 = getelementptr inbounds %"class.sh::TIntermAggregate", %"class.sh::TIntermAggregate"* %0, i64 0, i32 5
  %45 = bitcast %"class.sh::TFunction"** %44 to %"class.sh::TSymbol"**
  %46 = load %"class.sh::TSymbol"*, %"class.sh::TSymbol"** %45, align 8
  %47 = tail call { i8*, i64 } @_ZNK2sh7TSymbol4nameEv(%"class.sh::TSymbol"* %46) #18
  %48 = extractvalue { i8*, i64 } %47, 0
  %49 = icmp eq i8* %48, null
  %50 = select i1 %49, i8* getelementptr inbounds ([1 x i8], [1 x i8]* @.str.14, i64 0, i64 0), i8* %48
  %51 = tail call i32 @strcmp(i8* %50, i8* nonnull getelementptr inbounds ([12 x i8], [12 x i8]* @.str, i64 0, i64 0)) #19
  %52 = icmp eq i32 %51, 0
  %53 = getelementptr inbounds %"class.sh::TIntermAggregate", %"class.sh::TIntermAggregate"* %0, i64 0, i32 0, i32 0, i32 1, i32 1
  %54 = select i1 %52, i32 3, i32 %43
  store i32 %54, i32* %53, align 4
  br label %192

; <label>:55:                                     ; preds = %1
  %56 = add i32 %4, -1
  %57 = icmp ult i32 %56, 3
  br i1 %57, label %192, label %58

; <label>:58:                                     ; preds = %55
  %59 = icmp eq i32 %4, 136
  br i1 %59, label %60, label %115

; <label>:60:                                     ; preds = %58
  %61 = getelementptr inbounds %"class.sh::TIntermAggregate", %"class.sh::TIntermAggregate"* %0, i64 0, i32 0, i32 0, i32 0
  %62 = bitcast %"class.sh::TIntermAggregate"* %0 to %"class.sh::TType"* (%"class.sh::TIntermTyped"*)***
  %63 = load %"class.sh::TType"* (%"class.sh::TIntermTyped"*)**, %"class.sh::TType"* (%"class.sh::TIntermTyped"*)*** %62, align 8
  %64 = getelementptr inbounds %"class.sh::TType"* (%"class.sh::TIntermTyped"*)*, %"class.sh::TType"* (%"class.sh::TIntermTyped"*)** %63, i64 31
  %65 = load %"class.sh::TType"* (%"class.sh::TIntermTyped"*)*, %"class.sh::TType"* (%"class.sh::TIntermTyped"*)** %64, align 8
  %66 = tail call dereferenceable(128) %"class.sh::TType"* %65(%"class.sh::TIntermTyped"* %61) #18
  %67 = getelementptr inbounds %"class.sh::TType", %"class.sh::TType"* %66, i64 0, i32 0
  %68 = load i32, i32* %67, align 8
  %69 = icmp eq i32 %68, 43
  br i1 %69, label %164, label %70

; <label>:70:                                     ; preds = %60
  %71 = getelementptr inbounds %"class.sh::TIntermAggregate", %"class.sh::TIntermAggregate"* %0, i64 0, i32 4
  store i8 1, i8* %71, align 1
  %72 = load %"class.sh::TType"* (%"class.sh::TIntermTyped"*)**, %"class.sh::TType"* (%"class.sh::TIntermTyped"*)*** %62, align 8
  %73 = getelementptr inbounds %"class.sh::TType"* (%"class.sh::TIntermTyped"*)*, %"class.sh::TType"* (%"class.sh::TIntermTyped"*)** %72, i64 31
  %74 = load %"class.sh::TType"* (%"class.sh::TIntermTyped"*)*, %"class.sh::TType"* (%"class.sh::TIntermTyped"*)** %73, align 8
  %75 = tail call dereferenceable(128) %"class.sh::TType"* %74(%"class.sh::TIntermTyped"* %61) #18
  %76 = getelementptr inbounds %"class.sh::TType", %"class.sh::TType"* %75, i64 0, i32 0
  %77 = load i32, i32* %76, align 8
  %78 = icmp eq i32 %77, 4
  br i1 %78, label %79, label %81

; <label>:79:                                     ; preds = %70
  %80 = getelementptr inbounds %"class.sh::TIntermAggregate", %"class.sh::TIntermAggregate"* %0, i64 0, i32 0, i32 0, i32 1, i32 1
  store i32 0, i32* %80, align 4
  br label %164

; <label>:81:                                     ; preds = %70
  %82 = getelementptr inbounds %"class.sh::TIntermAggregate", %"class.sh::TIntermAggregate"* %0, i64 0, i32 2, i32 0, i32 0, i32 0
  %83 = load %"class.sh::TIntermNode"**, %"class.sh::TIntermNode"*** %82, align 8
  %84 = getelementptr inbounds %"class.sh::TIntermAggregate", %"class.sh::TIntermAggregate"* %0, i64 0, i32 2, i32 0, i32 0, i32 1
  %85 = load %"class.sh::TIntermNode"**, %"class.sh::TIntermNode"*** %84, align 8
  %86 = icmp eq %"class.sh::TIntermNode"** %83, %85
  br i1 %86, label %112, label %87

; <label>:87:                                     ; preds = %81, %107
  %88 = phi i32 [ %108, %107 ], [ 0, %81 ]
  %89 = phi %"class.sh::TIntermNode"** [ %109, %107 ], [ %83, %81 ]
  %90 = load %"class.sh::TIntermNode"*, %"class.sh::TIntermNode"** %89, align 8
  %91 = bitcast %"class.sh::TIntermNode"* %90 to %"class.sh::TIntermTyped"* (%"class.sh::TIntermNode"*)***
  %92 = load %"class.sh::TIntermTyped"* (%"class.sh::TIntermNode"*)**, %"class.sh::TIntermTyped"* (%"class.sh::TIntermNode"*)*** %91, align 8
  %93 = getelementptr inbounds %"class.sh::TIntermTyped"* (%"class.sh::TIntermNode"*)*, %"class.sh::TIntermTyped"* (%"class.sh::TIntermNode"*)** %92, i64 4
  %94 = load %"class.sh::TIntermTyped"* (%"class.sh::TIntermNode"*)*, %"class.sh::TIntermTyped"* (%"class.sh::TIntermNode"*)** %93, align 8
  %95 = tail call %"class.sh::TIntermTyped"* %94(%"class.sh::TIntermNode"* %90) #18
  %96 = icmp eq %"class.sh::TIntermTyped"* %95, null
  br i1 %96, label %107, label %97

; <label>:97:                                     ; preds = %87
  %98 = bitcast %"class.sh::TIntermTyped"* %95 to %"class.sh::TType"* (%"class.sh::TIntermTyped"*)***
  %99 = load %"class.sh::TType"* (%"class.sh::TIntermTyped"*)**, %"class.sh::TType"* (%"class.sh::TIntermTyped"*)*** %98, align 8
  %100 = getelementptr inbounds %"class.sh::TType"* (%"class.sh::TIntermTyped"*)*, %"class.sh::TType"* (%"class.sh::TIntermTyped"*)** %99, i64 31
  %101 = load %"class.sh::TType"* (%"class.sh::TIntermTyped"*)*, %"class.sh::TType"* (%"class.sh::TIntermTyped"*)** %100, align 8
  %102 = tail call dereferenceable(128) %"class.sh::TType"* %101(%"class.sh::TIntermTyped"* nonnull %95) #18
  %103 = getelementptr inbounds %"class.sh::TType", %"class.sh::TType"* %102, i64 0, i32 1
  %104 = load i32, i32* %103, align 4
  %105 = icmp sgt i32 %104, %88
  %106 = select i1 %105, i32 %104, i32 %88
  br label %107

; <label>:107:                                    ; preds = %97, %87
  %108 = phi i32 [ %106, %97 ], [ %88, %87 ]
  %109 = getelementptr inbounds %"class.sh::TIntermNode"*, %"class.sh::TIntermNode"** %89, i64 1
  %110 = load %"class.sh::TIntermNode"**, %"class.sh::TIntermNode"*** %84, align 8
  %111 = icmp eq %"class.sh::TIntermNode"** %109, %110
  br i1 %111, label %112, label %87

; <label>:112:                                    ; preds = %107, %81
  %113 = phi i32 [ 0, %81 ], [ %108, %107 ]
  %114 = getelementptr inbounds %"class.sh::TIntermAggregate", %"class.sh::TIntermAggregate"* %0, i64 0, i32 0, i32 0, i32 1, i32 1
  store i32 %113, i32* %114, align 4
  br label %164

; <label>:115:                                    ; preds = %58
  %116 = tail call zeroext i1 @_ZN2sh16TIntermAggregate31setPrecisionForSpecialBuiltInOpEv(%"class.sh::TIntermAggregate"* nonnull %0) #18
  br i1 %116, label %164, label %117

; <label>:117:                                    ; preds = %115
  %118 = getelementptr inbounds %"class.sh::TIntermAggregate", %"class.sh::TIntermAggregate"* %0, i64 0, i32 4
  store i8 1, i8* %118, align 1
  %119 = getelementptr inbounds %"class.sh::TIntermAggregate", %"class.sh::TIntermAggregate"* %0, i64 0, i32 0, i32 0, i32 0
  %120 = bitcast %"class.sh::TIntermAggregate"* %0 to %"class.sh::TType"* (%"class.sh::TIntermTyped"*)***
  %121 = load %"class.sh::TType"* (%"class.sh::TIntermTyped"*)**, %"class.sh::TType"* (%"class.sh::TIntermTyped"*)*** %120, align 8
  %122 = getelementptr inbounds %"class.sh::TType"* (%"class.sh::TIntermTyped"*)*, %"class.sh::TType"* (%"class.sh::TIntermTyped"*)** %121, i64 31
  %123 = load %"class.sh::TType"* (%"class.sh::TIntermTyped"*)*, %"class.sh::TType"* (%"class.sh::TIntermTyped"*)** %122, align 8
  %124 = tail call dereferenceable(128) %"class.sh::TType"* %123(%"class.sh::TIntermTyped"* %119) #18
  %125 = getelementptr inbounds %"class.sh::TType", %"class.sh::TType"* %124, i64 0, i32 0
  %126 = load i32, i32* %125, align 8
  %127 = icmp eq i32 %126, 4
  br i1 %127, label %128, label %130

; <label>:128:                                    ; preds = %117
  %129 = getelementptr inbounds %"class.sh::TIntermAggregate", %"class.sh::TIntermAggregate"* %0, i64 0, i32 0, i32 0, i32 1, i32 1
  store i32 0, i32* %129, align 4
  br label %164

; <label>:130:                                    ; preds = %117
  %131 = getelementptr inbounds %"class.sh::TIntermAggregate", %"class.sh::TIntermAggregate"* %0, i64 0, i32 2, i32 0, i32 0, i32 0
  %132 = load %"class.sh::TIntermNode"**, %"class.sh::TIntermNode"*** %131, align 8
  %133 = getelementptr inbounds %"class.sh::TIntermAggregate", %"class.sh::TIntermAggregate"* %0, i64 0, i32 2, i32 0, i32 0, i32 1
  %134 = load %"class.sh::TIntermNode"**, %"class.sh::TIntermNode"*** %133, align 8
  %135 = icmp eq %"class.sh::TIntermNode"** %132, %134
  br i1 %135, label %161, label %136

; <label>:136:                                    ; preds = %130, %156
  %137 = phi i32 [ %157, %156 ], [ 0, %130 ]
  %138 = phi %"class.sh::TIntermNode"** [ %158, %156 ], [ %132, %130 ]
  %139 = load %"class.sh::TIntermNode"*, %"class.sh::TIntermNode"** %138, align 8
  %140 = bitcast %"class.sh::TIntermNode"* %139 to %"class.sh::TIntermTyped"* (%"class.sh::TIntermNode"*)***
  %141 = load %"class.sh::TIntermTyped"* (%"class.sh::TIntermNode"*)**, %"class.sh::TIntermTyped"* (%"class.sh::TIntermNode"*)*** %140, align 8
  %142 = getelementptr inbounds %"class.sh::TIntermTyped"* (%"class.sh::TIntermNode"*)*, %"class.sh::TIntermTyped"* (%"class.sh::TIntermNode"*)** %141, i64 4
  %143 = load %"class.sh::TIntermTyped"* (%"class.sh::TIntermNode"*)*, %"class.sh::TIntermTyped"* (%"class.sh::TIntermNode"*)** %142, align 8
  %144 = tail call %"class.sh::TIntermTyped"* %143(%"class.sh::TIntermNode"* %139) #18
  %145 = icmp eq %"class.sh::TIntermTyped"* %144, null
  br i1 %145, label %156, label %146

; <label>:146:                                    ; preds = %136
  %147 = bitcast %"class.sh::TIntermTyped"* %144 to %"class.sh::TType"* (%"class.sh::TIntermTyped"*)***
  %148 = load %"class.sh::TType"* (%"class.sh::TIntermTyped"*)**, %"class.sh::TType"* (%"class.sh::TIntermTyped"*)*** %147, align 8
  %149 = getelementptr inbounds %"class.sh::TType"* (%"class.sh::TIntermTyped"*)*, %"class.sh::TType"* (%"class.sh::TIntermTyped"*)** %148, i64 31
  %150 = load %"class.sh::TType"* (%"class.sh::TIntermTyped"*)*, %"class.sh::TType"* (%"class.sh::TIntermTyped"*)** %149, align 8
  %151 = tail call dereferenceable(128) %"class.sh::TType"* %150(%"class.sh::TIntermTyped"* nonnull %144) #18
  %152 = getelementptr inbounds %"class.sh::TType", %"class.sh::TType"* %151, i64 0, i32 1
  %153 = load i32, i32* %152, align 4
  %154 = icmp sgt i32 %153, %137
  %155 = select i1 %154, i32 %153, i32 %137
  br label %156

; <label>:156:                                    ; preds = %146, %136
  %157 = phi i32 [ %155, %146 ], [ %137, %136 ]
  %158 = getelementptr inbounds %"class.sh::TIntermNode"*, %"class.sh::TIntermNode"** %138, i64 1
  %159 = load %"class.sh::TIntermNode"**, %"class.sh::TIntermNode"*** %133, align 8
  %160 = icmp eq %"class.sh::TIntermNode"** %158, %159
  br i1 %160, label %161, label %136

; <label>:161:                                    ; preds = %156, %130
  %162 = phi i32 [ 0, %130 ], [ %157, %156 ]
  %163 = getelementptr inbounds %"class.sh::TIntermAggregate", %"class.sh::TIntermAggregate"* %0, i64 0, i32 0, i32 0, i32 1, i32 1
  store i32 %162, i32* %163, align 4
  br label %164

; <label>:164:                                    ; preds = %161, %128, %115, %112, %79, %60
  %165 = getelementptr inbounds %"class.sh::TIntermAggregate", %"class.sh::TIntermAggregate"* %0, i64 0, i32 2, i32 0, i32 0, i32 0
  %166 = load %"class.sh::TIntermNode"**, %"class.sh::TIntermNode"*** %165, align 8
  %167 = getelementptr inbounds %"class.sh::TIntermAggregate", %"class.sh::TIntermAggregate"* %0, i64 0, i32 2, i32 0, i32 0, i32 1
  %168 = load %"class.sh::TIntermNode"**, %"class.sh::TIntermNode"*** %167, align 8
  %169 = icmp eq %"class.sh::TIntermNode"** %166, %168
  br i1 %169, label %191, label %170

; <label>:170:                                    ; preds = %164, %188
  %171 = phi %"class.sh::TIntermNode"** [ %189, %188 ], [ %166, %164 ]
  %172 = load %"class.sh::TIntermNode"*, %"class.sh::TIntermNode"** %171, align 8
  %173 = bitcast %"class.sh::TIntermNode"* %172 to %"class.sh::TIntermTyped"* (%"class.sh::TIntermNode"*)***
  %174 = load %"class.sh::TIntermTyped"* (%"class.sh::TIntermNode"*)**, %"class.sh::TIntermTyped"* (%"class.sh::TIntermNode"*)*** %173, align 8
  %175 = getelementptr inbounds %"class.sh::TIntermTyped"* (%"class.sh::TIntermNode"*)*, %"class.sh::TIntermTyped"* (%"class.sh::TIntermNode"*)** %174, i64 4
  %176 = load %"class.sh::TIntermTyped"* (%"class.sh::TIntermNode"*)*, %"class.sh::TIntermTyped"* (%"class.sh::TIntermNode"*)** %175, align 8
  %177 = tail call %"class.sh::TIntermTyped"* %176(%"class.sh::TIntermNode"* %172) #18
  %178 = icmp eq %"class.sh::TIntermTyped"* %177, null
  br i1 %178, label %188, label %179

; <label>:179:                                    ; preds = %170
  %180 = bitcast %"class.sh::TIntermTyped"* %177 to %"class.sh::TType"* (%"class.sh::TIntermTyped"*)***
  %181 = load %"class.sh::TType"* (%"class.sh::TIntermTyped"*)**, %"class.sh::TType"* (%"class.sh::TIntermTyped"*)*** %180, align 8
  %182 = getelementptr inbounds %"class.sh::TType"* (%"class.sh::TIntermTyped"*)*, %"class.sh::TType"* (%"class.sh::TIntermTyped"*)** %181, i64 31
  %183 = load %"class.sh::TType"* (%"class.sh::TIntermTyped"*)*, %"class.sh::TType"* (%"class.sh::TIntermTyped"*)** %182, align 8
  %184 = tail call dereferenceable(128) %"class.sh::TType"* %183(%"class.sh::TIntermTyped"* nonnull %177) #18
  %185 = getelementptr inbounds %"class.sh::TType", %"class.sh::TType"* %184, i64 0, i32 2
  %186 = load i32, i32* %185, align 8
  %187 = icmp eq i32 %186, 2
  br i1 %187, label %188, label %192

; <label>:188:                                    ; preds = %179, %170
  %189 = getelementptr inbounds %"class.sh::TIntermNode"*, %"class.sh::TIntermNode"** %171, i64 1
  %190 = icmp eq %"class.sh::TIntermNode"** %189, %168
  br i1 %190, label %191, label %170

; <label>:191:                                    ; preds = %188, %164
  store i32 2, i32* %2, align 8
  br label %192

; <label>:192:                                    ; preds = %179, %55, %191, %42
  ret void
}

; Function Attrs: nounwind ssp uwtable
define hidden void @_ZN2sh16TIntermAggregate27setBuiltInFunctionPrecisionEv(%"class.sh::TIntermAggregate"* nocapture) local_unnamed_addr #0 align 2 {
  %2 = getelementptr inbounds %"class.sh::TIntermAggregate", %"class.sh::TIntermAggregate"* %0, i64 0, i32 2, i32 0, i32 0, i32 0
  %3 = load %"class.sh::TIntermNode"**, %"class.sh::TIntermNode"*** %2, align 8
  %4 = getelementptr inbounds %"class.sh::TIntermAggregate", %"class.sh::TIntermAggregate"* %0, i64 0, i32 2, i32 0, i32 0, i32 1
  %5 = load %"class.sh::TIntermNode"**, %"class.sh::TIntermNode"*** %4, align 8
  %6 = icmp eq %"class.sh::TIntermNode"** %3, %5
  br i1 %6, label %37, label %7

; <label>:7:                                      ; preds = %1, %34
  %8 = phi %"class.sh::TIntermNode"** [ %35, %34 ], [ %3, %1 ]
  %9 = load %"class.sh::TIntermNode"*, %"class.sh::TIntermNode"** %8, align 8
  %10 = bitcast %"class.sh::TIntermNode"* %9 to %"class.sh::TIntermTyped"* (%"class.sh::TIntermNode"*)***
  %11 = load %"class.sh::TIntermTyped"* (%"class.sh::TIntermNode"*)**, %"class.sh::TIntermTyped"* (%"class.sh::TIntermNode"*)*** %10, align 8
  %12 = getelementptr inbounds %"class.sh::TIntermTyped"* (%"class.sh::TIntermNode"*)*, %"class.sh::TIntermTyped"* (%"class.sh::TIntermNode"*)** %11, i64 4
  %13 = load %"class.sh::TIntermTyped"* (%"class.sh::TIntermNode"*)*, %"class.sh::TIntermTyped"* (%"class.sh::TIntermNode"*)** %12, align 8
  %14 = tail call %"class.sh::TIntermTyped"* %13(%"class.sh::TIntermNode"* %9) #18
  %15 = icmp eq %"class.sh::TIntermTyped"* %14, null
  br i1 %15, label %34, label %16

; <label>:16:                                     ; preds = %7
  %17 = bitcast %"class.sh::TIntermTyped"* %14 to %"class.sh::TType"* (%"class.sh::TIntermTyped"*)***
  %18 = load %"class.sh::TType"* (%"class.sh::TIntermTyped"*)**, %"class.sh::TType"* (%"class.sh::TIntermTyped"*)*** %17, align 8
  %19 = getelementptr inbounds %"class.sh::TType"* (%"class.sh::TIntermTyped"*)*, %"class.sh::TType"* (%"class.sh::TIntermTyped"*)** %18, i64 31
  %20 = load %"class.sh::TType"* (%"class.sh::TIntermTyped"*)*, %"class.sh::TType"* (%"class.sh::TIntermTyped"*)** %19, align 8
  %21 = tail call dereferenceable(128) %"class.sh::TType"* %20(%"class.sh::TIntermTyped"* nonnull %14) #18
  %22 = getelementptr inbounds %"class.sh::TType", %"class.sh::TType"* %21, i64 0, i32 0
  %23 = load i32, i32* %22, align 8
  %24 = add i32 %23, -7
  %25 = icmp ult i32 %24, 24
  br i1 %25, label %26, label %34

; <label>:26:                                     ; preds = %16
  %27 = bitcast %"class.sh::TIntermTyped"* %14 to %"class.sh::TType"* (%"class.sh::TIntermTyped"*)***
  %28 = load %"class.sh::TType"* (%"class.sh::TIntermTyped"*)**, %"class.sh::TType"* (%"class.sh::TIntermTyped"*)*** %27, align 8
  %29 = getelementptr inbounds %"class.sh::TType"* (%"class.sh::TIntermTyped"*)*, %"class.sh::TType"* (%"class.sh::TIntermTyped"*)** %28, i64 31
  %30 = load %"class.sh::TType"* (%"class.sh::TIntermTyped"*)*, %"class.sh::TType"* (%"class.sh::TIntermTyped"*)** %29, align 8
  %31 = tail call dereferenceable(128) %"class.sh::TType"* %30(%"class.sh::TIntermTyped"* nonnull %14) #18
  %32 = getelementptr inbounds %"class.sh::TType", %"class.sh::TType"* %31, i64 0, i32 1
  %33 = load i32, i32* %32, align 4
  br label %37

; <label>:34:                                     ; preds = %7, %16
  %35 = getelementptr inbounds %"class.sh::TIntermNode"*, %"class.sh::TIntermNode"** %8, i64 1
  %36 = icmp eq %"class.sh::TIntermNode"** %35, %5
  br i1 %36, label %37, label %7

; <label>:37:                                     ; preds = %34, %1, %26
  %38 = phi i32 [ %33, %26 ], [ 0, %1 ], [ 0, %34 ]
  %39 = getelementptr inbounds %"class.sh::TIntermAggregate", %"class.sh::TIntermAggregate"* %0, i64 0, i32 5
  %40 = bitcast %"class.sh::TFunction"** %39 to %"class.sh::TSymbol"**
  %41 = load %"class.sh::TSymbol"*, %"class.sh::TSymbol"** %40, align 8
  %42 = tail call { i8*, i64 } @_ZNK2sh7TSymbol4nameEv(%"class.sh::TSymbol"* %41) #18
  %43 = extractvalue { i8*, i64 } %42, 0
  %44 = icmp eq i8* %43, null
  %45 = select i1 %44, i8* getelementptr inbounds ([1 x i8], [1 x i8]* @.str.14, i64 0, i64 0), i8* %43
  %46 = tail call i32 @strcmp(i8* %45, i8* nonnull getelementptr inbounds ([12 x i8], [12 x i8]* @.str, i64 0, i64 0)) #19
  %47 = icmp eq i32 %46, 0
  %48 = getelementptr inbounds %"class.sh::TIntermAggregate", %"class.sh::TIntermAggregate"* %0, i64 0, i32 0, i32 0, i32 1, i32 1
  %49 = select i1 %47, i32 3, i32 %38
  store i32 %49, i32* %48, align 4
  ret void
}

; Function Attrs: norecurse nounwind readonly ssp uwtable
define hidden zeroext i1 @_ZNK2sh15TIntermOperator14isFunctionCallEv(%"class.sh::TIntermOperator"* nocapture readonly) local_unnamed_addr #4 align 2 {
  %2 = getelementptr inbounds %"class.sh::TIntermOperator", %"class.sh::TIntermOperator"* %0, i64 0, i32 1
  %3 = load i32, i32* %2, align 8
  %4 = add i32 %3, -1
  %5 = icmp ult i32 %4, 3
  ret i1 %5
}

; Function Attrs: norecurse nounwind readonly ssp uwtable
define hidden zeroext i1 @_ZNK2sh15TIntermOperator13isConstructorEv(%"class.sh::TIntermOperator"* nocapture readonly) local_unnamed_addr #4 align 2 {
  %2 = getelementptr inbounds %"class.sh::TIntermOperator", %"class.sh::TIntermOperator"* %0, i64 0, i32 1
  %3 = load i32, i32* %2, align 8
  %4 = icmp eq i32 %3, 136
  ret i1 %4
}

; Function Attrs: nounwind ssp uwtable
define hidden void @_ZN2sh16TIntermAggregate24setPrecisionFromChildrenEv(%"class.sh::TIntermAggregate"*) local_unnamed_addr #0 align 2 {
  %2 = getelementptr inbounds %"class.sh::TIntermAggregate", %"class.sh::TIntermAggregate"* %0, i64 0, i32 4
  store i8 1, i8* %2, align 1
  %3 = getelementptr inbounds %"class.sh::TIntermAggregate", %"class.sh::TIntermAggregate"* %0, i64 0, i32 0, i32 0, i32 0
  %4 = bitcast %"class.sh::TIntermAggregate"* %0 to %"class.sh::TType"* (%"class.sh::TIntermTyped"*)***
  %5 = load %"class.sh::TType"* (%"class.sh::TIntermTyped"*)**, %"class.sh::TType"* (%"class.sh::TIntermTyped"*)*** %4, align 8
  %6 = getelementptr inbounds %"class.sh::TType"* (%"class.sh::TIntermTyped"*)*, %"class.sh::TType"* (%"class.sh::TIntermTyped"*)** %5, i64 31
  %7 = load %"class.sh::TType"* (%"class.sh::TIntermTyped"*)*, %"class.sh::TType"* (%"class.sh::TIntermTyped"*)** %6, align 8
  %8 = tail call dereferenceable(128) %"class.sh::TType"* %7(%"class.sh::TIntermTyped"* %3) #18
  %9 = getelementptr inbounds %"class.sh::TType", %"class.sh::TType"* %8, i64 0, i32 0
  %10 = load i32, i32* %9, align 8
  %11 = icmp eq i32 %10, 4
  br i1 %11, label %43, label %12

; <label>:12:                                     ; preds = %1
  %13 = getelementptr inbounds %"class.sh::TIntermAggregate", %"class.sh::TIntermAggregate"* %0, i64 0, i32 2, i32 0, i32 0, i32 0
  %14 = load %"class.sh::TIntermNode"**, %"class.sh::TIntermNode"*** %13, align 8
  %15 = getelementptr inbounds %"class.sh::TIntermAggregate", %"class.sh::TIntermAggregate"* %0, i64 0, i32 2, i32 0, i32 0, i32 1
  %16 = load %"class.sh::TIntermNode"**, %"class.sh::TIntermNode"*** %15, align 8
  %17 = icmp eq %"class.sh::TIntermNode"** %14, %16
  br i1 %17, label %43, label %18

; <label>:18:                                     ; preds = %12, %38
  %19 = phi i32 [ %39, %38 ], [ 0, %12 ]
  %20 = phi %"class.sh::TIntermNode"** [ %40, %38 ], [ %14, %12 ]
  %21 = load %"class.sh::TIntermNode"*, %"class.sh::TIntermNode"** %20, align 8
  %22 = bitcast %"class.sh::TIntermNode"* %21 to %"class.sh::TIntermTyped"* (%"class.sh::TIntermNode"*)***
  %23 = load %"class.sh::TIntermTyped"* (%"class.sh::TIntermNode"*)**, %"class.sh::TIntermTyped"* (%"class.sh::TIntermNode"*)*** %22, align 8
  %24 = getelementptr inbounds %"class.sh::TIntermTyped"* (%"class.sh::TIntermNode"*)*, %"class.sh::TIntermTyped"* (%"class.sh::TIntermNode"*)** %23, i64 4
  %25 = load %"class.sh::TIntermTyped"* (%"class.sh::TIntermNode"*)*, %"class.sh::TIntermTyped"* (%"class.sh::TIntermNode"*)** %24, align 8
  %26 = tail call %"class.sh::TIntermTyped"* %25(%"class.sh::TIntermNode"* %21) #18
  %27 = icmp eq %"class.sh::TIntermTyped"* %26, null
  br i1 %27, label %38, label %28

; <label>:28:                                     ; preds = %18
  %29 = bitcast %"class.sh::TIntermTyped"* %26 to %"class.sh::TType"* (%"class.sh::TIntermTyped"*)***
  %30 = load %"class.sh::TType"* (%"class.sh::TIntermTyped"*)**, %"class.sh::TType"* (%"class.sh::TIntermTyped"*)*** %29, align 8
  %31 = getelementptr inbounds %"class.sh::TType"* (%"class.sh::TIntermTyped"*)*, %"class.sh::TType"* (%"class.sh::TIntermTyped"*)** %30, i64 31
  %32 = load %"class.sh::TType"* (%"class.sh::TIntermTyped"*)*, %"class.sh::TType"* (%"class.sh::TIntermTyped"*)** %31, align 8
  %33 = tail call dereferenceable(128) %"class.sh::TType"* %32(%"class.sh::TIntermTyped"* nonnull %26) #18
  %34 = getelementptr inbounds %"class.sh::TType", %"class.sh::TType"* %33, i64 0, i32 1
  %35 = load i32, i32* %34, align 4
  %36 = icmp sgt i32 %35, %19
  %37 = select i1 %36, i32 %35, i32 %19
  br label %38

; <label>:38:                                     ; preds = %18, %28
  %39 = phi i32 [ %37, %28 ], [ %19, %18 ]
  %40 = getelementptr inbounds %"class.sh::TIntermNode"*, %"class.sh::TIntermNode"** %20, i64 1
  %41 = load %"class.sh::TIntermNode"**, %"class.sh::TIntermNode"*** %15, align 8
  %42 = icmp eq %"class.sh::TIntermNode"** %40, %41
  br i1 %42, label %43, label %18

; <label>:43:                                     ; preds = %38, %12, %1
  %44 = phi i32 [ 0, %1 ], [ 0, %12 ], [ %39, %38 ]
  %45 = getelementptr inbounds %"class.sh::TIntermAggregate", %"class.sh::TIntermAggregate"* %0, i64 0, i32 0, i32 0, i32 1, i32 1
  store i32 %44, i32* %45, align 4
  ret void
}

; Function Attrs: nounwind ssp uwtable
define hidden void @_ZN2sh16TIntermAggregate24setPrecisionForBuiltInOpEv(%"class.sh::TIntermAggregate"*) local_unnamed_addr #0 align 2 {
  %2 = tail call zeroext i1 @_ZN2sh16TIntermAggregate31setPrecisionForSpecialBuiltInOpEv(%"class.sh::TIntermAggregate"* %0)
  br i1 %2, label %48, label %3

; <label>:3:                                      ; preds = %1
  %4 = getelementptr inbounds %"class.sh::TIntermAggregate", %"class.sh::TIntermAggregate"* %0, i64 0, i32 4
  store i8 1, i8* %4, align 1
  %5 = getelementptr inbounds %"class.sh::TIntermAggregate", %"class.sh::TIntermAggregate"* %0, i64 0, i32 0, i32 0, i32 0
  %6 = bitcast %"class.sh::TIntermAggregate"* %0 to %"class.sh::TType"* (%"class.sh::TIntermTyped"*)***
  %7 = load %"class.sh::TType"* (%"class.sh::TIntermTyped"*)**, %"class.sh::TType"* (%"class.sh::TIntermTyped"*)*** %6, align 8
  %8 = getelementptr inbounds %"class.sh::TType"* (%"class.sh::TIntermTyped"*)*, %"class.sh::TType"* (%"class.sh::TIntermTyped"*)** %7, i64 31
  %9 = load %"class.sh::TType"* (%"class.sh::TIntermTyped"*)*, %"class.sh::TType"* (%"class.sh::TIntermTyped"*)** %8, align 8
  %10 = tail call dereferenceable(128) %"class.sh::TType"* %9(%"class.sh::TIntermTyped"* %5) #18
  %11 = getelementptr inbounds %"class.sh::TType", %"class.sh::TType"* %10, i64 0, i32 0
  %12 = load i32, i32* %11, align 8
  %13 = icmp eq i32 %12, 4
  br i1 %13, label %45, label %14

; <label>:14:                                     ; preds = %3
  %15 = getelementptr inbounds %"class.sh::TIntermAggregate", %"class.sh::TIntermAggregate"* %0, i64 0, i32 2, i32 0, i32 0, i32 0
  %16 = load %"class.sh::TIntermNode"**, %"class.sh::TIntermNode"*** %15, align 8
  %17 = getelementptr inbounds %"class.sh::TIntermAggregate", %"class.sh::TIntermAggregate"* %0, i64 0, i32 2, i32 0, i32 0, i32 1
  %18 = load %"class.sh::TIntermNode"**, %"class.sh::TIntermNode"*** %17, align 8
  %19 = icmp eq %"class.sh::TIntermNode"** %16, %18
  br i1 %19, label %45, label %20

; <label>:20:                                     ; preds = %14, %40
  %21 = phi i32 [ %41, %40 ], [ 0, %14 ]
  %22 = phi %"class.sh::TIntermNode"** [ %42, %40 ], [ %16, %14 ]
  %23 = load %"class.sh::TIntermNode"*, %"class.sh::TIntermNode"** %22, align 8
  %24 = bitcast %"class.sh::TIntermNode"* %23 to %"class.sh::TIntermTyped"* (%"class.sh::TIntermNode"*)***
  %25 = load %"class.sh::TIntermTyped"* (%"class.sh::TIntermNode"*)**, %"class.sh::TIntermTyped"* (%"class.sh::TIntermNode"*)*** %24, align 8
  %26 = getelementptr inbounds %"class.sh::TIntermTyped"* (%"class.sh::TIntermNode"*)*, %"class.sh::TIntermTyped"* (%"class.sh::TIntermNode"*)** %25, i64 4
  %27 = load %"class.sh::TIntermTyped"* (%"class.sh::TIntermNode"*)*, %"class.sh::TIntermTyped"* (%"class.sh::TIntermNode"*)** %26, align 8
  %28 = tail call %"class.sh::TIntermTyped"* %27(%"class.sh::TIntermNode"* %23) #18
  %29 = icmp eq %"class.sh::TIntermTyped"* %28, null
  br i1 %29, label %40, label %30

; <label>:30:                                     ; preds = %20
  %31 = bitcast %"class.sh::TIntermTyped"* %28 to %"class.sh::TType"* (%"class.sh::TIntermTyped"*)***
  %32 = load %"class.sh::TType"* (%"class.sh::TIntermTyped"*)**, %"class.sh::TType"* (%"class.sh::TIntermTyped"*)*** %31, align 8
  %33 = getelementptr inbounds %"class.sh::TType"* (%"class.sh::TIntermTyped"*)*, %"class.sh::TType"* (%"class.sh::TIntermTyped"*)** %32, i64 31
  %34 = load %"class.sh::TType"* (%"class.sh::TIntermTyped"*)*, %"class.sh::TType"* (%"class.sh::TIntermTyped"*)** %33, align 8
  %35 = tail call dereferenceable(128) %"class.sh::TType"* %34(%"class.sh::TIntermTyped"* nonnull %28) #18
  %36 = getelementptr inbounds %"class.sh::TType", %"class.sh::TType"* %35, i64 0, i32 1
  %37 = load i32, i32* %36, align 4
  %38 = icmp sgt i32 %37, %21
  %39 = select i1 %38, i32 %37, i32 %21
  br label %40

; <label>:40:                                     ; preds = %30, %20
  %41 = phi i32 [ %39, %30 ], [ %21, %20 ]
  %42 = getelementptr inbounds %"class.sh::TIntermNode"*, %"class.sh::TIntermNode"** %22, i64 1
  %43 = load %"class.sh::TIntermNode"**, %"class.sh::TIntermNode"*** %17, align 8
  %44 = icmp eq %"class.sh::TIntermNode"** %42, %43
  br i1 %44, label %45, label %20

; <label>:45:                                     ; preds = %40, %14, %3
  %46 = phi i32 [ 0, %3 ], [ 0, %14 ], [ %41, %40 ]
  %47 = getelementptr inbounds %"class.sh::TIntermAggregate", %"class.sh::TIntermAggregate"* %0, i64 0, i32 0, i32 0, i32 1, i32 1
  store i32 %46, i32* %47, align 4
  br label %48

; <label>:48:                                     ; preds = %45, %1
  ret void
}

; Function Attrs: nounwind ssp uwtable
define hidden zeroext i1 @_ZN2sh16TIntermAggregate25areChildrenConstQualifiedEv(%"class.sh::TIntermAggregate"* nocapture readonly) local_unnamed_addr #0 align 2 {
  %2 = getelementptr inbounds %"class.sh::TIntermAggregate", %"class.sh::TIntermAggregate"* %0, i64 0, i32 2, i32 0, i32 0, i32 0
  %3 = load %"class.sh::TIntermNode"**, %"class.sh::TIntermNode"*** %2, align 8
  %4 = getelementptr inbounds %"class.sh::TIntermAggregate", %"class.sh::TIntermAggregate"* %0, i64 0, i32 2, i32 0, i32 0, i32 1
  %5 = load %"class.sh::TIntermNode"**, %"class.sh::TIntermNode"*** %4, align 8
  %6 = icmp eq %"class.sh::TIntermNode"** %3, %5
  br i1 %6, label %28, label %7

; <label>:7:                                      ; preds = %1, %25
  %8 = phi %"class.sh::TIntermNode"** [ %26, %25 ], [ %3, %1 ]
  %9 = load %"class.sh::TIntermNode"*, %"class.sh::TIntermNode"** %8, align 8
  %10 = bitcast %"class.sh::TIntermNode"* %9 to %"class.sh::TIntermTyped"* (%"class.sh::TIntermNode"*)***
  %11 = load %"class.sh::TIntermTyped"* (%"class.sh::TIntermNode"*)**, %"class.sh::TIntermTyped"* (%"class.sh::TIntermNode"*)*** %10, align 8
  %12 = getelementptr inbounds %"class.sh::TIntermTyped"* (%"class.sh::TIntermNode"*)*, %"class.sh::TIntermTyped"* (%"class.sh::TIntermNode"*)** %11, i64 4
  %13 = load %"class.sh::TIntermTyped"* (%"class.sh::TIntermNode"*)*, %"class.sh::TIntermTyped"* (%"class.sh::TIntermNode"*)** %12, align 8
  %14 = tail call %"class.sh::TIntermTyped"* %13(%"class.sh::TIntermNode"* %9) #18
  %15 = icmp eq %"class.sh::TIntermTyped"* %14, null
  br i1 %15, label %25, label %16

; <label>:16:                                     ; preds = %7
  %17 = bitcast %"class.sh::TIntermTyped"* %14 to %"class.sh::TType"* (%"class.sh::TIntermTyped"*)***
  %18 = load %"class.sh::TType"* (%"class.sh::TIntermTyped"*)**, %"class.sh::TType"* (%"class.sh::TIntermTyped"*)*** %17, align 8
  %19 = getelementptr inbounds %"class.sh::TType"* (%"class.sh::TIntermTyped"*)*, %"class.sh::TType"* (%"class.sh::TIntermTyped"*)** %18, i64 31
  %20 = load %"class.sh::TType"* (%"class.sh::TIntermTyped"*)*, %"class.sh::TType"* (%"class.sh::TIntermTyped"*)** %19, align 8
  %21 = tail call dereferenceable(128) %"class.sh::TType"* %20(%"class.sh::TIntermTyped"* nonnull %14) #18
  %22 = getelementptr inbounds %"class.sh::TType", %"class.sh::TType"* %21, i64 0, i32 2
  %23 = load i32, i32* %22, align 8
  %24 = icmp eq i32 %23, 2
  br i1 %24, label %25, label %28

; <label>:25:                                     ; preds = %7, %16
  %26 = getelementptr inbounds %"class.sh::TIntermNode"*, %"class.sh::TIntermNode"** %8, i64 1
  %27 = icmp eq %"class.sh::TIntermNode"** %26, %5
  br i1 %27, label %28, label %7

; <label>:28:                                     ; preds = %16, %25, %1
  %29 = phi i1 [ true, %1 ], [ true, %25 ], [ false, %16 ]
  ret i1 %29
}

; Function Attrs: nounwind ssp uwtable
define hidden zeroext i1 @_ZN2sh16TIntermAggregate31setPrecisionForSpecialBuiltInOpEv(%"class.sh::TIntermAggregate"* nocapture) local_unnamed_addr #0 align 2 {
  %2 = getelementptr inbounds %"class.sh::TIntermAggregate", %"class.sh::TIntermAggregate"* %0, i64 0, i32 0, i32 1
  %3 = load i32, i32* %2, align 8
  switch i32 %3, label %59 [
    i32 122, label %4
    i32 123, label %22
    i32 128, label %57
    i32 129, label %57
  ]

; <label>:4:                                      ; preds = %1
  %5 = getelementptr inbounds %"class.sh::TIntermAggregate", %"class.sh::TIntermAggregate"* %0, i64 0, i32 2, i32 0, i32 0, i32 0
  %6 = load %"class.sh::TIntermNode"**, %"class.sh::TIntermNode"*** %5, align 8
  %7 = load %"class.sh::TIntermNode"*, %"class.sh::TIntermNode"** %6, align 8
  %8 = bitcast %"class.sh::TIntermNode"* %7 to %"class.sh::TIntermTyped"* (%"class.sh::TIntermNode"*)***
  %9 = load %"class.sh::TIntermTyped"* (%"class.sh::TIntermNode"*)**, %"class.sh::TIntermTyped"* (%"class.sh::TIntermNode"*)*** %8, align 8
  %10 = getelementptr inbounds %"class.sh::TIntermTyped"* (%"class.sh::TIntermNode"*)*, %"class.sh::TIntermTyped"* (%"class.sh::TIntermNode"*)** %9, i64 4
  %11 = load %"class.sh::TIntermTyped"* (%"class.sh::TIntermNode"*)*, %"class.sh::TIntermTyped"* (%"class.sh::TIntermNode"*)** %10, align 8
  %12 = tail call %"class.sh::TIntermTyped"* %11(%"class.sh::TIntermNode"* %7) #18
  %13 = bitcast %"class.sh::TIntermTyped"* %12 to %"class.sh::TType"* (%"class.sh::TIntermTyped"*)***
  %14 = load %"class.sh::TType"* (%"class.sh::TIntermTyped"*)**, %"class.sh::TType"* (%"class.sh::TIntermTyped"*)*** %13, align 8
  %15 = getelementptr inbounds %"class.sh::TType"* (%"class.sh::TIntermTyped"*)*, %"class.sh::TType"* (%"class.sh::TIntermTyped"*)** %14, i64 31
  %16 = load %"class.sh::TType"* (%"class.sh::TIntermTyped"*)*, %"class.sh::TType"* (%"class.sh::TIntermTyped"*)** %15, align 8
  %17 = tail call dereferenceable(128) %"class.sh::TType"* %16(%"class.sh::TIntermTyped"* %12) #18
  %18 = getelementptr inbounds %"class.sh::TType", %"class.sh::TType"* %17, i64 0, i32 1
  %19 = load i32, i32* %18, align 4
  %20 = getelementptr inbounds %"class.sh::TIntermAggregate", %"class.sh::TIntermAggregate"* %0, i64 0, i32 0, i32 0, i32 1, i32 1
  store i32 %19, i32* %20, align 4
  %21 = getelementptr inbounds %"class.sh::TIntermAggregate", %"class.sh::TIntermAggregate"* %0, i64 0, i32 4
  store i8 1, i8* %21, align 1
  br label %59

; <label>:22:                                     ; preds = %1
  %23 = getelementptr inbounds %"class.sh::TIntermAggregate", %"class.sh::TIntermAggregate"* %0, i64 0, i32 2, i32 0, i32 0, i32 0
  %24 = load %"class.sh::TIntermNode"**, %"class.sh::TIntermNode"*** %23, align 8
  %25 = load %"class.sh::TIntermNode"*, %"class.sh::TIntermNode"** %24, align 8
  %26 = bitcast %"class.sh::TIntermNode"* %25 to %"class.sh::TIntermTyped"* (%"class.sh::TIntermNode"*)***
  %27 = load %"class.sh::TIntermTyped"* (%"class.sh::TIntermNode"*)**, %"class.sh::TIntermTyped"* (%"class.sh::TIntermNode"*)*** %26, align 8
  %28 = getelementptr inbounds %"class.sh::TIntermTyped"* (%"class.sh::TIntermNode"*)*, %"class.sh::TIntermTyped"* (%"class.sh::TIntermNode"*)** %27, i64 4
  %29 = load %"class.sh::TIntermTyped"* (%"class.sh::TIntermNode"*)*, %"class.sh::TIntermTyped"* (%"class.sh::TIntermNode"*)** %28, align 8
  %30 = tail call %"class.sh::TIntermTyped"* %29(%"class.sh::TIntermNode"* %25) #18
  %31 = bitcast %"class.sh::TIntermTyped"* %30 to %"class.sh::TType"* (%"class.sh::TIntermTyped"*)***
  %32 = load %"class.sh::TType"* (%"class.sh::TIntermTyped"*)**, %"class.sh::TType"* (%"class.sh::TIntermTyped"*)*** %31, align 8
  %33 = getelementptr inbounds %"class.sh::TType"* (%"class.sh::TIntermTyped"*)*, %"class.sh::TType"* (%"class.sh::TIntermTyped"*)** %32, i64 31
  %34 = load %"class.sh::TType"* (%"class.sh::TIntermTyped"*)*, %"class.sh::TType"* (%"class.sh::TIntermTyped"*)** %33, align 8
  %35 = tail call dereferenceable(128) %"class.sh::TType"* %34(%"class.sh::TIntermTyped"* %30) #18
  %36 = getelementptr inbounds %"class.sh::TType", %"class.sh::TType"* %35, i64 0, i32 1
  %37 = load i32, i32* %36, align 4
  %38 = load %"class.sh::TIntermNode"**, %"class.sh::TIntermNode"*** %23, align 8
  %39 = getelementptr inbounds %"class.sh::TIntermNode"*, %"class.sh::TIntermNode"** %38, i64 1
  %40 = load %"class.sh::TIntermNode"*, %"class.sh::TIntermNode"** %39, align 8
  %41 = bitcast %"class.sh::TIntermNode"* %40 to %"class.sh::TIntermTyped"* (%"class.sh::TIntermNode"*)***
  %42 = load %"class.sh::TIntermTyped"* (%"class.sh::TIntermNode"*)**, %"class.sh::TIntermTyped"* (%"class.sh::TIntermNode"*)*** %41, align 8
  %43 = getelementptr inbounds %"class.sh::TIntermTyped"* (%"class.sh::TIntermNode"*)*, %"class.sh::TIntermTyped"* (%"class.sh::TIntermNode"*)** %42, i64 4
  %44 = load %"class.sh::TIntermTyped"* (%"class.sh::TIntermNode"*)*, %"class.sh::TIntermTyped"* (%"class.sh::TIntermNode"*)** %43, align 8
  %45 = tail call %"class.sh::TIntermTyped"* %44(%"class.sh::TIntermNode"* %40) #18
  %46 = bitcast %"class.sh::TIntermTyped"* %45 to %"class.sh::TType"* (%"class.sh::TIntermTyped"*)***
  %47 = load %"class.sh::TType"* (%"class.sh::TIntermTyped"*)**, %"class.sh::TType"* (%"class.sh::TIntermTyped"*)*** %46, align 8
  %48 = getelementptr inbounds %"class.sh::TType"* (%"class.sh::TIntermTyped"*)*, %"class.sh::TType"* (%"class.sh::TIntermTyped"*)** %47, i64 31
  %49 = load %"class.sh::TType"* (%"class.sh::TIntermTyped"*)*, %"class.sh::TType"* (%"class.sh::TIntermTyped"*)** %48, align 8
  %50 = tail call dereferenceable(128) %"class.sh::TType"* %49(%"class.sh::TIntermTyped"* %45) #18
  %51 = getelementptr inbounds %"class.sh::TType", %"class.sh::TType"* %50, i64 0, i32 1
  %52 = load i32, i32* %51, align 4
  %53 = icmp sgt i32 %37, %52
  %54 = select i1 %53, i32 %37, i32 %52
  %55 = getelementptr inbounds %"class.sh::TIntermAggregate", %"class.sh::TIntermAggregate"* %0, i64 0, i32 0, i32 0, i32 1, i32 1
  store i32 %54, i32* %55, align 4
  %56 = getelementptr inbounds %"class.sh::TIntermAggregate", %"class.sh::TIntermAggregate"* %0, i64 0, i32 4
  store i8 1, i8* %56, align 1
  br label %59

; <label>:57:                                     ; preds = %1, %1
  %58 = getelementptr inbounds %"class.sh::TIntermAggregate", %"class.sh::TIntermAggregate"* %0, i64 0, i32 0, i32 0, i32 1, i32 1
  store i32 3, i32* %58, align 4
  br label %59

; <label>:59:                                     ; preds = %1, %57, %22, %4
  %60 = phi i1 [ true, %57 ], [ true, %22 ], [ true, %4 ], [ false, %1 ]
  ret i1 %60
}

; Function Attrs: nounwind ssp uwtable
define hidden i8* @_ZNK2sh16TIntermAggregate12functionNameEv(%"class.sh::TIntermAggregate"* nocapture readonly) local_unnamed_addr #0 align 2 {
  %2 = getelementptr inbounds %"class.sh::TIntermAggregate", %"class.sh::TIntermAggregate"* %0, i64 0, i32 0, i32 1
  %3 = load i32, i32* %2, align 8
  %4 = add i32 %3, -1
  %5 = icmp ult i32 %4, 3
  br i1 %5, label %6, label %14

; <label>:6:                                      ; preds = %1
  %7 = getelementptr inbounds %"class.sh::TIntermAggregate", %"class.sh::TIntermAggregate"* %0, i64 0, i32 5
  %8 = bitcast %"class.sh::TFunction"** %7 to %"class.sh::TSymbol"**
  %9 = load %"class.sh::TSymbol"*, %"class.sh::TSymbol"** %8, align 8
  %10 = tail call { i8*, i64 } @_ZNK2sh7TSymbol4nameEv(%"class.sh::TSymbol"* %9) #18
  %11 = extractvalue { i8*, i64 } %10, 0
  %12 = icmp eq i8* %11, null
  %13 = select i1 %12, i8* getelementptr inbounds ([1 x i8], [1 x i8]* @.str.14, i64 0, i64 0), i8* %11
  br label %16

; <label>:14:                                     ; preds = %1
  %15 = tail call i8* @_Z17GetOperatorString9TOperator(i32 %3) #18
  br label %16

; <label>:16:                                     ; preds = %14, %6
  %17 = phi i8* [ %13, %6 ], [ %15, %14 ]
  ret i8* %17
}

declare i8* @_Z17GetOperatorString9TOperator(i32) local_unnamed_addr #1

; Function Attrs: nounwind ssp uwtable
define hidden zeroext i1 @_ZNK2sh16TIntermAggregate16hasConstantValueEv(%"class.sh::TIntermAggregate"* nocapture readonly) unnamed_addr #0 align 2 {
  %2 = getelementptr inbounds %"class.sh::TIntermAggregate", %"class.sh::TIntermAggregate"* %0, i64 0, i32 0, i32 1
  %3 = load i32, i32* %2, align 8
  %4 = icmp eq i32 %3, 136
  br i1 %4, label %5, label %27

; <label>:5:                                      ; preds = %1
  %6 = getelementptr inbounds %"class.sh::TIntermAggregate", %"class.sh::TIntermAggregate"* %0, i64 0, i32 2, i32 0, i32 0, i32 0
  %7 = load %"class.sh::TIntermNode"**, %"class.sh::TIntermNode"*** %6, align 8
  %8 = getelementptr inbounds %"class.sh::TIntermAggregate", %"class.sh::TIntermAggregate"* %0, i64 0, i32 2, i32 0, i32 0, i32 1
  %9 = load %"class.sh::TIntermNode"**, %"class.sh::TIntermNode"*** %8, align 8
  %10 = icmp eq %"class.sh::TIntermNode"** %7, %9
  br i1 %10, label %27, label %13

; <label>:11:                                     ; preds = %13
  %12 = icmp eq %"class.sh::TIntermNode"** %26, %9
  br i1 %12, label %27, label %13

; <label>:13:                                     ; preds = %5, %11
  %14 = phi %"class.sh::TIntermNode"** [ %26, %11 ], [ %7, %5 ]
  %15 = load %"class.sh::TIntermNode"*, %"class.sh::TIntermNode"** %14, align 8
  %16 = bitcast %"class.sh::TIntermNode"* %15 to %"class.sh::TIntermTyped"* (%"class.sh::TIntermNode"*)***
  %17 = load %"class.sh::TIntermTyped"* (%"class.sh::TIntermNode"*)**, %"class.sh::TIntermTyped"* (%"class.sh::TIntermNode"*)*** %16, align 8
  %18 = getelementptr inbounds %"class.sh::TIntermTyped"* (%"class.sh::TIntermNode"*)*, %"class.sh::TIntermTyped"* (%"class.sh::TIntermNode"*)** %17, i64 4
  %19 = load %"class.sh::TIntermTyped"* (%"class.sh::TIntermNode"*)*, %"class.sh::TIntermTyped"* (%"class.sh::TIntermNode"*)** %18, align 8
  %20 = tail call %"class.sh::TIntermTyped"* %19(%"class.sh::TIntermNode"* %15) #18
  %21 = bitcast %"class.sh::TIntermTyped"* %20 to i1 (%"class.sh::TIntermTyped"*)***
  %22 = load i1 (%"class.sh::TIntermTyped"*)**, i1 (%"class.sh::TIntermTyped"*)*** %21, align 8
  %23 = getelementptr inbounds i1 (%"class.sh::TIntermTyped"*)*, i1 (%"class.sh::TIntermTyped"*)** %22, i64 28
  %24 = load i1 (%"class.sh::TIntermTyped"*)*, i1 (%"class.sh::TIntermTyped"*)** %23, align 8
  %25 = tail call zeroext i1 %24(%"class.sh::TIntermTyped"* %20) #18
  %26 = getelementptr inbounds %"class.sh::TIntermNode"*, %"class.sh::TIntermNode"** %14, i64 1
  br i1 %25, label %11, label %27

; <label>:27:                                     ; preds = %13, %11, %5, %1
  %28 = phi i1 [ false, %1 ], [ true, %5 ], [ false, %13 ], [ true, %11 ]
  ret i1 %28
}

; Function Attrs: nounwind ssp uwtable
define hidden %"class.sh::TConstantUnion"* @_ZNK2sh16TIntermAggregate16getConstantValueEv(%"class.sh::TIntermAggregate"*) unnamed_addr #0 align 2 {
  %2 = bitcast %"class.sh::TIntermAggregate"* %0 to i1 (%"class.sh::TIntermAggregate"*)***
  %3 = load i1 (%"class.sh::TIntermAggregate"*)**, i1 (%"class.sh::TIntermAggregate"*)*** %2, align 8
  %4 = getelementptr inbounds i1 (%"class.sh::TIntermAggregate"*)*, i1 (%"class.sh::TIntermAggregate"*)** %3, i64 28
  %5 = load i1 (%"class.sh::TIntermAggregate"*)*, i1 (%"class.sh::TIntermAggregate"*)** %4, align 8
  %6 = tail call zeroext i1 %5(%"class.sh::TIntermAggregate"* %0) #18
  br i1 %6, label %7, label %341

; <label>:7:                                      ; preds = %1
  %8 = getelementptr inbounds %"class.sh::TIntermAggregate", %"class.sh::TIntermAggregate"* %0, i64 0, i32 0, i32 0, i32 0
  %9 = bitcast %"class.sh::TIntermAggregate"* %0 to %"class.sh::TType"* (%"class.sh::TIntermTyped"*)***
  %10 = load %"class.sh::TType"* (%"class.sh::TIntermTyped"*)**, %"class.sh::TType"* (%"class.sh::TIntermTyped"*)*** %9, align 8
  %11 = getelementptr inbounds %"class.sh::TType"* (%"class.sh::TIntermTyped"*)*, %"class.sh::TType"* (%"class.sh::TIntermTyped"*)** %10, i64 31
  %12 = load %"class.sh::TType"* (%"class.sh::TIntermTyped"*)*, %"class.sh::TType"* (%"class.sh::TIntermTyped"*)** %11, align 8
  %13 = tail call dereferenceable(128) %"class.sh::TType"* %12(%"class.sh::TIntermTyped"* %8) #18
  %14 = getelementptr inbounds %"class.sh::TType", %"class.sh::TType"* %13, i64 0, i32 8
  %15 = load %"class.sh::TVector"*, %"class.sh::TVector"** %14, align 8
  %16 = icmp eq %"class.sh::TVector"* %15, null
  br i1 %16, label %92, label %17

; <label>:17:                                     ; preds = %7
  %18 = getelementptr inbounds %"class.sh::TVector", %"class.sh::TVector"* %15, i64 0, i32 0, i32 0, i32 0
  %19 = load i32*, i32** %18, align 8
  %20 = getelementptr inbounds %"class.sh::TVector", %"class.sh::TVector"* %15, i64 0, i32 0, i32 0, i32 1
  %21 = load i32*, i32** %20, align 8
  %22 = icmp eq i32* %19, %21
  br i1 %22, label %92, label %23

; <label>:23:                                     ; preds = %17
  %24 = getelementptr inbounds %"class.sh::TIntermAggregate", %"class.sh::TIntermAggregate"* %0, i64 0, i32 2, i32 0, i32 0, i32 0
  %25 = load %"class.sh::TIntermNode"**, %"class.sh::TIntermNode"*** %24, align 8
  %26 = load %"class.sh::TIntermNode"*, %"class.sh::TIntermNode"** %25, align 8
  %27 = bitcast %"class.sh::TIntermNode"* %26 to %"class.sh::TIntermTyped"* (%"class.sh::TIntermNode"*)***
  %28 = load %"class.sh::TIntermTyped"* (%"class.sh::TIntermNode"*)**, %"class.sh::TIntermTyped"* (%"class.sh::TIntermNode"*)*** %27, align 8
  %29 = getelementptr inbounds %"class.sh::TIntermTyped"* (%"class.sh::TIntermNode"*)*, %"class.sh::TIntermTyped"* (%"class.sh::TIntermNode"*)** %28, i64 4
  %30 = load %"class.sh::TIntermTyped"* (%"class.sh::TIntermNode"*)*, %"class.sh::TIntermTyped"* (%"class.sh::TIntermNode"*)** %29, align 8
  %31 = tail call %"class.sh::TIntermTyped"* %30(%"class.sh::TIntermNode"* %26) #18
  %32 = bitcast %"class.sh::TIntermTyped"* %31 to %"class.sh::TType"* (%"class.sh::TIntermTyped"*)***
  %33 = load %"class.sh::TType"* (%"class.sh::TIntermTyped"*)**, %"class.sh::TType"* (%"class.sh::TIntermTyped"*)*** %32, align 8
  %34 = getelementptr inbounds %"class.sh::TType"* (%"class.sh::TIntermTyped"*)*, %"class.sh::TType"* (%"class.sh::TIntermTyped"*)** %33, i64 31
  %35 = load %"class.sh::TType"* (%"class.sh::TIntermTyped"*)*, %"class.sh::TType"* (%"class.sh::TIntermTyped"*)** %34, align 8
  %36 = tail call dereferenceable(128) %"class.sh::TType"* %35(%"class.sh::TIntermTyped"* %31) #18
  %37 = tail call i64 @_ZNK2sh5TType13getObjectSizeEv(%"class.sh::TType"* nonnull %36) #18
  %38 = load %"class.sh::TType"* (%"class.sh::TIntermTyped"*)**, %"class.sh::TType"* (%"class.sh::TIntermTyped"*)*** %9, align 8
  %39 = getelementptr inbounds %"class.sh::TType"* (%"class.sh::TIntermTyped"*)*, %"class.sh::TType"* (%"class.sh::TIntermTyped"*)** %38, i64 31
  %40 = load %"class.sh::TType"* (%"class.sh::TIntermTyped"*)*, %"class.sh::TType"* (%"class.sh::TIntermTyped"*)** %39, align 8
  %41 = tail call dereferenceable(128) %"class.sh::TType"* %40(%"class.sh::TIntermTyped"* %8) #18
  %42 = getelementptr inbounds %"class.sh::TType", %"class.sh::TType"* %41, i64 0, i32 8
  %43 = bitcast %"class.sh::TVector"** %42 to %"class.std::__1::vector"**
  %44 = load %"class.std::__1::vector"*, %"class.std::__1::vector"** %43, align 8
  %45 = getelementptr inbounds %"class.std::__1::vector", %"class.std::__1::vector"* %44, i64 0, i32 0, i32 1
  %46 = load i32*, i32** %45, align 8
  %47 = getelementptr inbounds i32, i32* %46, i64 -1
  %48 = load i32, i32* %47, align 4
  %49 = zext i32 %48 to i64
  %50 = mul i64 %37, %49
  %51 = tail call { i64, i1 } @llvm.umul.with.overflow.i64(i64 %50, i64 8)
  %52 = extractvalue { i64, i1 } %51, 1
  %53 = extractvalue { i64, i1 } %51, 0
  %54 = select i1 %52, i64 -1, i64 %53
  %55 = tail call %class.TPoolAllocator* @_Z22GetGlobalPoolAllocatorv() #18
  %56 = tail call i8* @_ZN14TPoolAllocator8allocateEm(%class.TPoolAllocator* %55, i64 %54) #18
  %57 = bitcast i8* %56 to %"class.sh::TConstantUnion"*
  %58 = icmp eq i64 %50, 0
  br i1 %58, label %65, label %59

; <label>:59:                                     ; preds = %23
  %60 = getelementptr inbounds %"class.sh::TConstantUnion", %"class.sh::TConstantUnion"* %57, i64 %50
  br label %61

; <label>:61:                                     ; preds = %61, %59
  %62 = phi %"class.sh::TConstantUnion"* [ %57, %59 ], [ %63, %61 ]
  tail call void @_ZN2sh14TConstantUnionC1Ev(%"class.sh::TConstantUnion"* %62) #18
  %63 = getelementptr inbounds %"class.sh::TConstantUnion", %"class.sh::TConstantUnion"* %62, i64 1
  %64 = icmp eq %"class.sh::TConstantUnion"* %63, %60
  br i1 %64, label %65, label %61

; <label>:65:                                     ; preds = %61, %23
  %66 = load %"class.sh::TIntermNode"**, %"class.sh::TIntermNode"*** %24, align 8
  %67 = getelementptr inbounds %"class.sh::TIntermAggregate", %"class.sh::TIntermAggregate"* %0, i64 0, i32 2, i32 0, i32 0, i32 1
  %68 = load %"class.sh::TIntermNode"**, %"class.sh::TIntermNode"*** %67, align 8
  %69 = icmp eq %"class.sh::TIntermNode"** %66, %68
  br i1 %69, label %341, label %70

; <label>:70:                                     ; preds = %65
  %71 = shl i64 %37, 3
  br label %72

; <label>:72:                                     ; preds = %70, %72
  %73 = phi i64 [ 0, %70 ], [ %89, %72 ]
  %74 = phi %"class.sh::TIntermNode"** [ %66, %70 ], [ %90, %72 ]
  %75 = load %"class.sh::TIntermNode"*, %"class.sh::TIntermNode"** %74, align 8
  %76 = bitcast %"class.sh::TIntermNode"* %75 to %"class.sh::TIntermTyped"* (%"class.sh::TIntermNode"*)***
  %77 = load %"class.sh::TIntermTyped"* (%"class.sh::TIntermNode"*)**, %"class.sh::TIntermTyped"* (%"class.sh::TIntermNode"*)*** %76, align 8
  %78 = getelementptr inbounds %"class.sh::TIntermTyped"* (%"class.sh::TIntermNode"*)*, %"class.sh::TIntermTyped"* (%"class.sh::TIntermNode"*)** %77, i64 4
  %79 = load %"class.sh::TIntermTyped"* (%"class.sh::TIntermNode"*)*, %"class.sh::TIntermTyped"* (%"class.sh::TIntermNode"*)** %78, align 8
  %80 = tail call %"class.sh::TIntermTyped"* %79(%"class.sh::TIntermNode"* %75) #18
  %81 = bitcast %"class.sh::TIntermTyped"* %80 to %"class.sh::TConstantUnion"* (%"class.sh::TIntermTyped"*)***
  %82 = load %"class.sh::TConstantUnion"* (%"class.sh::TIntermTyped"*)**, %"class.sh::TConstantUnion"* (%"class.sh::TIntermTyped"*)*** %81, align 8
  %83 = getelementptr inbounds %"class.sh::TConstantUnion"* (%"class.sh::TIntermTyped"*)*, %"class.sh::TConstantUnion"* (%"class.sh::TIntermTyped"*)** %82, i64 29
  %84 = load %"class.sh::TConstantUnion"* (%"class.sh::TIntermTyped"*)*, %"class.sh::TConstantUnion"* (%"class.sh::TIntermTyped"*)** %83, align 8
  %85 = tail call %"class.sh::TConstantUnion"* %84(%"class.sh::TIntermTyped"* %80) #18
  %86 = getelementptr inbounds %"class.sh::TConstantUnion", %"class.sh::TConstantUnion"* %57, i64 %73
  %87 = bitcast %"class.sh::TConstantUnion"* %86 to i8*
  %88 = bitcast %"class.sh::TConstantUnion"* %85 to i8*
  tail call void @llvm.memcpy.p0i8.p0i8.i64(i8* align 1 %87, i8* align 1 %88, i64 %71, i1 false)
  %89 = add i64 %73, %37
  %90 = getelementptr inbounds %"class.sh::TIntermNode"*, %"class.sh::TIntermNode"** %74, i64 1
  %91 = icmp eq %"class.sh::TIntermNode"** %90, %68
  br i1 %91, label %341, label %72

; <label>:92:                                     ; preds = %17, %7
  %93 = getelementptr inbounds %"class.sh::TIntermAggregate", %"class.sh::TIntermAggregate"* %0, i64 0, i32 0, i32 0
  %94 = bitcast %"class.sh::TIntermAggregate"* %0 to %"class.sh::TType"* (%"class.sh::TIntermExpression"*)***
  %95 = load %"class.sh::TType"* (%"class.sh::TIntermExpression"*)**, %"class.sh::TType"* (%"class.sh::TIntermExpression"*)*** %94, align 8
  %96 = getelementptr inbounds %"class.sh::TType"* (%"class.sh::TIntermExpression"*)*, %"class.sh::TType"* (%"class.sh::TIntermExpression"*)** %95, i64 31
  %97 = load %"class.sh::TType"* (%"class.sh::TIntermExpression"*)*, %"class.sh::TType"* (%"class.sh::TIntermExpression"*)** %96, align 8
  %98 = tail call dereferenceable(128) %"class.sh::TType"* %97(%"class.sh::TIntermExpression"* %93) #18
  %99 = tail call i64 @_ZNK2sh5TType13getObjectSizeEv(%"class.sh::TType"* nonnull %98) #18
  %100 = tail call { i64, i1 } @llvm.umul.with.overflow.i64(i64 %99, i64 8)
  %101 = extractvalue { i64, i1 } %100, 1
  %102 = extractvalue { i64, i1 } %100, 0
  %103 = select i1 %101, i64 -1, i64 %102
  %104 = tail call %class.TPoolAllocator* @_Z22GetGlobalPoolAllocatorv() #18
  %105 = tail call i8* @_ZN14TPoolAllocator8allocateEm(%class.TPoolAllocator* %104, i64 %103) #18
  %106 = bitcast i8* %105 to %"class.sh::TConstantUnion"*
  %107 = icmp eq i64 %99, 0
  br i1 %107, label %114, label %108

; <label>:108:                                    ; preds = %92
  %109 = getelementptr inbounds %"class.sh::TConstantUnion", %"class.sh::TConstantUnion"* %106, i64 %99
  br label %110

; <label>:110:                                    ; preds = %110, %108
  %111 = phi %"class.sh::TConstantUnion"* [ %106, %108 ], [ %112, %110 ]
  tail call void @_ZN2sh14TConstantUnionC1Ev(%"class.sh::TConstantUnion"* %111) #18
  %112 = getelementptr inbounds %"class.sh::TConstantUnion", %"class.sh::TConstantUnion"* %111, i64 1
  %113 = icmp eq %"class.sh::TConstantUnion"* %112, %109
  br i1 %113, label %114, label %110

; <label>:114:                                    ; preds = %110, %92
  %115 = load %"class.sh::TType"* (%"class.sh::TIntermTyped"*)**, %"class.sh::TType"* (%"class.sh::TIntermTyped"*)*** %9, align 8
  %116 = getelementptr inbounds %"class.sh::TType"* (%"class.sh::TIntermTyped"*)*, %"class.sh::TType"* (%"class.sh::TIntermTyped"*)** %115, i64 31
  %117 = load %"class.sh::TType"* (%"class.sh::TIntermTyped"*)*, %"class.sh::TType"* (%"class.sh::TIntermTyped"*)** %116, align 8
  %118 = tail call dereferenceable(128) %"class.sh::TType"* %117(%"class.sh::TIntermTyped"* %8) #18
  %119 = getelementptr inbounds %"class.sh::TType", %"class.sh::TType"* %118, i64 0, i32 0
  %120 = load i32, i32* %119, align 8
  %121 = getelementptr inbounds %"class.sh::TIntermAggregate", %"class.sh::TIntermAggregate"* %0, i64 0, i32 2, i32 0
  %122 = getelementptr inbounds %"class.sh::TIntermAggregate", %"class.sh::TIntermAggregate"* %0, i64 0, i32 2, i32 0, i32 0, i32 1
  %123 = bitcast %"class.sh::TIntermNode"*** %122 to i64*
  %124 = load i64, i64* %123, align 8
  %125 = bitcast %"class.std::__1::vector.16"* %121 to i64*
  %126 = load i64, i64* %125, align 8
  %127 = sub i64 %124, %126
  %128 = icmp eq i64 %127, 8
  br i1 %128, label %131, label %129

; <label>:129:                                    ; preds = %114
  %130 = getelementptr inbounds %"class.std::__1::vector.16", %"class.std::__1::vector.16"* %121, i64 0, i32 0, i32 0
  br label %298

; <label>:131:                                    ; preds = %114
  %132 = inttoptr i64 %126 to %"class.sh::TIntermNode"**
  %133 = getelementptr inbounds %"class.std::__1::vector.16", %"class.std::__1::vector.16"* %121, i64 0, i32 0, i32 0
  %134 = load %"class.sh::TIntermNode"*, %"class.sh::TIntermNode"** %132, align 8
  %135 = bitcast %"class.sh::TIntermNode"* %134 to %"class.sh::TIntermTyped"* (%"class.sh::TIntermNode"*)***
  %136 = load %"class.sh::TIntermTyped"* (%"class.sh::TIntermNode"*)**, %"class.sh::TIntermTyped"* (%"class.sh::TIntermNode"*)*** %135, align 8
  %137 = getelementptr inbounds %"class.sh::TIntermTyped"* (%"class.sh::TIntermNode"*)*, %"class.sh::TIntermTyped"* (%"class.sh::TIntermNode"*)** %136, i64 4
  %138 = load %"class.sh::TIntermTyped"* (%"class.sh::TIntermNode"*)*, %"class.sh::TIntermTyped"* (%"class.sh::TIntermNode"*)** %137, align 8
  %139 = tail call %"class.sh::TIntermTyped"* %138(%"class.sh::TIntermNode"* %134) #18
  %140 = bitcast %"class.sh::TIntermTyped"* %139 to %"class.sh::TConstantUnion"* (%"class.sh::TIntermTyped"*)***
  %141 = load %"class.sh::TConstantUnion"* (%"class.sh::TIntermTyped"*)**, %"class.sh::TConstantUnion"* (%"class.sh::TIntermTyped"*)*** %140, align 8
  %142 = getelementptr inbounds %"class.sh::TConstantUnion"* (%"class.sh::TIntermTyped"*)*, %"class.sh::TConstantUnion"* (%"class.sh::TIntermTyped"*)** %141, i64 29
  %143 = load %"class.sh::TConstantUnion"* (%"class.sh::TIntermTyped"*)*, %"class.sh::TConstantUnion"* (%"class.sh::TIntermTyped"*)** %142, align 8
  %144 = tail call %"class.sh::TConstantUnion"* %143(%"class.sh::TIntermTyped"* %139) #18
  %145 = bitcast %"class.sh::TIntermTyped"* %139 to %"class.sh::TType"* (%"class.sh::TIntermTyped"*)***
  %146 = load %"class.sh::TType"* (%"class.sh::TIntermTyped"*)**, %"class.sh::TType"* (%"class.sh::TIntermTyped"*)*** %145, align 8
  %147 = getelementptr inbounds %"class.sh::TType"* (%"class.sh::TIntermTyped"*)*, %"class.sh::TType"* (%"class.sh::TIntermTyped"*)** %146, i64 31
  %148 = load %"class.sh::TType"* (%"class.sh::TIntermTyped"*)*, %"class.sh::TType"* (%"class.sh::TIntermTyped"*)** %147, align 8
  %149 = tail call dereferenceable(128) %"class.sh::TType"* %148(%"class.sh::TIntermTyped"* %139) #18
  %150 = tail call i64 @_ZNK2sh5TType13getObjectSizeEv(%"class.sh::TType"* nonnull %149) #18
  %151 = icmp eq i64 %150, 1
  %152 = load %"class.sh::TType"* (%"class.sh::TIntermTyped"*)**, %"class.sh::TType"* (%"class.sh::TIntermTyped"*)*** %9, align 8
  %153 = getelementptr inbounds %"class.sh::TType"* (%"class.sh::TIntermTyped"*)*, %"class.sh::TType"* (%"class.sh::TIntermTyped"*)** %152, i64 31
  %154 = load %"class.sh::TType"* (%"class.sh::TIntermTyped"*)*, %"class.sh::TType"* (%"class.sh::TIntermTyped"*)** %153, align 8
  %155 = tail call dereferenceable(128) %"class.sh::TType"* %154(%"class.sh::TIntermTyped"* nonnull %8) #18
