; ModuleID = '/home/firefox/firefox/mozilla-unified/obj-opt-x86_64-pc-linux-gnu/extensions/spellcheck/hunspell/src/Unified_cpp_hunspell_src0.cpp'
source_filename = "/home/firefox/firefox/mozilla-unified/obj-opt-x86_64-pc-linux-gnu/extensions/spellcheck/hunspell/src/Unified_cpp_hunspell_src0.cpp"
target datalayout = "e-m:e-i64:64-f80:128-n8:16:32:64-S128"
target triple = "x86_64-pc-linux-gnu"

%struct.lang_map = type { i8*, i32 }
%"class.mozilla::Atomic" = type { %"class.mozilla::detail::AtomicBaseIncDec" }
%"class.mozilla::detail::AtomicBaseIncDec" = type { %"class.mozilla::detail::AtomicBase" }
%"class.mozilla::detail::AtomicBase" = type { %"struct.std::atomic" }
%"struct.std::atomic" = type { %"struct.std::__atomic_base" }
%"struct.std::__atomic_base" = type { i64 }
%class.AffEntry = type <{ i32 (...)**, %"class.std::__cxx11::basic_string", %"class.std::__cxx11::basic_string", i8, i8, i16, [4 x i8], %union.anon.0, i8*, i16*, i16, [6 x i8] }>
%"class.std::__cxx11::basic_string" = type { %"struct.std::__cxx11::basic_string<char, std::char_traits<char>, std::allocator<char> >::_Alloc_hider", i64, %union.anon }
%"struct.std::__cxx11::basic_string<char, std::char_traits<char>, std::allocator<char> >::_Alloc_hider" = type { i8* }
%union.anon = type { i64, [8 x i8] }
%union.anon.0 = type { %struct.anon }
%struct.anon = type { [12 x i8], i8* }
%class.PfxEntry = type { %class.AffEntry.base, %class.AffixMgr*, %class.PfxEntry*, %class.PfxEntry*, %class.PfxEntry*, %class.PfxEntry* }
%class.AffEntry.base = type <{ i32 (...)**, %"class.std::__cxx11::basic_string", %"class.std::__cxx11::basic_string", i8, i8, i16, [4 x i8], %union.anon.0, i8*, i16*, i16 }>
%class.AffixMgr = type <{ [256 x %class.PfxEntry*], [256 x %class.SfxEntry*], [256 x %class.PfxEntry*], [256 x %class.SfxEntry*], %"class.std::vector"*, %class.HashMgr*, %"class.std::__cxx11::basic_string", %"class.std::__cxx11::basic_string", %"class.std::__cxx11::basic_string", %struct.cs_info*, i32, i32, i16, i16, i16, i16, i16, i16, i16, [2 x i8], i32, i32, i32, i32, i32, i32, i16, i16, i16, i16, i32, i8, [3 x i8], %"class.std::vector.5", %class.RepList*, %class.RepList*, i8, [7 x i8], %"class.std::vector.10", i8, [7 x i8], %"class.std::vector.15", i8, [7 x i8], %"class.std::vector.20", i32, i8, [3 x i8], %"class.std::vector.25", %struct.phonetable*, i32, i32, i32, i32, i32, i32, i32, i32, %"class.std::__cxx11::basic_string", %"class.std::vector.1", %"class.std::__cxx11::basic_string", i8*, i8*, i32, i16, [2 x i8], i8*, %class.SfxEntry*, %class.PfxEntry*, i32, [4 x i8], %"class.std::__cxx11::basic_string", %"class.std::vector.1", %"class.std::__cxx11::basic_string", %"class.std::vector.1", %"class.std::__cxx11::basic_string", %"class.std::__cxx11::basic_string", i32, i16, i16, i16, i16, i16, i16, i32, i16, [2 x i8], i32, i32, i32, [65536 x i8], [4 x i8] }>
%"class.std::vector" = type { %"struct.std::_Vector_base.31" }
%"struct.std::_Vector_base.31" = type { %"struct.std::_Vector_base<HashMgr *, std::allocator<HashMgr *> >::_Vector_impl" }
%"struct.std::_Vector_base<HashMgr *, std::allocator<HashMgr *> >::_Vector_impl" = type { %class.HashMgr**, %class.HashMgr**, %class.HashMgr** }
%class.HashMgr = type { i32, %struct.hentry**, i32, i32, i32, i16, i32, %"class.std::__cxx11::basic_string", %"class.std::__cxx11::basic_string", %struct.cs_info*, %"class.std::__cxx11::basic_string", %"class.std::vector.1", i32, i16**, i16*, i32, i8** }
%struct.hentry = type { i8, i8, i16, i16*, %struct.hentry*, %struct.hentry*, i8, [1 x i8] }
%struct.cs_info = type { i8, i8, i8 }
%"class.std::vector.5" = type { %"struct.std::_Vector_base.6" }
%"struct.std::_Vector_base.6" = type { %"struct.std::_Vector_base<replentry, std::allocator<replentry> >::_Vector_impl" }
%"struct.std::_Vector_base<replentry, std::allocator<replentry> >::_Vector_impl" = type { %struct.replentry*, %struct.replentry*, %struct.replentry* }
%struct.replentry = type { %"class.std::__cxx11::basic_string", [4 x %"class.std::__cxx11::basic_string"] }
%class.RepList = type { %struct.replentry**, i32, i32 }
%"class.std::vector.10" = type { %"struct.std::_Vector_base.11" }
%"struct.std::_Vector_base.11" = type { %"struct.std::_Vector_base<std::vector<std::__cxx11::basic_string<char>, std::allocator<std::__cxx11::basic_string<char> > >, std::allocator<std::vector<std::__cxx11::basic_string<char>, std::allocator<std::__cxx11::basic_string<char> > > > >::_Vector_impl" }
%"struct.std::_Vector_base<std::vector<std::__cxx11::basic_string<char>, std::allocator<std::__cxx11::basic_string<char> > >, std::allocator<std::vector<std::__cxx11::basic_string<char>, std::allocator<std::__cxx11::basic_string<char> > > > >::_Vector_impl" = type { %"class.std::vector.15"*, %"class.std::vector.15"*, %"class.std::vector.15"* }
%"class.std::vector.15" = type { %"struct.std::_Vector_base.16" }
%"struct.std::_Vector_base.16" = type { %"struct.std::_Vector_base<std::__cxx11::basic_string<char>, std::allocator<std::__cxx11::basic_string<char> > >::_Vector_impl" }
%"struct.std::_Vector_base<std::__cxx11::basic_string<char>, std::allocator<std::__cxx11::basic_string<char> > >::_Vector_impl" = type { %"class.std::__cxx11::basic_string"*, %"class.std::__cxx11::basic_string"*, %"class.std::__cxx11::basic_string"* }
%"class.std::vector.20" = type { %"struct.std::_Vector_base.21" }
%"struct.std::_Vector_base.21" = type { %"struct.std::_Vector_base<patentry, std::allocator<patentry> >::_Vector_impl" }
%"struct.std::_Vector_base<patentry, std::allocator<patentry> >::_Vector_impl" = type { %struct.patentry*, %struct.patentry*, %struct.patentry* }
%struct.patentry = type <{ %"class.std::__cxx11::basic_string", %"class.std::__cxx11::basic_string", %"class.std::__cxx11::basic_string", i16, i16, [4 x i8] }>
%"class.std::vector.25" = type { %"struct.std::_Vector_base.26" }
%"struct.std::_Vector_base.26" = type { %"struct.std::_Vector_base<std::vector<unsigned short, std::allocator<unsigned short> >, std::allocator<std::vector<unsigned short, std::allocator<unsigned short> > > >::_Vector_impl" }
%"struct.std::_Vector_base<std::vector<unsigned short, std::allocator<unsigned short> >, std::allocator<std::vector<unsigned short, std::allocator<unsigned short> > > >::_Vector_impl" = type { %"class.std::vector.30"*, %"class.std::vector.30"*, %"class.std::vector.30"* }
%"class.std::vector.30" = type { %"struct.std::_Vector_base.35" }
%"struct.std::_Vector_base.35" = type { %"struct.std::_Vector_base<unsigned short, std::allocator<unsigned short> >::_Vector_impl" }
%"struct.std::_Vector_base<unsigned short, std::allocator<unsigned short> >::_Vector_impl" = type { i16*, i16*, i16* }
%struct.phonetable = type { i8, %"class.std::vector.15", [256 x i32] }
%class.SfxEntry = type { %class.AffEntry.base, %class.AffixMgr*, %"class.std::__cxx11::basic_string", %class.SfxEntry*, %class.SfxEntry*, %class.SfxEntry*, %class.SfxEntry*, %class.SfxEntry*, %class.SfxEntry*, %class.SfxEntry* }
%"class.std::vector.1" = type { %"struct.std::_Vector_base" }
%"struct.std::_Vector_base" = type { %"struct.std::_Vector_base<w_char, std::allocator<w_char> >::_Vector_impl" }
%"struct.std::_Vector_base<w_char, std::allocator<w_char> >::_Vector_impl" = type { %struct.w_char*, %struct.w_char*, %struct.w_char* }
%struct.w_char = type { i8, i8 }
%class.Hunspell = type { %class.HunspellImpl* }
%class.HunspellImpl = type { %"class.std::vector.71", %class.AffixMgr*, %"class.std::vector", %class.SuggestMgr*, i8*, %"class.std::__cxx11::basic_string", %struct.cs_info*, i32, i32, i32, %"class.std::vector.15" }
%"class.std::vector.71" = type { %"struct.std::_Vector_base.72" }
%"struct.std::_Vector_base.72" = type { %"struct.std::_Vector_base<char, std::allocator<char> >::_Vector_impl" }
%"struct.std::_Vector_base<char, std::allocator<char> >::_Vector_impl" = type { i8*, i8*, i8* }
%class.SuggestMgr = type { i8*, i64, %"class.std::vector.1", i8*, i64, %"class.std::vector.1", %class.AffixMgr*, i32, %struct.cs_info*, i32, i32, i32, i32, i32, i32 }
%"class.std::allocator" = type { i8 }
%"class.__gnu_cxx::new_allocator" = type { i8 }
%class.FileMgr = type { i32, %class.nsCOMPtr, %class.nsLineBuffer }
%class.nsCOMPtr = type { %class.nsCOMPtr_base }
%class.nsCOMPtr_base = type { %class.nsISupports* }
%class.nsISupports = type { i32 (...)** }
%class.nsLineBuffer = type { [4097 x i8], i8*, i8* }
%"class.std::allocator.2" = type { i8 }
%"class.std::allocator.27" = type { i8 }
%"class.std::allocator.22" = type { i8 }
%"class.std::allocator.17" = type { i8 }
%"class.std::allocator.12" = type { i8 }
%"class.std::allocator.7" = type { i8 }
%"class.__gnu_cxx::__normal_iterator.45" = type { i8* }
%"class.__gnu_cxx::__normal_iterator" = type { i8* }
%class.entries_container = type <{ %"class.std::vector.46", %class.AffixMgr*, i8, [7 x i8] }>
%"class.std::vector.46" = type { %"struct.std::_Vector_base.47" }
%"struct.std::_Vector_base.47" = type { %"struct.std::_Vector_base<AffEntry *, std::allocator<AffEntry *> >::_Vector_impl" }
%"struct.std::_Vector_base<AffEntry *, std::allocator<AffEntry *> >::_Vector_impl" = type { %class.AffEntry**, %class.AffEntry**, %class.AffEntry** }
%"class.__gnu_cxx::__normal_iterator.51" = type { %class.AffEntry** }
%"class.mozilla::Span" = type { %"class.mozilla::Span<const char, 18446744073709551615>::storage_type" }
%"class.mozilla::Span<const char, 18446744073709551615>::storage_type" = type { %"class.mozilla::span_details::extent_type", i8* }
%"class.mozilla::span_details::extent_type" = type { i64 }
%"class.mozilla::UniquePtr" = type { %"struct.mozilla::Pair" }
%"struct.mozilla::Pair" = type { %"struct.mozilla::detail::PairHelper" }
%"struct.mozilla::detail::PairHelper" = type { %"class.mozilla::Encoder"* }
%"class.mozilla::Encoder" = type { i8 }
%"class.mozilla::UniquePtr.55" = type { %"struct.mozilla::Pair.56" }
%"struct.mozilla::Pair.56" = type { %"struct.mozilla::detail::PairHelper.57" }
%"struct.mozilla::detail::PairHelper.57" = type { %"class.mozilla::Decoder"* }
%"class.mozilla::Decoder" = type { i8 }
%"class.mozilla::Span.60" = type { %"class.mozilla::Span<unsigned char, 18446744073709551615>::storage_type" }
%"class.mozilla::Span<unsigned char, 18446744073709551615>::storage_type" = type { %"class.mozilla::span_details::extent_type", i8* }
%"class.mozilla::Span.61" = type { %"class.mozilla::Span<char16_t, 18446744073709551615>::storage_type" }
%"class.mozilla::Span<char16_t, 18446744073709551615>::storage_type" = type { %"class.mozilla::span_details::extent_type", i16* }
%"class.mozilla::Tuple" = type { %"struct.mozilla::detail::TupleImpl.base", [4 x i8] }
%"struct.mozilla::detail::TupleImpl.base" = type <{ %"struct.mozilla::detail::TupleImpl.62", i32 }>
%"struct.mozilla::detail::TupleImpl.62" = type { %"struct.mozilla::detail::TupleImpl.63", i64 }
%"struct.mozilla::detail::TupleImpl.63" = type { i64 }
%"class.mozilla::Span.65" = type { %"class.mozilla::Span<const unsigned char, 18446744073709551615>::storage_type" }
%"class.mozilla::Span<const unsigned char, 18446744073709551615>::storage_type" = type { %"class.mozilla::span_details::extent_type", i8* }
%"class.mozilla::Tuple.66" = type { %"struct.mozilla::detail::TupleImpl.67" }
%"struct.mozilla::detail::TupleImpl.67" = type { %"struct.mozilla::detail::TupleImpl.68", i32* }
%"struct.mozilla::detail::TupleImpl.68" = type { %"struct.mozilla::detail::TupleImpl.69", i64* }
%"struct.mozilla::detail::TupleImpl.69" = type { i64* }
%"class.mozilla::Span.70" = type { %"class.mozilla::Span<const char16_t, 18446744073709551615>::storage_type" }
%"class.mozilla::Span<const char16_t, 18446744073709551615>::storage_type" = type { %"class.mozilla::span_details::extent_type", i16* }
%"class.mozilla::Encoding" = type { i8 }
%"class.__gnu_cxx::__normal_iterator.80" = type { %struct.replentry* }
%"class.__gnu_cxx::__normal_iterator.53" = type { %struct.w_char* }
%"class.std::vector.39" = type { %"struct.std::_Vector_base.40" }
%"struct.std::_Vector_base.40" = type { %"struct.std::_Vector_base<metachar_data, std::allocator<metachar_data> >::_Vector_impl" }
%"struct.std::_Vector_base<metachar_data, std::allocator<metachar_data> >::_Vector_impl" = type { %struct.metachar_data*, %struct.metachar_data*, %struct.metachar_data* }
%struct.metachar_data = type { i16, i16, i32 }
%"class.std::allocator.41" = type { i8 }
%"class.__gnu_cxx::new_allocator.42" = type { i8 }
%"class.__gnu_cxx::__normal_iterator.44" = type { %struct.w_char* }
%"class.__gnu_cxx::__normal_iterator.82" = type { %"class.std::vector.30"* }
%"class.__gnu_cxx::__normal_iterator.83" = type { %struct.patentry* }
%struct.guessword = type { i8*, i8, i8* }
%"class.std::__cxx11::basic_ostringstream" = type { %"class.std::basic_ostream.base", %"class.std::__cxx11::basic_stringbuf", %"class.std::basic_ios" }
%"class.std::basic_ostream.base" = type { i32 (...)** }
%"class.std::__cxx11::basic_stringbuf" = type { %"class.std::basic_streambuf", i32, %"class.std::__cxx11::basic_string" }
%"class.std::basic_streambuf" = type { i32 (...)**, i8*, i8*, i8*, i8*, i8*, i8*, %"class.std::locale" }
%"class.std::locale" = type { %"class.std::locale::_Impl"* }
%"class.std::locale::_Impl" = type { i32, %"class.std::locale::facet"**, i64, %"class.std::locale::facet"**, i8** }
%"class.std::locale::facet" = type <{ i32 (...)**, i32, [4 x i8] }>
%"class.std::basic_ios" = type { %"class.std::ios_base", %"class.std::basic_ostream"*, i8, i8, %"class.std::basic_streambuf"*, %"class.std::ctype"*, %"class.std::num_put"*, %"class.std::num_get"* }
%"class.std::ios_base" = type { i32 (...)**, i64, i64, i32, i32, i32, %"struct.std::ios_base::_Callback_list"*, %"struct.std::ios_base::_Words", [8 x %"struct.std::ios_base::_Words"], i32, %"struct.std::ios_base::_Words"*, %"class.std::locale" }
%"struct.std::ios_base::_Callback_list" = type { %"struct.std::ios_base::_Callback_list"*, void (i32, %"class.std::ios_base"*, i32)*, i32, i32 }
%"struct.std::ios_base::_Words" = type { i8*, i64 }
%"class.std::basic_ostream" = type { i32 (...)**, %"class.std::basic_ios" }
%"class.std::ctype" = type <{ %"class.std::locale::facet.base", [4 x i8], %struct.__locale_struct*, i8, [7 x i8], i32*, i32*, i16*, i8, [256 x i8], [256 x i8], i8, [6 x i8] }>
%"class.std::locale::facet.base" = type <{ i32 (...)**, i32 }>
%struct.__locale_struct = type { [13 x %struct.__locale_data*], i16*, i32*, i32*, [13 x i8*] }
%struct.__locale_data = type opaque
%"class.std::num_put" = type { %"class.std::locale::facet.base", [4 x i8] }
%"class.std::num_get" = type { %"class.std::locale::facet.base", [4 x i8] }
%"class.__gnu_cxx::new_allocator.3" = type { i8 }
%"class.(anonymous namespace)::is_any_of" = type { %"class.std::__cxx11::basic_string" }
%"class.__gnu_cxx::__normal_iterator.85" = type { %struct.replentry* }
%"class.__gnu_cxx::__normal_iterator.54" = type { %"class.std::__cxx11::basic_string"* }
%"class.__gnu_cxx::__normal_iterator.87" = type { %struct.patentry* }
%"class.std::allocator.36" = type { i8 }
%"class.__gnu_cxx::__normal_iterator.89" = type { %"class.std::vector.30"* }
%"class.__gnu_cxx::__normal_iterator.92" = type { i16* }
%"class.__gnu_cxx::__normal_iterator.94" = type { %"class.std::vector.15"* }
%"class.__gnu_cxx::__normal_iterator.73" = type { %"class.std::__cxx11::basic_string"* }
%"class.std::reverse_iterator" = type { %"class.__gnu_cxx::__normal_iterator" }
%"class.std::basic_ifstream" = type { %"class.std::basic_istream.base", %"class.std::basic_filebuf", %"class.std::basic_ios" }
%"class.std::basic_istream.base" = type { i32 (...)**, i64 }
%"class.std::basic_filebuf" = type { %"class.std::basic_streambuf", %union.pthread_mutex_t, %"class.std::__basic_file", i32, %struct.__mbstate_t, %struct.__mbstate_t, %struct.__mbstate_t, i8*, i64, i8, i8, i8, i8, i8*, i8*, i8, %"class.std::codecvt"*, i8*, i64, i8*, i8* }
%union.pthread_mutex_t = type { %struct.__pthread_mutex_s }
%struct.__pthread_mutex_s = type { i32, i32, i32, i32, i32, i16, i16, %struct.__pthread_internal_list }
%struct.__pthread_internal_list = type { %struct.__pthread_internal_list*, %struct.__pthread_internal_list* }
%"class.std::__basic_file" = type <{ %struct._IO_FILE*, i8, [7 x i8] }>
%struct._IO_FILE = type { i32, i8*, i8*, i8*, i8*, i8*, i8*, i8*, i8*, i8*, i8*, i8*, %struct._IO_marker*, %struct._IO_FILE*, i32, i32, i64, i16, i8, [1 x i8], i8*, i64, %struct._IO_codecvt*, %struct._IO_wide_data*, %struct._IO_FILE*, i8*, i64, i32, [20 x i8] }
%struct._IO_marker = type opaque
%struct._IO_codecvt = type opaque
%struct._IO_wide_data = type opaque
%struct.__mbstate_t = type { i32, %union.anon.52 }
%union.anon.52 = type { i32 }
%"class.std::codecvt" = type { %"class.std::__codecvt_abstract_base.base", %struct.__locale_struct* }
%"class.std::__codecvt_abstract_base.base" = type { %"class.std::locale::facet.base" }
%"class.std::__cxx11::basic_stringstream" = type { %"class.std::basic_iostream.base", %"class.std::__cxx11::basic_stringbuf", %"class.std::basic_ios" }
%"class.std::basic_iostream.base" = type { %"class.std::basic_istream.base", %"class.std::basic_ostream.base" }
%"class.std::basic_istream" = type { i32 (...)**, i64, %"class.std::basic_ios" }
%"class.std::basic_iostream" = type { %"class.std::basic_istream.base", %"class.std::basic_ostream.base", %"class.std::basic_ios" }
%"struct.mozilla::detail::TupleImpl" = type <{ %"struct.mozilla::detail::TupleImpl.62", i32, [4 x i8] }>
%"struct.__gnu_cxx::__ops::_Iter_pred" = type { %"class.(anonymous namespace)::is_any_of" }
%"class.__gnu_cxx::__normal_iterator.90" = type { i16* }
%"class.std::allocator.32" = type { i8 }
%"struct.std::vector<std::__cxx11::basic_string<char>, std::allocator<std::__cxx11::basic_string<char> > >::_Temporary_value" = type { %"class.std::vector.15"*, %"union.std::aligned_storage<32, 8>::type" }
%"union.std::aligned_storage<32, 8>::type" = type { [32 x i8] }
%"class.__gnu_cxx::__normal_iterator.102" = type { %class.HashMgr** }
%"class.std::reverse_iterator.74" = type { %"class.__gnu_cxx::__normal_iterator.54" }
%struct.Hunhandle = type opaque
%"class.std::reverse_iterator.76" = type { %"class.__gnu_cxx::__normal_iterator.44" }
%"class.__gnu_cxx::__normal_iterator.103" = type { %"class.std::vector.15"* }
%"struct.std::vector<w_char, std::allocator<w_char> >::_Temporary_value" = type <{ %"class.std::vector.1"*, %"union.std::aligned_storage<2, 1>::type", [6 x i8] }>
%"union.std::aligned_storage<2, 1>::type" = type { [2 x i8] }
%"class.std::allocator.48" = type { i8 }
%"class.__gnu_cxx::new_allocator.49" = type { i8 }
%"class.std::move_iterator" = type { %class.AffEntry** }
%"class.__gnu_cxx::__normal_iterator.78" = type { %class.AffEntry** }
%"class.mozilla::DefaultDelete" = type { i8 }
%"class.mozilla::DefaultDelete.58" = type { i8 }
%"struct.mozilla::detail::AutoRecordAtomicAccess" = type { i8 }
%"struct.__gnu_cxx::__ops::_Iter_less_val" = type { i8 }
%"class.__gnu_cxx::new_allocator.8" = type { i8 }
%"class.__gnu_cxx::new_allocator.13" = type { i8 }
%"class.__gnu_cxx::new_allocator.18" = type { i8 }
%"class.__gnu_cxx::new_allocator.23" = type { i8 }
%"class.__gnu_cxx::new_allocator.28" = type { i8 }
%"class.std::move_iterator.79" = type { %"class.std::__cxx11::basic_string"* }
%"class.std::move_iterator.81" = type { %struct.metachar_data* }
%"struct.__gnu_cxx::__ops::_Iter_less_iter" = type { i8 }
%"struct.__gnu_cxx::__ops::_Val_less_iter" = type { i8 }
%"class.std::move_iterator.84" = type { %struct.replentry* }
%"class.std::move_iterator.86" = type { %struct.patentry* }
%"class.std::move_iterator.88" = type { %"class.std::vector.30"* }
%"class.__gnu_cxx::new_allocator.37" = type { i8 }
%"struct.__gnu_cxx::__ops::_Iter_equals_val" = type { i8* }
%"class.std::move_iterator.91" = type { i16* }
%"class.std::move_iterator.93" = type { %"class.std::vector.15"* }
%"class.std::move_iterator.95" = type { %struct.w_char* }
%"struct.__gnu_cxx::__ops::_Iter_equals_val.96" = type { %"class.std::__cxx11::basic_string"* }
%"struct.mozilla::detail::TupleImpl.64" = type { i8 }
%"class.__gnu_cxx::new_allocator.33" = type { i8 }
%"class.__gnu_cxx::__normal_iterator.98" = type { %class.HashMgr** }
%"class.std::move_iterator.99" = type { %class.HashMgr** }
%"class.std::move_iterator.100" = type { i8* }

$_ZN7mozilla21CountingAllocatorBaseI17HunspellAllocatorE12CountingFreeEPv = comdat any

$_ZN8AffEntryC2Ev = comdat any

$_ZN8PfxEntry14test_conditionEPKc = comdat any

$_ZSt13binary_searchIPttEbT_S1_RKT0_ = comdat any

$_ZN8PfxEntry6getKeyEv = comdat any

$_Z11HENTRY_FINDP6hentryPKc = comdat any

$_Z11HENTRY_DATAP6hentry = comdat any

$_Z12HENTRY_DATA2PK6hentry = comdat any

$_ZN8PfxEntry7getFlagEv = comdat any

$_ZN8SfxEntry14test_conditionEPKcS1_ = comdat any

$_ZN8PfxEntry7getContEv = comdat any

$_ZSt13binary_searchIPKttEbT_S2_RKT0_ = comdat any

$_ZN8PfxEntry10getContLenEv = comdat any

$_ZN8PfxEntry8getMorphEv = comdat any

$_ZNKSt6vectorIP7HashMgrSaIS1_EEixEm = comdat any

$_ZNSt6vectorI9replentrySaIS0_EEC2Ev = comdat any

$_ZNSt6vectorIS_INSt7__cxx1112basic_stringIcSt11char_traitsIcESaIcEEESaIS5_EESaIS7_EEC2Ev = comdat any

$_ZNSt6vectorINSt7__cxx1112basic_stringIcSt11char_traitsIcESaIcEEESaIS5_EEC2Ev = comdat any

$_ZNSt6vectorI8patentrySaIS0_EEC2Ev = comdat any

$_ZNSt6vectorIS_ItSaItEESaIS1_EEC2Ev = comdat any

$_ZNSt6vectorI6w_charSaIS0_EEC2Ev = comdat any

$_ZN8PfxEntry7getNextEv = comdat any

$_ZN8SfxEntry7getNextEv = comdat any

$_ZN10phonetableD2Ev = comdat any

$_ZNSt6vectorI6w_charSaIS0_EED2Ev = comdat any

$_ZNSt6vectorIS_ItSaItEESaIS1_EED2Ev = comdat any

$_ZNSt6vectorI8patentrySaIS0_EED2Ev = comdat any

$_ZNSt6vectorINSt7__cxx1112basic_stringIcSt11char_traitsIcESaIcEEESaIS5_EED2Ev = comdat any

$_ZNSt6vectorIS_INSt7__cxx1112basic_stringIcSt11char_traitsIcESaIcEEESaIS5_EESaIS7_EED2Ev = comdat any

$_ZNSt6vectorI9replentrySaIS0_EED2Ev = comdat any

$_ZN7FileMgrD2Ev = comdat any

$_ZNK7FileMgr10getlinenumEv = comdat any

$_ZSteqIcSt11char_traitsIcESaIcEEbRKNSt7__cxx1112basic_stringIT_T0_T1_EEPKS5_ = comdat any

$_ZNSt6vectorINSt7__cxx1112basic_stringIcSt11char_traitsIcESaIcEEESaIS5_EE9push_backEOS5_ = comdat any

$_ZN8PfxEntry9setFlgNxtEPS_ = comdat any

$_ZN8PfxEntry7setNextEPS_ = comdat any

$_ZN8PfxEntry9setNextEQEPS_ = comdat any

$_ZN8PfxEntry9setNextNEEPS_ = comdat any

$_ZN8PfxEntry9getNextEQEv = comdat any

$_ZN8PfxEntry9getNextNEEv = comdat any

$_ZN8SfxEntry6getKeyEv = comdat any

$_ZN8SfxEntry7getFlagEv = comdat any

$_ZN8SfxEntry9setFlgNxtEPS_ = comdat any

$_ZN8SfxEntry7setNextEPS_ = comdat any

$_ZN8SfxEntry9setNextEQEPS_ = comdat any

$_ZN8SfxEntry9setNextNEEPS_ = comdat any

$_ZN8SfxEntry9getNextEQEv = comdat any

$_ZN8SfxEntry9getNextNEEv = comdat any

$_ZN8AffixMgr8isSubsetEPKcS1_ = comdat any

$_ZSt3minImERKT_S2_S2_ = comdat any

$_ZNKSt6vectorI9replentrySaIS0_EE5emptyEv = comdat any

$_ZNKSt6vectorI9replentrySaIS0_EE4sizeEv = comdat any

$_ZNSt6vectorI9replentrySaIS0_EEixEm = comdat any

$_ZN8AffixMgr15candidate_checkEPKci = comdat any

$_ZNKSt6vectorI8patentrySaIS0_EE4sizeEv = comdat any

$_ZNSt6vectorI8patentrySaIS0_EEixEm = comdat any

$_ZNKSt6vectorI6w_charSaIS0_EE4sizeEv = comdat any

$_ZNSt6vectorI6w_charSaIS0_EEixEm = comdat any

$_ZNKSt6vectorI6w_charSaIS0_EE5emptyEv = comdat any

$_ZNSaI13metachar_dataEC2Ev = comdat any

$_ZNSt6vectorI13metachar_dataSaIS0_EEC2EmRKS1_ = comdat any

$_ZNKSt6vectorIS_ItSaItEESaIS1_EE4sizeEv = comdat any

$_ZNSt6vectorIS_ItSaItEESaIS1_EEixEm = comdat any

$_ZNKSt6vectorItSaItEE4sizeEv = comdat any

$_ZNSt6vectorItSaItEEixEm = comdat any

$_ZNSt6vectorI13metachar_dataSaIS0_EEixEm = comdat any

$_ZNSt6vectorI13metachar_dataSaIS0_EE6resizeEm = comdat any

$_ZNSt6vectorI13metachar_dataSaIS0_EED2Ev = comdat any

$_ZSt13binary_searchIN9__gnu_cxx17__normal_iteratorIPcNSt7__cxx1112basic_stringIcSt11char_traitsIcESaIcEEEEEcEbT_SA_RKT0_ = comdat any

$_ZSt13binary_searchIN9__gnu_cxx17__normal_iteratorIP6w_charSt6vectorIS2_SaIS2_EEEES2_EbT_S8_RKT0_ = comdat any

$_ZNSt6vectorI6w_charSaIS0_EE5beginEv = comdat any

$_ZNSt6vectorI6w_charSaIS0_EE3endEv = comdat any

$_ZNKSt6vectorIS_ItSaItEESaIS1_EE5emptyEv = comdat any

$_ZN8SfxEntry7getContEv = comdat any

$_ZN8SfxEntry10getContLenEv = comdat any

$_ZSt13binary_searchIPtiEbT_S1_RKT0_ = comdat any

$_ZSt13binary_searchIPtcEbT_S1_RKT0_ = comdat any

$_ZNKSt6vectorI8patentrySaIS0_EE5emptyEv = comdat any

$_ZN8AffixMgr11isRevSubsetEPKcS1_i = comdat any

$_ZN8SfxEntry9getKeyLenEv = comdat any

$_ZN8SfxEntry8getMorphEv = comdat any

$_ZN8SfxEntry9getFlgNxtEv = comdat any

$_ZN8SfxEntry8getAffixEv = comdat any

$_ZNK8SfxEntry10allowCrossEv = comdat any

$_ZNK8PfxEntry10allowCrossEv = comdat any

$_ZN8PfxEntry9getKeyLenEv = comdat any

$_ZN8PfxEntry9getFlgNxtEv = comdat any

$_ZNKSt6vectorIP7HashMgrSaIS1_EE4sizeEv = comdat any

$_ZN9__gnu_cxxneIPKcNSt7__cxx1112basic_stringIcSt11char_traitsIcESaIcEEEEEbRKNS_17__normal_iteratorIT_T0_EESE_ = comdat any

$_ZNSt7__cxx1112basic_stringIcSt11char_traitsIcESaIcEEC2IN9__gnu_cxx17__normal_iteratorIPKcS4_EEvEET_SB_RKS3_ = comdat any

$_ZNSt7__cxx1112basic_stringIcSt11char_traitsIcESaIcEE6assignIN9__gnu_cxx17__normal_iteratorIPKcS4_EEvEERS4_T_SC_ = comdat any

$_ZSt4sortIN9__gnu_cxx17__normal_iteratorIPcNSt7__cxx1112basic_stringIcSt11char_traitsIcESaIcEEEEEEvT_SA_ = comdat any

$_ZSt4sortIN9__gnu_cxx17__normal_iteratorIP6w_charSt6vectorIS2_SaIS2_EEEEEvT_S8_ = comdat any

$_ZNSt6vectorI9replentrySaIS0_EE7reserveEm = comdat any

$_ZNSt6vectorI9replentrySaIS0_EE9push_backEOS0_ = comdat any

$_ZN9replentryC2Ev = comdat any

$_ZN9replentryD2Ev = comdat any

$_ZN9__gnu_cxx17__normal_iteratorIPKcNSt7__cxx1112basic_stringIcSt11char_traitsIcESaIcEEEEC2IPcEERKNS0_IT_NS_11__enable_ifIXsr3std10__are_sameISC_SB_EE7__valueES8_E6__typeEEE = comdat any

$_ZN9__gnu_cxxneIPKcPcNSt7__cxx1112basic_stringIcSt11char_traitsIcESaIcEEEEEbRKNS_17__normal_iteratorIT_T1_EERKNSA_IT0_SC_EE = comdat any

$_ZN9__gnu_cxxmiIPKcPcNSt7__cxx1112basic_stringIcSt11char_traitsIcESaIcEEEEEDTmicldtfp_4baseEcldtfp0_4baseEERKNS_17__normal_iteratorIT_T1_EERKNSB_IT0_SD_EE = comdat any

$_ZNSt6vectorI9replentrySaIS0_EE5clearEv = comdat any

$_ZNK9__gnu_cxx17__normal_iteratorIPKcNSt7__cxx1112basic_stringIcSt11char_traitsIcESaIcEEEEdeEv = comdat any

$_ZNSt6vectorI9replentrySaIS0_EE4backEv = comdat any

$_ZNK9__gnu_cxx17__normal_iteratorIPKcNSt7__cxx1112basic_stringIcSt11char_traitsIcESaIcEEEEplEl = comdat any

$_ZN10phonetableC2Ev = comdat any

$_ZNKSt6vectorINSt7__cxx1112basic_stringIcSt11char_traitsIcESaIcEEESaIS5_EE4sizeEv = comdat any

$_ZNSt6vectorINSt7__cxx1112basic_stringIcSt11char_traitsIcESaIcEEESaIS5_EE4backEv = comdat any

$_ZNSt6vectorINSt7__cxx1112basic_stringIcSt11char_traitsIcESaIcEEESaIS5_EE5clearEv = comdat any

$_ZNSt6vectorI8patentrySaIS0_EE7reserveEm = comdat any

$_ZNSt6vectorI8patentrySaIS0_EE9push_backEOS0_ = comdat any

$_ZN8patentryC2Ev = comdat any

$_ZN8patentryD2Ev = comdat any

$_ZNSt6vectorI8patentrySaIS0_EE4backEv = comdat any

$_ZNSt6vectorIS_ItSaItEESaIS1_EE7reserveEm = comdat any

$_ZNSt6vectorIS_ItSaItEESaIS1_EE9push_backEOS1_ = comdat any

$_ZNSt6vectorItSaItEEC2Ev = comdat any

$_ZNSt6vectorItSaItEED2Ev = comdat any

$_ZSt4findIN9__gnu_cxx17__normal_iteratorIPKcNSt7__cxx1112basic_stringIcSt11char_traitsIcESaIcEEEEEcET_SB_SB_RKT0_ = comdat any

$_ZNSt6vectorIS_ItSaItEESaIS1_EE4backEv = comdat any

$_ZNSt6vectorItSaItEE9push_backEOt = comdat any

$_ZN9__gnu_cxx17__normal_iteratorIPKcNSt7__cxx1112basic_stringIcSt11char_traitsIcESaIcEEEEppEv = comdat any

$_ZNKSt6vectorItSaItEE5emptyEv = comdat any

$_ZNSt6vectorIS_INSt7__cxx1112basic_stringIcSt11char_traitsIcESaIcEEESaIS5_EESaIS7_EE7reserveEm = comdat any

$_ZNSt6vectorIS_INSt7__cxx1112basic_stringIcSt11char_traitsIcESaIcEEESaIS5_EESaIS7_EE9push_backEOS7_ = comdat any

$_ZN9__gnu_cxx17__normal_iteratorIPKcNSt7__cxx1112basic_stringIcSt11char_traitsIcESaIcEEEEmmEv = comdat any

$_ZNSt6vectorIS_INSt7__cxx1112basic_stringIcSt11char_traitsIcESaIcEEESaIS5_EESaIS7_EE4backEv = comdat any

$_ZNKSt6vectorINSt7__cxx1112basic_stringIcSt11char_traitsIcESaIcEEESaIS5_EE5emptyEv = comdat any

$_ZNSt6vectorINSt7__cxx1112basic_stringIcSt11char_traitsIcESaIcEEESaIS5_EE7reserveEm = comdat any

$_ZStneIN9__gnu_cxx17__normal_iteratorIPcNSt7__cxx1112basic_stringIcSt11char_traitsIcESaIcEEEEEEbRKSt16reverse_iteratorIT_ESE_ = comdat any

$_ZNKSt16reverse_iteratorIN9__gnu_cxx17__normal_iteratorIPcNSt7__cxx1112basic_stringIcSt11char_traitsIcESaIcEEEEEEdeEv = comdat any

$_ZNKSt16reverse_iteratorIN9__gnu_cxx17__normal_iteratorIPcNSt7__cxx1112basic_stringIcSt11char_traitsIcESaIcEEEEEEmiEl = comdat any

$_ZNSt16reverse_iteratorIN9__gnu_cxx17__normal_iteratorIPcNSt7__cxx1112basic_stringIcSt11char_traitsIcESaIcEEEEEEppEv = comdat any

$_ZN17entries_containerC2EcP8AffixMgr = comdat any

$_ZNSt14numeric_limitsImE3maxEv = comdat any

$_ZN17entries_container10initializeEict = comdat any

$_ZN17entries_container11first_entryEv = comdat any

$_ZN17entries_container9add_entryEc = comdat any

$_ZSt4sortIPtEvT_S1_ = comdat any

$_ZStneIcSt11char_traitsIcESaIcEEbRKNSt7__cxx1112basic_stringIT_T0_T1_EEPKS5_ = comdat any

$_ZNSt7__cxx1112basic_stringIcSt11char_traitsIcESaIcEE6appendIN9__gnu_cxx17__normal_iteratorIPKcS4_EEvEERS4_T_SC_ = comdat any

$_ZN17entries_container5beginEv = comdat any

$_ZN17entries_container3endEv = comdat any

$_ZN9__gnu_cxxneIPP8AffEntrySt6vectorIS2_SaIS2_EEEEbRKNS_17__normal_iteratorIT_T0_EESC_ = comdat any

$_ZNK9__gnu_cxx17__normal_iteratorIPP8AffEntrySt6vectorIS2_SaIS2_EEEdeEv = comdat any

$_ZN9__gnu_cxx17__normal_iteratorIPP8AffEntrySt6vectorIS2_SaIS2_EEEppEv = comdat any

$_ZN17entries_container7releaseEv = comdat any

$_ZN17entries_containerD2Ev = comdat any

$_ZNSt6vectorINSt7__cxx1112basic_stringIcSt11char_traitsIcESaIcEEESaIS5_EE9push_backERKS5_ = comdat any

$_ZNKSt6vectorI6w_charSaIS0_EE5beginEv = comdat any

$_ZNKSt6vectorI6w_charSaIS0_EE3endEv = comdat any

$_ZN9__gnu_cxxltIPK6w_charSt6vectorIS1_SaIS1_EEEEbRKNS_17__normal_iteratorIT_T0_EESC_ = comdat any

$_ZNK9__gnu_cxx17__normal_iteratorIPK6w_charSt6vectorIS1_SaIS1_EEEptEv = comdat any

$_ZN9__gnu_cxx17__normal_iteratorIPK6w_charSt6vectorIS1_SaIS1_EEEppEv = comdat any

$_ZNSt6vectorI6w_charSaIS0_EE5clearEv = comdat any

$_ZN9__gnu_cxxltIPKcNSt7__cxx1112basic_stringIcSt11char_traitsIcESaIcEEEEEbRKNS_17__normal_iteratorIT_T0_EESE_ = comdat any

$_ZSt8distanceIN9__gnu_cxx17__normal_iteratorIPKcNSt7__cxx1112basic_stringIcSt11char_traitsIcESaIcEEEEEENSt15iterator_traitsIT_E15difference_typeESC_SC_ = comdat any

$_ZNSt6vectorI6w_charSaIS0_EE9push_backERKS0_ = comdat any

$_ZN7mozilla21CountingAllocatorBaseI17HunspellAllocatorE14CountingMallocEm = comdat any

$_ZStorSt13_Ios_OpenmodeS_ = comdat any

$_ZNSt6vectorINSt7__cxx1112basic_stringIcSt11char_traitsIcESaIcEEESaIS5_EEixEm = comdat any

$_ZSteqIcEN9__gnu_cxx11__enable_ifIXsr9__is_charIT_EE7__valueEbE6__typeERKNSt7__cxx1112basic_stringIS2_St11char_traitsIS2_ESaIS2_EEESC_ = comdat any

$_ZSt7reverseIN9__gnu_cxx17__normal_iteratorIPcNSt7__cxx1112basic_stringIcSt11char_traitsIcESaIcEEEEEEvT_SA_ = comdat any

$_ZSt7reverseIN9__gnu_cxx17__normal_iteratorIP6w_charSt6vectorIS2_SaIS2_EEEEEvT_S8_ = comdat any

$_ZN9__gnu_cxxeqIPNSt7__cxx1112basic_stringIcSt11char_traitsIcESaIcEEESt6vectorIS6_SaIS6_EEEEbRKNS_17__normal_iteratorIT_T0_EESG_ = comdat any

$_ZSt4findIN9__gnu_cxx17__normal_iteratorIPNSt7__cxx1112basic_stringIcSt11char_traitsIcESaIcEEESt6vectorIS7_SaIS7_EEEES7_ET_SD_SD_RKT0_ = comdat any

$_ZNSt6vectorINSt7__cxx1112basic_stringIcSt11char_traitsIcESaIcEEESaIS5_EE5beginEv = comdat any

$_ZNSt6vectorINSt7__cxx1112basic_stringIcSt11char_traitsIcESaIcEEESaIS5_EE3endEv = comdat any

$_ZNSt6vectorINSt7__cxx1112basic_stringIcSt11char_traitsIcESaIcEEESaIS5_EE4swapERS7_ = comdat any

$_ZN9__gnu_cxxneIPcNSt7__cxx1112basic_stringIcSt11char_traitsIcESaIcEEEEEbRKNS_17__normal_iteratorIT_T0_EESD_ = comdat any

$_ZNK9__gnu_cxx17__normal_iteratorIPcNSt7__cxx1112basic_stringIcSt11char_traitsIcESaIcEEEEdeEv = comdat any

$_ZN9__gnu_cxx17__normal_iteratorIPcNSt7__cxx1112basic_stringIcSt11char_traitsIcESaIcEEEEppEv = comdat any

$_ZN7mozilla8Encoding21ForLabelNoReplacementENS_4SpanIKcLm18446744073709551615EEE = comdat any

$_ZN7mozilla4SpanIKcLm18446744073709551615EEC2INSt7__cxx1112basic_stringIcSt11char_traitsIcESaIcEEEvEERKT_ = comdat any

$_ZNK7mozilla8Encoding10NewEncoderEv = comdat any

$_ZNK7mozilla8Encoding28NewDecoderWithoutBOMHandlingEv = comdat any

$_ZN7mozilla8MakeSpanIhEENS_4SpanIT_Lm18446744073709551615EEEPS2_NS3_10index_typeE = comdat any

$_ZN7mozilla8MakeSpanIDsLm2EvEENS_4SpanIT_Lm18446744073709551615EEERAT0__S2_ = comdat any

$_ZN7mozilla8MakeSpanIDsEENS_4SpanIT_Lm18446744073709551615EEEPS2_NS3_10index_typeE = comdat any

$_ZN7mozilla8MakeSpanIhLm4EvEENS_4SpanIT_Lm18446744073709551615EEERAT0__S2_ = comdat any

$_ZNK7mozilla9UniquePtrINS_7DecoderENS_13DefaultDeleteIS1_EEEptEv = comdat any

$_ZN7mozilla7Decoder31DecodeToUTF16WithoutReplacementENS_4SpanIKhLm18446744073709551615EEENS1_IDsLm18446744073709551615EEEb = comdat any

$_ZN7mozilla4SpanIKhLm18446744073709551615EEC2IhLm18446744073709551615EvEERKNS0_IT_XT0_EEE = comdat any

$_ZN7mozilla3TieIJjmmEEENS_5TupleIJDpRT_EEES4_ = comdat any

$_ZN7mozilla5TupleIJRjRmS2_EEaSIJjmmEvEERS3_ONS0_IJDpT_EEE = comdat any

$_ZNK7mozilla9UniquePtrINS_7EncoderENS_13DefaultDeleteIS1_EEEptEv = comdat any

$_ZN7mozilla7Encoder33EncodeFromUTF16WithoutReplacementENS_4SpanIKDsLm18446744073709551615EEENS1_IhLm18446744073709551615EEEb = comdat any

$_ZN7mozilla4SpanIKDsLm18446744073709551615EEC2IDsLm18446744073709551615EvEERKNS0_IT_XT0_EEE = comdat any

$_ZNK7mozilla8Encoding14NewEncoderIntoERNS_7EncoderE = comdat any

$_ZNK7mozilla9UniquePtrINS_7EncoderENS_13DefaultDeleteIS1_EEEdeEv = comdat any

$_ZNK7mozilla8Encoding32NewDecoderWithoutBOMHandlingIntoERNS_7DecoderE = comdat any

$_ZNK7mozilla9UniquePtrINS_7DecoderENS_13DefaultDeleteIS1_EEEdeEv = comdat any

$_ZN7mozilla9UniquePtrINS_7DecoderENS_13DefaultDeleteIS1_EEED2Ev = comdat any

$_ZN7mozilla9UniquePtrINS_7EncoderENS_13DefaultDeleteIS1_EEED2Ev = comdat any

$_ZN9__gnu_cxxneIPK6w_charSt6vectorIS1_SaIS1_EEEEbRKNS_17__normal_iteratorIT_T0_EESC_ = comdat any

$_ZNKSt6vectorI6w_charSaIS0_EEixEm = comdat any

$_ZSt13binary_searchIN9__gnu_cxx17__normal_iteratorIPK6w_charSt6vectorIS2_SaIS2_EEEES2_EbT_S9_RKT0_ = comdat any

$_ZN7mozilla21CountingAllocatorBaseI17HunspellAllocatorE14CountingCallocEmm = comdat any

$_ZNSt14numeric_limitsIiE3maxEv = comdat any

$_ZNSt6vectorItSaItEE7reserveEm = comdat any

$_ZNSt6vectorItSaItEE4backEv = comdat any

$_ZNSt6vectorItSaItEE6resizeEm = comdat any

$_ZNSaI6w_charEC2Ev = comdat any

$_ZNSt6vectorI6w_charSaIS0_EEC2IPKS0_vEET_S6_RKS1_ = comdat any

$_ZNSt6vectorIcSaIcEEC2Ev = comdat any

$_ZNSt6vectorIP7HashMgrSaIS1_EEC2Ev = comdat any

$_ZNSt6vectorIP7HashMgrSaIS1_EE9push_backEOS1_ = comdat any

$_ZNSt6vectorINSt7__cxx1112basic_stringIcSt11char_traitsIcESaIcEEESaIS5_EEaSERKS7_ = comdat any

$_ZNSt6vectorIcSaIcEE6resizeEm = comdat any

$_ZNSt6vectorIcSaIcEEixEm = comdat any

$_ZNSt6vectorIP7HashMgrSaIS1_EEixEm = comdat any

$_ZNSt6vectorIP7HashMgrSaIS1_EED2Ev = comdat any

$_ZNSt6vectorIcSaIcEED2Ev = comdat any

$_ZNSt6vectorINSt7__cxx1112basic_stringIcSt11char_traitsIcESaIcEEESaIS5_EE6insertEN9__gnu_cxx17__normal_iteratorIPKS5_S7_EERSA_ = comdat any

$_ZN9__gnu_cxx17__normal_iteratorIPKNSt7__cxx1112basic_stringIcSt11char_traitsIcESaIcEEESt6vectorIS6_SaIS6_EEEC2IPS6_EERKNS0_IT_NS_11__enable_ifIXsr3std10__are_sameISF_SE_EE7__valueESB_E6__typeEEE = comdat any

$_ZNKSt6vectorIP7HashMgrSaIS1_EE5emptyEv = comdat any

$_ZStplIcSt11char_traitsIcESaIcEENSt7__cxx1112basic_stringIT_T0_T1_EERKS8_SA_ = comdat any

$_ZNSt6vectorI6w_charSaIS0_EEaSERKS2_ = comdat any

$_ZNSt6vectorI6w_charSaIS0_EE6insertIN9__gnu_cxx17__normal_iteratorIPS0_S2_EEvEES7_NS5_IPKS0_S2_EET_SB_ = comdat any

$_ZN9__gnu_cxx17__normal_iteratorIPK6w_charSt6vectorIS1_SaIS1_EEEC2IPS1_EERKNS0_IT_NS_11__enable_ifIXsr3std10__are_sameISA_S9_EE7__valueES6_E6__typeEEE = comdat any

$_ZNSt6vectorINSt7__cxx1112basic_stringIcSt11char_traitsIcESaIcEEESaIS5_EEC2EOS7_ = comdat any

$_ZNSt7__cxx1112basic_stringIcSt11char_traitsIcESaIcEEC2IPKcvEET_S8_RKS3_ = comdat any

$_ZNSt6vectorINSt7__cxx1112basic_stringIcSt11char_traitsIcESaIcEEESaIS5_EE5eraseEN9__gnu_cxx17__normal_iteratorIPKS5_S7_EE = comdat any

$_ZNK9__gnu_cxx17__normal_iteratorIPNSt7__cxx1112basic_stringIcSt11char_traitsIcESaIcEEESt6vectorIS6_SaIS6_EEEplEl = comdat any

$_ZNSt6vectorINSt7__cxx1112basic_stringIcSt11char_traitsIcESaIcEEESaIS5_EE6insertEN9__gnu_cxx17__normal_iteratorIPKS5_S7_EEOS5_ = comdat any

$_ZNSt6vectorINSt7__cxx1112basic_stringIcSt11char_traitsIcESaIcEEESaIS5_EE6rbeginEv = comdat any

$_ZStneIN9__gnu_cxx17__normal_iteratorIPNSt7__cxx1112basic_stringIcSt11char_traitsIcESaIcEEESt6vectorIS7_SaIS7_EEEEEbRKSt16reverse_iteratorIT_ESH_ = comdat any

$_ZNSt6vectorINSt7__cxx1112basic_stringIcSt11char_traitsIcESaIcEEESaIS5_EE4rendEv = comdat any

$_ZNKSt16reverse_iteratorIN9__gnu_cxx17__normal_iteratorIPNSt7__cxx1112basic_stringIcSt11char_traitsIcESaIcEEESt6vectorIS7_SaIS7_EEEEEdeEv = comdat any

$_ZNSt16reverse_iteratorIN9__gnu_cxx17__normal_iteratorIPNSt7__cxx1112basic_stringIcSt11char_traitsIcESaIcEEESt6vectorIS7_SaIS7_EEEEEppEv = comdat any

$_ZNSt6vectorINSt7__cxx1112basic_stringIcSt11char_traitsIcESaIcEEESaIS5_EE6resizeEm = comdat any

$_ZNKSt6vectorINSt7__cxx1112basic_stringIcSt11char_traitsIcESaIcEEESaIS5_EEixEm = comdat any

$_ZNSt6vectorINSt7__cxx1112basic_stringIcSt11char_traitsIcESaIcEEESaIS5_EEaSEOS7_ = comdat any

$_ZN9__gnu_cxxneIPNSt7__cxx1112basic_stringIcSt11char_traitsIcESaIcEEESt6vectorIS6_SaIS6_EEEEbRKNS_17__normal_iteratorIT_T0_EESG_ = comdat any

$_ZNK9__gnu_cxx17__normal_iteratorIPNSt7__cxx1112basic_stringIcSt11char_traitsIcESaIcEEESt6vectorIS6_SaIS6_EEEdeEv = comdat any

$_ZN9__gnu_cxx17__normal_iteratorIPNSt7__cxx1112basic_stringIcSt11char_traitsIcESaIcEEESt6vectorIS6_SaIS6_EEEppEv = comdat any

$_ZNKSt6vectorIS_INSt7__cxx1112basic_stringIcSt11char_traitsIcESaIcEEESaIS5_EESaIS7_EE5emptyEv = comdat any

$_ZNKSt6vectorIS_INSt7__cxx1112basic_stringIcSt11char_traitsIcESaIcEEESaIS5_EESaIS7_EE4sizeEv = comdat any

$_ZNKSt6vectorIS_INSt7__cxx1112basic_stringIcSt11char_traitsIcESaIcEEESaIS5_EESaIS7_EEixEm = comdat any

$_ZNKSt6vectorI9replentrySaIS0_EEixEm = comdat any

$_ZNSt7__cxx1112basic_stringIcSt11char_traitsIcESaIcEE6insertIPKcvEEN9__gnu_cxx17__normal_iteratorIPcS4_EENS9_IS7_S4_EET_SD_ = comdat any

$_Zeq6w_charS_ = comdat any

$_ZNSt6vectorI6w_charSaIS0_EE6insertIPKS0_vEEN9__gnu_cxx17__normal_iteratorIPS0_S2_EENS7_IS5_S2_EET_SB_ = comdat any

$_Zne6w_charS_ = comdat any

$_ZNSt6vectorI6w_charSaIS0_EE5eraseEN9__gnu_cxx17__normal_iteratorIPKS0_S2_EE = comdat any

$_ZNK9__gnu_cxx17__normal_iteratorIP6w_charSt6vectorIS1_SaIS1_EEEplEl = comdat any

$_ZNSt6vectorI6w_charSaIS0_EE6insertEN9__gnu_cxx17__normal_iteratorIPKS0_S2_EERS5_ = comdat any

$_ZNK9__gnu_cxx17__normal_iteratorIPcNSt7__cxx1112basic_stringIcSt11char_traitsIcESaIcEEEEplEl = comdat any

$_ZSt4swapIcENSt9enable_ifIXsr6__and_ISt6__not_ISt15__is_tuple_likeIT_EESt21is_move_constructibleIS3_ESt18is_move_assignableIS3_EEE5valueEvE4typeERS3_SC_ = comdat any

$_ZSt4swapI6w_charENSt9enable_ifIXsr6__and_ISt6__not_ISt15__is_tuple_likeIT_EESt21is_move_constructibleIS4_ESt18is_move_assignableIS4_EEE5valueEvE4typeERS4_SD_ = comdat any

$_ZN9__gnu_cxxltIPcNSt7__cxx1112basic_stringIcSt11char_traitsIcESaIcEEEEEbRKNS_17__normal_iteratorIT_T0_EESD_ = comdat any

$_ZSt3absl = comdat any

$_ZSt8distanceIN9__gnu_cxx17__normal_iteratorIPcNSt7__cxx1112basic_stringIcSt11char_traitsIcESaIcEEEEEENSt15iterator_traitsIT_E15difference_typeESB_SB_ = comdat any

$_ZN9__gnu_cxxltIP6w_charSt6vectorIS1_SaIS1_EEEEbRKNS_17__normal_iteratorIT_T0_EESB_ = comdat any

$_ZSt8distanceIN9__gnu_cxx17__normal_iteratorIP6w_charSt6vectorIS2_SaIS2_EEEEENSt15iterator_traitsIT_E15difference_typeES9_S9_ = comdat any

$_ZNK9__gnu_cxx17__normal_iteratorIP6w_charSt6vectorIS1_SaIS1_EEEdeEv = comdat any

$_ZN9__gnu_cxx17__normal_iteratorIP6w_charSt6vectorIS1_SaIS1_EEEppEv = comdat any

$_ZNK9__gnu_cxx17__normal_iteratorIPcNSt7__cxx1112basic_stringIcSt11char_traitsIcESaIcEEEEmiEl = comdat any

$_ZSt4copyIPKcN9__gnu_cxx17__normal_iteratorIPcNSt7__cxx1112basic_stringIcSt11char_traitsIcESaIcEEEEEET0_T_SD_SC_ = comdat any

$_ZNKSt16reverse_iteratorIN9__gnu_cxx17__normal_iteratorIPcNSt7__cxx1112basic_stringIcSt11char_traitsIcESaIcEEEEEEplEl = comdat any

$_ZSt8distanceISt16reverse_iteratorIN9__gnu_cxx17__normal_iteratorIPcNSt7__cxx1112basic_stringIcSt11char_traitsIcESaIcEEEEEEENSt15iterator_traitsIT_E15difference_typeESD_SD_ = comdat any

$_ZNSt16reverse_iteratorIN9__gnu_cxx17__normal_iteratorIPcNSt7__cxx1112basic_stringIcSt11char_traitsIcESaIcEEEEEEC2ERKSA_ = comdat any

$_ZNK9__gnu_cxx17__normal_iteratorIP6w_charSt6vectorIS1_SaIS1_EEEmiEl = comdat any

$_ZSt4copyIPK6w_charN9__gnu_cxx17__normal_iteratorIPS0_St6vectorIS0_SaIS0_EEEEET0_T_SB_SA_ = comdat any

$_ZNSt6vectorI6w_charSaIS0_EE6rbeginEv = comdat any

$_ZStltIN9__gnu_cxx17__normal_iteratorIP6w_charSt6vectorIS2_SaIS2_EEEEEbRKSt16reverse_iteratorIT_ESC_ = comdat any

$_ZNSt6vectorI6w_charSaIS0_EE4rendEv = comdat any

$_ZNKSt16reverse_iteratorIN9__gnu_cxx17__normal_iteratorIP6w_charSt6vectorIS2_SaIS2_EEEEEplEl = comdat any

$_ZSt8distanceISt16reverse_iteratorIN9__gnu_cxx17__normal_iteratorIP6w_charSt6vectorIS3_SaIS3_EEEEEENSt15iterator_traitsIT_E15difference_typeESB_SB_ = comdat any

$_ZNSt16reverse_iteratorIN9__gnu_cxx17__normal_iteratorIP6w_charSt6vectorIS2_SaIS2_EEEEEC2ERKS8_ = comdat any

$_ZNKSt16reverse_iteratorIN9__gnu_cxx17__normal_iteratorIP6w_charSt6vectorIS2_SaIS2_EEEEEdeEv = comdat any

$_ZNKSt16reverse_iteratorIN9__gnu_cxx17__normal_iteratorIP6w_charSt6vectorIS2_SaIS2_EEEEEmiEl = comdat any

$_ZNSt16reverse_iteratorIN9__gnu_cxx17__normal_iteratorIP6w_charSt6vectorIS2_SaIS2_EEEEEppEv = comdat any

$_ZN8PfxEntryD0Ev = comdat any

$_ZN8SfxEntryD2Ev = comdat any

$_ZN8SfxEntryD0Ev = comdat any

$_ZN8PfxEntry8nextcharEPc = comdat any

$_ZN8SfxEntry8nextcharEPc = comdat any

$_ZN13nsCOMPtr_baseD2Ev = comdat any

$_ZNSt6vectorIP8AffEntrySaIS1_EEC2Ev = comdat any

$_ZNSt12_Vector_baseIP8AffEntrySaIS1_EEC2Ev = comdat any

$_ZNSt12_Vector_baseIP8AffEntrySaIS1_EE12_Vector_implC2Ev = comdat any

$_ZNSaIP8AffEntryEC2Ev = comdat any

$_ZN9__gnu_cxx13new_allocatorIP8AffEntryEC2Ev = comdat any

$_ZNSt6vectorIP8AffEntrySaIS1_EE7reserveEm = comdat any

$_ZNSt6vectorIP8AffEntrySaIS1_EE9push_backEOS1_ = comdat any

$_ZNSt6vectorIP8AffEntrySaIS1_EE4backEv = comdat any

$_ZNKSt6vectorIP8AffEntrySaIS1_EE8max_sizeEv = comdat any

$_ZNKSt6vectorIP8AffEntrySaIS1_EE8capacityEv = comdat any

$_ZNKSt6vectorIP8AffEntrySaIS1_EE4sizeEv = comdat any

$_ZNSt6vectorIP8AffEntrySaIS1_EE20_M_allocate_and_copyISt13move_iteratorIPS1_EEES6_mT_S8_ = comdat any

$_ZSt32__make_move_if_noexcept_iteratorIP8AffEntrySt13move_iteratorIPS1_EET0_PT_ = comdat any

$_ZSt8_DestroyIPP8AffEntryS1_EvT_S3_RSaIT0_E = comdat any

$_ZNSt12_Vector_baseIP8AffEntrySaIS1_EE19_M_get_Tp_allocatorEv = comdat any

$_ZNSt12_Vector_baseIP8AffEntrySaIS1_EE13_M_deallocateEPS1_m = comdat any

$_ZNSt16allocator_traitsISaIP8AffEntryEE8max_sizeERKS2_ = comdat any

$_ZNKSt12_Vector_baseIP8AffEntrySaIS1_EE19_M_get_Tp_allocatorEv = comdat any

$_ZNK9__gnu_cxx13new_allocatorIP8AffEntryE8max_sizeEv = comdat any

$_ZNSt12_Vector_baseIP8AffEntrySaIS1_EE11_M_allocateEm = comdat any

$_ZSt22__uninitialized_copy_aISt13move_iteratorIPP8AffEntryES3_S2_ET0_T_S6_S5_RSaIT1_E = comdat any

$_ZNSt16allocator_traitsISaIP8AffEntryEE8allocateERS2_m = comdat any

$_ZN9__gnu_cxx13new_allocatorIP8AffEntryE8allocateEmPKv = comdat any

$_ZSt18uninitialized_copyISt13move_iteratorIPP8AffEntryES3_ET0_T_S6_S5_ = comdat any

$_ZNSt20__uninitialized_copyILb1EE13__uninit_copyISt13move_iteratorIPP8AffEntryES5_EET0_T_S8_S7_ = comdat any

$_ZSt4copyISt13move_iteratorIPP8AffEntryES3_ET0_T_S6_S5_ = comdat any

$_ZSt14__copy_move_a2ILb1EPP8AffEntryS2_ET1_T0_S4_S3_ = comdat any

$_ZSt12__miter_baseIPP8AffEntryEDTcl12__miter_basecldtfp_4baseEEESt13move_iteratorIT_E = comdat any

$_ZSt13__copy_move_aILb1EPP8AffEntryS2_ET1_T0_S4_S3_ = comdat any

$_ZSt12__niter_baseIPP8AffEntryET_S3_ = comdat any

$_ZNSt11__copy_moveILb1ELb1ESt26random_access_iterator_tagE8__copy_mIP8AffEntryEEPT_PKS5_S8_S6_ = comdat any

$_ZSt12__miter_baseIPP8AffEntryET_S3_ = comdat any

$_ZNKSt13move_iteratorIPP8AffEntryE4baseEv = comdat any

$_ZNSt13move_iteratorIPP8AffEntryEC2ES2_ = comdat any

$_ZSt8_DestroyIPP8AffEntryEvT_S3_ = comdat any

$_ZNSt12_Destroy_auxILb1EE9__destroyIPP8AffEntryEEvT_S5_ = comdat any

$_ZNSt16allocator_traitsISaIP8AffEntryEE10deallocateERS2_PS1_m = comdat any

$_ZN9__gnu_cxx13new_allocatorIP8AffEntryE10deallocateEPS2_m = comdat any

$_ZNSt6vectorIP8AffEntrySaIS1_EE12emplace_backIJS1_EEEvDpOT_ = comdat any

$_ZSt4moveIRP8AffEntryEONSt16remove_referenceIT_E4typeEOS4_ = comdat any

$_ZNSt16allocator_traitsISaIP8AffEntryEE9constructIS1_JS1_EEEvRS2_PT_DpOT0_ = comdat any

$_ZSt7forwardIP8AffEntryEOT_RNSt16remove_referenceIS2_E4typeE = comdat any

$_ZNSt6vectorIP8AffEntrySaIS1_EE17_M_realloc_insertIJS1_EEEvN9__gnu_cxx17__normal_iteratorIPS1_S3_EEDpOT_ = comdat any

$_ZNSt6vectorIP8AffEntrySaIS1_EE3endEv = comdat any

$_ZN9__gnu_cxx13new_allocatorIP8AffEntryE9constructIS2_JS2_EEEvPT_DpOT0_ = comdat any

$_ZNKSt6vectorIP8AffEntrySaIS1_EE12_M_check_lenEmPKc = comdat any

$_ZN9__gnu_cxxmiIPP8AffEntrySt6vectorIS2_SaIS2_EEEENS_17__normal_iteratorIT_T0_E15difference_typeERKSA_SD_ = comdat any

$_ZNSt6vectorIP8AffEntrySaIS1_EE5beginEv = comdat any

$_ZSt34__uninitialized_move_if_noexcept_aIPP8AffEntryS2_SaIS1_EET0_T_S5_S4_RT1_ = comdat any

$_ZNK9__gnu_cxx17__normal_iteratorIPP8AffEntrySt6vectorIS2_SaIS2_EEE4baseEv = comdat any

$_ZSt3maxImERKT_S2_S2_ = comdat any

$_ZN9__gnu_cxx17__normal_iteratorIPP8AffEntrySt6vectorIS2_SaIS2_EEEC2ERKS3_ = comdat any

$_ZNK9__gnu_cxx17__normal_iteratorIPP8AffEntrySt6vectorIS2_SaIS2_EEEmiEl = comdat any

$_ZNKSt6vectorIP8AffEntrySaIS1_EE5emptyEv = comdat any

$_ZNSt6vectorIP8AffEntrySaIS1_EEixEm = comdat any

$_ZN9__gnu_cxxeqIPKP8AffEntrySt6vectorIS2_SaIS2_EEEEbRKNS_17__normal_iteratorIT_T0_EESD_ = comdat any

$_ZNKSt6vectorIP8AffEntrySaIS1_EE5beginEv = comdat any

$_ZNKSt6vectorIP8AffEntrySaIS1_EE3endEv = comdat any

$_ZNK9__gnu_cxx17__normal_iteratorIPKP8AffEntrySt6vectorIS2_SaIS2_EEE4baseEv = comdat any

$_ZN9__gnu_cxx17__normal_iteratorIPKP8AffEntrySt6vectorIS2_SaIS2_EEEC2ERKS4_ = comdat any

$_ZNSt6vectorIP8AffEntrySaIS1_EE5clearEv = comdat any

$_ZNSt6vectorIP8AffEntrySaIS1_EE15_M_erase_at_endEPS1_ = comdat any

$_ZNSt6vectorIP8AffEntrySaIS1_EED2Ev = comdat any

$_ZNSt12_Vector_baseIP8AffEntrySaIS1_EED2Ev = comdat any

$_ZN9__gnu_cxx13new_allocatorIP8AffEntryED2Ev = comdat any

$_ZNK7mozilla4SpanIKcLm18446744073709551615EE8ElementsEv = comdat any

$_ZNK7mozilla4SpanIKcLm18446744073709551615EE6LengthEv = comdat any

$_ZNK7mozilla4SpanIKcLm18446744073709551615EE4dataEv = comdat any

$_ZNK7mozilla4SpanIKcLm18446744073709551615EE12storage_typeINS_12span_details11extent_typeILm18446744073709551615EEEE4dataEv = comdat any

$_ZNK7mozilla4SpanIKcLm18446744073709551615EE4sizeEv = comdat any

$_ZNK7mozilla12span_details11extent_typeILm18446744073709551615EE4sizeEv = comdat any

$_ZN7mozilla19ReleaseAssertedCastImmEET_T0_ = comdat any

$_ZN7mozilla4SpanIKcLm18446744073709551615EEC2EPS1_m = comdat any

$_ZN7mozilla6detail10IsInBoundsImmEEbT_ = comdat any

$_ZN7mozilla6detail13BoundsCheckerImmLb1EE11checkBoundsEm = comdat any

$_ZN7mozilla4SpanIKcLm18446744073709551615EE12storage_typeINS_12span_details11extent_typeILm18446744073709551615EEEEC2ImEEPS1_T_ = comdat any

$_ZN7mozilla9UniquePtrINS_7EncoderENS_13DefaultDeleteIS1_EEEC2EPS1_ = comdat any

$_ZN7mozilla13DefaultDeleteINS_7EncoderEEC2Ev = comdat any

$_ZN7mozilla4PairIPNS_7EncoderENS_13DefaultDeleteIS1_EEEC2IRS2_S4_EEOT_OT0_ = comdat any

$_ZSt7forwardIRPN7mozilla7EncoderEEOT_RNSt16remove_referenceIS4_E4typeE = comdat any

$_ZSt7forwardIN7mozilla13DefaultDeleteINS0_7EncoderEEEEOT_RNSt16remove_referenceIS4_E4typeE = comdat any

$_ZN7mozilla6detail10PairHelperIPNS_7EncoderENS_13DefaultDeleteIS2_EELNS0_11StorageTypeE1ELS6_0EEC2IRS3_S5_EEOT_OT0_ = comdat any

$_ZN7mozilla9UniquePtrINS_7DecoderENS_13DefaultDeleteIS1_EEEC2EPS1_ = comdat any

$_ZN7mozilla13DefaultDeleteINS_7DecoderEEC2Ev = comdat any

$_ZN7mozilla4PairIPNS_7DecoderENS_13DefaultDeleteIS1_EEEC2IRS2_S4_EEOT_OT0_ = comdat any

$_ZSt7forwardIRPN7mozilla7DecoderEEOT_RNSt16remove_referenceIS4_E4typeE = comdat any

$_ZSt7forwardIN7mozilla13DefaultDeleteINS0_7DecoderEEEEOT_RNSt16remove_referenceIS4_E4typeE = comdat any

$_ZN7mozilla6detail10PairHelperIPNS_7DecoderENS_13DefaultDeleteIS2_EELNS0_11StorageTypeE1ELS6_0EEC2IRS3_S5_EEOT_OT0_ = comdat any

$_ZNK7mozilla4SpanIKhLm18446744073709551615EE6LengthEv = comdat any

$_ZNK7mozilla4SpanIDsLm18446744073709551615EE6LengthEv = comdat any

$_ZNK7mozilla4SpanIKhLm18446744073709551615EE8ElementsEv = comdat any

$_ZNK7mozilla4SpanIDsLm18446744073709551615EE8ElementsEv = comdat any

$_ZN7mozilla9MakeTupleIJRjRmS2_EEENS_5TupleIJDpNS_5DecayIT_E4TypeEEEEDpOS5_ = comdat any

$_ZNK7mozilla4SpanIKhLm18446744073709551615EE4sizeEv = comdat any

$_ZNK7mozilla4SpanIDsLm18446744073709551615EE4sizeEv = comdat any

$_ZNK7mozilla4SpanIKhLm18446744073709551615EE4dataEv = comdat any

$_ZNK7mozilla4SpanIKhLm18446744073709551615EE12storage_typeINS_12span_details11extent_typeILm18446744073709551615EEEE4dataEv = comdat any

$_ZNK7mozilla4SpanIDsLm18446744073709551615EE4dataEv = comdat any

$_ZNK7mozilla4SpanIDsLm18446744073709551615EE12storage_typeINS_12span_details11extent_typeILm18446744073709551615EEEE4dataEv = comdat any

$_ZSt7forwardIRjEOT_RNSt16remove_referenceIS1_E4typeE = comdat any

$_ZSt7forwardIRmEOT_RNSt16remove_referenceIS1_E4typeE = comdat any

$_ZN7mozilla5TupleIJjmmEEC2IRjJRmS4_EvEEOT_DpOT0_ = comdat any

$_ZN7mozilla6detail9TupleImplILm0EJjmmEEC2IRjJRmS5_EvEEOT_DpOT0_ = comdat any

$_ZN7mozilla6detail9TupleImplILm1EJmmEEC2IRmJS4_EvEEOT_DpOT0_ = comdat any

$_ZN7mozilla6detail9TupleImplILm2EJmEEC2IRmJEvEEOT_DpOT0_ = comdat any

$_ZNK7mozilla4SpanIhLm18446744073709551615EE4dataEv = comdat any

$_ZNK7mozilla4SpanIhLm18446744073709551615EE4sizeEv = comdat any

$_ZN7mozilla12span_details11extent_typeILm18446744073709551615EEC2Em = comdat any

$_ZN7mozilla4SpanIKhLm18446744073709551615EE12storage_typeINS_12span_details11extent_typeILm18446744073709551615EEEEC2IS6_EEPS1_T_ = comdat any

$_ZNK7mozilla4SpanIhLm18446744073709551615EE12storage_typeINS_12span_details11extent_typeILm18446744073709551615EEEE4dataEv = comdat any

$_ZNK7mozilla4SpanIKDsLm18446744073709551615EE6LengthEv = comdat any

$_ZNK7mozilla4SpanIhLm18446744073709551615EE6LengthEv = comdat any

$_ZNK7mozilla4SpanIKDsLm18446744073709551615EE8ElementsEv = comdat any

$_ZNK7mozilla4SpanIhLm18446744073709551615EE8ElementsEv = comdat any

$_ZNK7mozilla4SpanIKDsLm18446744073709551615EE4sizeEv = comdat any

$_ZNK7mozilla4SpanIKDsLm18446744073709551615EE4dataEv = comdat any

$_ZNK7mozilla4SpanIKDsLm18446744073709551615EE12storage_typeINS_12span_details11extent_typeILm18446744073709551615EEEE4dataEv = comdat any

$_ZN7mozilla4SpanIKDsLm18446744073709551615EE12storage_typeINS_12span_details11extent_typeILm18446744073709551615EEEEC2IS6_EEPS1_T_ = comdat any

$_ZN9__gnu_cxx13new_allocatorIcEC2Ev = comdat any

$_ZN9__gnu_cxx13new_allocatorIcED2Ev = comdat any

$_ZNSt14pointer_traitsIPKcE10pointer_toERS0_ = comdat any

$_ZSt9addressofIKcEPT_RS1_ = comdat any

$_ZSt11__addressofIKcEPT_RS1_ = comdat any

$_ZNSt16allocator_traitsISaIcEE10deallocateERS0_Pcm = comdat any

$_ZN9__gnu_cxx13new_allocatorIcE10deallocateEPcm = comdat any

$_ZSt4moveIRSaIcEEONSt16remove_referenceIT_E4typeEOS3_ = comdat any

$_ZNSt11char_traitsIcE4copyEPcPKcm = comdat any

$_ZNSt14pointer_traitsIPcE10pointer_toERc = comdat any

$_ZSt9addressofIcEPT_RS0_ = comdat any

$_ZSt11__addressofIcEPT_RS0_ = comdat any

$_ZN9__gnu_cxx13new_allocatorIcEC2ERKS1_ = comdat any

$_ZNSt11char_traitsIcE6assignERcRKc = comdat any

$_ZNSt7__cxx1112basic_stringIcSt11char_traitsIcESaIcEE12_M_constructIPKcEEvT_S8_ = comdat any

$_ZNSt7__cxx1112basic_stringIcSt11char_traitsIcESaIcEE16_M_construct_auxIPKcEEvT_S8_St12__false_type = comdat any

$_ZNSt7__cxx1112basic_stringIcSt11char_traitsIcESaIcEE12_M_constructIPKcEEvT_S8_St20forward_iterator_tag = comdat any

$_ZN9__gnu_cxx17__is_null_pointerIKcEEbPT_ = comdat any

$_ZSt8distanceIPKcENSt15iterator_traitsIT_E15difference_typeES3_S3_ = comdat any

$_ZSt10__distanceIPKcENSt15iterator_traitsIT_E15difference_typeES3_S3_St26random_access_iterator_tag = comdat any

$_ZSt19__iterator_categoryIPKcENSt15iterator_traitsIT_E17iterator_categoryERKS3_ = comdat any

$_ZN9__gnu_cxx14__alloc_traitsISaIcEcE17_S_select_on_copyERKS1_ = comdat any

$_ZNSt7__cxx1112basic_stringIcSt11char_traitsIcESaIcEE12_M_constructIPcEEvT_S7_ = comdat any

$_ZNSt16allocator_traitsISaIcEE37select_on_container_copy_constructionERKS0_ = comdat any

$_ZNSt7__cxx1112basic_stringIcSt11char_traitsIcESaIcEE16_M_construct_auxIPcEEvT_S7_St12__false_type = comdat any

$_ZNSt7__cxx1112basic_stringIcSt11char_traitsIcESaIcEE12_M_constructIPcEEvT_S7_St20forward_iterator_tag = comdat any

$_ZN9__gnu_cxx17__is_null_pointerIcEEbPT_ = comdat any

$_ZSt8distanceIPcENSt15iterator_traitsIT_E15difference_typeES2_S2_ = comdat any

$_ZSt10__distanceIPcENSt15iterator_traitsIT_E15difference_typeES2_S2_St26random_access_iterator_tag = comdat any

$_ZSt19__iterator_categoryIPcENSt15iterator_traitsIT_E17iterator_categoryERKS2_ = comdat any

$_ZNSt11char_traitsIcE6lengthEPKc = comdat any

$_ZNSt16allocator_traitsISaIcEE8max_sizeERKS0_ = comdat any

$_ZNK9__gnu_cxx13new_allocatorIcE8max_sizeEv = comdat any

$_ZN7mozilla4SpanIDsLm18446744073709551615EEC2EPDsm = comdat any

$_ZN7mozilla4SpanIDsLm18446744073709551615EE12storage_typeINS_12span_details11extent_typeILm18446744073709551615EEEEC2ImEEPDsT_ = comdat any

$_ZN7mozilla21CountingAllocatorBaseI17HunspellAllocatorE18MallocSizeOfOnFreeEPKv = comdat any

$_ZN7mozilla6AtomicImLNS_14MemoryOrderingE2ELNS_12recordreplay8BehaviorE0EvEmIEm = comdat any

$_ZN7mozilla6detail15IntrinsicAddSubImLNS_14MemoryOrderingE2ELNS_12recordreplay8BehaviorE0EE3subERSt6atomicImEm = comdat any

$_ZN7mozilla6detail22AutoRecordAtomicAccessILNS_12recordreplay8BehaviorE0EEC2EPKv = comdat any

$_ZN7mozilla6detail22AutoRecordAtomicAccessILNS_12recordreplay8BehaviorE0EED2Ev = comdat any

$_ZSt13__lower_boundIPttN9__gnu_cxx5__ops14_Iter_less_valEET_S4_S4_RKT0_T1_ = comdat any

$_ZN9__gnu_cxx5__ops15__iter_less_valEv = comdat any

$_ZSt8distanceIPtENSt15iterator_traitsIT_E15difference_typeES2_S2_ = comdat any

$_ZSt7advanceIPtlEvRT_T0_ = comdat any

$_ZNK9__gnu_cxx5__ops14_Iter_less_valclIPtKtEEbT_RT0_ = comdat any

$_ZSt10__distanceIPtENSt15iterator_traitsIT_E15difference_typeES2_S2_St26random_access_iterator_tag = comdat any

$_ZSt19__iterator_categoryIPtENSt15iterator_traitsIT_E17iterator_categoryERKS2_ = comdat any

$_ZSt9__advanceIPtlEvRT_T0_St26random_access_iterator_tag = comdat any

$_ZN9__gnu_cxx14__alloc_traitsISaIcEcE15_S_always_equalEv = comdat any

$_ZStneIcEbRKSaIT_ES3_ = comdat any

$_ZSt15__alloc_on_moveISaIcEEvRT_S2_ = comdat any

$_ZSt18__do_alloc_on_moveISaIcEEvRT_S2_St17integral_constantIbLb1EE = comdat any

$_ZSt13__lower_boundIPKttN9__gnu_cxx5__ops14_Iter_less_valEET_S5_S5_RKT0_T1_ = comdat any

$_ZSt8distanceIPKtENSt15iterator_traitsIT_E15difference_typeES3_S3_ = comdat any

$_ZSt7advanceIPKtlEvRT_T0_ = comdat any

$_ZNK9__gnu_cxx5__ops14_Iter_less_valclIPKtS3_EEbT_RT0_ = comdat any

$_ZSt10__distanceIPKtENSt15iterator_traitsIT_E15difference_typeES3_S3_St26random_access_iterator_tag = comdat any

$_ZSt19__iterator_categoryIPKtENSt15iterator_traitsIT_E17iterator_categoryERKS3_ = comdat any

$_ZSt9__advanceIPKtlEvRT_T0_St26random_access_iterator_tag = comdat any

$_ZNSt12_Vector_baseI9replentrySaIS0_EEC2Ev = comdat any

$_ZNSt12_Vector_baseI9replentrySaIS0_EE12_Vector_implC2Ev = comdat any

$_ZNSaI9replentryEC2Ev = comdat any

$_ZN9__gnu_cxx13new_allocatorI9replentryEC2Ev = comdat any

$_ZNSt12_Vector_baseISt6vectorINSt7__cxx1112basic_stringIcSt11char_traitsIcESaIcEEESaIS6_EESaIS8_EEC2Ev = comdat any

$_ZNSt12_Vector_baseISt6vectorINSt7__cxx1112basic_stringIcSt11char_traitsIcESaIcEEESaIS6_EESaIS8_EE12_Vector_implC2Ev = comdat any

$_ZNSaISt6vectorINSt7__cxx1112basic_stringIcSt11char_traitsIcESaIcEEESaIS5_EEEC2Ev = comdat any

$_ZN9__gnu_cxx13new_allocatorISt6vectorINSt7__cxx1112basic_stringIcSt11char_traitsIcESaIcEEESaIS7_EEEC2Ev = comdat any

$_ZNSt12_Vector_baseINSt7__cxx1112basic_stringIcSt11char_traitsIcESaIcEEESaIS5_EEC2Ev = comdat any

$_ZNSt12_Vector_baseINSt7__cxx1112basic_stringIcSt11char_traitsIcESaIcEEESaIS5_EE12_Vector_implC2Ev = comdat any

$_ZNSaINSt7__cxx1112basic_stringIcSt11char_traitsIcESaIcEEEEC2Ev = comdat any

$_ZN9__gnu_cxx13new_allocatorINSt7__cxx1112basic_stringIcSt11char_traitsIcESaIcEEEEC2Ev = comdat any

$_ZNSt12_Vector_baseI8patentrySaIS0_EEC2Ev = comdat any

$_ZNSt12_Vector_baseI8patentrySaIS0_EE12_Vector_implC2Ev = comdat any

$_ZNSaI8patentryEC2Ev = comdat any

$_ZN9__gnu_cxx13new_allocatorI8patentryEC2Ev = comdat any

$_ZNSt12_Vector_baseISt6vectorItSaItEESaIS2_EEC2Ev = comdat any

$_ZNSt12_Vector_baseISt6vectorItSaItEESaIS2_EE12_Vector_implC2Ev = comdat any

$_ZNSaISt6vectorItSaItEEEC2Ev = comdat any

$_ZN9__gnu_cxx13new_allocatorISt6vectorItSaItEEEC2Ev = comdat any

$_ZNSt12_Vector_baseI6w_charSaIS0_EEC2Ev = comdat any

$_ZNSt12_Vector_baseI6w_charSaIS0_EE12_Vector_implC2Ev = comdat any

$_ZN9__gnu_cxx13new_allocatorI6w_charEC2Ev = comdat any

$_ZSt8_DestroyIP9replentryS0_EvT_S2_RSaIT0_E = comdat any

$_ZNSt12_Vector_baseI9replentrySaIS0_EE19_M_get_Tp_allocatorEv = comdat any

$_ZNSt12_Vector_baseI9replentrySaIS0_EED2Ev = comdat any

$_ZSt8_DestroyIP9replentryEvT_S2_ = comdat any

$_ZNSt12_Destroy_auxILb0EE9__destroyIP9replentryEEvT_S4_ = comdat any

$_ZSt8_DestroyI9replentryEvPT_ = comdat any

$_ZSt11__addressofI9replentryEPT_RS1_ = comdat any

$_ZNSt12_Vector_baseI9replentrySaIS0_EE13_M_deallocateEPS0_m = comdat any

$_ZN9__gnu_cxx13new_allocatorI9replentryED2Ev = comdat any

$_ZNSt16allocator_traitsISaI9replentryEE10deallocateERS1_PS0_m = comdat any

$_ZN9__gnu_cxx13new_allocatorI9replentryE10deallocateEPS1_m = comdat any

$_ZSt8_DestroyIPSt6vectorINSt7__cxx1112basic_stringIcSt11char_traitsIcESaIcEEESaIS6_EES8_EvT_SA_RSaIT0_E = comdat any

$_ZNSt12_Vector_baseISt6vectorINSt7__cxx1112basic_stringIcSt11char_traitsIcESaIcEEESaIS6_EESaIS8_EE19_M_get_Tp_allocatorEv = comdat any

$_ZNSt12_Vector_baseISt6vectorINSt7__cxx1112basic_stringIcSt11char_traitsIcESaIcEEESaIS6_EESaIS8_EED2Ev = comdat any

$_ZSt8_DestroyIPSt6vectorINSt7__cxx1112basic_stringIcSt11char_traitsIcESaIcEEESaIS6_EEEvT_SA_ = comdat any

$_ZNSt12_Destroy_auxILb0EE9__destroyIPSt6vectorINSt7__cxx1112basic_stringIcSt11char_traitsIcESaIcEEESaIS8_EEEEvT_SC_ = comdat any

$_ZSt8_DestroyISt6vectorINSt7__cxx1112basic_stringIcSt11char_traitsIcESaIcEEESaIS6_EEEvPT_ = comdat any

$_ZSt11__addressofISt6vectorINSt7__cxx1112basic_stringIcSt11char_traitsIcESaIcEEESaIS6_EEEPT_RS9_ = comdat any

$_ZNSt12_Vector_baseISt6vectorINSt7__cxx1112basic_stringIcSt11char_traitsIcESaIcEEESaIS6_EESaIS8_EE13_M_deallocateEPS8_m = comdat any

$_ZN9__gnu_cxx13new_allocatorISt6vectorINSt7__cxx1112basic_stringIcSt11char_traitsIcESaIcEEESaIS7_EEED2Ev = comdat any

$_ZNSt16allocator_traitsISaISt6vectorINSt7__cxx1112basic_stringIcSt11char_traitsIcESaIcEEESaIS6_EEEE10deallocateERS9_PS8_m = comdat any

$_ZN9__gnu_cxx13new_allocatorISt6vectorINSt7__cxx1112basic_stringIcSt11char_traitsIcESaIcEEESaIS7_EEE10deallocateEPS9_m = comdat any

$_ZSt8_DestroyIPNSt7__cxx1112basic_stringIcSt11char_traitsIcESaIcEEES5_EvT_S7_RSaIT0_E = comdat any

$_ZNSt12_Vector_baseINSt7__cxx1112basic_stringIcSt11char_traitsIcESaIcEEESaIS5_EE19_M_get_Tp_allocatorEv = comdat any

$_ZNSt12_Vector_baseINSt7__cxx1112basic_stringIcSt11char_traitsIcESaIcEEESaIS5_EED2Ev = comdat any

$_ZSt8_DestroyIPNSt7__cxx1112basic_stringIcSt11char_traitsIcESaIcEEEEvT_S7_ = comdat any

$_ZNSt12_Destroy_auxILb0EE9__destroyIPNSt7__cxx1112basic_stringIcSt11char_traitsIcESaIcEEEEEvT_S9_ = comdat any

$_ZSt8_DestroyINSt7__cxx1112basic_stringIcSt11char_traitsIcESaIcEEEEvPT_ = comdat any

$_ZSt11__addressofINSt7__cxx1112basic_stringIcSt11char_traitsIcESaIcEEEEPT_RS6_ = comdat any

$_ZNSt12_Vector_baseINSt7__cxx1112basic_stringIcSt11char_traitsIcESaIcEEESaIS5_EE13_M_deallocateEPS5_m = comdat any

$_ZN9__gnu_cxx13new_allocatorINSt7__cxx1112basic_stringIcSt11char_traitsIcESaIcEEEED2Ev = comdat any

$_ZNSt16allocator_traitsISaINSt7__cxx1112basic_stringIcSt11char_traitsIcESaIcEEEEE10deallocateERS6_PS5_m = comdat any

$_ZN9__gnu_cxx13new_allocatorINSt7__cxx1112basic_stringIcSt11char_traitsIcESaIcEEEE10deallocateEPS6_m = comdat any

$_ZSt8_DestroyIP8patentryS0_EvT_S2_RSaIT0_E = comdat any

$_ZNSt12_Vector_baseI8patentrySaIS0_EE19_M_get_Tp_allocatorEv = comdat any

$_ZNSt12_Vector_baseI8patentrySaIS0_EED2Ev = comdat any

$_ZSt8_DestroyIP8patentryEvT_S2_ = comdat any

$_ZNSt12_Destroy_auxILb0EE9__destroyIP8patentryEEvT_S4_ = comdat any

$_ZSt8_DestroyI8patentryEvPT_ = comdat any

$_ZSt11__addressofI8patentryEPT_RS1_ = comdat any

$_ZNSt12_Vector_baseI8patentrySaIS0_EE13_M_deallocateEPS0_m = comdat any

$_ZN9__gnu_cxx13new_allocatorI8patentryED2Ev = comdat any

$_ZNSt16allocator_traitsISaI8patentryEE10deallocateERS1_PS0_m = comdat any

$_ZN9__gnu_cxx13new_allocatorI8patentryE10deallocateEPS1_m = comdat any

$_ZSt8_DestroyIPSt6vectorItSaItEES2_EvT_S4_RSaIT0_E = comdat any

$_ZNSt12_Vector_baseISt6vectorItSaItEESaIS2_EE19_M_get_Tp_allocatorEv = comdat any

$_ZNSt12_Vector_baseISt6vectorItSaItEESaIS2_EED2Ev = comdat any

$_ZSt8_DestroyIPSt6vectorItSaItEEEvT_S4_ = comdat any

$_ZNSt12_Destroy_auxILb0EE9__destroyIPSt6vectorItSaItEEEEvT_S6_ = comdat any

$_ZSt8_DestroyISt6vectorItSaItEEEvPT_ = comdat any

$_ZSt11__addressofISt6vectorItSaItEEEPT_RS3_ = comdat any

$_ZNSt12_Vector_baseISt6vectorItSaItEESaIS2_EE13_M_deallocateEPS2_m = comdat any

$_ZN9__gnu_cxx13new_allocatorISt6vectorItSaItEEED2Ev = comdat any

$_ZNSt16allocator_traitsISaISt6vectorItSaItEEEE10deallocateERS3_PS2_m = comdat any

$_ZN9__gnu_cxx13new_allocatorISt6vectorItSaItEEE10deallocateEPS3_m = comdat any

$_ZSt8_DestroyIP6w_charS0_EvT_S2_RSaIT0_E = comdat any

$_ZNSt12_Vector_baseI6w_charSaIS0_EE19_M_get_Tp_allocatorEv = comdat any

$_ZNSt12_Vector_baseI6w_charSaIS0_EED2Ev = comdat any

$_ZSt8_DestroyIP6w_charEvT_S2_ = comdat any

$_ZNSt12_Destroy_auxILb1EE9__destroyIP6w_charEEvT_S4_ = comdat any

$_ZNSt12_Vector_baseI6w_charSaIS0_EE13_M_deallocateEPS0_m = comdat any

$_ZN9__gnu_cxx13new_allocatorI6w_charED2Ev = comdat any

$_ZNSt16allocator_traitsISaI6w_charEE10deallocateERS1_PS0_m = comdat any

$_ZN9__gnu_cxx13new_allocatorI6w_charE10deallocateEPS1_m = comdat any

$_ZNSt6vectorINSt7__cxx1112basic_stringIcSt11char_traitsIcESaIcEEESaIS5_EE12emplace_backIJS5_EEEvDpOT_ = comdat any

$_ZSt4moveIRNSt7__cxx1112basic_stringIcSt11char_traitsIcESaIcEEEEONSt16remove_referenceIT_E4typeEOS8_ = comdat any

$_ZNSt16allocator_traitsISaINSt7__cxx1112basic_stringIcSt11char_traitsIcESaIcEEEEE9constructIS5_JS5_EEEvRS6_PT_DpOT0_ = comdat any

$_ZSt7forwardINSt7__cxx1112basic_stringIcSt11char_traitsIcESaIcEEEEOT_RNSt16remove_referenceIS6_E4typeE = comdat any

$_ZNSt6vectorINSt7__cxx1112basic_stringIcSt11char_traitsIcESaIcEEESaIS5_EE17_M_realloc_insertIJS5_EEEvN9__gnu_cxx17__normal_iteratorIPS5_S7_EEDpOT_ = comdat any

$_ZN9__gnu_cxx13new_allocatorINSt7__cxx1112basic_stringIcSt11char_traitsIcESaIcEEEE9constructIS6_JS6_EEEvPT_DpOT0_ = comdat any

$_ZNKSt6vectorINSt7__cxx1112basic_stringIcSt11char_traitsIcESaIcEEESaIS5_EE12_M_check_lenEmPKc = comdat any

$_ZN9__gnu_cxxmiIPNSt7__cxx1112basic_stringIcSt11char_traitsIcESaIcEEESt6vectorIS6_SaIS6_EEEENS_17__normal_iteratorIT_T0_E15difference_typeERKSE_SH_ = comdat any

$_ZNSt12_Vector_baseINSt7__cxx1112basic_stringIcSt11char_traitsIcESaIcEEESaIS5_EE11_M_allocateEm = comdat any

$_ZSt34__uninitialized_move_if_noexcept_aIPNSt7__cxx1112basic_stringIcSt11char_traitsIcESaIcEEES6_SaIS5_EET0_T_S9_S8_RT1_ = comdat any

$_ZNK9__gnu_cxx17__normal_iteratorIPNSt7__cxx1112basic_stringIcSt11char_traitsIcESaIcEEESt6vectorIS6_SaIS6_EEE4baseEv = comdat any

$_ZNKSt6vectorINSt7__cxx1112basic_stringIcSt11char_traitsIcESaIcEEESaIS5_EE8max_sizeEv = comdat any

$_ZNSt16allocator_traitsISaINSt7__cxx1112basic_stringIcSt11char_traitsIcESaIcEEEEE8max_sizeERKS6_ = comdat any

$_ZNKSt12_Vector_baseINSt7__cxx1112basic_stringIcSt11char_traitsIcESaIcEEESaIS5_EE19_M_get_Tp_allocatorEv = comdat any

$_ZNK9__gnu_cxx13new_allocatorINSt7__cxx1112basic_stringIcSt11char_traitsIcESaIcEEEE8max_sizeEv = comdat any

$_ZNSt16allocator_traitsISaINSt7__cxx1112basic_stringIcSt11char_traitsIcESaIcEEEEE8allocateERS6_m = comdat any

$_ZN9__gnu_cxx13new_allocatorINSt7__cxx1112basic_stringIcSt11char_traitsIcESaIcEEEE8allocateEmPKv = comdat any

$_ZSt22__uninitialized_copy_aISt13move_iteratorIPNSt7__cxx1112basic_stringIcSt11char_traitsIcESaIcEEEES7_S6_ET0_T_SA_S9_RSaIT1_E = comdat any

$_ZSt32__make_move_if_noexcept_iteratorINSt7__cxx1112basic_stringIcSt11char_traitsIcESaIcEEESt13move_iteratorIPS5_EET0_PT_ = comdat any

$_ZSt18uninitialized_copyISt13move_iteratorIPNSt7__cxx1112basic_stringIcSt11char_traitsIcESaIcEEEES7_ET0_T_SA_S9_ = comdat any

$_ZNSt20__uninitialized_copyILb0EE13__uninit_copyISt13move_iteratorIPNSt7__cxx1112basic_stringIcSt11char_traitsIcESaIcEEEES9_EET0_T_SC_SB_ = comdat any

$_ZStneIPNSt7__cxx1112basic_stringIcSt11char_traitsIcESaIcEEEEbRKSt13move_iteratorIT_ESB_ = comdat any

$_ZSt10_ConstructINSt7__cxx1112basic_stringIcSt11char_traitsIcESaIcEEEJS5_EEvPT_DpOT0_ = comdat any

$_ZNKSt13move_iteratorIPNSt7__cxx1112basic_stringIcSt11char_traitsIcESaIcEEEEdeEv = comdat any

$_ZNSt13move_iteratorIPNSt7__cxx1112basic_stringIcSt11char_traitsIcESaIcEEEEppEv = comdat any

$_ZSteqIPNSt7__cxx1112basic_stringIcSt11char_traitsIcESaIcEEEEbRKSt13move_iteratorIT_ESB_ = comdat any

$_ZNKSt13move_iteratorIPNSt7__cxx1112basic_stringIcSt11char_traitsIcESaIcEEEE4baseEv = comdat any

$_ZNSt13move_iteratorIPNSt7__cxx1112basic_stringIcSt11char_traitsIcESaIcEEEEC2ES6_ = comdat any

$_ZN9__gnu_cxxeqIPK9replentrySt6vectorIS1_SaIS1_EEEEbRKNS_17__normal_iteratorIT_T0_EESC_ = comdat any

$_ZNKSt6vectorI9replentrySaIS0_EE5beginEv = comdat any

$_ZNKSt6vectorI9replentrySaIS0_EE3endEv = comdat any

$_ZNK9__gnu_cxx17__normal_iteratorIPK9replentrySt6vectorIS1_SaIS1_EEE4baseEv = comdat any

$_ZN9__gnu_cxx17__normal_iteratorIPK9replentrySt6vectorIS1_SaIS1_EEEC2ERKS3_ = comdat any

$_ZN9__gnu_cxxeqIPK6w_charSt6vectorIS1_SaIS1_EEEEbRKNS_17__normal_iteratorIT_T0_EESC_ = comdat any

$_ZNK9__gnu_cxx17__normal_iteratorIPK6w_charSt6vectorIS1_SaIS1_EEE4baseEv = comdat any

$_ZN9__gnu_cxx13new_allocatorI13metachar_dataEC2Ev = comdat any

$_ZNSt12_Vector_baseI13metachar_dataSaIS0_EEC2EmRKS1_ = comdat any

$_ZNSt6vectorI13metachar_dataSaIS0_EE21_M_default_initializeEm = comdat any

$_ZNSt12_Vector_baseI13metachar_dataSaIS0_EE12_Vector_implC2ERKS1_ = comdat any

$_ZNSt12_Vector_baseI13metachar_dataSaIS0_EE17_M_create_storageEm = comdat any

$_ZNSaI13metachar_dataEC2ERKS0_ = comdat any

$_ZN9__gnu_cxx13new_allocatorI13metachar_dataEC2ERKS2_ = comdat any

$_ZNSt12_Vector_baseI13metachar_dataSaIS0_EE11_M_allocateEm = comdat any

$_ZNSt16allocator_traitsISaI13metachar_dataEE8allocateERS1_m = comdat any

$_ZN9__gnu_cxx13new_allocatorI13metachar_dataE8allocateEmPKv = comdat any

$_ZNK9__gnu_cxx13new_allocatorI13metachar_dataE8max_sizeEv = comdat any

$_ZSt27__uninitialized_default_n_aIP13metachar_datamS0_ET_S2_T0_RSaIT1_E = comdat any

$_ZNSt12_Vector_baseI13metachar_dataSaIS0_EE19_M_get_Tp_allocatorEv = comdat any

$_ZSt25__uninitialized_default_nIP13metachar_datamET_S2_T0_ = comdat any

$_ZNSt27__uninitialized_default_n_1ILb1EE18__uninit_default_nIP13metachar_datamEET_S4_T0_ = comdat any

$_ZSt6fill_nIP13metachar_datamS0_ET_S2_T0_RKT1_ = comdat any

$_ZSt10__fill_n_aIP13metachar_datamS0_EN9__gnu_cxx11__enable_ifIXntsr11__is_scalarIT1_EE7__valueET_E6__typeES5_T0_RKS4_ = comdat any

$_ZSt12__niter_baseIP13metachar_dataET_S2_ = comdat any

$_ZSt8_DestroyIP13metachar_dataS0_EvT_S2_RSaIT0_E = comdat any

$_ZNSt12_Vector_baseI13metachar_dataSaIS0_EED2Ev = comdat any

$_ZSt8_DestroyIP13metachar_dataEvT_S2_ = comdat any

$_ZNSt12_Destroy_auxILb1EE9__destroyIP13metachar_dataEEvT_S4_ = comdat any

$_ZNSt12_Vector_baseI13metachar_dataSaIS0_EE13_M_deallocateEPS0_m = comdat any

$_ZN9__gnu_cxx13new_allocatorI13metachar_dataED2Ev = comdat any

$_ZNSt16allocator_traitsISaI13metachar_dataEE10deallocateERS1_PS0_m = comdat any

$_ZN9__gnu_cxx13new_allocatorI13metachar_dataE10deallocateEPS1_m = comdat any

$_ZNKSt6vectorI13metachar_dataSaIS0_EE4sizeEv = comdat any

$_ZNSt6vectorI13metachar_dataSaIS0_EE17_M_default_appendEm = comdat any

$_ZNSt6vectorI13metachar_dataSaIS0_EE15_M_erase_at_endEPS0_ = comdat any

$_ZNKSt6vectorI13metachar_dataSaIS0_EE8max_sizeEv = comdat any

$_ZNKSt6vectorI13metachar_dataSaIS0_EE12_M_check_lenEmPKc = comdat any

$_ZSt34__uninitialized_move_if_noexcept_aIP13metachar_dataS1_SaIS0_EET0_T_S4_S3_RT1_ = comdat any

$_ZNSt16allocator_traitsISaI13metachar_dataEE8max_sizeERKS1_ = comdat any

$_ZNKSt12_Vector_baseI13metachar_dataSaIS0_EE19_M_get_Tp_allocatorEv = comdat any

$_ZSt22__uninitialized_copy_aISt13move_iteratorIP13metachar_dataES2_S1_ET0_T_S5_S4_RSaIT1_E = comdat any

$_ZSt32__make_move_if_noexcept_iteratorI13metachar_dataSt13move_iteratorIPS0_EET0_PT_ = comdat any

$_ZSt18uninitialized_copyISt13move_iteratorIP13metachar_dataES2_ET0_T_S5_S4_ = comdat any

$_ZNSt20__uninitialized_copyILb1EE13__uninit_copyISt13move_iteratorIP13metachar_dataES4_EET0_T_S7_S6_ = comdat any

$_ZSt4copyISt13move_iteratorIP13metachar_dataES2_ET0_T_S5_S4_ = comdat any

$_ZSt14__copy_move_a2ILb1EP13metachar_dataS1_ET1_T0_S3_S2_ = comdat any

$_ZSt12__miter_baseIP13metachar_dataEDTcl12__miter_basecldtfp_4baseEEESt13move_iteratorIT_E = comdat any

$_ZSt13__copy_move_aILb1EP13metachar_dataS1_ET1_T0_S3_S2_ = comdat any

$_ZNSt11__copy_moveILb1ELb1ESt26random_access_iterator_tagE8__copy_mI13metachar_dataEEPT_PKS4_S7_S5_ = comdat any

$_ZSt12__miter_baseIP13metachar_dataET_S2_ = comdat any

$_ZNKSt13move_iteratorIP13metachar_dataE4baseEv = comdat any

$_ZNSt13move_iteratorIP13metachar_dataEC2ES1_ = comdat any

$_ZN9__gnu_cxx17__normal_iteratorIPcNSt7__cxx1112basic_stringIcSt11char_traitsIcESaIcEEEEC2ERKS1_ = comdat any

$_ZSt13__lower_boundIN9__gnu_cxx17__normal_iteratorIPcNSt7__cxx1112basic_stringIcSt11char_traitsIcESaIcEEEEEcNS0_5__ops14_Iter_less_valEET_SC_SC_RKT0_T1_ = comdat any

$_ZSt7advanceIN9__gnu_cxx17__normal_iteratorIPcNSt7__cxx1112basic_stringIcSt11char_traitsIcESaIcEEEEElEvRT_T0_ = comdat any

$_ZNK9__gnu_cxx5__ops14_Iter_less_valclINS_17__normal_iteratorIPcNSt7__cxx1112basic_stringIcSt11char_traitsIcESaIcEEEEEKcEEbT_RT0_ = comdat any

$_ZSt9__advanceIN9__gnu_cxx17__normal_iteratorIPcNSt7__cxx1112basic_stringIcSt11char_traitsIcESaIcEEEEElEvRT_T0_St26random_access_iterator_tag = comdat any

$_ZSt19__iterator_categoryIN9__gnu_cxx17__normal_iteratorIPcNSt7__cxx1112basic_stringIcSt11char_traitsIcESaIcEEEEEENSt15iterator_traitsIT_E17iterator_categoryERKSB_ = comdat any

$_ZN9__gnu_cxx17__normal_iteratorIPcNSt7__cxx1112basic_stringIcSt11char_traitsIcESaIcEEEEpLEl = comdat any

$_ZN9__gnu_cxx17__normal_iteratorIP6w_charSt6vectorIS1_SaIS1_EEEC2ERKS2_ = comdat any

$_ZSt13__lower_boundIN9__gnu_cxx17__normal_iteratorIP6w_charSt6vectorIS2_SaIS2_EEEES2_NS0_5__ops14_Iter_less_valEET_SA_SA_RKT0_T1_ = comdat any

$_ZN9__gnu_cxxneIP6w_charSt6vectorIS1_SaIS1_EEEEbRKNS_17__normal_iteratorIT_T0_EESB_ = comdat any

$_Zlt6w_charS_ = comdat any

$_ZSt7advanceIN9__gnu_cxx17__normal_iteratorIP6w_charSt6vectorIS2_SaIS2_EEEElEvRT_T0_ = comdat any

$_ZNK9__gnu_cxx5__ops14_Iter_less_valclINS_17__normal_iteratorIP6w_charSt6vectorIS4_SaIS4_EEEEKS4_EEbT_RT0_ = comdat any

$_ZSt9__advanceIN9__gnu_cxx17__normal_iteratorIP6w_charSt6vectorIS2_SaIS2_EEEElEvRT_T0_St26random_access_iterator_tag = comdat any

$_ZSt19__iterator_categoryIN9__gnu_cxx17__normal_iteratorIP6w_charSt6vectorIS2_SaIS2_EEEEENSt15iterator_traitsIT_E17iterator_categoryERKS9_ = comdat any

$_ZN9__gnu_cxx17__normal_iteratorIP6w_charSt6vectorIS1_SaIS1_EEEpLEl = comdat any

$_ZNK9__gnu_cxx17__normal_iteratorIP6w_charSt6vectorIS1_SaIS1_EEE4baseEv = comdat any

$_ZN9__gnu_cxxeqIPKSt6vectorItSaItEES1_IS3_SaIS3_EEEEbRKNS_17__normal_iteratorIT_T0_EESD_ = comdat any

$_ZNKSt6vectorIS_ItSaItEESaIS1_EE5beginEv = comdat any

$_ZNKSt6vectorIS_ItSaItEESaIS1_EE3endEv = comdat any

$_ZNK9__gnu_cxx17__normal_iteratorIPKSt6vectorItSaItEES1_IS3_SaIS3_EEE4baseEv = comdat any

$_ZN9__gnu_cxx17__normal_iteratorIPKSt6vectorItSaItEES1_IS3_SaIS3_EEEC2ERKS5_ = comdat any

$_ZSt13__lower_boundIPtiN9__gnu_cxx5__ops14_Iter_less_valEET_S4_S4_RKT0_T1_ = comdat any

$_ZNK9__gnu_cxx5__ops14_Iter_less_valclIPtKiEEbT_RT0_ = comdat any

$_ZSt13__lower_boundIPtcN9__gnu_cxx5__ops14_Iter_less_valEET_S4_S4_RKT0_T1_ = comdat any

$_ZNK9__gnu_cxx5__ops14_Iter_less_valclIPtKcEEbT_RT0_ = comdat any

$_ZN9__gnu_cxxeqIPK8patentrySt6vectorIS1_SaIS1_EEEEbRKNS_17__normal_iteratorIT_T0_EESC_ = comdat any

$_ZNKSt6vectorI8patentrySaIS0_EE5beginEv = comdat any

$_ZNKSt6vectorI8patentrySaIS0_EE3endEv = comdat any

$_ZNK9__gnu_cxx17__normal_iteratorIPK8patentrySt6vectorIS1_SaIS1_EEE4baseEv = comdat any

$_ZN9__gnu_cxx17__normal_iteratorIPK8patentrySt6vectorIS1_SaIS1_EEEC2ERKS3_ = comdat any

$_ZN9__gnu_cxx17__normal_iteratorIPKcNSt7__cxx1112basic_stringIcSt11char_traitsIcESaIcEEEEC2ERKS2_ = comdat any

$_ZNK9__gnu_cxx17__normal_iteratorIPKcNSt7__cxx1112basic_stringIcSt11char_traitsIcESaIcEEEE4baseEv = comdat any

$_ZNSt7__cxx1112basic_stringIcSt11char_traitsIcESaIcEE12_M_constructIN9__gnu_cxx17__normal_iteratorIPKcS4_EEEEvT_SB_ = comdat any

$_ZNSt7__cxx1112basic_stringIcSt11char_traitsIcESaIcEE16_M_construct_auxIN9__gnu_cxx17__normal_iteratorIPKcS4_EEEEvT_SB_St12__false_type = comdat any

$_ZNSt7__cxx1112basic_stringIcSt11char_traitsIcESaIcEE12_M_constructIN9__gnu_cxx17__normal_iteratorIPKcS4_EEEEvT_SB_St20forward_iterator_tag = comdat any

$_ZN9__gnu_cxx17__is_null_pointerINS_17__normal_iteratorIPKcNSt7__cxx1112basic_stringIcSt11char_traitsIcESaIcEEEEEEEbT_ = comdat any

$_ZN9__gnu_cxxmiIPKcNSt7__cxx1112basic_stringIcSt11char_traitsIcESaIcEEEEENS_17__normal_iteratorIT_T0_E15difference_typeERKSC_SF_ = comdat any

$_ZSt6__sortIN9__gnu_cxx17__normal_iteratorIPcNSt7__cxx1112basic_stringIcSt11char_traitsIcESaIcEEEEENS0_5__ops15_Iter_less_iterEEvT_SC_T0_ = comdat any

$_ZN9__gnu_cxx5__ops16__iter_less_iterEv = comdat any

$_ZSt16__introsort_loopIN9__gnu_cxx17__normal_iteratorIPcNSt7__cxx1112basic_stringIcSt11char_traitsIcESaIcEEEEElNS0_5__ops15_Iter_less_iterEEvT_SC_T0_T1_ = comdat any

$_ZSt4__lgl = comdat any

$_ZN9__gnu_cxxmiIPcNSt7__cxx1112basic_stringIcSt11char_traitsIcESaIcEEEEENS_17__normal_iteratorIT_T0_E15difference_typeERKSB_SE_ = comdat any

$_ZSt22__final_insertion_sortIN9__gnu_cxx17__normal_iteratorIPcNSt7__cxx1112basic_stringIcSt11char_traitsIcESaIcEEEEENS0_5__ops15_Iter_less_iterEEvT_SC_T0_ = comdat any

$_ZSt14__partial_sortIN9__gnu_cxx17__normal_iteratorIPcNSt7__cxx1112basic_stringIcSt11char_traitsIcESaIcEEEEENS0_5__ops15_Iter_less_iterEEvT_SC_SC_T0_ = comdat any

$_ZSt27__unguarded_partition_pivotIN9__gnu_cxx17__normal_iteratorIPcNSt7__cxx1112basic_stringIcSt11char_traitsIcESaIcEEEEENS0_5__ops15_Iter_less_iterEET_SC_SC_T0_ = comdat any

$_ZSt13__heap_selectIN9__gnu_cxx17__normal_iteratorIPcNSt7__cxx1112basic_stringIcSt11char_traitsIcESaIcEEEEENS0_5__ops15_Iter_less_iterEEvT_SC_SC_T0_ = comdat any

$_ZSt11__sort_heapIN9__gnu_cxx17__normal_iteratorIPcNSt7__cxx1112basic_stringIcSt11char_traitsIcESaIcEEEEENS0_5__ops15_Iter_less_iterEEvT_SC_RT0_ = comdat any

$_ZSt11__make_heapIN9__gnu_cxx17__normal_iteratorIPcNSt7__cxx1112basic_stringIcSt11char_traitsIcESaIcEEEEENS0_5__ops15_Iter_less_iterEEvT_SC_RT0_ = comdat any

$_ZNK9__gnu_cxx5__ops15_Iter_less_iterclINS_17__normal_iteratorIPcNSt7__cxx1112basic_stringIcSt11char_traitsIcESaIcEEEEESB_EEbT_T0_ = comdat any

$_ZSt10__pop_heapIN9__gnu_cxx17__normal_iteratorIPcNSt7__cxx1112basic_stringIcSt11char_traitsIcESaIcEEEEENS0_5__ops15_Iter_less_iterEEvT_SC_SC_RT0_ = comdat any

$_ZSt4moveIRcEONSt16remove_referenceIT_E4typeEOS2_ = comdat any

$_ZSt13__adjust_heapIN9__gnu_cxx17__normal_iteratorIPcNSt7__cxx1112basic_stringIcSt11char_traitsIcESaIcEEEEElcNS0_5__ops15_Iter_less_iterEEvT_T0_SD_T1_T2_ = comdat any

$_ZSt4moveIRN9__gnu_cxx5__ops15_Iter_less_iterEEONSt16remove_referenceIT_E4typeEOS5_ = comdat any

$_ZN9__gnu_cxx5__ops14_Iter_less_valC2ENS0_15_Iter_less_iterE = comdat any

$_ZSt11__push_heapIN9__gnu_cxx17__normal_iteratorIPcNSt7__cxx1112basic_stringIcSt11char_traitsIcESaIcEEEEElcNS0_5__ops14_Iter_less_valEEvT_T0_SD_T1_RT2_ = comdat any

$_ZNK9__gnu_cxx5__ops14_Iter_less_valclINS_17__normal_iteratorIPcNSt7__cxx1112basic_stringIcSt11char_traitsIcESaIcEEEEEcEEbT_RT0_ = comdat any

$_ZN9__gnu_cxx17__normal_iteratorIPcNSt7__cxx1112basic_stringIcSt11char_traitsIcESaIcEEEEmmEv = comdat any

$_ZSt22__move_median_to_firstIN9__gnu_cxx17__normal_iteratorIPcNSt7__cxx1112basic_stringIcSt11char_traitsIcESaIcEEEEENS0_5__ops15_Iter_less_iterEEvT_SC_SC_SC_T0_ = comdat any

$_ZSt21__unguarded_partitionIN9__gnu_cxx17__normal_iteratorIPcNSt7__cxx1112basic_stringIcSt11char_traitsIcESaIcEEEEENS0_5__ops15_Iter_less_iterEET_SC_SC_SC_T0_ = comdat any

$_ZSt9iter_swapIN9__gnu_cxx17__normal_iteratorIPcNSt7__cxx1112basic_stringIcSt11char_traitsIcESaIcEEEEES9_EvT_T0_ = comdat any

$_ZNK9__gnu_cxx17__normal_iteratorIPcNSt7__cxx1112basic_stringIcSt11char_traitsIcESaIcEEEE4baseEv = comdat any

$_ZSt16__insertion_sortIN9__gnu_cxx17__normal_iteratorIPcNSt7__cxx1112basic_stringIcSt11char_traitsIcESaIcEEEEENS0_5__ops15_Iter_less_iterEEvT_SC_T0_ = comdat any

$_ZSt26__unguarded_insertion_sortIN9__gnu_cxx17__normal_iteratorIPcNSt7__cxx1112basic_stringIcSt11char_traitsIcESaIcEEEEENS0_5__ops15_Iter_less_iterEEvT_SC_T0_ = comdat any

$_ZN9__gnu_cxxeqIPcNSt7__cxx1112basic_stringIcSt11char_traitsIcESaIcEEEEEbRKNS_17__normal_iteratorIT_T0_EESD_ = comdat any

$_ZSt13move_backwardIN9__gnu_cxx17__normal_iteratorIPcNSt7__cxx1112basic_stringIcSt11char_traitsIcESaIcEEEEES9_ET0_T_SB_SA_ = comdat any

$_ZSt25__unguarded_linear_insertIN9__gnu_cxx17__normal_iteratorIPcNSt7__cxx1112basic_stringIcSt11char_traitsIcESaIcEEEEENS0_5__ops14_Val_less_iterEEvT_T0_ = comdat any

$_ZN9__gnu_cxx5__ops15__val_comp_iterENS0_15_Iter_less_iterE = comdat any

$_ZSt23__copy_move_backward_a2ILb1EN9__gnu_cxx17__normal_iteratorIPcNSt7__cxx1112basic_stringIcSt11char_traitsIcESaIcEEEEES9_ET1_T0_SB_SA_ = comdat any

$_ZSt12__miter_baseIN9__gnu_cxx17__normal_iteratorIPcNSt7__cxx1112basic_stringIcSt11char_traitsIcESaIcEEEEEET_SA_ = comdat any

$_ZSt22__copy_move_backward_aILb1EPcS0_ET1_T0_S2_S1_ = comdat any

$_ZSt12__niter_baseIPcNSt7__cxx1112basic_stringIcSt11char_traitsIcESaIcEEEET_N9__gnu_cxx17__normal_iteratorIS7_T0_EE = comdat any

$_ZNSt20__copy_move_backwardILb1ELb1ESt26random_access_iterator_tagE13__copy_move_bIcEEPT_PKS3_S6_S4_ = comdat any

$_ZNK9__gnu_cxx5__ops14_Val_less_iterclIcNS_17__normal_iteratorIPcNSt7__cxx1112basic_stringIcSt11char_traitsIcESaIcEEEEEEEbRT_T0_ = comdat any

$_ZSt6__sortIN9__gnu_cxx17__normal_iteratorIP6w_charSt6vectorIS2_SaIS2_EEEENS0_5__ops15_Iter_less_iterEEvT_SA_T0_ = comdat any

$_ZSt16__introsort_loopIN9__gnu_cxx17__normal_iteratorIP6w_charSt6vectorIS2_SaIS2_EEEElNS0_5__ops15_Iter_less_iterEEvT_SA_T0_T1_ = comdat any

$_ZN9__gnu_cxxmiIP6w_charSt6vectorIS1_SaIS1_EEEENS_17__normal_iteratorIT_T0_E15difference_typeERKS9_SC_ = comdat any

$_ZSt22__final_insertion_sortIN9__gnu_cxx17__normal_iteratorIP6w_charSt6vectorIS2_SaIS2_EEEENS0_5__ops15_Iter_less_iterEEvT_SA_T0_ = comdat any

$_ZSt14__partial_sortIN9__gnu_cxx17__normal_iteratorIP6w_charSt6vectorIS2_SaIS2_EEEENS0_5__ops15_Iter_less_iterEEvT_SA_SA_T0_ = comdat any

$_ZSt27__unguarded_partition_pivotIN9__gnu_cxx17__normal_iteratorIP6w_charSt6vectorIS2_SaIS2_EEEENS0_5__ops15_Iter_less_iterEET_SA_SA_T0_ = comdat any

$_ZSt13__heap_selectIN9__gnu_cxx17__normal_iteratorIP6w_charSt6vectorIS2_SaIS2_EEEENS0_5__ops15_Iter_less_iterEEvT_SA_SA_T0_ = comdat any

$_ZSt11__sort_heapIN9__gnu_cxx17__normal_iteratorIP6w_charSt6vectorIS2_SaIS2_EEEENS0_5__ops15_Iter_less_iterEEvT_SA_RT0_ = comdat any

$_ZSt11__make_heapIN9__gnu_cxx17__normal_iteratorIP6w_charSt6vectorIS2_SaIS2_EEEENS0_5__ops15_Iter_less_iterEEvT_SA_RT0_ = comdat any

$_ZNK9__gnu_cxx5__ops15_Iter_less_iterclINS_17__normal_iteratorIP6w_charSt6vectorIS4_SaIS4_EEEES9_EEbT_T0_ = comdat any

$_ZSt10__pop_heapIN9__gnu_cxx17__normal_iteratorIP6w_charSt6vectorIS2_SaIS2_EEEENS0_5__ops15_Iter_less_iterEEvT_SA_SA_RT0_ = comdat any

$_ZSt4moveIR6w_charEONSt16remove_referenceIT_E4typeEOS3_ = comdat any

$_ZSt13__adjust_heapIN9__gnu_cxx17__normal_iteratorIP6w_charSt6vectorIS2_SaIS2_EEEElS2_NS0_5__ops15_Iter_less_iterEEvT_T0_SB_T1_T2_ = comdat any

$_ZSt11__push_heapIN9__gnu_cxx17__normal_iteratorIP6w_charSt6vectorIS2_SaIS2_EEEElS2_NS0_5__ops14_Iter_less_valEEvT_T0_SB_T1_RT2_ = comdat any

$_ZNK9__gnu_cxx5__ops14_Iter_less_valclINS_17__normal_iteratorIP6w_charSt6vectorIS4_SaIS4_EEEES4_EEbT_RT0_ = comdat any

$_ZN9__gnu_cxx17__normal_iteratorIP6w_charSt6vectorIS1_SaIS1_EEEmmEv = comdat any

$_ZSt22__move_median_to_firstIN9__gnu_cxx17__normal_iteratorIP6w_charSt6vectorIS2_SaIS2_EEEENS0_5__ops15_Iter_less_iterEEvT_SA_SA_SA_T0_ = comdat any

$_ZSt21__unguarded_partitionIN9__gnu_cxx17__normal_iteratorIP6w_charSt6vectorIS2_SaIS2_EEEENS0_5__ops15_Iter_less_iterEET_SA_SA_SA_T0_ = comdat any

$_ZSt9iter_swapIN9__gnu_cxx17__normal_iteratorIP6w_charSt6vectorIS2_SaIS2_EEEES7_EvT_T0_ = comdat any

$_ZSt16__insertion_sortIN9__gnu_cxx17__normal_iteratorIP6w_charSt6vectorIS2_SaIS2_EEEENS0_5__ops15_Iter_less_iterEEvT_SA_T0_ = comdat any

$_ZSt26__unguarded_insertion_sortIN9__gnu_cxx17__normal_iteratorIP6w_charSt6vectorIS2_SaIS2_EEEENS0_5__ops15_Iter_less_iterEEvT_SA_T0_ = comdat any

$_ZN9__gnu_cxxeqIP6w_charSt6vectorIS1_SaIS1_EEEEbRKNS_17__normal_iteratorIT_T0_EESB_ = comdat any

$_ZSt13move_backwardIN9__gnu_cxx17__normal_iteratorIP6w_charSt6vectorIS2_SaIS2_EEEES7_ET0_T_S9_S8_ = comdat any

$_ZSt25__unguarded_linear_insertIN9__gnu_cxx17__normal_iteratorIP6w_charSt6vectorIS2_SaIS2_EEEENS0_5__ops14_Val_less_iterEEvT_T0_ = comdat any

$_ZSt23__copy_move_backward_a2ILb1EN9__gnu_cxx17__normal_iteratorIP6w_charSt6vectorIS2_SaIS2_EEEES7_ET1_T0_S9_S8_ = comdat any

$_ZSt12__miter_baseIN9__gnu_cxx17__normal_iteratorIP6w_charSt6vectorIS2_SaIS2_EEEEET_S8_ = comdat any

$_ZSt22__copy_move_backward_aILb1EP6w_charS1_ET1_T0_S3_S2_ = comdat any

$_ZSt12__niter_baseIP6w_charSt6vectorIS0_SaIS0_EEET_N9__gnu_cxx17__normal_iteratorIS5_T0_EE = comdat any

$_ZNSt20__copy_move_backwardILb1ELb1ESt26random_access_iterator_tagE13__copy_move_bI6w_charEEPT_PKS4_S7_S5_ = comdat any

$_ZNK9__gnu_cxx5__ops14_Val_less_iterclI6w_charNS_17__normal_iteratorIPS3_St6vectorIS3_SaIS3_EEEEEEbRT_T0_ = comdat any

$_ZNKSt6vectorI9replentrySaIS0_EE8max_sizeEv = comdat any

$_ZNKSt6vectorI9replentrySaIS0_EE8capacityEv = comdat any

$_ZNSt6vectorI9replentrySaIS0_EE20_M_allocate_and_copyISt13move_iteratorIPS0_EEES5_mT_S7_ = comdat any

$_ZSt32__make_move_if_noexcept_iteratorI9replentrySt13move_iteratorIPS0_EET0_PT_ = comdat any

$_ZNSt16allocator_traitsISaI9replentryEE8max_sizeERKS1_ = comdat any

$_ZNKSt12_Vector_baseI9replentrySaIS0_EE19_M_get_Tp_allocatorEv = comdat any

$_ZNK9__gnu_cxx13new_allocatorI9replentryE8max_sizeEv = comdat any

$_ZNSt12_Vector_baseI9replentrySaIS0_EE11_M_allocateEm = comdat any

$_ZSt22__uninitialized_copy_aISt13move_iteratorIP9replentryES2_S1_ET0_T_S5_S4_RSaIT1_E = comdat any

$_ZNSt16allocator_traitsISaI9replentryEE8allocateERS1_m = comdat any

$_ZN9__gnu_cxx13new_allocatorI9replentryE8allocateEmPKv = comdat any

$_ZSt18uninitialized_copyISt13move_iteratorIP9replentryES2_ET0_T_S5_S4_ = comdat any

$_ZNSt20__uninitialized_copyILb0EE13__uninit_copyISt13move_iteratorIP9replentryES4_EET0_T_S7_S6_ = comdat any

$_ZStneIP9replentryEbRKSt13move_iteratorIT_ES6_ = comdat any

$_ZSt10_ConstructI9replentryJS0_EEvPT_DpOT0_ = comdat any

$_ZNKSt13move_iteratorIP9replentryEdeEv = comdat any

$_ZNSt13move_iteratorIP9replentryEppEv = comdat any

$_ZSteqIP9replentryEbRKSt13move_iteratorIT_ES6_ = comdat any

$_ZNKSt13move_iteratorIP9replentryE4baseEv = comdat any

$_ZSt7forwardI9replentryEOT_RNSt16remove_referenceIS1_E4typeE = comdat any

$_ZN9replentryC2EOS_ = comdat any

$_ZNSt13move_iteratorIP9replentryEC2ES1_ = comdat any

$_ZNSt6vectorI9replentrySaIS0_EE12emplace_backIJS0_EEEvDpOT_ = comdat any

$_ZSt4moveIR9replentryEONSt16remove_referenceIT_E4typeEOS3_ = comdat any

$_ZNSt16allocator_traitsISaI9replentryEE9constructIS0_JS0_EEEvRS1_PT_DpOT0_ = comdat any

$_ZNSt6vectorI9replentrySaIS0_EE17_M_realloc_insertIJS0_EEEvN9__gnu_cxx17__normal_iteratorIPS0_S2_EEDpOT_ = comdat any

$_ZNSt6vectorI9replentrySaIS0_EE3endEv = comdat any

$_ZN9__gnu_cxx13new_allocatorI9replentryE9constructIS1_JS1_EEEvPT_DpOT0_ = comdat any

$_ZNKSt6vectorI9replentrySaIS0_EE12_M_check_lenEmPKc = comdat any

$_ZN9__gnu_cxxmiIP9replentrySt6vectorIS1_SaIS1_EEEENS_17__normal_iteratorIT_T0_E15difference_typeERKS9_SC_ = comdat any

$_ZNSt6vectorI9replentrySaIS0_EE5beginEv = comdat any

$_ZSt34__uninitialized_move_if_noexcept_aIP9replentryS1_SaIS0_EET0_T_S4_S3_RT1_ = comdat any

$_ZNK9__gnu_cxx17__normal_iteratorIP9replentrySt6vectorIS1_SaIS1_EEE4baseEv = comdat any

$_ZN9__gnu_cxx17__normal_iteratorIP9replentrySt6vectorIS1_SaIS1_EEEC2ERKS2_ = comdat any

$_ZNSt6vectorI9replentrySaIS0_EE15_M_erase_at_endEPS0_ = comdat any

$_ZNK9__gnu_cxx17__normal_iteratorIP9replentrySt6vectorIS1_SaIS1_EEEmiEl = comdat any

$_ZNK9__gnu_cxx17__normal_iteratorIP9replentrySt6vectorIS1_SaIS1_EEEdeEv = comdat any

$_ZNK9__gnu_cxx17__normal_iteratorIPNSt7__cxx1112basic_stringIcSt11char_traitsIcESaIcEEESt6vectorIS6_SaIS6_EEEmiEl = comdat any

$_ZN9__gnu_cxx17__normal_iteratorIPNSt7__cxx1112basic_stringIcSt11char_traitsIcESaIcEEESt6vectorIS6_SaIS6_EEEC2ERKS7_ = comdat any

$_ZNSt6vectorINSt7__cxx1112basic_stringIcSt11char_traitsIcESaIcEEESaIS5_EE15_M_erase_at_endEPS5_ = comdat any

$_ZNKSt6vectorI8patentrySaIS0_EE8max_sizeEv = comdat any

$_ZNKSt6vectorI8patentrySaIS0_EE8capacityEv = comdat any

$_ZNSt6vectorI8patentrySaIS0_EE20_M_allocate_and_copyISt13move_iteratorIPS0_EEES5_mT_S7_ = comdat any

$_ZSt32__make_move_if_noexcept_iteratorI8patentrySt13move_iteratorIPS0_EET0_PT_ = comdat any

$_ZNSt16allocator_traitsISaI8patentryEE8max_sizeERKS1_ = comdat any

$_ZNKSt12_Vector_baseI8patentrySaIS0_EE19_M_get_Tp_allocatorEv = comdat any

$_ZNK9__gnu_cxx13new_allocatorI8patentryE8max_sizeEv = comdat any

$_ZNSt12_Vector_baseI8patentrySaIS0_EE11_M_allocateEm = comdat any

$_ZSt22__uninitialized_copy_aISt13move_iteratorIP8patentryES2_S1_ET0_T_S5_S4_RSaIT1_E = comdat any

$_ZNSt16allocator_traitsISaI8patentryEE8allocateERS1_m = comdat any

$_ZN9__gnu_cxx13new_allocatorI8patentryE8allocateEmPKv = comdat any

$_ZSt18uninitialized_copyISt13move_iteratorIP8patentryES2_ET0_T_S5_S4_ = comdat any

$_ZNSt20__uninitialized_copyILb0EE13__uninit_copyISt13move_iteratorIP8patentryES4_EET0_T_S7_S6_ = comdat any

$_ZStneIP8patentryEbRKSt13move_iteratorIT_ES6_ = comdat any

$_ZSt10_ConstructI8patentryJS0_EEvPT_DpOT0_ = comdat any

$_ZNKSt13move_iteratorIP8patentryEdeEv = comdat any

$_ZNSt13move_iteratorIP8patentryEppEv = comdat any

$_ZSteqIP8patentryEbRKSt13move_iteratorIT_ES6_ = comdat any

$_ZNKSt13move_iteratorIP8patentryE4baseEv = comdat any

$_ZSt7forwardI8patentryEOT_RNSt16remove_referenceIS1_E4typeE = comdat any

$_ZN8patentryC2EOS_ = comdat any

$_ZNSt13move_iteratorIP8patentryEC2ES1_ = comdat any

$_ZNSt6vectorI8patentrySaIS0_EE12emplace_backIJS0_EEEvDpOT_ = comdat any

$_ZSt4moveIR8patentryEONSt16remove_referenceIT_E4typeEOS3_ = comdat any

$_ZNSt16allocator_traitsISaI8patentryEE9constructIS0_JS0_EEEvRS1_PT_DpOT0_ = comdat any

$_ZNSt6vectorI8patentrySaIS0_EE17_M_realloc_insertIJS0_EEEvN9__gnu_cxx17__normal_iteratorIPS0_S2_EEDpOT_ = comdat any

$_ZNSt6vectorI8patentrySaIS0_EE3endEv = comdat any

$_ZN9__gnu_cxx13new_allocatorI8patentryE9constructIS1_JS1_EEEvPT_DpOT0_ = comdat any

$_ZNKSt6vectorI8patentrySaIS0_EE12_M_check_lenEmPKc = comdat any

$_ZN9__gnu_cxxmiIP8patentrySt6vectorIS1_SaIS1_EEEENS_17__normal_iteratorIT_T0_E15difference_typeERKS9_SC_ = comdat any

$_ZNSt6vectorI8patentrySaIS0_EE5beginEv = comdat any

$_ZSt34__uninitialized_move_if_noexcept_aIP8patentryS1_SaIS0_EET0_T_S4_S3_RT1_ = comdat any

$_ZNK9__gnu_cxx17__normal_iteratorIP8patentrySt6vectorIS1_SaIS1_EEE4baseEv = comdat any

$_ZN9__gnu_cxx17__normal_iteratorIP8patentrySt6vectorIS1_SaIS1_EEEC2ERKS2_ = comdat any

$_ZNK9__gnu_cxx17__normal_iteratorIP8patentrySt6vectorIS1_SaIS1_EEEmiEl = comdat any

$_ZNK9__gnu_cxx17__normal_iteratorIP8patentrySt6vectorIS1_SaIS1_EEEdeEv = comdat any

$_ZNKSt6vectorIS_ItSaItEESaIS1_EE8max_sizeEv = comdat any

$_ZNKSt6vectorIS_ItSaItEESaIS1_EE8capacityEv = comdat any

$_ZNSt6vectorIS_ItSaItEESaIS1_EE20_M_allocate_and_copyISt13move_iteratorIPS1_EEES6_mT_S8_ = comdat any

$_ZSt32__make_move_if_noexcept_iteratorISt6vectorItSaItEESt13move_iteratorIPS2_EET0_PT_ = comdat any

$_ZNSt16allocator_traitsISaISt6vectorItSaItEEEE8max_sizeERKS3_ = comdat any

$_ZNKSt12_Vector_baseISt6vectorItSaItEESaIS2_EE19_M_get_Tp_allocatorEv = comdat any

$_ZNK9__gnu_cxx13new_allocatorISt6vectorItSaItEEE8max_sizeEv = comdat any

$_ZNSt12_Vector_baseISt6vectorItSaItEESaIS2_EE11_M_allocateEm = comdat any

$_ZSt22__uninitialized_copy_aISt13move_iteratorIPSt6vectorItSaItEEES4_S3_ET0_T_S7_S6_RSaIT1_E = comdat any

$_ZNSt16allocator_traitsISaISt6vectorItSaItEEEE8allocateERS3_m = comdat any

$_ZN9__gnu_cxx13new_allocatorISt6vectorItSaItEEE8allocateEmPKv = comdat any

$_ZSt18uninitialized_copyISt13move_iteratorIPSt6vectorItSaItEEES4_ET0_T_S7_S6_ = comdat any

$_ZNSt20__uninitialized_copyILb0EE13__uninit_copyISt13move_iteratorIPSt6vectorItSaItEEES6_EET0_T_S9_S8_ = comdat any

$_ZStneIPSt6vectorItSaItEEEbRKSt13move_iteratorIT_ES8_ = comdat any

$_ZSt10_ConstructISt6vectorItSaItEEJS2_EEvPT_DpOT0_ = comdat any

$_ZNKSt13move_iteratorIPSt6vectorItSaItEEEdeEv = comdat any

$_ZNSt13move_iteratorIPSt6vectorItSaItEEEppEv = comdat any

$_ZSteqIPSt6vectorItSaItEEEbRKSt13move_iteratorIT_ES8_ = comdat any

$_ZNKSt13move_iteratorIPSt6vectorItSaItEEE4baseEv = comdat any

$_ZSt7forwardISt6vectorItSaItEEEOT_RNSt16remove_referenceIS3_E4typeE = comdat any

$_ZNSt6vectorItSaItEEC2EOS1_ = comdat any

$_ZSt4moveIRSt6vectorItSaItEEEONSt16remove_referenceIT_E4typeEOS5_ = comdat any

$_ZNSt12_Vector_baseItSaItEEC2EOS1_ = comdat any

$_ZSt4moveIRSaItEEONSt16remove_referenceIT_E4typeEOS3_ = comdat any

$_ZNSt12_Vector_baseItSaItEE19_M_get_Tp_allocatorEv = comdat any

$_ZNSt12_Vector_baseItSaItEE12_Vector_implC2EOS0_ = comdat any

$_ZNSt12_Vector_baseItSaItEE12_Vector_impl12_M_swap_dataERS2_ = comdat any

$_ZNSaItEC2ERKS_ = comdat any

$_ZN9__gnu_cxx13new_allocatorItEC2ERKS1_ = comdat any

$_ZSt4swapIPtENSt9enable_ifIXsr6__and_ISt6__not_ISt15__is_tuple_likeIT_EESt21is_move_constructibleIS4_ESt18is_move_assignableIS4_EEE5valueEvE4typeERS4_SD_ = comdat any

$_ZSt4moveIRPtEONSt16remove_referenceIT_E4typeEOS3_ = comdat any

$_ZNSt13move_iteratorIPSt6vectorItSaItEEEC2ES3_ = comdat any

$_ZNSt12_Vector_baseItSaItEEC2Ev = comdat any

$_ZNSt12_Vector_baseItSaItEE12_Vector_implC2Ev = comdat any

$_ZNSaItEC2Ev = comdat any

$_ZN9__gnu_cxx13new_allocatorItEC2Ev = comdat any

$_ZSt8_DestroyIPttEvT_S1_RSaIT0_E = comdat any

$_ZNSt12_Vector_baseItSaItEED2Ev = comdat any

$_ZSt8_DestroyIPtEvT_S1_ = comdat any

$_ZNSt12_Destroy_auxILb1EE9__destroyIPtEEvT_S3_ = comdat any

$_ZNSt12_Vector_baseItSaItEE13_M_deallocateEPtm = comdat any

$_ZN9__gnu_cxx13new_allocatorItED2Ev = comdat any

$_ZNSt16allocator_traitsISaItEE10deallocateERS0_Ptm = comdat any

$_ZN9__gnu_cxx13new_allocatorItE10deallocateEPtm = comdat any

$_ZNSt6vectorIS_ItSaItEESaIS1_EE12emplace_backIJS1_EEEvDpOT_ = comdat any

$_ZNSt16allocator_traitsISaISt6vectorItSaItEEEE9constructIS2_JS2_EEEvRS3_PT_DpOT0_ = comdat any

$_ZNSt6vectorIS_ItSaItEESaIS1_EE17_M_realloc_insertIJS1_EEEvN9__gnu_cxx17__normal_iteratorIPS1_S3_EEDpOT_ = comdat any

$_ZNSt6vectorIS_ItSaItEESaIS1_EE3endEv = comdat any

$_ZN9__gnu_cxx13new_allocatorISt6vectorItSaItEEE9constructIS3_JS3_EEEvPT_DpOT0_ = comdat any

$_ZNKSt6vectorIS_ItSaItEESaIS1_EE12_M_check_lenEmPKc = comdat any

$_ZN9__gnu_cxxmiIPSt6vectorItSaItEES1_IS3_SaIS3_EEEENS_17__normal_iteratorIT_T0_E15difference_typeERKSA_SD_ = comdat any

$_ZNSt6vectorIS_ItSaItEESaIS1_EE5beginEv = comdat any

$_ZSt34__uninitialized_move_if_noexcept_aIPSt6vectorItSaItEES3_SaIS2_EET0_T_S6_S5_RT1_ = comdat any

$_ZNK9__gnu_cxx17__normal_iteratorIPSt6vectorItSaItEES1_IS3_SaIS3_EEE4baseEv = comdat any

$_ZN9__gnu_cxx17__normal_iteratorIPSt6vectorItSaItEES1_IS3_SaIS3_EEEC2ERKS4_ = comdat any

$_ZSt9__find_ifIN9__gnu_cxx17__normal_iteratorIPKcNSt7__cxx1112basic_stringIcSt11char_traitsIcESaIcEEEEENS0_5__ops16_Iter_equals_valIS2_EEET_SE_SE_T0_ = comdat any

$_ZN9__gnu_cxx5__ops17__iter_equals_valIKcEENS0_16_Iter_equals_valIT_EERS4_ = comdat any

$_ZSt9__find_ifIN9__gnu_cxx17__normal_iteratorIPKcNSt7__cxx1112basic_stringIcSt11char_traitsIcESaIcEEEEENS0_5__ops16_Iter_equals_valIS2_EEET_SE_SE_T0_St26random_access_iterator_tag = comdat any

$_ZSt19__iterator_categoryIN9__gnu_cxx17__normal_iteratorIPKcNSt7__cxx1112basic_stringIcSt11char_traitsIcESaIcEEEEEENSt15iterator_traitsIT_E17iterator_categoryERKSC_ = comdat any

$_ZN9__gnu_cxx5__ops16_Iter_equals_valIKcEclINS_17__normal_iteratorIPS2_NSt7__cxx1112basic_stringIcSt11char_traitsIcESaIcEEEEEEEbT_ = comdat any

$_ZN9__gnu_cxx5__ops16_Iter_equals_valIKcEC2ERS2_ = comdat any

$_ZNK9__gnu_cxx17__normal_iteratorIPSt6vectorItSaItEES1_IS3_SaIS3_EEEmiEl = comdat any

$_ZNK9__gnu_cxx17__normal_iteratorIPSt6vectorItSaItEES1_IS3_SaIS3_EEEdeEv = comdat any

$_ZNSt6vectorItSaItEE12emplace_backIJtEEEvDpOT_ = comdat any

$_ZSt4moveIRtEONSt16remove_referenceIT_E4typeEOS2_ = comdat any

$_ZNSt16allocator_traitsISaItEE9constructItJtEEEvRS0_PT_DpOT0_ = comdat any

$_ZSt7forwardItEOT_RNSt16remove_referenceIS0_E4typeE = comdat any

$_ZNSt6vectorItSaItEE17_M_realloc_insertIJtEEEvN9__gnu_cxx17__normal_iteratorIPtS1_EEDpOT_ = comdat any

$_ZNSt6vectorItSaItEE3endEv = comdat any

$_ZN9__gnu_cxx13new_allocatorItE9constructItJtEEEvPT_DpOT0_ = comdat any

$_ZNKSt6vectorItSaItEE12_M_check_lenEmPKc = comdat any

$_ZN9__gnu_cxxmiIPtSt6vectorItSaItEEEENS_17__normal_iteratorIT_T0_E15difference_typeERKS8_SB_ = comdat any

$_ZNSt6vectorItSaItEE5beginEv = comdat any

$_ZNSt12_Vector_baseItSaItEE11_M_allocateEm = comdat any

$_ZSt34__uninitialized_move_if_noexcept_aIPtS0_SaItEET0_T_S3_S2_RT1_ = comdat any

$_ZNK9__gnu_cxx17__normal_iteratorIPtSt6vectorItSaItEEE4baseEv = comdat any

$_ZNKSt6vectorItSaItEE8max_sizeEv = comdat any

$_ZNSt16allocator_traitsISaItEE8max_sizeERKS0_ = comdat any

$_ZNKSt12_Vector_baseItSaItEE19_M_get_Tp_allocatorEv = comdat any

$_ZNK9__gnu_cxx13new_allocatorItE8max_sizeEv = comdat any

$_ZN9__gnu_cxx17__normal_iteratorIPtSt6vectorItSaItEEEC2ERKS1_ = comdat any

$_ZNSt16allocator_traitsISaItEE8allocateERS0_m = comdat any

$_ZN9__gnu_cxx13new_allocatorItE8allocateEmPKv = comdat any

$_ZSt22__uninitialized_copy_aISt13move_iteratorIPtES1_tET0_T_S4_S3_RSaIT1_E = comdat any

$_ZSt32__make_move_if_noexcept_iteratorItSt13move_iteratorIPtEET0_PT_ = comdat any

$_ZSt18uninitialized_copyISt13move_iteratorIPtES1_ET0_T_S4_S3_ = comdat any

$_ZNSt20__uninitialized_copyILb1EE13__uninit_copyISt13move_iteratorIPtES3_EET0_T_S6_S5_ = comdat any

$_ZSt4copyISt13move_iteratorIPtES1_ET0_T_S4_S3_ = comdat any

$_ZSt14__copy_move_a2ILb1EPtS0_ET1_T0_S2_S1_ = comdat any

$_ZSt12__miter_baseIPtEDTcl12__miter_basecldtfp_4baseEEESt13move_iteratorIT_E = comdat any

$_ZSt13__copy_move_aILb1EPtS0_ET1_T0_S2_S1_ = comdat any

$_ZSt12__niter_baseIPtET_S1_ = comdat any

$_ZNSt11__copy_moveILb1ELb1ESt26random_access_iterator_tagE8__copy_mItEEPT_PKS3_S6_S4_ = comdat any

$_ZSt12__miter_baseIPtET_S1_ = comdat any

$_ZNKSt13move_iteratorIPtE4baseEv = comdat any

$_ZNSt13move_iteratorIPtEC2ES0_ = comdat any

$_ZN9__gnu_cxxeqIPKtSt6vectorItSaItEEEEbRKNS_17__normal_iteratorIT_T0_EESB_ = comdat any

$_ZNKSt6vectorItSaItEE5beginEv = comdat any

$_ZNKSt6vectorItSaItEE3endEv = comdat any

$_ZNK9__gnu_cxx17__normal_iteratorIPKtSt6vectorItSaItEEE4baseEv = comdat any

$_ZN9__gnu_cxx17__normal_iteratorIPKtSt6vectorItSaItEEEC2ERKS2_ = comdat any

$_ZNKSt6vectorIS_INSt7__cxx1112basic_stringIcSt11char_traitsIcESaIcEEESaIS5_EESaIS7_EE8max_sizeEv = comdat any

$_ZNKSt6vectorIS_INSt7__cxx1112basic_stringIcSt11char_traitsIcESaIcEEESaIS5_EESaIS7_EE8capacityEv = comdat any

$_ZNSt6vectorIS_INSt7__cxx1112basic_stringIcSt11char_traitsIcESaIcEEESaIS5_EESaIS7_EE20_M_allocate_and_copyISt13move_iteratorIPS7_EEESC_mT_SE_ = comdat any

$_ZSt32__make_move_if_noexcept_iteratorISt6vectorINSt7__cxx1112basic_stringIcSt11char_traitsIcESaIcEEESaIS6_EESt13move_iteratorIPS8_EET0_PT_ = comdat any

$_ZNSt16allocator_traitsISaISt6vectorINSt7__cxx1112basic_stringIcSt11char_traitsIcESaIcEEESaIS6_EEEE8max_sizeERKS9_ = comdat any

$_ZNKSt12_Vector_baseISt6vectorINSt7__cxx1112basic_stringIcSt11char_traitsIcESaIcEEESaIS6_EESaIS8_EE19_M_get_Tp_allocatorEv = comdat any

$_ZNK9__gnu_cxx13new_allocatorISt6vectorINSt7__cxx1112basic_stringIcSt11char_traitsIcESaIcEEESaIS7_EEE8max_sizeEv = comdat any

$_ZNSt12_Vector_baseISt6vectorINSt7__cxx1112basic_stringIcSt11char_traitsIcESaIcEEESaIS6_EESaIS8_EE11_M_allocateEm = comdat any

$_ZSt22__uninitialized_copy_aISt13move_iteratorIPSt6vectorINSt7__cxx1112basic_stringIcSt11char_traitsIcESaIcEEESaIS7_EEESA_S9_ET0_T_SD_SC_RSaIT1_E = comdat any

$_ZNSt16allocator_traitsISaISt6vectorINSt7__cxx1112basic_stringIcSt11char_traitsIcESaIcEEESaIS6_EEEE8allocateERS9_m = comdat any

$_ZN9__gnu_cxx13new_allocatorISt6vectorINSt7__cxx1112basic_stringIcSt11char_traitsIcESaIcEEESaIS7_EEE8allocateEmPKv = comdat any

$_ZSt18uninitialized_copyISt13move_iteratorIPSt6vectorINSt7__cxx1112basic_stringIcSt11char_traitsIcESaIcEEESaIS7_EEESA_ET0_T_SD_SC_ = comdat any

$_ZNSt20__uninitialized_copyILb0EE13__uninit_copyISt13move_iteratorIPSt6vectorINSt7__cxx1112basic_stringIcSt11char_traitsIcESaIcEEESaIS9_EEESC_EET0_T_SF_SE_ = comdat any

$_ZStneIPSt6vectorINSt7__cxx1112basic_stringIcSt11char_traitsIcESaIcEEESaIS6_EEEbRKSt13move_iteratorIT_ESE_ = comdat any

$_ZSt10_ConstructISt6vectorINSt7__cxx1112basic_stringIcSt11char_traitsIcESaIcEEESaIS6_EEJS8_EEvPT_DpOT0_ = comdat any

$_ZNKSt13move_iteratorIPSt6vectorINSt7__cxx1112basic_stringIcSt11char_traitsIcESaIcEEESaIS6_EEEdeEv = comdat any

$_ZNSt13move_iteratorIPSt6vectorINSt7__cxx1112basic_stringIcSt11char_traitsIcESaIcEEESaIS6_EEEppEv = comdat any

$_ZSteqIPSt6vectorINSt7__cxx1112basic_stringIcSt11char_traitsIcESaIcEEESaIS6_EEEbRKSt13move_iteratorIT_ESE_ = comdat any

$_ZNKSt13move_iteratorIPSt6vectorINSt7__cxx1112basic_stringIcSt11char_traitsIcESaIcEEESaIS6_EEE4baseEv = comdat any

$_ZSt7forwardISt6vectorINSt7__cxx1112basic_stringIcSt11char_traitsIcESaIcEEESaIS6_EEEOT_RNSt16remove_referenceIS9_E4typeE = comdat any

$_ZNSt13move_iteratorIPSt6vectorINSt7__cxx1112basic_stringIcSt11char_traitsIcESaIcEEESaIS6_EEEC2ES9_ = comdat any

$_ZNSt6vectorIS_INSt7__cxx1112basic_stringIcSt11char_traitsIcESaIcEEESaIS5_EESaIS7_EE12emplace_backIJS7_EEEvDpOT_ = comdat any

$_ZSt4moveIRSt6vectorINSt7__cxx1112basic_stringIcSt11char_traitsIcESaIcEEESaIS6_EEEONSt16remove_referenceIT_E4typeEOSB_ = comdat any

$_ZNSt16allocator_traitsISaISt6vectorINSt7__cxx1112basic_stringIcSt11char_traitsIcESaIcEEESaIS6_EEEE9constructIS8_JS8_EEEvRS9_PT_DpOT0_ = comdat any

$_ZNSt6vectorIS_INSt7__cxx1112basic_stringIcSt11char_traitsIcESaIcEEESaIS5_EESaIS7_EE17_M_realloc_insertIJS7_EEEvN9__gnu_cxx17__normal_iteratorIPS7_S9_EEDpOT_ = comdat any

$_ZNSt6vectorIS_INSt7__cxx1112basic_stringIcSt11char_traitsIcESaIcEEESaIS5_EESaIS7_EE3endEv = comdat any

$_ZN9__gnu_cxx13new_allocatorISt6vectorINSt7__cxx1112basic_stringIcSt11char_traitsIcESaIcEEESaIS7_EEE9constructIS9_JS9_EEEvPT_DpOT0_ = comdat any

$_ZNKSt6vectorIS_INSt7__cxx1112basic_stringIcSt11char_traitsIcESaIcEEESaIS5_EESaIS7_EE12_M_check_lenEmPKc = comdat any

$_ZN9__gnu_cxxmiIPSt6vectorINSt7__cxx1112basic_stringIcSt11char_traitsIcESaIcEEESaIS7_EES1_IS9_SaIS9_EEEENS_17__normal_iteratorIT_T0_E15difference_typeERKSG_SJ_ = comdat any

$_ZNSt6vectorIS_INSt7__cxx1112basic_stringIcSt11char_traitsIcESaIcEEESaIS5_EESaIS7_EE5beginEv = comdat any

$_ZSt34__uninitialized_move_if_noexcept_aIPSt6vectorINSt7__cxx1112basic_stringIcSt11char_traitsIcESaIcEEESaIS6_EES9_SaIS8_EET0_T_SC_SB_RT1_ = comdat any

$_ZNK9__gnu_cxx17__normal_iteratorIPSt6vectorINSt7__cxx1112basic_stringIcSt11char_traitsIcESaIcEEESaIS7_EES1_IS9_SaIS9_EEE4baseEv = comdat any

$_ZN9__gnu_cxx17__normal_iteratorIPSt6vectorINSt7__cxx1112basic_stringIcSt11char_traitsIcESaIcEEESaIS7_EES1_IS9_SaIS9_EEEC2ERKSA_ = comdat any

$_ZNK9__gnu_cxx17__normal_iteratorIPSt6vectorINSt7__cxx1112basic_stringIcSt11char_traitsIcESaIcEEESaIS7_EES1_IS9_SaIS9_EEEmiEl = comdat any

$_ZNK9__gnu_cxx17__normal_iteratorIPSt6vectorINSt7__cxx1112basic_stringIcSt11char_traitsIcESaIcEEESaIS7_EES1_IS9_SaIS9_EEEdeEv = comdat any

$_ZN9__gnu_cxxeqIPKNSt7__cxx1112basic_stringIcSt11char_traitsIcESaIcEEESt6vectorIS6_SaIS6_EEEEbRKNS_17__normal_iteratorIT_T0_EESH_ = comdat any

$_ZNKSt6vectorINSt7__cxx1112basic_stringIcSt11char_traitsIcESaIcEEESaIS5_EE5beginEv = comdat any

$_ZNKSt6vectorINSt7__cxx1112basic_stringIcSt11char_traitsIcESaIcEEESaIS5_EE3endEv = comdat any

$_ZNK9__gnu_cxx17__normal_iteratorIPKNSt7__cxx1112basic_stringIcSt11char_traitsIcESaIcEEESt6vectorIS6_SaIS6_EEE4baseEv = comdat any

$_ZN9__gnu_cxx17__normal_iteratorIPKNSt7__cxx1112basic_stringIcSt11char_traitsIcESaIcEEESt6vectorIS6_SaIS6_EEEC2ERKS8_ = comdat any

$_ZNKSt6vectorINSt7__cxx1112basic_stringIcSt11char_traitsIcESaIcEEESaIS5_EE8capacityEv = comdat any

$_ZNSt6vectorINSt7__cxx1112basic_stringIcSt11char_traitsIcESaIcEEESaIS5_EE20_M_allocate_and_copyISt13move_iteratorIPS5_EEESA_mT_SC_ = comdat any

$_ZNSt16reverse_iteratorIN9__gnu_cxx17__normal_iteratorIPcNSt7__cxx1112basic_stringIcSt11char_traitsIcESaIcEEEEEEC2ES9_ = comdat any

$_ZSteqIN9__gnu_cxx17__normal_iteratorIPcNSt7__cxx1112basic_stringIcSt11char_traitsIcESaIcEEEEEEbRKSt16reverse_iteratorIT_ESE_ = comdat any

$_ZNKSt16reverse_iteratorIN9__gnu_cxx17__normal_iteratorIPcNSt7__cxx1112basic_stringIcSt11char_traitsIcESaIcEEEEEE4baseEv = comdat any

$_ZSt6__sortIPtN9__gnu_cxx5__ops15_Iter_less_iterEEvT_S4_T0_ = comdat any

$_ZSt16__introsort_loopIPtlN9__gnu_cxx5__ops15_Iter_less_iterEEvT_S4_T0_T1_ = comdat any

$_ZSt22__final_insertion_sortIPtN9__gnu_cxx5__ops15_Iter_less_iterEEvT_S4_T0_ = comdat any

$_ZSt14__partial_sortIPtN9__gnu_cxx5__ops15_Iter_less_iterEEvT_S4_S4_T0_ = comdat any

$_ZSt27__unguarded_partition_pivotIPtN9__gnu_cxx5__ops15_Iter_less_iterEET_S4_S4_T0_ = comdat any

$_ZSt13__heap_selectIPtN9__gnu_cxx5__ops15_Iter_less_iterEEvT_S4_S4_T0_ = comdat any

$_ZSt11__sort_heapIPtN9__gnu_cxx5__ops15_Iter_less_iterEEvT_S4_RT0_ = comdat any

$_ZSt11__make_heapIPtN9__gnu_cxx5__ops15_Iter_less_iterEEvT_S4_RT0_ = comdat any

$_ZNK9__gnu_cxx5__ops15_Iter_less_iterclIPtS3_EEbT_T0_ = comdat any

$_ZSt10__pop_heapIPtN9__gnu_cxx5__ops15_Iter_less_iterEEvT_S4_S4_RT0_ = comdat any

$_ZSt13__adjust_heapIPtltN9__gnu_cxx5__ops15_Iter_less_iterEEvT_T0_S5_T1_T2_ = comdat any

$_ZSt11__push_heapIPtltN9__gnu_cxx5__ops14_Iter_less_valEEvT_T0_S5_T1_RT2_ = comdat any

$_ZNK9__gnu_cxx5__ops14_Iter_less_valclIPttEEbT_RT0_ = comdat any

$_ZSt22__move_median_to_firstIPtN9__gnu_cxx5__ops15_Iter_less_iterEEvT_S4_S4_S4_T0_ = comdat any

$_ZSt21__unguarded_partitionIPtN9__gnu_cxx5__ops15_Iter_less_iterEET_S4_S4_S4_T0_ = comdat any

$_ZSt9iter_swapIPtS0_EvT_T0_ = comdat any

$_ZSt4swapItENSt9enable_ifIXsr6__and_ISt6__not_ISt15__is_tuple_likeIT_EESt21is_move_constructibleIS3_ESt18is_move_assignableIS3_EEE5valueEvE4typeERS3_SC_ = comdat any

$_ZSt16__insertion_sortIPtN9__gnu_cxx5__ops15_Iter_less_iterEEvT_S4_T0_ = comdat any

$_ZSt26__unguarded_insertion_sortIPtN9__gnu_cxx5__ops15_Iter_less_iterEEvT_S4_T0_ = comdat any

$_ZSt13move_backwardIPtS0_ET0_T_S2_S1_ = comdat any

$_ZSt25__unguarded_linear_insertIPtN9__gnu_cxx5__ops14_Val_less_iterEEvT_T0_ = comdat any

$_ZSt23__copy_move_backward_a2ILb1EPtS0_ET1_T0_S2_S1_ = comdat any

$_ZSt22__copy_move_backward_aILb1EPtS0_ET1_T0_S2_S1_ = comdat any

$_ZNSt20__copy_move_backwardILb1ELb1ESt26random_access_iterator_tagE13__copy_move_bItEEPT_PKS3_S6_S4_ = comdat any

$_ZNK9__gnu_cxx5__ops14_Val_less_iterclItPtEEbRT_T0_ = comdat any

$_ZNSt16allocator_traitsISaINSt7__cxx1112basic_stringIcSt11char_traitsIcESaIcEEEEE9constructIS5_JRKS5_EEEvRS6_PT_DpOT0_ = comdat any

$_ZNSt6vectorINSt7__cxx1112basic_stringIcSt11char_traitsIcESaIcEEESaIS5_EE17_M_realloc_insertIJRKS5_EEEvN9__gnu_cxx17__normal_iteratorIPS5_S7_EEDpOT_ = comdat any

$_ZN9__gnu_cxx13new_allocatorINSt7__cxx1112basic_stringIcSt11char_traitsIcESaIcEEEE9constructIS6_JRKS6_EEEvPT_DpOT0_ = comdat any

$_ZSt7forwardIRKNSt7__cxx1112basic_stringIcSt11char_traitsIcESaIcEEEEOT_RNSt16remove_referenceIS8_E4typeE = comdat any

$_ZNSt12_Vector_baseINSt7__cxx1112basic_stringIcSt11char_traitsIcESaIcEEESaIS5_EEC2EOS7_ = comdat any

$_ZSt4moveIRSaINSt7__cxx1112basic_stringIcSt11char_traitsIcESaIcEEEEEONSt16remove_referenceIT_E4typeEOS9_ = comdat any

$_ZNSt12_Vector_baseINSt7__cxx1112basic_stringIcSt11char_traitsIcESaIcEEESaIS5_EE12_Vector_implC2EOS6_ = comdat any

$_ZNSt12_Vector_baseINSt7__cxx1112basic_stringIcSt11char_traitsIcESaIcEEESaIS5_EE12_Vector_impl12_M_swap_dataERS8_ = comdat any

$_ZN9__gnu_cxx13new_allocatorINSt7__cxx1112basic_stringIcSt11char_traitsIcESaIcEEEEC2ERKS7_ = comdat any

$_ZSt4swapIPNSt7__cxx1112basic_stringIcSt11char_traitsIcESaIcEEEENSt9enable_ifIXsr6__and_ISt6__not_ISt15__is_tuple_likeIT_EESt21is_move_constructibleISA_ESt18is_move_assignableISA_EEE5valueEvE4typeERSA_SJ_ = comdat any

$_ZSt4moveIRPNSt7__cxx1112basic_stringIcSt11char_traitsIcESaIcEEEEONSt16remove_referenceIT_E4typeEOS9_ = comdat any

$_ZN7mozilla9UniquePtrINS_7DecoderENS_13DefaultDeleteIS1_EEE5resetEPS1_ = comdat any

$_ZN7mozilla9UniquePtrINS_7DecoderENS_13DefaultDeleteIS1_EEE3ptrEv = comdat any

$_ZN7mozilla9UniquePtrINS_7DecoderENS_13DefaultDeleteIS1_EEE11get_deleterEv = comdat any

$_ZNK7mozilla13DefaultDeleteINS_7DecoderEEclEPS1_ = comdat any

$_ZN7mozilla6detail10PairHelperIPNS_7DecoderENS_13DefaultDeleteIS2_EELNS0_11StorageTypeE1ELS6_0EE5firstEv = comdat any

$_ZN7mozilla9UniquePtrINS_7DecoderENS_13DefaultDeleteIS1_EEE3delEv = comdat any

$_ZN7mozilla6detail10PairHelperIPNS_7DecoderENS_13DefaultDeleteIS2_EELNS0_11StorageTypeE1ELS6_0EE6secondEv = comdat any

$_ZN7mozilla7DecoderD2Ev = comdat any

$_ZN7mozilla7DecoderdlEPv = comdat any

$_ZN7mozilla9UniquePtrINS_7EncoderENS_13DefaultDeleteIS1_EEE5resetEPS1_ = comdat any

$_ZN7mozilla9UniquePtrINS_7EncoderENS_13DefaultDeleteIS1_EEE3ptrEv = comdat any

$_ZN7mozilla9UniquePtrINS_7EncoderENS_13DefaultDeleteIS1_EEE11get_deleterEv = comdat any

$_ZNK7mozilla13DefaultDeleteINS_7EncoderEEclEPS1_ = comdat any

$_ZN7mozilla6detail10PairHelperIPNS_7EncoderENS_13DefaultDeleteIS2_EELNS0_11StorageTypeE1ELS6_0EE5firstEv = comdat any

$_ZN7mozilla9UniquePtrINS_7EncoderENS_13DefaultDeleteIS1_EEE3delEv = comdat any

$_ZN7mozilla6detail10PairHelperIPNS_7EncoderENS_13DefaultDeleteIS2_EELNS0_11StorageTypeE1ELS6_0EE6secondEv = comdat any

$_ZN7mozilla7EncoderD2Ev = comdat any

$_ZN7mozilla7EncoderdlEPv = comdat any

$_ZStorSt12_Ios_IostateS_ = comdat any

$_ZN9__gnu_cxx17__normal_iteratorIPK6w_charSt6vectorIS1_SaIS1_EEEC2ERKS3_ = comdat any

$_ZNSt6vectorI6w_charSaIS0_EE15_M_erase_at_endEPS0_ = comdat any

$_ZSt10__distanceIN9__gnu_cxx17__normal_iteratorIPKcNSt7__cxx1112basic_stringIcSt11char_traitsIcESaIcEEEEEENSt15iterator_traitsIT_E15difference_typeESC_SC_St26random_access_iterator_tag = comdat any

$_ZNSt16allocator_traitsISaI6w_charEE9constructIS0_JRKS0_EEEvRS1_PT_DpOT0_ = comdat any

$_ZNSt6vectorI6w_charSaIS0_EE17_M_realloc_insertIJRKS0_EEEvN9__gnu_cxx17__normal_iteratorIPS0_S2_EEDpOT_ = comdat any

$_ZN9__gnu_cxx13new_allocatorI6w_charE9constructIS1_JRKS1_EEEvPT_DpOT0_ = comdat any

$_ZSt7forwardIRK6w_charEOT_RNSt16remove_referenceIS3_E4typeE = comdat any

$_ZNKSt6vectorI6w_charSaIS0_EE12_M_check_lenEmPKc = comdat any

$_ZNSt12_Vector_baseI6w_charSaIS0_EE11_M_allocateEm = comdat any

$_ZSt34__uninitialized_move_if_noexcept_aIP6w_charS1_SaIS0_EET0_T_S4_S3_RT1_ = comdat any

$_ZNKSt6vectorI6w_charSaIS0_EE8max_sizeEv = comdat any

$_ZNSt16allocator_traitsISaI6w_charEE8max_sizeERKS1_ = comdat any

$_ZNKSt12_Vector_baseI6w_charSaIS0_EE19_M_get_Tp_allocatorEv = comdat any

$_ZNK9__gnu_cxx13new_allocatorI6w_charE8max_sizeEv = comdat any

$_ZNSt16allocator_traitsISaI6w_charEE8allocateERS1_m = comdat any

$_ZN9__gnu_cxx13new_allocatorI6w_charE8allocateEmPKv = comdat any

$_ZSt22__uninitialized_copy_aISt13move_iteratorIP6w_charES2_S1_ET0_T_S5_S4_RSaIT1_E = comdat any

$_ZSt32__make_move_if_noexcept_iteratorI6w_charSt13move_iteratorIPS0_EET0_PT_ = comdat any

$_ZSt18uninitialized_copyISt13move_iteratorIP6w_charES2_ET0_T_S5_S4_ = comdat any

$_ZNSt20__uninitialized_copyILb1EE13__uninit_copyISt13move_iteratorIP6w_charES4_EET0_T_S7_S6_ = comdat any

$_ZSt4copyISt13move_iteratorIP6w_charES2_ET0_T_S5_S4_ = comdat any

$_ZSt14__copy_move_a2ILb1EP6w_charS1_ET1_T0_S3_S2_ = comdat any

$_ZSt12__miter_baseIP6w_charEDTcl12__miter_basecldtfp_4baseEEESt13move_iteratorIT_E = comdat any

$_ZSt13__copy_move_aILb1EP6w_charS1_ET1_T0_S3_S2_ = comdat any

$_ZSt12__niter_baseIP6w_charET_S2_ = comdat any

$_ZNSt11__copy_moveILb1ELb1ESt26random_access_iterator_tagE8__copy_mI6w_charEEPT_PKS4_S7_S5_ = comdat any

$_ZSt12__miter_baseIP6w_charET_S2_ = comdat any

$_ZNKSt13move_iteratorIP6w_charE4baseEv = comdat any

$_ZNSt13move_iteratorIP6w_charEC2ES1_ = comdat any

$_ZN7mozilla21CountingAllocatorBaseI17HunspellAllocatorE19MallocSizeOfOnAllocEPKv = comdat any

$_ZN7mozilla6AtomicImLNS_14MemoryOrderingE2ELNS_12recordreplay8BehaviorE0EvEpLEm = comdat any

$_ZN7mozilla6detail15IntrinsicAddSubImLNS_14MemoryOrderingE2ELNS_12recordreplay8BehaviorE0EE3addERSt6atomicImEm = comdat any

$_ZStanSt13_Ios_OpenmodeS_ = comdat any

$_ZNSt7__cxx1115basic_stringbufIcSt11char_traitsIcESaIcEED2Ev = comdat any

$_ZStanSt12_Ios_IostateS_ = comdat any

$_ZNSt11char_traitsIcE7compareEPKcS2_m = comdat any

$_ZSt9__reverseIN9__gnu_cxx17__normal_iteratorIPcNSt7__cxx1112basic_stringIcSt11char_traitsIcESaIcEEEEEEvT_SA_St26random_access_iterator_tag = comdat any

$_ZSt9__reverseIN9__gnu_cxx17__normal_iteratorIP6w_charSt6vectorIS2_SaIS2_EEEEEvT_S8_St26random_access_iterator_tag = comdat any

$_ZSt9__find_ifIN9__gnu_cxx17__normal_iteratorIPNSt7__cxx1112basic_stringIcSt11char_traitsIcESaIcEEESt6vectorIS7_SaIS7_EEEENS0_5__ops16_Iter_equals_valIKS7_EEET_SH_SH_T0_ = comdat any

$_ZN9__gnu_cxx5__ops17__iter_equals_valIKNSt7__cxx1112basic_stringIcSt11char_traitsIcESaIcEEEEENS0_16_Iter_equals_valIT_EERSA_ = comdat any

$_ZSt9__find_ifIN9__gnu_cxx17__normal_iteratorIPNSt7__cxx1112basic_stringIcSt11char_traitsIcESaIcEEESt6vectorIS7_SaIS7_EEEENS0_5__ops16_Iter_equals_valIKS7_EEET_SH_SH_T0_St26random_access_iterator_tag = comdat any

$_ZSt19__iterator_categoryIN9__gnu_cxx17__normal_iteratorIPNSt7__cxx1112basic_stringIcSt11char_traitsIcESaIcEEESt6vectorIS7_SaIS7_EEEEENSt15iterator_traitsIT_E17iterator_categoryERKSE_ = comdat any

$_ZN9__gnu_cxx5__ops16_Iter_equals_valIKNSt7__cxx1112basic_stringIcSt11char_traitsIcESaIcEEEEclINS_17__normal_iteratorIPS7_St6vectorIS7_SaIS7_EEEEEEbT_ = comdat any

$_ZN9__gnu_cxx5__ops16_Iter_equals_valIKNSt7__cxx1112basic_stringIcSt11char_traitsIcESaIcEEEEC2ERS8_ = comdat any

$_ZN9__gnu_cxx14__alloc_traitsISaINSt7__cxx1112basic_stringIcSt11char_traitsIcESaIcEEEES6_E10_S_on_swapERS7_S9_ = comdat any

$_ZSt15__alloc_on_swapISaINSt7__cxx1112basic_stringIcSt11char_traitsIcESaIcEEEEEvRT_S8_ = comdat any

$_ZSt18__do_alloc_on_swapISaINSt7__cxx1112basic_stringIcSt11char_traitsIcESaIcEEEEEvRT_S8_St17integral_constantIbLb0EE = comdat any

$_ZN7mozilla4SpanIhLm18446744073709551615EEC2EPhm = comdat any

$_ZN7mozilla4SpanIhLm18446744073709551615EE12storage_typeINS_12span_details11extent_typeILm18446744073709551615EEEEC2ImEEPhT_ = comdat any

$_ZN7mozilla5TupleIJRjRmS2_EEC2ES1_S2_S2_ = comdat any

$_ZN7mozilla6detail9TupleImplILm0EJRjRmS3_EEC2ES2_S3_S3_ = comdat any

$_ZN7mozilla6detail9TupleImplILm1EJRmS2_EEC2ES2_S2_ = comdat any

$_ZN7mozilla6detail9TupleImplILm2EJRmEEC2ES2_ = comdat any

$_ZNK7mozilla9UniquePtrINS_7DecoderENS_13DefaultDeleteIS1_EEE3getEv = comdat any

$_ZNK7mozilla9UniquePtrINS_7DecoderENS_13DefaultDeleteIS1_EEE3ptrEv = comdat any

$_ZNK7mozilla6detail10PairHelperIPNS_7DecoderENS_13DefaultDeleteIS2_EELNS0_11StorageTypeE1ELS6_0EE5firstEv = comdat any

$_ZSt4moveIRN7mozilla5TupleIJjmmEEEEONSt16remove_referenceIT_E4typeEOS5_ = comdat any

$_ZN7mozilla6detail9TupleImplILm0EJRjRmS3_EEaSIJjmmEvEERS4_ONS1_ILm0EJDpT_EEE = comdat any

$_ZSt4moveIRjEONSt16remove_referenceIT_E4typeEOS2_ = comdat any

$_ZN7mozilla6detail9TupleImplILm0EJjmmEE4HeadERS2_ = comdat any

$_ZN7mozilla6detail9TupleImplILm0EJRjRmS3_EE4HeadERS4_ = comdat any

$_ZSt4moveIRN7mozilla6detail9TupleImplILm1EJmmEEEEONSt16remove_referenceIT_E4typeEOS6_ = comdat any

$_ZN7mozilla6detail9TupleImplILm0EJjmmEE4TailERS2_ = comdat any

$_ZN7mozilla6detail9TupleImplILm0EJRjRmS3_EE4TailERS4_ = comdat any

$_ZN7mozilla6detail9TupleImplILm1EJRmS2_EEaSIJmmEvEERS3_ONS1_ILm1EJDpT_EEE = comdat any

$_ZSt4moveIRmEONSt16remove_referenceIT_E4typeEOS2_ = comdat any

$_ZN7mozilla6detail9TupleImplILm1EJmmEE4HeadERS2_ = comdat any

$_ZN7mozilla6detail9TupleImplILm1EJRmS2_EE4HeadERS3_ = comdat any

$_ZSt4moveIRN7mozilla6detail9TupleImplILm2EJmEEEEONSt16remove_referenceIT_E4typeEOS6_ = comdat any

$_ZN7mozilla6detail9TupleImplILm1EJmmEE4TailERS2_ = comdat any

$_ZN7mozilla6detail9TupleImplILm1EJRmS2_EE4TailERS3_ = comdat any

$_ZN7mozilla6detail9TupleImplILm2EJRmEEaSIJmEvEERS3_ONS1_ILm2EJDpT_EEE = comdat any

$_ZN7mozilla6detail9TupleImplILm2EJmEE4HeadERS2_ = comdat any

$_ZN7mozilla6detail9TupleImplILm2EJRmEE4HeadERS3_ = comdat any

$_ZSt4moveIRN7mozilla6detail9TupleImplILm3EJEEEEONSt16remove_referenceIT_E4typeEOS6_ = comdat any

$_ZN7mozilla6detail9TupleImplILm2EJmEE4TailERS2_ = comdat any

$_ZN7mozilla6detail9TupleImplILm2EJRmEE4TailERS3_ = comdat any

$_ZNK7mozilla9UniquePtrINS_7EncoderENS_13DefaultDeleteIS1_EEE3getEv = comdat any

$_ZNK7mozilla9UniquePtrINS_7EncoderENS_13DefaultDeleteIS1_EEE3ptrEv = comdat any

$_ZNK7mozilla6detail10PairHelperIPNS_7EncoderENS_13DefaultDeleteIS2_EELNS0_11StorageTypeE1ELS6_0EE5firstEv = comdat any

$_ZSt13__lower_boundIN9__gnu_cxx17__normal_iteratorIPK6w_charSt6vectorIS2_SaIS2_EEEES2_NS0_5__ops14_Iter_less_valEET_SB_SB_RKT0_T1_ = comdat any

$_ZNK9__gnu_cxx17__normal_iteratorIPK6w_charSt6vectorIS1_SaIS1_EEEdeEv = comdat any

$_ZSt8distanceIN9__gnu_cxx17__normal_iteratorIPK6w_charSt6vectorIS2_SaIS2_EEEEENSt15iterator_traitsIT_E15difference_typeESA_SA_ = comdat any

$_ZSt7advanceIN9__gnu_cxx17__normal_iteratorIPK6w_charSt6vectorIS2_SaIS2_EEEElEvRT_T0_ = comdat any

$_ZNK9__gnu_cxx5__ops14_Iter_less_valclINS_17__normal_iteratorIPK6w_charSt6vectorIS4_SaIS4_EEEES5_EEbT_RT0_ = comdat any

$_ZSt10__distanceIN9__gnu_cxx17__normal_iteratorIPK6w_charSt6vectorIS2_SaIS2_EEEEENSt15iterator_traitsIT_E15difference_typeESA_SA_St26random_access_iterator_tag = comdat any

$_ZSt19__iterator_categoryIN9__gnu_cxx17__normal_iteratorIPK6w_charSt6vectorIS2_SaIS2_EEEEENSt15iterator_traitsIT_E17iterator_categoryERKSA_ = comdat any

$_ZN9__gnu_cxxmiIPK6w_charSt6vectorIS1_SaIS1_EEEENS_17__normal_iteratorIT_T0_E15difference_typeERKSA_SD_ = comdat any

$_ZSt9__advanceIN9__gnu_cxx17__normal_iteratorIPK6w_charSt6vectorIS2_SaIS2_EEEElEvRT_T0_St26random_access_iterator_tag = comdat any

$_ZN9__gnu_cxx17__normal_iteratorIPK6w_charSt6vectorIS1_SaIS1_EEEpLEl = comdat any

$_ZN9__gnu_cxxeqIPKcPcNSt7__cxx1112basic_stringIcSt11char_traitsIcESaIcEEEEEbRKNS_17__normal_iteratorIT_T1_EERKNSA_IT0_SC_EE = comdat any

$_ZNKSt6vectorItSaItEE8capacityEv = comdat any

$_ZNSt6vectorItSaItEE20_M_allocate_and_copyISt13move_iteratorIPtEEES4_mT_S6_ = comdat any

$_ZNK9__gnu_cxx17__normal_iteratorIPtSt6vectorItSaItEEEmiEl = comdat any

$_ZNK9__gnu_cxx17__normal_iteratorIPtSt6vectorItSaItEEEdeEv = comdat any

$_ZNSt6vectorItSaItEE17_M_default_appendEm = comdat any

$_ZNSt6vectorItSaItEE15_M_erase_at_endEPt = comdat any

$_ZSt27__uninitialized_default_n_aIPtmtET_S1_T0_RSaIT1_E = comdat any

$_ZSt25__uninitialized_default_nIPtmET_S1_T0_ = comdat any

$_ZNSt27__uninitialized_default_n_1ILb1EE18__uninit_default_nIPtmEET_S3_T0_ = comdat any

$_ZSt6fill_nIPtmtET_S1_T0_RKT1_ = comdat any

$_ZSt10__fill_n_aIPtmtEN9__gnu_cxx11__enable_ifIXsr11__is_scalarIT1_EE7__valueET_E6__typeES4_T0_RKS3_ = comdat any

$_ZNSt7__cxx1112basic_stringIcSt11char_traitsIcESaIcEE6assignIPcvEERS4_T_S8_ = comdat any

$_ZNSt12_Vector_baseI6w_charSaIS0_EEC2ERKS1_ = comdat any

$_ZNSt6vectorI6w_charSaIS0_EE22_M_initialize_dispatchIPKS0_EEvT_S6_St12__false_type = comdat any

$_ZNSt12_Vector_baseI6w_charSaIS0_EE12_Vector_implC2ERKS1_ = comdat any

$_ZNSaI6w_charEC2ERKS0_ = comdat any

$_ZN9__gnu_cxx13new_allocatorI6w_charEC2ERKS2_ = comdat any

$_ZNSt6vectorI6w_charSaIS0_EE19_M_range_initializeIPKS0_EEvT_S6_St20forward_iterator_tag = comdat any

$_ZSt8distanceIPK6w_charENSt15iterator_traitsIT_E15difference_typeES4_S4_ = comdat any

$_ZSt22__uninitialized_copy_aIPK6w_charPS0_S0_ET0_T_S5_S4_RSaIT1_E = comdat any

$_ZSt10__distanceIPK6w_charENSt15iterator_traitsIT_E15difference_typeES4_S4_St26random_access_iterator_tag = comdat any

$_ZSt19__iterator_categoryIPK6w_charENSt15iterator_traitsIT_E17iterator_categoryERKS4_ = comdat any

$_ZSt18uninitialized_copyIPK6w_charPS0_ET0_T_S5_S4_ = comdat any

$_ZNSt20__uninitialized_copyILb1EE13__uninit_copyIPK6w_charPS2_EET0_T_S7_S6_ = comdat any

$_ZSt4copyIPK6w_charPS0_ET0_T_S5_S4_ = comdat any

$_ZSt14__copy_move_a2ILb0EPK6w_charPS0_ET1_T0_S5_S4_ = comdat any

$_ZSt12__miter_baseIPK6w_charET_S3_ = comdat any

$_ZSt13__copy_move_aILb0EPK6w_charPS0_ET1_T0_S5_S4_ = comdat any

$_ZSt12__niter_baseIPK6w_charET_S3_ = comdat any

$_ZNSt11__copy_moveILb0ELb1ESt26random_access_iterator_tagE8__copy_mI6w_charEEPT_PKS4_S7_S5_ = comdat any

$_ZNSt12_Vector_baseIcSaIcEEC2Ev = comdat any

$_ZNSt12_Vector_baseIcSaIcEE12_Vector_implC2Ev = comdat any

$_ZNSt12_Vector_baseIP7HashMgrSaIS1_EEC2Ev = comdat any

$_ZNSt12_Vector_baseIP7HashMgrSaIS1_EE12_Vector_implC2Ev = comdat any

$_ZNSaIP7HashMgrEC2Ev = comdat any

$_ZN9__gnu_cxx13new_allocatorIP7HashMgrEC2Ev = comdat any

$_ZSt8_DestroyIPccEvT_S1_RSaIT0_E = comdat any

$_ZNSt12_Vector_baseIcSaIcEE19_M_get_Tp_allocatorEv = comdat any

$_ZNSt12_Vector_baseIcSaIcEED2Ev = comdat any

$_ZSt8_DestroyIPcEvT_S1_ = comdat any

$_ZNSt12_Destroy_auxILb1EE9__destroyIPcEEvT_S3_ = comdat any

$_ZNSt12_Vector_baseIcSaIcEE13_M_deallocateEPcm = comdat any

$_ZSt8_DestroyIPP7HashMgrS1_EvT_S3_RSaIT0_E = comdat any

$_ZNSt12_Vector_baseIP7HashMgrSaIS1_EE19_M_get_Tp_allocatorEv = comdat any

$_ZNSt12_Vector_baseIP7HashMgrSaIS1_EED2Ev = comdat any

$_ZSt8_DestroyIPP7HashMgrEvT_S3_ = comdat any

$_ZNSt12_Destroy_auxILb1EE9__destroyIPP7HashMgrEEvT_S5_ = comdat any

$_ZNSt12_Vector_baseIP7HashMgrSaIS1_EE13_M_deallocateEPS1_m = comdat any

$_ZN9__gnu_cxx13new_allocatorIP7HashMgrED2Ev = comdat any

$_ZNSt16allocator_traitsISaIP7HashMgrEE10deallocateERS2_PS1_m = comdat any

$_ZN9__gnu_cxx13new_allocatorIP7HashMgrE10deallocateEPS2_m = comdat any

$_ZNSt6vectorIP7HashMgrSaIS1_EE12emplace_backIJS1_EEEvDpOT_ = comdat any

$_ZSt4moveIRP7HashMgrEONSt16remove_referenceIT_E4typeEOS4_ = comdat any

$_ZNSt16allocator_traitsISaIP7HashMgrEE9constructIS1_JS1_EEEvRS2_PT_DpOT0_ = comdat any

$_ZSt7forwardIP7HashMgrEOT_RNSt16remove_referenceIS2_E4typeE = comdat any

$_ZNSt6vectorIP7HashMgrSaIS1_EE17_M_realloc_insertIJS1_EEEvN9__gnu_cxx17__normal_iteratorIPS1_S3_EEDpOT_ = comdat any

$_ZNSt6vectorIP7HashMgrSaIS1_EE3endEv = comdat any

$_ZN9__gnu_cxx13new_allocatorIP7HashMgrE9constructIS2_JS2_EEEvPT_DpOT0_ = comdat any

$_ZNKSt6vectorIP7HashMgrSaIS1_EE12_M_check_lenEmPKc = comdat any

$_ZN9__gnu_cxxmiIPP7HashMgrSt6vectorIS2_SaIS2_EEEENS_17__normal_iteratorIT_T0_E15difference_typeERKSA_SD_ = comdat any

$_ZNSt6vectorIP7HashMgrSaIS1_EE5beginEv = comdat any

$_ZNSt12_Vector_baseIP7HashMgrSaIS1_EE11_M_allocateEm = comdat any

$_ZSt34__uninitialized_move_if_noexcept_aIPP7HashMgrS2_SaIS1_EET0_T_S5_S4_RT1_ = comdat any

$_ZNK9__gnu_cxx17__normal_iteratorIPP7HashMgrSt6vectorIS2_SaIS2_EEE4baseEv = comdat any

$_ZNKSt6vectorIP7HashMgrSaIS1_EE8max_sizeEv = comdat any

$_ZNSt16allocator_traitsISaIP7HashMgrEE8max_sizeERKS2_ = comdat any

$_ZNKSt12_Vector_baseIP7HashMgrSaIS1_EE19_M_get_Tp_allocatorEv = comdat any

$_ZNK9__gnu_cxx13new_allocatorIP7HashMgrE8max_sizeEv = comdat any

$_ZN9__gnu_cxx17__normal_iteratorIPP7HashMgrSt6vectorIS2_SaIS2_EEEC2ERKS3_ = comdat any

$_ZNSt16allocator_traitsISaIP7HashMgrEE8allocateERS2_m = comdat any

$_ZN9__gnu_cxx13new_allocatorIP7HashMgrE8allocateEmPKv = comdat any

$_ZSt22__uninitialized_copy_aISt13move_iteratorIPP7HashMgrES3_S2_ET0_T_S6_S5_RSaIT1_E = comdat any

$_ZSt32__make_move_if_noexcept_iteratorIP7HashMgrSt13move_iteratorIPS1_EET0_PT_ = comdat any

$_ZSt18uninitialized_copyISt13move_iteratorIPP7HashMgrES3_ET0_T_S6_S5_ = comdat any

$_ZNSt20__uninitialized_copyILb1EE13__uninit_copyISt13move_iteratorIPP7HashMgrES5_EET0_T_S8_S7_ = comdat any

$_ZSt4copyISt13move_iteratorIPP7HashMgrES3_ET0_T_S6_S5_ = comdat any

$_ZSt14__copy_move_a2ILb1EPP7HashMgrS2_ET1_T0_S4_S3_ = comdat any

$_ZSt12__miter_baseIPP7HashMgrEDTcl12__miter_basecldtfp_4baseEEESt13move_iteratorIT_E = comdat any

$_ZSt13__copy_move_aILb1EPP7HashMgrS2_ET1_T0_S4_S3_ = comdat any

$_ZSt12__niter_baseIPP7HashMgrET_S3_ = comdat any

$_ZNSt11__copy_moveILb1ELb1ESt26random_access_iterator_tagE8__copy_mIP7HashMgrEEPT_PKS5_S8_S6_ = comdat any

$_ZSt12__miter_baseIPP7HashMgrET_S3_ = comdat any

$_ZNKSt13move_iteratorIPP7HashMgrE4baseEv = comdat any

$_ZNSt13move_iteratorIPP7HashMgrEC2ES2_ = comdat any

$_ZNSt6vectorINSt7__cxx1112basic_stringIcSt11char_traitsIcESaIcEEESaIS5_EE20_M_allocate_and_copyIN9__gnu_cxx17__normal_iteratorIPKS5_S7_EEEEPS5_mT_SF_ = comdat any

$_ZSt8_DestroyIN9__gnu_cxx17__normal_iteratorIPNSt7__cxx1112basic_stringIcSt11char_traitsIcESaIcEEESt6vectorIS7_SaIS7_EEEES7_EvT_SD_RSaIT0_E = comdat any

$_ZSt4copyIN9__gnu_cxx17__normal_iteratorIPKNSt7__cxx1112basic_stringIcSt11char_traitsIcESaIcEEESt6vectorIS7_SaIS7_EEEENS1_IPS7_SC_EEET0_T_SH_SG_ = comdat any

$_ZSt4copyIPNSt7__cxx1112basic_stringIcSt11char_traitsIcESaIcEEES6_ET0_T_S8_S7_ = comdat any

$_ZSt22__uninitialized_copy_aIPNSt7__cxx1112basic_stringIcSt11char_traitsIcESaIcEEES6_S5_ET0_T_S8_S7_RSaIT1_E = comdat any

$_ZSt22__uninitialized_copy_aIN9__gnu_cxx17__normal_iteratorIPKNSt7__cxx1112basic_stringIcSt11char_traitsIcESaIcEEESt6vectorIS7_SaIS7_EEEEPS7_S7_ET0_T_SG_SF_RSaIT1_E = comdat any

$_ZSt18uninitialized_copyIN9__gnu_cxx17__normal_iteratorIPKNSt7__cxx1112basic_stringIcSt11char_traitsIcESaIcEEESt6vectorIS7_SaIS7_EEEEPS7_ET0_T_SG_SF_ = comdat any

$_ZNSt20__uninitialized_copyILb0EE13__uninit_copyIN9__gnu_cxx17__normal_iteratorIPKNSt7__cxx1112basic_stringIcSt11char_traitsIcESaIcEEESt6vectorIS9_SaIS9_EEEEPS9_EET0_T_SI_SH_ = comdat any

$_ZN9__gnu_cxxneIPKNSt7__cxx1112basic_stringIcSt11char_traitsIcESaIcEEESt6vectorIS6_SaIS6_EEEEbRKNS_17__normal_iteratorIT_T0_EESH_ = comdat any

$_ZSt10_ConstructINSt7__cxx1112basic_stringIcSt11char_traitsIcESaIcEEEJRKS5_EEvPT_DpOT0_ = comdat any

$_ZNK9__gnu_cxx17__normal_iteratorIPKNSt7__cxx1112basic_stringIcSt11char_traitsIcESaIcEEESt6vectorIS6_SaIS6_EEEdeEv = comdat any

$_ZN9__gnu_cxx17__normal_iteratorIPKNSt7__cxx1112basic_stringIcSt11char_traitsIcESaIcEEESt6vectorIS6_SaIS6_EEEppEv = comdat any

$_ZSt8_DestroyIN9__gnu_cxx17__normal_iteratorIPNSt7__cxx1112basic_stringIcSt11char_traitsIcESaIcEEESt6vectorIS7_SaIS7_EEEEEvT_SD_ = comdat any

$_ZNSt12_Destroy_auxILb0EE9__destroyIN9__gnu_cxx17__normal_iteratorIPNSt7__cxx1112basic_stringIcSt11char_traitsIcESaIcEEESt6vectorIS9_SaIS9_EEEEEEvT_SF_ = comdat any

$_ZSt14__copy_move_a2ILb0EN9__gnu_cxx17__normal_iteratorIPKNSt7__cxx1112basic_stringIcSt11char_traitsIcESaIcEEESt6vectorIS7_SaIS7_EEEENS1_IPS7_SC_EEET1_T0_SH_SG_ = comdat any

$_ZSt12__miter_baseIN9__gnu_cxx17__normal_iteratorIPKNSt7__cxx1112basic_stringIcSt11char_traitsIcESaIcEEESt6vectorIS7_SaIS7_EEEEET_SE_ = comdat any

$_ZSt13__copy_move_aILb0EPKNSt7__cxx1112basic_stringIcSt11char_traitsIcESaIcEEEPS5_ET1_T0_SA_S9_ = comdat any

$_ZSt12__niter_baseIPKNSt7__cxx1112basic_stringIcSt11char_traitsIcESaIcEEESt6vectorIS5_SaIS5_EEET_N9__gnu_cxx17__normal_iteratorISB_T0_EE = comdat any

$_ZSt12__niter_baseIPNSt7__cxx1112basic_stringIcSt11char_traitsIcESaIcEEESt6vectorIS5_SaIS5_EEET_N9__gnu_cxx17__normal_iteratorISA_T0_EE = comdat any

$_ZNSt11__copy_moveILb0ELb0ESt26random_access_iterator_tagE8__copy_mIPKNSt7__cxx1112basic_stringIcSt11char_traitsIcESaIcEEEPS8_EET0_T_SD_SC_ = comdat any

$_ZSt14__copy_move_a2ILb0EPNSt7__cxx1112basic_stringIcSt11char_traitsIcESaIcEEES6_ET1_T0_S8_S7_ = comdat any

$_ZSt12__miter_baseIPNSt7__cxx1112basic_stringIcSt11char_traitsIcESaIcEEEET_S7_ = comdat any

$_ZSt13__copy_move_aILb0EPNSt7__cxx1112basic_stringIcSt11char_traitsIcESaIcEEES6_ET1_T0_S8_S7_ = comdat any

$_ZSt12__niter_baseIPNSt7__cxx1112basic_stringIcSt11char_traitsIcESaIcEEEET_S7_ = comdat any

$_ZNSt11__copy_moveILb0ELb0ESt26random_access_iterator_tagE8__copy_mIPNSt7__cxx1112basic_stringIcSt11char_traitsIcESaIcEEES9_EET0_T_SB_SA_ = comdat any

$_ZSt18uninitialized_copyIPNSt7__cxx1112basic_stringIcSt11char_traitsIcESaIcEEES6_ET0_T_S8_S7_ = comdat any

$_ZNSt20__uninitialized_copyILb0EE13__uninit_copyIPNSt7__cxx1112basic_stringIcSt11char_traitsIcESaIcEEES8_EET0_T_SA_S9_ = comdat any

$_ZSt10_ConstructINSt7__cxx1112basic_stringIcSt11char_traitsIcESaIcEEEJRS5_EEvPT_DpOT0_ = comdat any

$_ZSt7forwardIRNSt7__cxx1112basic_stringIcSt11char_traitsIcESaIcEEEEOT_RNSt16remove_referenceIS7_E4typeE = comdat any

$_ZNKSt6vectorIcSaIcEE4sizeEv = comdat any

$_ZNSt6vectorIcSaIcEE17_M_default_appendEm = comdat any

$_ZNSt6vectorIcSaIcEE15_M_erase_at_endEPc = comdat any

$_ZNKSt6vectorIcSaIcEE8max_sizeEv = comdat any

$_ZSt27__uninitialized_default_n_aIPcmcET_S1_T0_RSaIT1_E = comdat any

$_ZNKSt6vectorIcSaIcEE12_M_check_lenEmPKc = comdat any

$_ZNSt12_Vector_baseIcSaIcEE11_M_allocateEm = comdat any

$_ZSt34__uninitialized_move_if_noexcept_aIPcS0_SaIcEET0_T_S3_S2_RT1_ = comdat any

$_ZNKSt12_Vector_baseIcSaIcEE19_M_get_Tp_allocatorEv = comdat any

$_ZSt25__uninitialized_default_nIPcmET_S1_T0_ = comdat any

$_ZNSt27__uninitialized_default_n_1ILb1EE18__uninit_default_nIPcmEET_S3_T0_ = comdat any

$_ZSt6fill_nIPcmcET_S1_T0_RKT1_ = comdat any

$_ZSt10__fill_n_aImcEN9__gnu_cxx11__enable_ifIXsr9__is_byteIT0_EE7__valueEPS2_E6__typeES3_T_RKS2_ = comdat any

$_ZSt12__niter_baseIPcET_S1_ = comdat any

$_ZSt8__fill_aIcEN9__gnu_cxx11__enable_ifIXsr9__is_byteIT_EE7__valueEvE6__typeEPS2_S5_RKS2_ = comdat any

$_ZNSt16allocator_traitsISaIcEE8allocateERS0_m = comdat any

$_ZN9__gnu_cxx13new_allocatorIcE8allocateEmPKv = comdat any

$_ZSt22__uninitialized_copy_aISt13move_iteratorIPcES1_cET0_T_S4_S3_RSaIT1_E = comdat any

$_ZSt32__make_move_if_noexcept_iteratorIcSt13move_iteratorIPcEET0_PT_ = comdat any

$_ZSt18uninitialized_copyISt13move_iteratorIPcES1_ET0_T_S4_S3_ = comdat any

$_ZNSt20__uninitialized_copyILb1EE13__uninit_copyISt13move_iteratorIPcES3_EET0_T_S6_S5_ = comdat any

$_ZSt4copyISt13move_iteratorIPcES1_ET0_T_S4_S3_ = comdat any

$_ZSt14__copy_move_a2ILb1EPcS0_ET1_T0_S2_S1_ = comdat any

$_ZSt12__miter_baseIPcEDTcl12__miter_basecldtfp_4baseEEESt13move_iteratorIT_E = comdat any

$_ZSt13__copy_move_aILb1EPcS0_ET1_T0_S2_S1_ = comdat any

$_ZNSt11__copy_moveILb1ELb1ESt26random_access_iterator_tagE8__copy_mIcEEPT_PKS3_S6_S4_ = comdat any

$_ZSt12__miter_baseIPcET_S1_ = comdat any

$_ZNKSt13move_iteratorIPcE4baseEv = comdat any

$_ZNSt13move_iteratorIPcEC2ES0_ = comdat any

$_ZN9__gnu_cxxmiIPKNSt7__cxx1112basic_stringIcSt11char_traitsIcESaIcEEEPS6_St6vectorIS6_SaIS6_EEEEDTmicldtfp_4baseEcldtfp0_4baseEERKNS_17__normal_iteratorIT_T1_EERKNSE_IT0_SG_EE = comdat any

$_ZN9__gnu_cxxeqIPKNSt7__cxx1112basic_stringIcSt11char_traitsIcESaIcEEEPS6_St6vectorIS6_SaIS6_EEEEbRKNS_17__normal_iteratorIT_T1_EERKNSD_IT0_SF_EE = comdat any

$_ZN9__gnu_cxxmiIPKNSt7__cxx1112basic_stringIcSt11char_traitsIcESaIcEEESt6vectorIS6_SaIS6_EEEENS_17__normal_iteratorIT_T0_E15difference_typeERKSF_SI_ = comdat any

$_ZNKSt6vectorINSt7__cxx1112basic_stringIcSt11char_traitsIcESaIcEEESaIS5_EE6cbeginEv = comdat any

$_ZNSt6vectorINSt7__cxx1112basic_stringIcSt11char_traitsIcESaIcEEESaIS5_EE16_Temporary_valueC2IJRKS5_EEEPS7_DpOT_ = comdat any

$_ZNSt6vectorINSt7__cxx1112basic_stringIcSt11char_traitsIcESaIcEEESaIS5_EE13_M_insert_auxIS5_EEvN9__gnu_cxx17__normal_iteratorIPS5_S7_EEOT_ = comdat any

$_ZNSt6vectorINSt7__cxx1112basic_stringIcSt11char_traitsIcESaIcEEESaIS5_EE16_Temporary_value6_M_valEv = comdat any

$_ZNSt6vectorINSt7__cxx1112basic_stringIcSt11char_traitsIcESaIcEEESaIS5_EE16_Temporary_valueD2Ev = comdat any

$_ZNSt6vectorINSt7__cxx1112basic_stringIcSt11char_traitsIcESaIcEEESaIS5_EE16_Temporary_value6_M_ptrEv = comdat any

$_ZNSt14pointer_traitsIPNSt7__cxx1112basic_stringIcSt11char_traitsIcESaIcEEEE10pointer_toERS5_ = comdat any

$_ZSt9addressofINSt7__cxx1112basic_stringIcSt11char_traitsIcESaIcEEEEPT_RS6_ = comdat any

$_ZSt13move_backwardIPNSt7__cxx1112basic_stringIcSt11char_traitsIcESaIcEEES6_ET0_T_S8_S7_ = comdat any

$_ZSt23__copy_move_backward_a2ILb1EPNSt7__cxx1112basic_stringIcSt11char_traitsIcESaIcEEES6_ET1_T0_S8_S7_ = comdat any

$_ZSt22__copy_move_backward_aILb1EPNSt7__cxx1112basic_stringIcSt11char_traitsIcESaIcEEES6_ET1_T0_S8_S7_ = comdat any

$_ZNSt20__copy_move_backwardILb1ELb0ESt26random_access_iterator_tagE13__copy_move_bIPNSt7__cxx1112basic_stringIcSt11char_traitsIcESaIcEEES9_EET0_T_SB_SA_ = comdat any

$_ZNSt16allocator_traitsISaINSt7__cxx1112basic_stringIcSt11char_traitsIcESaIcEEEEE7destroyIS5_EEvRS6_PT_ = comdat any

$_ZN9__gnu_cxx13new_allocatorINSt7__cxx1112basic_stringIcSt11char_traitsIcESaIcEEEE7destroyIS6_EEvPT_ = comdat any

$_ZN9__gnu_cxxeqIPKP7HashMgrSt6vectorIS2_SaIS2_EEEEbRKNS_17__normal_iteratorIT_T0_EESD_ = comdat any

$_ZNKSt6vectorIP7HashMgrSaIS1_EE5beginEv = comdat any

$_ZNKSt6vectorIP7HashMgrSaIS1_EE3endEv = comdat any

$_ZNK9__gnu_cxx17__normal_iteratorIPKP7HashMgrSt6vectorIS2_SaIS2_EEE4baseEv = comdat any

$_ZN9__gnu_cxx17__normal_iteratorIPKP7HashMgrSt6vectorIS2_SaIS2_EEEC2ERKS4_ = comdat any

$_ZNKSt6vectorI6w_charSaIS0_EE8capacityEv = comdat any

$_ZNSt6vectorI6w_charSaIS0_EE20_M_allocate_and_copyIN9__gnu_cxx17__normal_iteratorIPKS0_S2_EEEEPS0_mT_SA_ = comdat any

$_ZSt8_DestroyIN9__gnu_cxx17__normal_iteratorIP6w_charSt6vectorIS2_SaIS2_EEEES2_EvT_S8_RSaIT0_E = comdat any

$_ZSt4copyIN9__gnu_cxx17__normal_iteratorIPK6w_charSt6vectorIS2_SaIS2_EEEENS1_IPS2_S7_EEET0_T_SC_SB_ = comdat any

$_ZSt4copyIP6w_charS1_ET0_T_S3_S2_ = comdat any

$_ZSt22__uninitialized_copy_aIP6w_charS1_S0_ET0_T_S3_S2_RSaIT1_E = comdat any

$_ZSt22__uninitialized_copy_aIN9__gnu_cxx17__normal_iteratorIPK6w_charSt6vectorIS2_SaIS2_EEEEPS2_S2_ET0_T_SB_SA_RSaIT1_E = comdat any

$_ZSt18uninitialized_copyIN9__gnu_cxx17__normal_iteratorIPK6w_charSt6vectorIS2_SaIS2_EEEEPS2_ET0_T_SB_SA_ = comdat any

$_ZNSt20__uninitialized_copyILb1EE13__uninit_copyIN9__gnu_cxx17__normal_iteratorIPK6w_charSt6vectorIS4_SaIS4_EEEEPS4_EET0_T_SD_SC_ = comdat any

$_ZSt4copyIN9__gnu_cxx17__normal_iteratorIPK6w_charSt6vectorIS2_SaIS2_EEEEPS2_ET0_T_SB_SA_ = comdat any

$_ZSt14__copy_move_a2ILb0EN9__gnu_cxx17__normal_iteratorIPK6w_charSt6vectorIS2_SaIS2_EEEEPS2_ET1_T0_SB_SA_ = comdat any

$_ZSt12__miter_baseIN9__gnu_cxx17__normal_iteratorIPK6w_charSt6vectorIS2_SaIS2_EEEEET_S9_ = comdat any

$_ZSt12__niter_baseIPK6w_charSt6vectorIS0_SaIS0_EEET_N9__gnu_cxx17__normal_iteratorIS6_T0_EE = comdat any

$_ZSt8_DestroyIN9__gnu_cxx17__normal_iteratorIP6w_charSt6vectorIS2_SaIS2_EEEEEvT_S8_ = comdat any

$_ZNSt12_Destroy_auxILb1EE9__destroyIN9__gnu_cxx17__normal_iteratorIP6w_charSt6vectorIS4_SaIS4_EEEEEEvT_SA_ = comdat any

$_ZSt14__copy_move_a2ILb0EN9__gnu_cxx17__normal_iteratorIPK6w_charSt6vectorIS2_SaIS2_EEEENS1_IPS2_S7_EEET1_T0_SC_SB_ = comdat any

$_ZSt14__copy_move_a2ILb0EP6w_charS1_ET1_T0_S3_S2_ = comdat any

$_ZSt13__copy_move_aILb0EP6w_charS1_ET1_T0_S3_S2_ = comdat any

$_ZSt18uninitialized_copyIP6w_charS1_ET0_T_S3_S2_ = comdat any

$_ZNSt20__uninitialized_copyILb1EE13__uninit_copyIP6w_charS3_EET0_T_S5_S4_ = comdat any

$_ZNKSt6vectorI6w_charSaIS0_EE6cbeginEv = comdat any

$_ZNSt6vectorI6w_charSaIS0_EE18_M_insert_dispatchIN9__gnu_cxx17__normal_iteratorIPS0_S2_EEEEvS7_T_S8_St12__false_type = comdat any

$_ZNSt6vectorI6w_charSaIS0_EE15_M_range_insertIN9__gnu_cxx17__normal_iteratorIPS0_S2_EEEEvS7_T_S8_St20forward_iterator_tag = comdat any

$_ZSt22__uninitialized_move_aIP6w_charS1_SaIS0_EET0_T_S4_S3_RT1_ = comdat any

$_ZSt13move_backwardIP6w_charS1_ET0_T_S3_S2_ = comdat any

$_ZSt4copyIN9__gnu_cxx17__normal_iteratorIP6w_charSt6vectorIS2_SaIS2_EEEES7_ET0_T_S9_S8_ = comdat any

$_ZSt7advanceIN9__gnu_cxx17__normal_iteratorIP6w_charSt6vectorIS2_SaIS2_EEEEmEvRT_T0_ = comdat any

$_ZSt22__uninitialized_copy_aIN9__gnu_cxx17__normal_iteratorIP6w_charSt6vectorIS2_SaIS2_EEEES3_S2_ET0_T_S9_S8_RSaIT1_E = comdat any

$_ZSt18make_move_iteratorIP6w_charESt13move_iteratorIT_ES3_ = comdat any

$_ZSt23__copy_move_backward_a2ILb1EP6w_charS1_ET1_T0_S3_S2_ = comdat any

$_ZSt14__copy_move_a2ILb0EN9__gnu_cxx17__normal_iteratorIP6w_charSt6vectorIS2_SaIS2_EEEES7_ET1_T0_S9_S8_ = comdat any

$_ZSt18uninitialized_copyIN9__gnu_cxx17__normal_iteratorIP6w_charSt6vectorIS2_SaIS2_EEEES3_ET0_T_S9_S8_ = comdat any

$_ZNSt20__uninitialized_copyILb1EE13__uninit_copyIN9__gnu_cxx17__normal_iteratorIP6w_charSt6vectorIS4_SaIS4_EEEES5_EET0_T_SB_SA_ = comdat any

$_ZSt4copyIN9__gnu_cxx17__normal_iteratorIP6w_charSt6vectorIS2_SaIS2_EEEES3_ET0_T_S9_S8_ = comdat any

$_ZSt14__copy_move_a2ILb0EN9__gnu_cxx17__normal_iteratorIP6w_charSt6vectorIS2_SaIS2_EEEES3_ET1_T0_S9_S8_ = comdat any

$_ZNSt6vectorINSt7__cxx1112basic_stringIcSt11char_traitsIcESaIcEEESaIS5_EE8_M_eraseEN9__gnu_cxx17__normal_iteratorIPS5_S7_EE = comdat any

$_ZSt4moveIN9__gnu_cxx17__normal_iteratorIPNSt7__cxx1112basic_stringIcSt11char_traitsIcESaIcEEESt6vectorIS7_SaIS7_EEEESC_ET0_T_SE_SD_ = comdat any

$_ZSt14__copy_move_a2ILb1EN9__gnu_cxx17__normal_iteratorIPNSt7__cxx1112basic_stringIcSt11char_traitsIcESaIcEEESt6vectorIS7_SaIS7_EEEESC_ET1_T0_SE_SD_ = comdat any

$_ZSt12__miter_baseIN9__gnu_cxx17__normal_iteratorIPNSt7__cxx1112basic_stringIcSt11char_traitsIcESaIcEEESt6vectorIS7_SaIS7_EEEEET_SD_ = comdat any

$_ZSt13__copy_move_aILb1EPNSt7__cxx1112basic_stringIcSt11char_traitsIcESaIcEEES6_ET1_T0_S8_S7_ = comdat any

$_ZNSt11__copy_moveILb1ELb0ESt26random_access_iterator_tagE8__copy_mIPNSt7__cxx1112basic_stringIcSt11char_traitsIcESaIcEEES9_EET0_T_SB_SA_ = comdat any

$_ZNSt6vectorINSt7__cxx1112basic_stringIcSt11char_traitsIcESaIcEEESaIS5_EE14_M_insert_rvalEN9__gnu_cxx17__normal_iteratorIPKS5_S7_EEOS5_ = comdat any

$_ZNKSt6vectorINSt7__cxx1112basic_stringIcSt11char_traitsIcESaIcEEESaIS5_EE4cendEv = comdat any

$_ZNSt16reverse_iteratorIN9__gnu_cxx17__normal_iteratorIPNSt7__cxx1112basic_stringIcSt11char_traitsIcESaIcEEESt6vectorIS7_SaIS7_EEEEEC2ESC_ = comdat any

$_ZSteqIN9__gnu_cxx17__normal_iteratorIPNSt7__cxx1112basic_stringIcSt11char_traitsIcESaIcEEESt6vectorIS7_SaIS7_EEEEEbRKSt16reverse_iteratorIT_ESH_ = comdat any

$_ZNKSt16reverse_iteratorIN9__gnu_cxx17__normal_iteratorIPNSt7__cxx1112basic_stringIcSt11char_traitsIcESaIcEEESt6vectorIS7_SaIS7_EEEEE4baseEv = comdat any

$_ZN9__gnu_cxx17__normal_iteratorIPNSt7__cxx1112basic_stringIcSt11char_traitsIcESaIcEEESt6vectorIS6_SaIS6_EEEmmEv = comdat any

$_ZNSt6vectorINSt7__cxx1112basic_stringIcSt11char_traitsIcESaIcEEESaIS5_EE17_M_default_appendEm = comdat any

$_ZSt27__uninitialized_default_n_aIPNSt7__cxx1112basic_stringIcSt11char_traitsIcESaIcEEEmS5_ET_S7_T0_RSaIT1_E = comdat any

$_ZSt25__uninitialized_default_nIPNSt7__cxx1112basic_stringIcSt11char_traitsIcESaIcEEEmET_S7_T0_ = comdat any

$_ZNSt27__uninitialized_default_n_1ILb0EE18__uninit_default_nIPNSt7__cxx1112basic_stringIcSt11char_traitsIcESaIcEEEmEET_S9_T0_ = comdat any

$_ZSt10_ConstructINSt7__cxx1112basic_stringIcSt11char_traitsIcESaIcEEEJEEvPT_DpOT0_ = comdat any

$_ZNSt6vectorINSt7__cxx1112basic_stringIcSt11char_traitsIcESaIcEEESaIS5_EE14_M_move_assignEOS7_St17integral_constantIbLb1EE = comdat any

$_ZNKSt12_Vector_baseINSt7__cxx1112basic_stringIcSt11char_traitsIcESaIcEEESaIS5_EE13get_allocatorEv = comdat any

$_ZNSt6vectorINSt7__cxx1112basic_stringIcSt11char_traitsIcESaIcEEESaIS5_EEC2ERKS6_ = comdat any

$_ZSt15__alloc_on_moveISaINSt7__cxx1112basic_stringIcSt11char_traitsIcESaIcEEEEEvRT_S8_ = comdat any

$_ZNSaINSt7__cxx1112basic_stringIcSt11char_traitsIcESaIcEEEEC2ERKS5_ = comdat any

$_ZNSt12_Vector_baseINSt7__cxx1112basic_stringIcSt11char_traitsIcESaIcEEESaIS5_EEC2ERKS6_ = comdat any

$_ZNSt12_Vector_baseINSt7__cxx1112basic_stringIcSt11char_traitsIcESaIcEEESaIS5_EE12_Vector_implC2ERKS6_ = comdat any

$_ZSt18__do_alloc_on_moveISaINSt7__cxx1112basic_stringIcSt11char_traitsIcESaIcEEEEEvRT_S8_St17integral_constantIbLb1EE = comdat any

$_ZN9__gnu_cxxeqIPKSt6vectorINSt7__cxx1112basic_stringIcSt11char_traitsIcESaIcEEESaIS7_EES1_IS9_SaIS9_EEEEbRKNS_17__normal_iteratorIT_T0_EESJ_ = comdat any

$_ZNKSt6vectorIS_INSt7__cxx1112basic_stringIcSt11char_traitsIcESaIcEEESaIS5_EESaIS7_EE5beginEv = comdat any

$_ZNKSt6vectorIS_INSt7__cxx1112basic_stringIcSt11char_traitsIcESaIcEEESaIS5_EESaIS7_EE3endEv = comdat any

$_ZNK9__gnu_cxx17__normal_iteratorIPKSt6vectorINSt7__cxx1112basic_stringIcSt11char_traitsIcESaIcEEESaIS7_EES1_IS9_SaIS9_EEE4baseEv = comdat any

$_ZN9__gnu_cxx17__normal_iteratorIPKSt6vectorINSt7__cxx1112basic_stringIcSt11char_traitsIcESaIcEEESaIS7_EES1_IS9_SaIS9_EEEC2ERKSB_ = comdat any

$_ZNSt6vectorI6w_charSaIS0_EE18_M_insert_dispatchIPKS0_EEvN9__gnu_cxx17__normal_iteratorIPS0_S2_EET_SA_St12__false_type = comdat any

$_ZNSt6vectorI6w_charSaIS0_EE15_M_range_insertIPKS0_EEvN9__gnu_cxx17__normal_iteratorIPS0_S2_EET_SA_St20forward_iterator_tag = comdat any

$_ZSt7advanceIPK6w_charmEvRT_T0_ = comdat any

$_ZSt9__advanceIPK6w_charlEvRT_T0_St26random_access_iterator_tag = comdat any

$_ZNSt6vectorI6w_charSaIS0_EE8_M_eraseEN9__gnu_cxx17__normal_iteratorIPS0_S2_EE = comdat any

$_ZSt4moveIN9__gnu_cxx17__normal_iteratorIP6w_charSt6vectorIS2_SaIS2_EEEES7_ET0_T_S9_S8_ = comdat any

$_ZNSt16allocator_traitsISaI6w_charEE7destroyIS0_EEvRS1_PT_ = comdat any

$_ZSt14__copy_move_a2ILb1EN9__gnu_cxx17__normal_iteratorIP6w_charSt6vectorIS2_SaIS2_EEEES7_ET1_T0_S9_S8_ = comdat any

$_ZN9__gnu_cxx13new_allocatorI6w_charE7destroyIS1_EEvPT_ = comdat any

$_ZN9__gnu_cxxmiIPK6w_charPS1_St6vectorIS1_SaIS1_EEEEDTmicldtfp_4baseEcldtfp0_4baseEERKNS_17__normal_iteratorIT_T1_EERKNS9_IT0_SB_EE = comdat any

$_ZN9__gnu_cxxeqIPK6w_charPS1_St6vectorIS1_SaIS1_EEEEbRKNS_17__normal_iteratorIT_T1_EERKNS8_IT0_SA_EE = comdat any

$_ZNSt6vectorI6w_charSaIS0_EE16_Temporary_valueC2IJRKS0_EEEPS2_DpOT_ = comdat any

$_ZNSt6vectorI6w_charSaIS0_EE13_M_insert_auxIS0_EEvN9__gnu_cxx17__normal_iteratorIPS0_S2_EEOT_ = comdat any

$_ZNSt6vectorI6w_charSaIS0_EE16_Temporary_value6_M_valEv = comdat any

$_ZNSt6vectorI6w_charSaIS0_EE16_Temporary_valueD2Ev = comdat any

$_ZNSt6vectorI6w_charSaIS0_EE16_Temporary_value6_M_ptrEv = comdat any

$_ZNSt14pointer_traitsIP6w_charE10pointer_toERS0_ = comdat any

$_ZSt9addressofI6w_charEPT_RS1_ = comdat any

$_ZSt11__addressofI6w_charEPT_RS1_ = comdat any

$_ZNSt16allocator_traitsISaI6w_charEE9constructIS0_JS0_EEEvRS1_PT_DpOT0_ = comdat any

$_ZSt7forwardI6w_charEOT_RNSt16remove_referenceIS1_E4typeE = comdat any

$_ZN9__gnu_cxx13new_allocatorI6w_charE9constructIS1_JS1_EEEvPT_DpOT0_ = comdat any

$_ZSt10__distanceIN9__gnu_cxx17__normal_iteratorIPcNSt7__cxx1112basic_stringIcSt11char_traitsIcESaIcEEEEEENSt15iterator_traitsIT_E15difference_typeESB_SB_St26random_access_iterator_tag = comdat any

$_ZSt10__distanceIN9__gnu_cxx17__normal_iteratorIP6w_charSt6vectorIS2_SaIS2_EEEEENSt15iterator_traitsIT_E15difference_typeES9_S9_St26random_access_iterator_tag = comdat any

$_ZSt14__copy_move_a2ILb0EPKcN9__gnu_cxx17__normal_iteratorIPcNSt7__cxx1112basic_stringIcSt11char_traitsIcESaIcEEEEEET1_T0_SD_SC_ = comdat any

$_ZSt12__miter_baseIPKcET_S2_ = comdat any

$_ZSt13__copy_move_aILb0EPKcPcET1_T0_S4_S3_ = comdat any

$_ZSt12__niter_baseIPKcET_S2_ = comdat any

$_ZNSt11__copy_moveILb0ELb1ESt26random_access_iterator_tagE8__copy_mIcEEPT_PKS3_S6_S4_ = comdat any

$_ZSt10__distanceISt16reverse_iteratorIN9__gnu_cxx17__normal_iteratorIPcNSt7__cxx1112basic_stringIcSt11char_traitsIcESaIcEEEEEEENSt15iterator_traitsIT_E15difference_typeESD_SD_St26random_access_iterator_tag = comdat any

$_ZSt19__iterator_categoryISt16reverse_iteratorIN9__gnu_cxx17__normal_iteratorIPcNSt7__cxx1112basic_stringIcSt11char_traitsIcESaIcEEEEEEENSt15iterator_traitsIT_E17iterator_categoryERKSD_ = comdat any

$_ZStmiIN9__gnu_cxx17__normal_iteratorIPcNSt7__cxx1112basic_stringIcSt11char_traitsIcESaIcEEEEES9_EDTmicldtfp0_4baseEcldtfp_4baseEERKSt16reverse_iteratorIT_ERKSB_IT0_E = comdat any

$_ZSt14__copy_move_a2ILb0EPK6w_charN9__gnu_cxx17__normal_iteratorIPS0_St6vectorIS0_SaIS0_EEEEET1_T0_SB_SA_ = comdat any

$_ZNSt16reverse_iteratorIN9__gnu_cxx17__normal_iteratorIP6w_charSt6vectorIS2_SaIS2_EEEEEC2ES7_ = comdat any

$_ZNKSt16reverse_iteratorIN9__gnu_cxx17__normal_iteratorIP6w_charSt6vectorIS2_SaIS2_EEEEE4baseEv = comdat any

$_ZSt10__distanceISt16reverse_iteratorIN9__gnu_cxx17__normal_iteratorIP6w_charSt6vectorIS3_SaIS3_EEEEEENSt15iterator_traitsIT_E15difference_typeESB_SB_St26random_access_iterator_tag = comdat any

$_ZSt19__iterator_categoryISt16reverse_iteratorIN9__gnu_cxx17__normal_iteratorIP6w_charSt6vectorIS3_SaIS3_EEEEEENSt15iterator_traitsIT_E17iterator_categoryERKSB_ = comdat any

$_ZStmiIN9__gnu_cxx17__normal_iteratorIP6w_charSt6vectorIS2_SaIS2_EEEES7_EDTmicldtfp0_4baseEcldtfp_4baseEERKSt16reverse_iteratorIT_ERKS9_IT0_E = comdat any

$_ZTV8PfxEntry = comdat any

$_ZTV8SfxEntry = comdat any

@_ZTV8AffEntry = hidden unnamed_addr constant { [4 x i8*] } { [4 x i8*] [i8* null, i8* null, i8* bitcast (void (%class.AffEntry*)* @_ZN8AffEntryD2Ev to i8*), i8* bitcast (void (%class.AffEntry*)* @_ZN8AffEntryD0Ev to i8*)] }, align 8
@_ZTV8PfxEntry = linkonce_odr hidden unnamed_addr constant { [4 x i8*] } { [4 x i8*] [i8* null, i8* null, i8* bitcast (void (%class.AffEntry*)* @_ZN8AffEntryD2Ev to i8*), i8* bitcast (void (%class.PfxEntry*)* @_ZN8PfxEntryD0Ev to i8*)] }, comdat, align 8
@.str = private unnamed_addr constant [2 x i8] c" \00", align 1
@.str.1 = private unnamed_addr constant [4 x i8] c"st:\00", align 1
@.str.2 = private unnamed_addr constant [4 x i8] c"fl:\00", align 1
@.str.3 = private unnamed_addr constant [2 x i8] c"\0A\00", align 1
@_ZTV8SfxEntry = linkonce_odr hidden unnamed_addr constant { [4 x i8*] } { [4 x i8*] [i8* null, i8* null, i8* bitcast (void (%class.SfxEntry*)* @_ZN8SfxEntryD2Ev to i8*), i8* bitcast (void (%class.SfxEntry*)* @_ZN8SfxEntryD0Ev to i8*)] }, comdat, align 8
@.str.6 = private unnamed_addr constant [4 x i8] c"\EF\BB\BF\00", align 1
@.str.7 = private unnamed_addr constant [4 x i8] c"KEY\00", align 1
@.str.8 = private unnamed_addr constant [4 x i8] c"TRY\00", align 1
@.str.9 = private unnamed_addr constant [4 x i8] c"SET\00", align 1
@.str.10 = private unnamed_addr constant [6 x i8] c"UTF-8\00", align 1
@.str.11 = private unnamed_addr constant [16 x i8] c"COMPLEXPREFIXES\00", align 1
@.str.12 = private unnamed_addr constant [13 x i8] c"COMPOUNDFLAG\00", align 1
@.str.13 = private unnamed_addr constant [14 x i8] c"COMPOUNDBEGIN\00", align 1
@.str.14 = private unnamed_addr constant [15 x i8] c"COMPOUNDMIDDLE\00", align 1
@.str.15 = private unnamed_addr constant [12 x i8] c"COMPOUNDEND\00", align 1
@.str.16 = private unnamed_addr constant [16 x i8] c"COMPOUNDWORDMAX\00", align 1
@.str.17 = private unnamed_addr constant [13 x i8] c"COMPOUNDROOT\00", align 1
@.str.18 = private unnamed_addr constant [19 x i8] c"COMPOUNDPERMITFLAG\00", align 1
@.str.19 = private unnamed_addr constant [19 x i8] c"COMPOUNDFORBIDFLAG\00", align 1
@.str.20 = private unnamed_addr constant [21 x i8] c"COMPOUNDMORESUFFIXES\00", align 1
@.str.21 = private unnamed_addr constant [17 x i8] c"CHECKCOMPOUNDDUP\00", align 1
@.str.22 = private unnamed_addr constant [17 x i8] c"CHECKCOMPOUNDREP\00", align 1
@.str.23 = private unnamed_addr constant [20 x i8] c"CHECKCOMPOUNDTRIPLE\00", align 1
@.str.24 = private unnamed_addr constant [17 x i8] c"SIMPLIFIEDTRIPLE\00", align 1
@.str.25 = private unnamed_addr constant [18 x i8] c"CHECKCOMPOUNDCASE\00", align 1
@.str.26 = private unnamed_addr constant [10 x i8] c"NOSUGGEST\00", align 1
@.str.27 = private unnamed_addr constant [15 x i8] c"NONGRAMSUGGEST\00", align 1
@.str.28 = private unnamed_addr constant [14 x i8] c"FORBIDDENWORD\00", align 1
@.str.29 = private unnamed_addr constant [14 x i8] c"LEMMA_PRESENT\00", align 1
@.str.30 = private unnamed_addr constant [10 x i8] c"CIRCUMFIX\00", align 1
@.str.31 = private unnamed_addr constant [15 x i8] c"ONLYINCOMPOUND\00", align 1
@.str.32 = private unnamed_addr constant [11 x i8] c"PSEUDOROOT\00", align 1
@.str.33 = private unnamed_addr constant [10 x i8] c"NEEDAFFIX\00", align 1
@.str.34 = private unnamed_addr constant [12 x i8] c"COMPOUNDMIN\00", align 1
@.str.35 = private unnamed_addr constant [17 x i8] c"COMPOUNDSYLLABLE\00", align 1
@.str.36 = private unnamed_addr constant [12 x i8] c"SYLLABLENUM\00", align 1
@.str.37 = private unnamed_addr constant [9 x i8] c"CHECKNUM\00", align 1
@.str.38 = private unnamed_addr constant [10 x i8] c"WORDCHARS\00", align 1
@.str.39 = private unnamed_addr constant [7 x i8] c"IGNORE\00", align 1
@.str.40 = private unnamed_addr constant [4 x i8] c"REP\00", align 1
@.str.41 = private unnamed_addr constant [6 x i8] c"ICONV\00", align 1
@.str.42 = private unnamed_addr constant [6 x i8] c"OCONV\00", align 1
@.str.43 = private unnamed_addr constant [6 x i8] c"PHONE\00", align 1
@.str.44 = private unnamed_addr constant [21 x i8] c"CHECKCOMPOUNDPATTERN\00", align 1
@.str.45 = private unnamed_addr constant [13 x i8] c"COMPOUNDRULE\00", align 1
@.str.46 = private unnamed_addr constant [4 x i8] c"MAP\00", align 1
@.str.47 = private unnamed_addr constant [6 x i8] c"BREAK\00", align 1
@.str.48 = private unnamed_addr constant [5 x i8] c"LANG\00", align 1
@.str.49 = private unnamed_addr constant [8 x i8] c"VERSION\00", align 1
@.str.50 = private unnamed_addr constant [3 x i8] c" \09\00", align 1
@.str.51 = private unnamed_addr constant [13 x i8] c"MAXNGRAMSUGS\00", align 1
@.str.52 = private unnamed_addr constant [12 x i8] c"ONLYMAXDIFF\00", align 1
@.str.53 = private unnamed_addr constant [8 x i8] c"MAXDIFF\00", align 1
@.str.54 = private unnamed_addr constant [11 x i8] c"MAXCPDSUGS\00", align 1
@.str.55 = private unnamed_addr constant [12 x i8] c"NOSPLITSUGS\00", align 1
@.str.56 = private unnamed_addr constant [10 x i8] c"FULLSTRIP\00", align 1
@.str.57 = private unnamed_addr constant [13 x i8] c"SUGSWITHDOTS\00", align 1
@.str.58 = private unnamed_addr constant [9 x i8] c"KEEPCASE\00", align 1
@.str.59 = private unnamed_addr constant [11 x i8] c"FORCEUCASE\00", align 1
@.str.60 = private unnamed_addr constant [5 x i8] c"WARN\00", align 1
@.str.61 = private unnamed_addr constant [11 x i8] c"FORBIDWARN\00", align 1
@.str.62 = private unnamed_addr constant [12 x i8] c"SUBSTANDARD\00", align 1
@.str.63 = private unnamed_addr constant [12 x i8] c"CHECKSHARPS\00", align 1
@.str.64 = private unnamed_addr constant [4 x i8] c"PFX\00", align 1
@.str.65 = private unnamed_addr constant [4 x i8] c"SFX\00", align 1
@.str.66 = private unnamed_addr constant [2 x i8] c"-\00", align 1
@.str.67 = private unnamed_addr constant [3 x i8] c"^-\00", align 1
@.str.68 = private unnamed_addr constant [3 x i8] c"-$\00", align 1
@.str.69 = private unnamed_addr constant [2 x i8] c".\00", align 1
@.str.70 = private unnamed_addr constant [4 x i8] c"pa:\00", align 1
@.str.71 = private unnamed_addr constant [4 x i8] c"is:\00", align 1
@.str.72 = private unnamed_addr constant [4 x i8] c"ds:\00", align 1
@.str.73 = private unnamed_addr constant [10 x i8] c"ISO8859-1\00", align 1
@.str.74 = private unnamed_addr constant [29 x i8] c"qwertyuiop|asdfghjkl|zxcvbnm\00", align 1
@.str.77 = private unnamed_addr constant [11 x i8] c"AEIOUaeiou\00", align 1
@.str.82 = private unnamed_addr constant [2 x i8] c"_\00", align 1
@.str.84 = private unnamed_addr constant [1 x i8] zeroinitializer, align 1
@.str.87 = private unnamed_addr constant [2 x i8] c"0\00", align 1
@.str.96 = private unnamed_addr constant [4 x i8] c" ( \00", align 1
@.str.97 = private unnamed_addr constant [4 x i8] c" | \00", align 1
@_ZL8lang2enc = internal unnamed_addr constant [28 x %struct.lang_map] [%struct.lang_map { i8* getelementptr inbounds ([3 x i8], [3 x i8]* @.str.152, i32 0, i32 0), i32 96 }, %struct.lang_map { i8* getelementptr inbounds ([3 x i8], [3 x i8]* @.str.153, i32 0, i32 0), i32 100 }, %struct.lang_map { i8* getelementptr inbounds ([6 x i8], [6 x i8]* @.str.154, i32 0, i32 0), i32 100 }, %struct.lang_map { i8* getelementptr inbounds ([3 x i8], [3 x i8]* @.str.155, i32 0, i32 0), i32 41 }, %struct.lang_map { i8* getelementptr inbounds ([3 x i8], [3 x i8]* @.str.156, i32 0, i32 0), i32 37 }, %struct.lang_map { i8* getelementptr inbounds ([3 x i8], [3 x i8]* @.str.157, i32 0, i32 0), i32 42 }, %struct.lang_map { i8* getelementptr inbounds ([3 x i8], [3 x i8]* @.str.158, i32 0, i32 0), i32 45 }, %struct.lang_map { i8* getelementptr inbounds ([3 x i8], [3 x i8]* @.str.159, i32 0, i32 0), i32 49 }, %struct.lang_map { i8* getelementptr inbounds ([3 x i8], [3 x i8]* @.str.160, i32 0, i32 0), i32 30 }, %struct.lang_map { i8* getelementptr inbounds ([3 x i8], [3 x i8]* @.str.161, i32 0, i32 0), i32 1 }, %struct.lang_map { i8* getelementptr inbounds ([3 x i8], [3 x i8]* @.str.162, i32 0, i32 0), i32 34 }, %struct.lang_map { i8* getelementptr inbounds ([3 x i8], [3 x i8]* @.str.163, i32 0, i32 0), i32 10 }, %struct.lang_map { i8* getelementptr inbounds ([3 x i8], [3 x i8]* @.str.164, i32 0, i32 0), i32 38 }, %struct.lang_map { i8* getelementptr inbounds ([3 x i8], [3 x i8]* @.str.165, i32 0, i32 0), i32 2 }, %struct.lang_map { i8* getelementptr inbounds ([3 x i8], [3 x i8]* @.str.166, i32 0, i32 0), i32 78 }, %struct.lang_map { i8* getelementptr inbounds ([3 x i8], [3 x i8]* @.str.167, i32 0, i32 0), i32 36 }, %struct.lang_map { i8* getelementptr inbounds ([6 x i8], [6 x i8]* @.str.168, i32 0, i32 0), i32 36 }, %struct.lang_map { i8* getelementptr inbounds ([3 x i8], [3 x i8]* @.str.169, i32 0, i32 0), i32 39 }, %struct.lang_map { i8* getelementptr inbounds ([3 x i8], [3 x i8]* @.str.170, i32 0, i32 0), i32 99 }, %struct.lang_map { i8* getelementptr inbounds ([3 x i8], [3 x i8]* @.str.171, i32 0, i32 0), i32 101 }, %struct.lang_map { i8* getelementptr inbounds ([3 x i8], [3 x i8]* @.str.172, i32 0, i32 0), i32 31 }, %struct.lang_map { i8* getelementptr inbounds ([3 x i8], [3 x i8]* @.str.173, i32 0, i32 0), i32 48 }, %struct.lang_map { i8* getelementptr inbounds ([3 x i8], [3 x i8]* @.str.174, i32 0, i32 0), i32 3 }, %struct.lang_map { i8* getelementptr inbounds ([3 x i8], [3 x i8]* @.str.175, i32 0, i32 0), i32 50 }, %struct.lang_map { i8* getelementptr inbounds ([3 x i8], [3 x i8]* @.str.176, i32 0, i32 0), i32 90 }, %struct.lang_map { i8* getelementptr inbounds ([6 x i8], [6 x i8]* @.str.177, i32 0, i32 0), i32 90 }, %struct.lang_map { i8* getelementptr inbounds ([3 x i8], [3 x i8]* @.str.178, i32 0, i32 0), i32 7 }, %struct.lang_map { i8* getelementptr inbounds ([3 x i8], [3 x i8]* @.str.179, i32 0, i32 0), i32 80 }], align 16
@.str.100 = private unnamed_addr constant [4 x i8] c"ph:\00", align 1
@.str.109 = private unnamed_addr constant [7 x i8] c"(NULL)\00", align 1
@.str.111 = private unnamed_addr constant [5 x i8] c"FLAG\00", align 1
@.str.113 = private unnamed_addr constant [5 x i8] c"long\00", align 1
@.str.114 = private unnamed_addr constant [4 x i8] c"num\00", align 1
@.str.116 = private unnamed_addr constant [3 x i8] c"AF\00", align 1
@.str.117 = private unnamed_addr constant [3 x i8] c"AM\00", align 1
@.str.120 = private unnamed_addr constant [3 x i8] c"\C3\9F\00", align 1
@.str.121 = private unnamed_addr constant [2 x i8] c"\DF\00", align 1
@.str.122 = private unnamed_addr constant [3 x i8] c"ss\00", align 1
@.str.123 = private unnamed_addr constant [8 x i8] c"<?xml?>\00", align 1
@.str.124 = private unnamed_addr constant [3 x i8] c"SS\00", align 1
@.str.125 = private unnamed_addr constant [4 x i8] c"sp:\00", align 1
@.str.126 = private unnamed_addr constant [3 x i8] c"-e\00", align 1
@.str.127 = private unnamed_addr constant [5 x i8] c"&lt;\00", align 1
@.str.128 = private unnamed_addr constant [2 x i8] c"<\00", align 1
@.str.129 = private unnamed_addr constant [6 x i8] c"&amp;\00", align 1
@.str.130 = private unnamed_addr constant [2 x i8] c"&\00", align 1
@.str.131 = private unnamed_addr constant [7 x i8] c"<query\00", align 1
@.str.132 = private unnamed_addr constant [6 x i8] c"<word\00", align 1
@.str.133 = private unnamed_addr constant [6 x i8] c"type=\00", align 1
@.str.134 = private unnamed_addr constant [8 x i8] c"analyze\00", align 1
@.str.135 = private unnamed_addr constant [7 x i8] c"<code>\00", align 1
@.str.136 = private unnamed_addr constant [4 x i8] c"<a>\00", align 1
@.str.137 = private unnamed_addr constant [2 x i8] c"\09\00", align 1
@.str.138 = private unnamed_addr constant [5 x i8] c"</a>\00", align 1
@.str.139 = private unnamed_addr constant [8 x i8] c"</code>\00", align 1
@.str.140 = private unnamed_addr constant [5 x i8] c"stem\00", align 1
@.str.141 = private unnamed_addr constant [9 x i8] c"generate\00", align 1
@.str.142 = private unnamed_addr constant [6 x i8] c"<code\00", align 1
@.str.143 = private unnamed_addr constant [6 x i8] c"(-<^$\00", align 1
@.str.144 = private unnamed_addr constant [3 x i8] c"^^\00", align 1
@.str.145 = private unnamed_addr constant [4 x i8] c"al:\00", align 1
@.str.146 = private unnamed_addr constant [4 x i8] c"ts:\00", align 1
@.str.147 = private unnamed_addr constant [16 x i8] c"vector::reserve\00", align 1
@.str.148 = private unnamed_addr constant [27 x i8] c"fatal: STL threw bad_alloc\00", align 1
@.str.149 = private unnamed_addr constant [26 x i8] c"vector::_M_realloc_insert\00", align 1
@.str.150 = private unnamed_addr constant [58 x i8] c"MOZ_RELEASE_ASSERT((detail::IsInBounds<From, To>(aFrom)))\00", align 1
@gMozCrashReason = extern_weak local_unnamed_addr global i8*, align 8
@.str.151 = private unnamed_addr constant [115 x i8] c"MOZ_RELEASE_ASSERT((!elements && extentSize == 0) || (elements && extentSize != mozilla::MaxValue<size_t>::value))\00", align 1
@.str.152 = private unnamed_addr constant [3 x i8] c"ar\00", align 1
@.str.153 = private unnamed_addr constant [3 x i8] c"az\00", align 1
@.str.154 = private unnamed_addr constant [6 x i8] c"az_AZ\00", align 1
@.str.155 = private unnamed_addr constant [3 x i8] c"bg\00", align 1
@.str.156 = private unnamed_addr constant [3 x i8] c"ca\00", align 1
@.str.157 = private unnamed_addr constant [3 x i8] c"cs\00", align 1
@.str.158 = private unnamed_addr constant [3 x i8] c"da\00", align 1
@.str.159 = private unnamed_addr constant [3 x i8] c"de\00", align 1
@.str.160 = private unnamed_addr constant [3 x i8] c"el\00", align 1
@.str.161 = private unnamed_addr constant [3 x i8] c"en\00", align 1
@.str.162 = private unnamed_addr constant [3 x i8] c"es\00", align 1
@.str.163 = private unnamed_addr constant [3 x i8] c"eu\00", align 1
@.str.164 = private unnamed_addr constant [3 x i8] c"gl\00", align 1
@.str.165 = private unnamed_addr constant [3 x i8] c"fr\00", align 1
@.str.166 = private unnamed_addr constant [3 x i8] c"hr\00", align 1
@.str.167 = private unnamed_addr constant [3 x i8] c"hu\00", align 1
@.str.168 = private unnamed_addr constant [6 x i8] c"hu_HU\00", align 1
@.str.169 = private unnamed_addr constant [3 x i8] c"it\00", align 1
@.str.170 = private unnamed_addr constant [3 x i8] c"la\00", align 1
@.str.171 = private unnamed_addr constant [3 x i8] c"lv\00", align 1
@.str.172 = private unnamed_addr constant [3 x i8] c"nl\00", align 1
@.str.173 = private unnamed_addr constant [3 x i8] c"pl\00", align 1
@.str.174 = private unnamed_addr constant [3 x i8] c"pt\00", align 1
@.str.175 = private unnamed_addr constant [3 x i8] c"sv\00", align 1
@.str.176 = private unnamed_addr constant [3 x i8] c"tr\00", align 1
@.str.177 = private unnamed_addr constant [6 x i8] c"tr_TR\00", align 1
@.str.178 = private unnamed_addr constant [3 x i8] c"ru\00", align 1
@.str.179 = private unnamed_addr constant [3 x i8] c"uk\00", align 1
@.str.180 = private unnamed_addr constant [42 x i8] c"basic_string::_M_construct null not valid\00", align 1
@.str.181 = private unnamed_addr constant [21 x i8] c"basic_string::append\00", align 1
@.str.182 = private unnamed_addr constant [22 x i8] c"basic_string::replace\00", align 1
@.str.183 = private unnamed_addr constant [55 x i8] c"%s: __pos (which is %zu) > this->size() (which is %zu)\00", align 1
@_ZN7mozilla21CountingAllocatorBaseI17HunspellAllocatorE7sAmountE = external hidden global %"class.mozilla::Atomic", align 8
@.str.184 = private unnamed_addr constant [20 x i8] c"basic_string::erase\00", align 1
@.str.185 = private unnamed_addr constant [21 x i8] c"basic_string::substr\00", align 1
@.str.186 = private unnamed_addr constant [27 x i8] c"basic_string::basic_string\00", align 1
@.str.187 = private unnamed_addr constant [26 x i8] c"vector::_M_default_append\00", align 1
@_ZTVNSt7__cxx1118basic_stringstreamIcSt11char_traitsIcESaIcEEE = external unnamed_addr constant { [5 x i8*], [5 x i8*], [5 x i8*] }
@_ZTTNSt7__cxx1118basic_stringstreamIcSt11char_traitsIcESaIcEEE = external unnamed_addr constant [10 x i8*]
@_ZTVSt9basic_iosIcSt11char_traitsIcEE = external unnamed_addr constant { [4 x i8*] }
@_ZTVNSt7__cxx1115basic_stringbufIcSt11char_traitsIcESaIcEEE = external unnamed_addr constant { [16 x i8*] }
@_ZTVSt15basic_streambufIcSt11char_traitsIcEE = external unnamed_addr constant { [16 x i8*] }
@_ZTVNSt7__cxx1119basic_ostringstreamIcSt11char_traitsIcESaIcEEE = external unnamed_addr constant { [5 x i8*], [5 x i8*] }
@_ZTTNSt7__cxx1119basic_ostringstreamIcSt11char_traitsIcESaIcEEE = external unnamed_addr constant [4 x i8*]
@.str.188 = private unnamed_addr constant [24 x i8] c"vector::_M_range_insert\00", align 1
@.str.189 = private unnamed_addr constant [21 x i8] c"basic_string::insert\00", align 1

@_ZN8AffEntryD1Ev = hidden unnamed_addr alias void (%class.AffEntry*), void (%class.AffEntry*)* @_ZN8AffEntryD2Ev
@_ZN8PfxEntryC1EP8AffixMgr = hidden unnamed_addr alias void (%class.PfxEntry*, %class.AffixMgr*), void (%class.PfxEntry*, %class.AffixMgr*)* @_ZN8PfxEntryC2EP8AffixMgr
@_ZN8SfxEntryC1EP8AffixMgr = hidden unnamed_addr alias void (%class.SfxEntry*, %class.AffixMgr*), void (%class.SfxEntry*, %class.AffixMgr*)* @_ZN8SfxEntryC2EP8AffixMgr
@_ZN8AffixMgrC1EPKcRKSt6vectorIP7HashMgrSaIS4_EES1_ = hidden unnamed_addr alias void (%class.AffixMgr*, i8*, %"class.std::vector"*, i8*), void (%class.AffixMgr*, i8*, %"class.std::vector"*, i8*)* @_ZN8AffixMgrC2EPKcRKSt6vectorIP7HashMgrSaIS4_EES1_
@_ZN8AffixMgrD1Ev = hidden unnamed_addr alias void (%class.AffixMgr*), void (%class.AffixMgr*)* @_ZN8AffixMgrD2Ev
@_ZN7HashMgrC1EPKcS1_S1_ = hidden unnamed_addr alias void (%class.HashMgr*, i8*, i8*, i8*), void (%class.HashMgr*, i8*, i8*, i8*)* @_ZN7HashMgrC2EPKcS1_S1_
@_ZN7HashMgrD1Ev = hidden unnamed_addr alias void (%class.HashMgr*), void (%class.HashMgr*)* @_ZN7HashMgrD2Ev
@_ZN8HunspellC1EPKcS1_S1_ = hidden unnamed_addr alias void (%class.Hunspell*, i8*, i8*, i8*), void (%class.Hunspell*, i8*, i8*, i8*)* @_ZN8HunspellC2EPKcS1_S1_
@_ZN12HunspellImplC1EPKcS1_S1_ = hidden unnamed_addr alias void (%class.HunspellImpl*, i8*, i8*, i8*), void (%class.HunspellImpl*, i8*, i8*, i8*)* @_ZN12HunspellImplC2EPKcS1_S1_
@_ZN8HunspellD1Ev = hidden unnamed_addr alias void (%class.Hunspell*), void (%class.Hunspell*)* @_ZN8HunspellD2Ev
@_ZN12HunspellImplD1Ev = hidden unnamed_addr alias void (%class.HunspellImpl*), void (%class.HunspellImpl*)* @_ZN12HunspellImplD2Ev
@_ZN7RepListC1Ei = hidden unnamed_addr alias void (%class.RepList*, i32), void (%class.RepList*, i32)* @_ZN7RepListC2Ei
@_ZN7RepListD1Ev = hidden unnamed_addr alias void (%class.RepList*), void (%class.RepList*)* @_ZN7RepListD2Ev
@_ZN10SuggestMgrC1EPKcjP8AffixMgr = hidden unnamed_addr alias void (%class.SuggestMgr*, i8*, i32, %class.AffixMgr*), void (%class.SuggestMgr*, i8*, i32, %class.AffixMgr*)* @_ZN10SuggestMgrC2EPKcjP8AffixMgr
@_ZN10SuggestMgrD1Ev = hidden unnamed_addr alias void (%class.SuggestMgr*), void (%class.SuggestMgr*)* @_ZN10SuggestMgrD2Ev

; Function Attrs: nounwind sspstrong uwtable
define linkonce_odr hidden void @_ZN7mozilla21CountingAllocatorBaseI17HunspellAllocatorE12CountingFreeEPv(i8*) local_unnamed_addr #0 comdat align 2 {
  %2 = tail call i64 @_ZN7mozilla21CountingAllocatorBaseI17HunspellAllocatorE18MallocSizeOfOnFreeEPKv(i8* %0)
  %3 = tail call i64 @_ZN7mozilla6AtomicImLNS_14MemoryOrderingE2ELNS_12recordreplay8BehaviorE0EvEmIEm(%"class.mozilla::Atomic"* nonnull @_ZN7mozilla21CountingAllocatorBaseI17HunspellAllocatorE7sAmountE, i64 %2)
  tail call void @free(i8* %0) #18
  ret void
}

; Function Attrs: nounwind sspstrong uwtable
define available_externally void @_ZNSt7__cxx1112basic_stringIcSt11char_traitsIcESaIcEED2Ev(%"class.std::__cxx11::basic_string"*) unnamed_addr #0 align 2 {
  tail call void @_ZNSt7__cxx1112basic_stringIcSt11char_traitsIcESaIcEE10_M_disposeEv(%"class.std::__cxx11::basic_string"* %0)
  %2 = bitcast %"class.std::__cxx11::basic_string"* %0 to %"class.std::allocator"*
  tail call void @_ZNSaIcED2Ev(%"class.std::allocator"* %2) #18
  ret void
}

; Function Attrs: nounwind sspstrong uwtable
define hidden void @_ZN8AffEntryD0Ev(%class.AffEntry*) unnamed_addr #0 align 2 {
  tail call void @_ZN8AffEntryD2Ev(%class.AffEntry* %0) #18
  %2 = bitcast %class.AffEntry* %0 to i8*
  tail call void @free(i8* %2) #18
  ret void
}

; Function Attrs: nounwind sspstrong uwtable
define hidden void @_ZN8PfxEntryC2EP8AffixMgr(%class.PfxEntry*, %class.AffixMgr*) unnamed_addr #0 align 2 {
  %3 = bitcast %class.PfxEntry* %0 to %class.AffEntry*
  tail call void @_ZN8AffEntryC2Ev(%class.AffEntry* %3)
  %4 = getelementptr inbounds %class.PfxEntry, %class.PfxEntry* %0, i64 0, i32 0, i32 0
  store i32 (...)** bitcast (i8** getelementptr inbounds ({ [4 x i8*] }, { [4 x i8*] }* @_ZTV8PfxEntry, i64 0, inrange i32 0, i64 2) to i32 (...)**), i32 (...)*** %4, align 8
  %5 = getelementptr inbounds %class.PfxEntry, %class.PfxEntry* %0, i64 0, i32 1
  store %class.AffixMgr* %1, %class.AffixMgr** %5, align 8
  %6 = getelementptr inbounds %class.PfxEntry, %class.PfxEntry* %0, i64 0, i32 2
  %7 = bitcast %class.PfxEntry** %6 to i8*
  call void @llvm.memset.p0i8.i64(i8* nonnull align 8 %7, i8 0, i64 32, i1 false)
  ret void
}

; Function Attrs: nounwind sspstrong uwtable
define linkonce_odr hidden void @_ZN8AffEntryC2Ev(%class.AffEntry*) unnamed_addr #0 comdat align 2 {
  %2 = getelementptr inbounds %class.AffEntry, %class.AffEntry* %0, i64 0, i32 0
  store i32 (...)** bitcast (i8** getelementptr inbounds ({ [4 x i8*] }, { [4 x i8*] }* @_ZTV8AffEntry, i64 0, inrange i32 0, i64 2) to i32 (...)**), i32 (...)*** %2, align 8
  %3 = getelementptr inbounds %class.AffEntry, %class.AffEntry* %0, i64 0, i32 1
  tail call void @_ZNSt7__cxx1112basic_stringIcSt11char_traitsIcESaIcEEC2Ev(%"class.std::__cxx11::basic_string"* nonnull %3) #18
  %4 = getelementptr inbounds %class.AffEntry, %class.AffEntry* %0, i64 0, i32 2
  tail call void @_ZNSt7__cxx1112basic_stringIcSt11char_traitsIcESaIcEEC2Ev(%"class.std::__cxx11::basic_string"* nonnull %4) #18
  %5 = getelementptr inbounds %class.AffEntry, %class.AffEntry* %0, i64 0, i32 3
  store i8 0, i8* %5, align 8
  %6 = getelementptr inbounds %class.AffEntry, %class.AffEntry* %0, i64 0, i32 4
  store i8 0, i8* %6, align 1
  %7 = getelementptr inbounds %class.AffEntry, %class.AffEntry* %0, i64 0, i32 5
  store i16 0, i16* %7, align 2
  %8 = getelementptr inbounds %class.AffEntry, %class.AffEntry* %0, i64 0, i32 8
  %9 = bitcast i8** %8 to i8*
  call void @llvm.memset.p0i8.i64(i8* nonnull align 8 %9, i8 0, i64 18, i1 false)
  ret void
}

; Function Attrs: nounwind sspstrong uwtable
define hidden void @_ZN8PfxEntry3addB5cxx11EPKcm(%"class.std::__cxx11::basic_string"* noalias sret, %class.PfxEntry*, i8*, i64) local_unnamed_addr #0 align 2 {
  tail call void @_ZNSt7__cxx1112basic_stringIcSt11char_traitsIcESaIcEEC2Ev(%"class.std::__cxx11::basic_string"* %0) #18
  %5 = getelementptr inbounds %class.PfxEntry, %class.PfxEntry* %1, i64 0, i32 0, i32 2
  %6 = tail call i64 @_ZNKSt7__cxx1112basic_stringIcSt11char_traitsIcESaIcEE4sizeEv(%"class.std::__cxx11::basic_string"* nonnull %5) #18
  %7 = icmp ult i64 %6, %3
  br i1 %7, label %15, label %8

; <label>:8:                                      ; preds = %4
  %9 = icmp eq i64 %3, 0
  br i1 %9, label %10, label %37

; <label>:10:                                     ; preds = %8
  %11 = getelementptr inbounds %class.PfxEntry, %class.PfxEntry* %1, i64 0, i32 1
  %12 = load %class.AffixMgr*, %class.AffixMgr** %11, align 8
  %13 = tail call i32 @_ZNK8AffixMgr13get_fullstripEv(%class.AffixMgr* %12)
  %14 = icmp eq i32 %13, 0
  br i1 %14, label %37, label %15

; <label>:15:                                     ; preds = %10, %4
  %16 = getelementptr inbounds %class.PfxEntry, %class.PfxEntry* %1, i64 0, i32 0, i32 3
  %17 = load i8, i8* %16, align 8
  %18 = zext i8 %17 to i64
  %19 = icmp ugt i64 %18, %3
  br i1 %19, label %37, label %20

; <label>:20:                                     ; preds = %15
  %21 = tail call i32 @_ZN8PfxEntry14test_conditionEPKc(%class.PfxEntry* nonnull %1, i8* %2)
  %22 = icmp eq i32 %21, 0
  br i1 %22, label %37, label %23

; <label>:23:                                     ; preds = %20
  %24 = tail call i64 @_ZNKSt7__cxx1112basic_stringIcSt11char_traitsIcESaIcEE4sizeEv(%"class.std::__cxx11::basic_string"* nonnull %5) #18
  %25 = icmp eq i64 %24, 0
  br i1 %25, label %31, label %26

; <label>:26:                                     ; preds = %23
  %27 = tail call i8* @_ZNKSt7__cxx1112basic_stringIcSt11char_traitsIcESaIcEE5c_strEv(%"class.std::__cxx11::basic_string"* nonnull %5) #18
  %28 = tail call i64 @_ZNKSt7__cxx1112basic_stringIcSt11char_traitsIcESaIcEE4sizeEv(%"class.std::__cxx11::basic_string"* nonnull %5) #18
  %29 = tail call i32 @strncmp(i8* %2, i8* %27, i64 %28) #17
  %30 = icmp eq i32 %29, 0
  br i1 %30, label %31, label %37

; <label>:31:                                     ; preds = %23, %26
  %32 = getelementptr inbounds %class.PfxEntry, %class.PfxEntry* %1, i64 0, i32 0, i32 1
  %33 = tail call dereferenceable(32) %"class.std::__cxx11::basic_string"* @_ZNSt7__cxx1112basic_stringIcSt11char_traitsIcESaIcEE6assignERKS4_(%"class.std::__cxx11::basic_string"* %0, %"class.std::__cxx11::basic_string"* nonnull dereferenceable(32) %32)
  %34 = tail call i64 @_ZNKSt7__cxx1112basic_stringIcSt11char_traitsIcESaIcEE4sizeEv(%"class.std::__cxx11::basic_string"* nonnull %5) #18
  %35 = getelementptr inbounds i8, i8* %2, i64 %34
  %36 = tail call dereferenceable(32) %"class.std::__cxx11::basic_string"* @_ZNSt7__cxx1112basic_stringIcSt11char_traitsIcESaIcEE6appendEPKc(%"class.std::__cxx11::basic_string"* %0, i8* %35)
  br label %37

; <label>:37:                                     ; preds = %8, %26, %31, %10, %15, %20
  ret void
}

; Function Attrs: nounwind sspstrong uwtable
define available_externally void @_ZNSt7__cxx1112basic_stringIcSt11char_traitsIcESaIcEEC2Ev(%"class.std::__cxx11::basic_string"*) unnamed_addr #0 align 2 {
  %2 = alloca %"class.std::allocator", align 1
  %3 = getelementptr inbounds %"class.std::__cxx11::basic_string", %"class.std::__cxx11::basic_string"* %0, i64 0, i32 0
  %4 = tail call i8* @_ZNSt7__cxx1112basic_stringIcSt11char_traitsIcESaIcEE13_M_local_dataEv(%"class.std::__cxx11::basic_string"* %0)
  %5 = getelementptr inbounds %"class.std::allocator", %"class.std::allocator"* %2, i64 0, i32 0
  call void @llvm.lifetime.start.p0i8(i64 1, i8* nonnull %5) #18
  call void @_ZNSaIcEC2Ev(%"class.std::allocator"* nonnull %2) #18
  call void @_ZNSt7__cxx1112basic_stringIcSt11char_traitsIcESaIcEE12_Alloc_hiderC2EPcOS3_(%"struct.std::__cxx11::basic_string<char, std::char_traits<char>, std::allocator<char> >::_Alloc_hider"* %3, i8* %4, %"class.std::allocator"* nonnull dereferenceable(1) %2)
  call void @_ZNSaIcED2Ev(%"class.std::allocator"* nonnull %2) #18
  call void @llvm.lifetime.end.p0i8(i64 1, i8* nonnull %5) #18
  call void @_ZNSt7__cxx1112basic_stringIcSt11char_traitsIcESaIcEE13_M_set_lengthEm(%"class.std::__cxx11::basic_string"* %0, i64 0)
  ret void
}

; Function Attrs: norecurse nounwind sspstrong uwtable
define available_externally i64 @_ZNKSt7__cxx1112basic_stringIcSt11char_traitsIcESaIcEE4sizeEv(%"class.std::__cxx11::basic_string"*) local_unnamed_addr #1 align 2 {
  %2 = getelementptr inbounds %"class.std::__cxx11::basic_string", %"class.std::__cxx11::basic_string"* %0, i64 0, i32 1
  %3 = load i64, i64* %2, align 8
  ret i64 %3
}

; Function Attrs: norecurse nounwind readonly sspstrong uwtable
define hidden i32 @_ZNK8AffixMgr13get_fullstripEv(%class.AffixMgr* nocapture readonly) local_unnamed_addr #2 align 2 {
  %2 = getelementptr inbounds %class.AffixMgr, %class.AffixMgr* %0, i64 0, i32 88
  %3 = load i32, i32* %2, align 4
  ret i32 %3
}

; Function Attrs: inlinehint norecurse nounwind sspstrong uwtable
define linkonce_odr hidden i32 @_ZN8PfxEntry14test_conditionEPKc(%class.PfxEntry*, i8*) local_unnamed_addr #3 comdat align 2 {
  %3 = getelementptr inbounds %class.PfxEntry, %class.PfxEntry* %0, i64 0, i32 0, i32 3
  %4 = load i8, i8* %3, align 8
  %5 = icmp eq i8 %4, 0
  br i1 %5, label %140, label %6

; <label>:6:                                      ; preds = %2
  %7 = getelementptr inbounds %class.PfxEntry, %class.PfxEntry* %0, i64 0, i32 0, i32 7, i32 0, i32 0, i64 0
  %8 = getelementptr inbounds %class.PfxEntry, %class.PfxEntry* %0, i64 0, i32 0, i32 4
  %9 = getelementptr inbounds %class.PfxEntry, %class.PfxEntry* %0, i64 0, i32 0, i32 4
  %10 = getelementptr inbounds %class.PfxEntry, %class.PfxEntry* %0, i64 0, i32 0, i32 4
  br label %11

; <label>:11:                                     ; preds = %133, %6
  %12 = phi i8* [ %1, %6 ], [ %134, %133 ]
  %13 = phi i8* [ null, %6 ], [ %135, %133 ]
  %14 = phi i8 [ 0, %6 ], [ %136, %133 ]
  %15 = phi i8 [ 0, %6 ], [ %137, %133 ]
  %16 = phi i8* [ %7, %6 ], [ %138, %133 ]
  %17 = load i8, i8* %16, align 1
  %18 = sext i8 %17 to i32
  switch i32 %18, label %74 [
    i32 0, label %140
    i32 91, label %19
    i32 94, label %21
    i32 93, label %23
    i32 46, label %55
  ]

; <label>:19:                                     ; preds = %11
  %20 = tail call i8* @_ZN8PfxEntry8nextcharEPc(%class.PfxEntry* %0, i8* nonnull %16)
  br label %133

; <label>:21:                                     ; preds = %11
  %22 = tail call i8* @_ZN8PfxEntry8nextcharEPc(%class.PfxEntry* %0, i8* nonnull %16)
  br label %133

; <label>:23:                                     ; preds = %11
  %24 = and i8 %15, 1
  %25 = and i8 %24, %14
  %26 = icmp ne i8 %25, 0
  %27 = or i8 %15, %14
  %28 = and i8 %27, 1
  %29 = icmp eq i8 %28, 0
  %30 = or i1 %26, %29
  br i1 %30, label %140, label %31

; <label>:31:                                     ; preds = %23
  %32 = and i8 %15, 1
  %33 = icmp eq i8 %32, 0
  %34 = tail call i8* @_ZN8PfxEntry8nextcharEPc(%class.PfxEntry* %0, i8* nonnull %16)
  br i1 %33, label %35, label %49

; <label>:35:                                     ; preds = %31
  %36 = load i8, i8* %12, align 1
  %37 = icmp eq i8 %36, 0
  br i1 %37, label %49, label %38

; <label>:38:                                     ; preds = %35
  %39 = load i8, i8* %10, align 1
  %40 = and i8 %39, 2
  %41 = icmp eq i8 %40, 0
  br label %42

; <label>:42:                                     ; preds = %38, %45
  %43 = phi i8* [ %44, %45 ], [ %12, %38 ]
  %44 = getelementptr inbounds i8, i8* %43, i64 1
  br i1 %41, label %49, label %45

; <label>:45:                                     ; preds = %42
  %46 = load i8, i8* %44, align 1
  %47 = and i8 %46, -64
  %48 = icmp eq i8 %47, -128
  br i1 %48, label %42, label %49

; <label>:49:                                     ; preds = %42, %45, %35, %31
  %50 = phi i8* [ %12, %31 ], [ %12, %35 ], [ %44, %45 ], [ %44, %42 ]
  %51 = load i8, i8* %50, align 1
  %52 = icmp eq i8 %51, 0
  %53 = icmp ne i8* %34, null
  %54 = and i1 %53, %52
  br i1 %54, label %140, label %133

; <label>:55:                                     ; preds = %11
  %56 = icmp eq i8* %13, null
  br i1 %56, label %57, label %74

; <label>:57:                                     ; preds = %55
  %58 = tail call i8* @_ZN8PfxEntry8nextcharEPc(%class.PfxEntry* %0, i8* nonnull %16)
  %59 = load i8, i8* %9, align 1
  %60 = and i8 %59, 2
  %61 = icmp eq i8 %60, 0
  br label %62

; <label>:62:                                     ; preds = %65, %57
  %63 = phi i8* [ %12, %57 ], [ %64, %65 ]
  %64 = getelementptr inbounds i8, i8* %63, i64 1
  br i1 %61, label %69, label %65

; <label>:65:                                     ; preds = %62
  %66 = load i8, i8* %64, align 1
  %67 = and i8 %66, -64
  %68 = icmp eq i8 %67, -128
  br i1 %68, label %62, label %69

; <label>:69:                                     ; preds = %62, %65
  %70 = load i8, i8* %64, align 1
  %71 = icmp eq i8 %70, 0
  %72 = icmp ne i8* %58, null
  %73 = and i1 %72, %71
  br i1 %73, label %140, label %133

; <label>:74:                                     ; preds = %55, %11
  %75 = load i8, i8* %12, align 1
  %76 = icmp eq i8 %75, %17
  br i1 %76, label %77, label %129

; <label>:77:                                     ; preds = %74
  %78 = getelementptr inbounds i8, i8* %12, i64 1
  %79 = tail call i8* @_ZN8PfxEntry8nextcharEPc(%class.PfxEntry* %0, i8* nonnull %16)
  %80 = load i8, i8* %8, align 1
  %81 = and i8 %80, 2
  %82 = icmp eq i8 %81, 0
  br i1 %82, label %118, label %83

; <label>:83:                                     ; preds = %77
  %84 = load i8, i8* %12, align 1
  %85 = icmp slt i8 %84, 0
  br i1 %85, label %86, label %118

; <label>:86:                                     ; preds = %83
  %87 = icmp eq i8* %79, null
  br i1 %87, label %103, label %88

; <label>:88:                                     ; preds = %86, %99
  %89 = phi i8* [ %100, %99 ], [ %79, %86 ]
  %90 = phi i8* [ %101, %99 ], [ %78, %86 ]
  %91 = load i8, i8* %89, align 1
  %92 = and i8 %91, -64
  %93 = icmp eq i8 %92, -128
  br i1 %93, label %94, label %103

; <label>:94:                                     ; preds = %88
  %95 = load i8, i8* %90, align 1
  %96 = icmp eq i8 %91, %95
  br i1 %96, label %99, label %97

; <label>:97:                                     ; preds = %94
  %98 = icmp eq i8* %13, null
  br i1 %98, label %140, label %133

; <label>:99:                                     ; preds = %94
  %100 = tail call i8* @_ZN8PfxEntry8nextcharEPc(%class.PfxEntry* %0, i8* nonnull %89)
  %101 = getelementptr inbounds i8, i8* %90, i64 1
  %102 = icmp eq i8* %100, null
  br i1 %102, label %103, label %88

; <label>:103:                                    ; preds = %99, %88, %86
  %104 = phi i8* [ %78, %86 ], [ %101, %99 ], [ %90, %88 ]
  %105 = phi i8* [ null, %86 ], [ null, %99 ], [ %89, %88 ]
  %106 = phi i1 [ false, %86 ], [ false, %99 ], [ true, %88 ]
  %107 = icmp eq i8* %13, null
  %108 = icmp eq i8* %104, %13
  %109 = or i1 %107, %108
  br i1 %109, label %133, label %110

; <label>:110:                                    ; preds = %103
  br i1 %106, label %111, label %140

; <label>:111:                                    ; preds = %110, %115
  %112 = phi i8* [ %116, %115 ], [ %105, %110 ]
  %113 = load i8, i8* %112, align 1
  %114 = icmp eq i8 %113, 93
  br i1 %114, label %133, label %115

; <label>:115:                                    ; preds = %111
  %116 = tail call i8* @_ZN8PfxEntry8nextcharEPc(%class.PfxEntry* %0, i8* nonnull %112)
  %117 = icmp eq i8* %116, null
  br i1 %117, label %140, label %111

; <label>:118:                                    ; preds = %77, %83
  %119 = icmp eq i8* %13, null
  br i1 %119, label %133, label %120

; <label>:120:                                    ; preds = %118
  %121 = icmp eq i8* %79, null
  br i1 %121, label %140, label %122

; <label>:122:                                    ; preds = %120, %126
  %123 = phi i8* [ %127, %126 ], [ %79, %120 ]
  %124 = load i8, i8* %123, align 1
  %125 = icmp eq i8 %124, 93
  br i1 %125, label %133, label %126

; <label>:126:                                    ; preds = %122
  %127 = tail call i8* @_ZN8PfxEntry8nextcharEPc(%class.PfxEntry* %0, i8* nonnull %123)
  %128 = icmp eq i8* %127, null
  br i1 %128, label %140, label %122

; <label>:129:                                    ; preds = %74
  %130 = icmp eq i8* %13, null
  br i1 %130, label %140, label %131

; <label>:131:                                    ; preds = %129
  %132 = tail call i8* @_ZN8PfxEntry8nextcharEPc(%class.PfxEntry* %0, i8* nonnull %16)
  br label %133

; <label>:133:                                    ; preds = %111, %122, %97, %103, %118, %131, %69, %49, %21, %19
  %134 = phi i8* [ %104, %103 ], [ %78, %118 ], [ %12, %131 ], [ %64, %69 ], [ %50, %49 ], [ %12, %21 ], [ %12, %19 ], [ %13, %97 ], [ %78, %122 ], [ %104, %111 ]
  %135 = phi i8* [ %13, %103 ], [ null, %118 ], [ %13, %131 ], [ %13, %69 ], [ null, %49 ], [ %13, %21 ], [ %12, %19 ], [ %13, %97 ], [ %13, %122 ], [ %13, %111 ]
  %136 = phi i8 [ %14, %103 ], [ %14, %118 ], [ %14, %131 ], [ %14, %69 ], [ %14, %49 ], [ 1, %21 ], [ 0, %19 ], [ %14, %97 ], [ %14, %122 ], [ %14, %111 ]
  %137 = phi i8 [ %15, %103 ], [ %15, %118 ], [ %15, %131 ], [ %15, %69 ], [ %15, %49 ], [ %15, %21 ], [ 0, %19 ], [ %15, %97 ], [ 1, %122 ], [ 1, %111 ]
  %138 = phi i8* [ %105, %103 ], [ %79, %118 ], [ %132, %131 ], [ %58, %69 ], [ %34, %49 ], [ %22, %21 ], [ %20, %19 ], [ %89, %97 ], [ %123, %122 ], [ %112, %111 ]
  %139 = icmp eq i8* %138, null
  br i1 %139, label %140, label %11

; <label>:140:                                    ; preds = %23, %120, %110, %11, %49, %69, %97, %129, %133, %115, %126, %2
  %141 = phi i32 [ 1, %2 ], [ 1, %126 ], [ 1, %115 ], [ 1, %120 ], [ 1, %110 ], [ 1, %133 ], [ 0, %129 ], [ 0, %97 ], [ 0, %69 ], [ 0, %49 ], [ 0, %23 ], [ 1, %11 ]
  ret i32 %141
}

; Function Attrs: nounwind readonly
declare i32 @strncmp(i8* nocapture, i8* nocapture, i64) local_unnamed_addr #4

; Function Attrs: norecurse nounwind sspstrong uwtable
define available_externally i8* @_ZNKSt7__cxx1112basic_stringIcSt11char_traitsIcESaIcEE5c_strEv(%"class.std::__cxx11::basic_string"*) local_unnamed_addr #1 align 2 {
  %2 = tail call i8* @_ZNKSt7__cxx1112basic_stringIcSt11char_traitsIcESaIcEE7_M_dataEv(%"class.std::__cxx11::basic_string"* %0)
  ret i8* %2
}

; Function Attrs: nounwind sspstrong uwtable
define available_externally dereferenceable(32) %"class.std::__cxx11::basic_string"* @_ZNSt7__cxx1112basic_stringIcSt11char_traitsIcESaIcEE6assignERKS4_(%"class.std::__cxx11::basic_string"*, %"class.std::__cxx11::basic_string"* dereferenceable(32)) local_unnamed_addr #0 align 2 {
  tail call void @_ZNSt7__cxx1112basic_stringIcSt11char_traitsIcESaIcEE9_M_assignERKS4_(%"class.std::__cxx11::basic_string"* %0, %"class.std::__cxx11::basic_string"* nonnull dereferenceable(32) %1) #18
  ret %"class.std::__cxx11::basic_string"* %0
}

; Function Attrs: nounwind sspstrong uwtable
define available_externally dereferenceable(32) %"class.std::__cxx11::basic_string"* @_ZNSt7__cxx1112basic_stringIcSt11char_traitsIcESaIcEE6appendEPKc(%"class.std::__cxx11::basic_string"*, i8*) local_unnamed_addr #0 align 2 {
  %3 = tail call i64 @_ZNSt11char_traitsIcE6lengthEPKc(i8* %1)
  tail call void @_ZNKSt7__cxx1112basic_stringIcSt11char_traitsIcESaIcEE15_M_check_lengthEmmPKc(%"class.std::__cxx11::basic_string"* %0, i64 0, i64 %3, i8* getelementptr inbounds ([21 x i8], [21 x i8]* @.str.181, i64 0, i64 0))
  %4 = tail call dereferenceable(32) %"class.std::__cxx11::basic_string"* @_ZNSt7__cxx1112basic_stringIcSt11char_traitsIcESaIcEE9_M_appendEPKcm(%"class.std::__cxx11::basic_string"* %0, i8* %1, i64 %3) #18
  ret %"class.std::__cxx11::basic_string"* %4
}

; Function Attrs: nounwind sspstrong uwtable
define hidden %struct.hentry* @_ZN8PfxEntry9checkwordEPKcict(%class.PfxEntry*, i8*, i32, i8 signext, i16 zeroext) local_unnamed_addr #0 align 2 {
  %6 = alloca i16, align 2
  %7 = alloca %"class.std::__cxx11::basic_string", align 8
  %8 = alloca i16, align 2
  store i16 %4, i16* %6, align 2
  %9 = getelementptr inbounds %class.PfxEntry, %class.PfxEntry* %0, i64 0, i32 0, i32 1
  %10 = tail call i64 @_ZNKSt7__cxx1112basic_stringIcSt11char_traitsIcESaIcEE4sizeEv(%"class.std::__cxx11::basic_string"* nonnull %9) #18
  %11 = trunc i64 %10 to i32
  %12 = sub i32 %2, %11
  %13 = icmp sgt i32 %12, 0
  br i1 %13, label %21, label %14

; <label>:14:                                     ; preds = %5
  %15 = icmp eq i32 %12, 0
  br i1 %15, label %16, label %101

; <label>:16:                                     ; preds = %14
  %17 = getelementptr inbounds %class.PfxEntry, %class.PfxEntry* %0, i64 0, i32 1
  %18 = load %class.AffixMgr*, %class.AffixMgr** %17, align 8
  %19 = tail call i32 @_ZNK8AffixMgr13get_fullstripEv(%class.AffixMgr* %18)
  %20 = icmp eq i32 %19, 0
  br i1 %20, label %101, label %21

; <label>:21:                                     ; preds = %16, %5
  %22 = bitcast %"class.std::__cxx11::basic_string"* %7 to i8*
  call void @llvm.lifetime.start.p0i8(i64 32, i8* nonnull %22) #18
  %23 = getelementptr inbounds %class.PfxEntry, %class.PfxEntry* %0, i64 0, i32 0, i32 2
  call void @_ZNSt7__cxx1112basic_stringIcSt11char_traitsIcESaIcEEC2ERKS4_(%"class.std::__cxx11::basic_string"* nonnull %7, %"class.std::__cxx11::basic_string"* nonnull dereferenceable(32) %23)
  %24 = call i64 @_ZNKSt7__cxx1112basic_stringIcSt11char_traitsIcESaIcEE4sizeEv(%"class.std::__cxx11::basic_string"* nonnull %9) #18
  %25 = getelementptr inbounds i8, i8* %1, i64 %24
  %26 = call dereferenceable(32) %"class.std::__cxx11::basic_string"* @_ZNSt7__cxx1112basic_stringIcSt11char_traitsIcESaIcEE6appendEPKc(%"class.std::__cxx11::basic_string"* nonnull %7, i8* %25)
  %27 = call i8* @_ZNKSt7__cxx1112basic_stringIcSt11char_traitsIcESaIcEE5c_strEv(%"class.std::__cxx11::basic_string"* nonnull %7) #18
  %28 = call i32 @_ZN8PfxEntry14test_conditionEPKc(%class.PfxEntry* %0, i8* %27)
  %29 = icmp eq i32 %28, 0
  br i1 %29, label %100, label %30

; <label>:30:                                     ; preds = %21
  %31 = call i64 @_ZNKSt7__cxx1112basic_stringIcSt11char_traitsIcESaIcEE4sizeEv(%"class.std::__cxx11::basic_string"* nonnull %23) #18
  %32 = trunc i64 %31 to i32
  %33 = add i32 %12, %32
  %34 = getelementptr inbounds %class.PfxEntry, %class.PfxEntry* %0, i64 0, i32 1
  %35 = load %class.AffixMgr*, %class.AffixMgr** %34, align 8
  %36 = call i8* @_ZNKSt7__cxx1112basic_stringIcSt11char_traitsIcESaIcEE5c_strEv(%"class.std::__cxx11::basic_string"* nonnull %7) #18
  %37 = call %struct.hentry* @_ZN8AffixMgr6lookupEPKc(%class.AffixMgr* %35, i8* %36)
  %38 = icmp eq %struct.hentry* %37, null
  br i1 %38, label %87, label %39

; <label>:39:                                     ; preds = %30
  %40 = getelementptr inbounds %class.PfxEntry, %class.PfxEntry* %0, i64 0, i32 0, i32 5
  %41 = getelementptr inbounds %class.PfxEntry, %class.PfxEntry* %0, i64 0, i32 0, i32 9
  %42 = getelementptr inbounds %class.PfxEntry, %class.PfxEntry* %0, i64 0, i32 0, i32 10
  %43 = bitcast i16* %8 to i8*
  %44 = bitcast i16* %8 to i8*
  %45 = bitcast i16* %8 to i8*
  br label %46

; <label>:46:                                     ; preds = %39, %83
  %47 = phi %struct.hentry* [ %85, %83 ], [ %37, %39 ]
  %48 = getelementptr inbounds %struct.hentry, %struct.hentry* %47, i64 0, i32 3
  %49 = load i16*, i16** %48, align 8
  %50 = getelementptr inbounds %struct.hentry, %struct.hentry* %47, i64 0, i32 2
  %51 = load i16, i16* %50, align 2
  %52 = sext i16 %51 to i64
  %53 = getelementptr inbounds i16, i16* %49, i64 %52
  %54 = call zeroext i1 @_ZSt13binary_searchIPttEbT_S1_RKT0_(i16* %49, i16* %53, i16* nonnull dereferenceable(2) %40)
  br i1 %54, label %55, label %83

; <label>:55:                                     ; preds = %46
  %56 = load i16*, i16** %41, align 8
  %57 = load i16, i16* %42, align 8
  %58 = sext i16 %57 to i64
  %59 = getelementptr inbounds i16, i16* %56, i64 %58
  call void @llvm.lifetime.start.p0i8(i64 2, i8* nonnull %43) #18
  %60 = load %class.AffixMgr*, %class.AffixMgr** %34, align 8
  %61 = call zeroext i16 @_ZNK8AffixMgr13get_needaffixEv(%class.AffixMgr* %60)
  store i16 %61, i16* %8, align 2
  %62 = call zeroext i1 @_ZSt13binary_searchIPttEbT_S1_RKT0_(i16* %56, i16* %59, i16* nonnull dereferenceable(2) %8)
  br i1 %62, label %77, label %63

; <label>:63:                                     ; preds = %55
  %64 = load i16, i16* %6, align 2
  %65 = icmp eq i16 %64, 0
  br i1 %65, label %75, label %66

; <label>:66:                                     ; preds = %63
  %67 = load i16*, i16** %48, align 8
  %68 = load i16, i16* %50, align 2
  %69 = sext i16 %68 to i64
  %70 = getelementptr inbounds i16, i16* %67, i64 %69
  %71 = call zeroext i1 @_ZSt13binary_searchIPttEbT_S1_RKT0_(i16* %67, i16* %70, i16* nonnull dereferenceable(2) %6)
  br i1 %71, label %75, label %72

; <label>:72:                                     ; preds = %66
  %73 = load i16*, i16** %41, align 8
  %74 = icmp eq i16* %73, null
  br i1 %74, label %77, label %78

; <label>:75:                                     ; preds = %63, %66
  %76 = bitcast i16* %8 to i8*
  call void @llvm.lifetime.end.p0i8(i64 2, i8* nonnull %76) #18
  br label %98

; <label>:77:                                     ; preds = %72, %55
  call void @llvm.lifetime.end.p0i8(i64 2, i8* nonnull %44) #18
  br label %83

; <label>:78:                                     ; preds = %72
  %79 = load i16, i16* %42, align 8
  %80 = sext i16 %79 to i64
  %81 = getelementptr inbounds i16, i16* %73, i64 %80
  %82 = call zeroext i1 @_ZSt13binary_searchIPttEbT_S1_RKT0_(i16* nonnull %73, i16* nonnull %81, i16* nonnull dereferenceable(2) %6)
  call void @llvm.lifetime.end.p0i8(i64 2, i8* nonnull %45) #18
  br i1 %82, label %98, label %83

; <label>:83:                                     ; preds = %46, %77, %78
  %84 = getelementptr inbounds %struct.hentry, %struct.hentry* %47, i64 0, i32 5
  %85 = load %struct.hentry*, %struct.hentry** %84, align 8
  %86 = icmp eq %struct.hentry* %85, null
  br i1 %86, label %87, label %46

; <label>:87:                                     ; preds = %83, %30
  %88 = getelementptr inbounds %class.PfxEntry, %class.PfxEntry* %0, i64 0, i32 0, i32 4
  %89 = load i8, i8* %88, align 1
  %90 = and i8 %89, 1
  %91 = icmp eq i8 %90, 0
  br i1 %91, label %100, label %92

; <label>:92:                                     ; preds = %87
  %93 = load %class.AffixMgr*, %class.AffixMgr** %34, align 8
  %94 = call i8* @_ZNKSt7__cxx1112basic_stringIcSt11char_traitsIcESaIcEE5c_strEv(%"class.std::__cxx11::basic_string"* nonnull %7) #18
  %95 = load i16, i16* %6, align 2
  %96 = call %struct.hentry* @_ZN8AffixMgr12suffix_checkEPKciiP8PfxEntryttc(%class.AffixMgr* %93, i8* %94, i32 %33, i32 1, %class.PfxEntry* nonnull %0, i16 zeroext 0, i16 zeroext %95, i8 signext %3)
  %97 = icmp eq %struct.hentry* %96, null
  br i1 %97, label %100, label %98

; <label>:98:                                     ; preds = %78, %92, %75
  %99 = phi %struct.hentry* [ %47, %75 ], [ %96, %92 ], [ %47, %78 ]
  call void @_ZNSt7__cxx1112basic_stringIcSt11char_traitsIcESaIcEED2Ev(%"class.std::__cxx11::basic_string"* nonnull %7) #18
  call void @llvm.lifetime.end.p0i8(i64 32, i8* nonnull %22) #18
  br label %101

; <label>:100:                                    ; preds = %21, %87, %92
  call void @_ZNSt7__cxx1112basic_stringIcSt11char_traitsIcESaIcEED2Ev(%"class.std::__cxx11::basic_string"* nonnull %7) #18
  call void @llvm.lifetime.end.p0i8(i64 32, i8* nonnull %22) #18
  br label %101

; <label>:101:                                    ; preds = %14, %16, %100, %98
  %102 = phi %struct.hentry* [ %99, %98 ], [ null, %100 ], [ null, %16 ], [ null, %14 ]
  ret %struct.hentry* %102
}

; Function Attrs: argmemonly nounwind
declare void @llvm.lifetime.start.p0i8(i64, i8* nocapture) #5

; Function Attrs: nounwind sspstrong uwtable
define available_externally void @_ZNSt7__cxx1112basic_stringIcSt11char_traitsIcESaIcEEC2ERKS4_(%"class.std::__cxx11::basic_string"*, %"class.std::__cxx11::basic_string"* dereferenceable(32)) unnamed_addr #0 align 2 {
  %3 = alloca %"class.std::allocator", align 1
  %4 = getelementptr inbounds %"class.std::__cxx11::basic_string", %"class.std::__cxx11::basic_string"* %0, i64 0, i32 0
  %5 = tail call i8* @_ZNSt7__cxx1112basic_stringIcSt11char_traitsIcESaIcEE13_M_local_dataEv(%"class.std::__cxx11::basic_string"* %0)
  %6 = getelementptr inbounds %"class.std::allocator", %"class.std::allocator"* %3, i64 0, i32 0
  call void @llvm.lifetime.start.p0i8(i64 1, i8* nonnull %6) #18
  %7 = tail call dereferenceable(1) %"class.std::allocator"* @_ZNKSt7__cxx1112basic_stringIcSt11char_traitsIcESaIcEE16_M_get_allocatorEv(%"class.std::__cxx11::basic_string"* nonnull %1)
  call void @_ZN9__gnu_cxx14__alloc_traitsISaIcEcE17_S_select_on_copyERKS1_(%"class.std::allocator"* nonnull sret %3, %"class.std::allocator"* nonnull dereferenceable(1) %7)
  call void @_ZNSt7__cxx1112basic_stringIcSt11char_traitsIcESaIcEE12_Alloc_hiderC2EPcOS3_(%"struct.std::__cxx11::basic_string<char, std::char_traits<char>, std::allocator<char> >::_Alloc_hider"* %4, i8* %5, %"class.std::allocator"* nonnull dereferenceable(1) %3)
  call void @_ZNSaIcED2Ev(%"class.std::allocator"* nonnull %3) #18
  call void @llvm.lifetime.end.p0i8(i64 1, i8* nonnull %6) #18
  %8 = call i8* @_ZNKSt7__cxx1112basic_stringIcSt11char_traitsIcESaIcEE7_M_dataEv(%"class.std::__cxx11::basic_string"* nonnull %1)
  %9 = call i8* @_ZNKSt7__cxx1112basic_stringIcSt11char_traitsIcESaIcEE7_M_dataEv(%"class.std::__cxx11::basic_string"* nonnull %1)
  %10 = call i64 @_ZNKSt7__cxx1112basic_stringIcSt11char_traitsIcESaIcEE6lengthEv(%"class.std::__cxx11::basic_string"* nonnull %1) #18
  %11 = getelementptr inbounds i8, i8* %9, i64 %10
  call void @_ZNSt7__cxx1112basic_stringIcSt11char_traitsIcESaIcEE12_M_constructIPcEEvT_S7_(%"class.std::__cxx11::basic_string"* %0, i8* %8, i8* %11)
  ret void
}

; Function Attrs: nounwind sspstrong uwtable
define hidden %struct.hentry* @_ZN8AffixMgr6lookupEPKc(%class.AffixMgr* nocapture readonly, i8* nocapture readonly) local_unnamed_addr #0 align 2 {
  %3 = getelementptr inbounds %class.AffixMgr, %class.AffixMgr* %0, i64 0, i32 4
  %4 = load %"class.std::vector"*, %"class.std::vector"** %3, align 8
  %5 = tail call i64 @_ZNKSt6vectorIP7HashMgrSaIS1_EE4sizeEv(%"class.std::vector"* %4) #18
  %6 = icmp eq i64 %5, 0
  br i1 %6, label %7, label %9

; <label>:7:                                      ; preds = %9, %2
  %8 = phi %struct.hentry* [ null, %2 ], [ %14, %9 ]
  ret %struct.hentry* %8

; <label>:9:                                      ; preds = %2, %9
  %10 = phi i64 [ %15, %9 ], [ 0, %2 ]
  %11 = load %"class.std::vector"*, %"class.std::vector"** %3, align 8
  %12 = tail call dereferenceable(8) %class.HashMgr** @_ZNKSt6vectorIP7HashMgrSaIS1_EEixEm(%"class.std::vector"* %11, i64 %10) #18
  %13 = load %class.HashMgr*, %class.HashMgr** %12, align 8
  %14 = tail call %struct.hentry* @_ZNK7HashMgr6lookupEPKc(%class.HashMgr* %13, i8* %1)
  %15 = add nuw i64 %10, 1
  %16 = load %"class.std::vector"*, %"class.std::vector"** %3, align 8
  %17 = tail call i64 @_ZNKSt6vectorIP7HashMgrSaIS1_EE4sizeEv(%"class.std::vector"* %16) #18
  %18 = icmp ult i64 %15, %17
  %19 = icmp eq %struct.hentry* %14, null
  %20 = and i1 %19, %18
  br i1 %20, label %9, label %7
}

; Function Attrs: nounwind sspstrong uwtable
define linkonce_odr zeroext i1 @_ZSt13binary_searchIPttEbT_S1_RKT0_(i16*, i16*, i16* dereferenceable(2)) local_unnamed_addr #0 comdat {
  tail call void @_ZN9__gnu_cxx5__ops15__iter_less_valEv()
  %4 = tail call i16* @_ZSt13__lower_boundIPttN9__gnu_cxx5__ops14_Iter_less_valEET_S4_S4_RKT0_T1_(i16* %0, i16* %1, i16* nonnull dereferenceable(2) %2)
  %5 = icmp eq i16* %4, %1
  br i1 %5, label %10, label %6

; <label>:6:                                      ; preds = %3
  %7 = load i16, i16* %2, align 2
  %8 = load i16, i16* %4, align 2
  %9 = icmp uge i16 %7, %8
  br label %10

; <label>:10:                                     ; preds = %3, %6
  %11 = phi i1 [ false, %3 ], [ %9, %6 ]
  ret i1 %11
}

; Function Attrs: norecurse nounwind readonly sspstrong uwtable
define hidden zeroext i16 @_ZNK8AffixMgr13get_needaffixEv(%class.AffixMgr* nocapture readonly) local_unnamed_addr #2 align 2 {
  %2 = getelementptr inbounds %class.AffixMgr, %class.AffixMgr* %0, i64 0, i32 29
  %3 = load i16, i16* %2, align 2
  ret i16 %3
}

; Function Attrs: argmemonly nounwind
declare void @llvm.lifetime.end.p0i8(i64, i8* nocapture) #5

; Function Attrs: nounwind sspstrong uwtable
define hidden %struct.hentry* @_ZN8AffixMgr12suffix_checkEPKciiP8PfxEntryttc(%class.AffixMgr*, i8*, i32, i32, %class.PfxEntry*, i16 zeroext, i16 zeroext, i8 signext) local_unnamed_addr #0 align 2 {
  %9 = getelementptr inbounds %class.AffixMgr, %class.AffixMgr* %0, i64 0, i32 1, i64 0
  %10 = load %class.SfxEntry*, %class.SfxEntry** %9, align 8
  %11 = icmp eq %class.SfxEntry* %10, null
  br i1 %11, label %132, label %12

; <label>:12:                                     ; preds = %8
  %13 = icmp ne i16 %5, 0
  %14 = icmp eq i8 %7, 1
  %15 = getelementptr inbounds %class.AffixMgr, %class.AffixMgr* %0, i64 0, i32 79
  %16 = getelementptr inbounds %class.AffixMgr, %class.AffixMgr* %0, i64 0, i32 18
  %17 = icmp ne i8 %7, 0
  %18 = icmp ne %class.PfxEntry* %4, null
  %19 = getelementptr inbounds %class.AffixMgr, %class.AffixMgr* %0, i64 0, i32 80
  %20 = getelementptr inbounds %class.AffixMgr, %class.AffixMgr* %0, i64 0, i32 80
  %21 = getelementptr inbounds %class.AffixMgr, %class.AffixMgr* %0, i64 0, i32 29
  %22 = icmp eq %class.PfxEntry* %4, null
  br label %23

; <label>:23:                                     ; preds = %12, %129
  %24 = phi %class.SfxEntry* [ %10, %12 ], [ %130, %129 ]
  br i1 %13, label %25, label %28

; <label>:25:                                     ; preds = %23
  %26 = tail call i16* @_ZN8SfxEntry7getContEv(%class.SfxEntry* nonnull %24)
  %27 = icmp eq i16* %26, null
  br i1 %27, label %129, label %28

; <label>:28:                                     ; preds = %25, %23
  br i1 %14, label %29, label %42

; <label>:29:                                     ; preds = %28
  %30 = tail call i16* @_ZN8SfxEntry7getContEv(%class.SfxEntry* nonnull %24)
  %31 = icmp eq i16* %30, null
  br i1 %31, label %129, label %32

; <label>:32:                                     ; preds = %29
  %33 = load i16, i16* %16, align 4
  %34 = icmp eq i16 %33, 0
  br i1 %34, label %129, label %35

; <label>:35:                                     ; preds = %32
  %36 = tail call i16* @_ZN8SfxEntry7getContEv(%class.SfxEntry* nonnull %24)
  %37 = tail call i16* @_ZN8SfxEntry7getContEv(%class.SfxEntry* nonnull %24)
  %38 = tail call signext i16 @_ZN8SfxEntry10getContLenEv(%class.SfxEntry* nonnull %24)
  %39 = sext i16 %38 to i64
  %40 = getelementptr inbounds i16, i16* %37, i64 %39
  %41 = tail call zeroext i1 @_ZSt13binary_searchIPKttEbT_S2_RKT0_(i16* %36, i16* %40, i16* nonnull dereferenceable(2) %16)
  br i1 %41, label %42, label %129

; <label>:42:                                     ; preds = %28, %35
  %43 = load i16, i16* %15, align 2
  %44 = icmp eq i16 %43, 0
  br i1 %44, label %87, label %45

; <label>:45:                                     ; preds = %42
  br i1 %18, label %46, label %56

; <label>:46:                                     ; preds = %45
  %47 = tail call i16* @_ZN8PfxEntry7getContEv(%class.PfxEntry* nonnull %4)
  %48 = icmp eq i16* %47, null
  br i1 %48, label %56, label %49

; <label>:49:                                     ; preds = %46
  %50 = tail call i16* @_ZN8PfxEntry7getContEv(%class.PfxEntry* nonnull %4)
  %51 = tail call i16* @_ZN8PfxEntry7getContEv(%class.PfxEntry* nonnull %4)
  %52 = tail call signext i16 @_ZN8PfxEntry10getContLenEv(%class.PfxEntry* nonnull %4)
  %53 = sext i16 %52 to i64
  %54 = getelementptr inbounds i16, i16* %51, i64 %53
  %55 = tail call zeroext i1 @_ZSt13binary_searchIPKttEbT_S2_RKT0_(i16* %50, i16* %54, i16* nonnull dereferenceable(2) %15)
  br i1 %55, label %67, label %56

; <label>:56:                                     ; preds = %46, %49, %45
  %57 = tail call i16* @_ZN8SfxEntry7getContEv(%class.SfxEntry* nonnull %24)
  %58 = icmp eq i16* %57, null
  br i1 %58, label %87, label %59

; <label>:59:                                     ; preds = %56
  %60 = tail call i16* @_ZN8SfxEntry7getContEv(%class.SfxEntry* nonnull %24)
  %61 = tail call i16* @_ZN8SfxEntry7getContEv(%class.SfxEntry* nonnull %24)
  %62 = tail call signext i16 @_ZN8SfxEntry10getContLenEv(%class.SfxEntry* nonnull %24)
  %63 = sext i16 %62 to i64
  %64 = getelementptr inbounds i16, i16* %61, i64 %63
  %65 = tail call zeroext i1 @_ZSt13binary_searchIPKttEbT_S2_RKT0_(i16* %60, i16* %64, i16* nonnull dereferenceable(2) %15)
  br i1 %65, label %66, label %87

; <label>:66:                                     ; preds = %59
  br i1 %18, label %67, label %129

; <label>:67:                                     ; preds = %49, %66
  %68 = tail call i16* @_ZN8PfxEntry7getContEv(%class.PfxEntry* nonnull %4)
  %69 = icmp eq i16* %68, null
  br i1 %69, label %129, label %70

; <label>:70:                                     ; preds = %67
  %71 = tail call i16* @_ZN8PfxEntry7getContEv(%class.PfxEntry* nonnull %4)
  %72 = tail call i16* @_ZN8PfxEntry7getContEv(%class.PfxEntry* nonnull %4)
  %73 = tail call signext i16 @_ZN8PfxEntry10getContLenEv(%class.PfxEntry* nonnull %4)
  %74 = sext i16 %73 to i64
  %75 = getelementptr inbounds i16, i16* %72, i64 %74
  %76 = tail call zeroext i1 @_ZSt13binary_searchIPKttEbT_S2_RKT0_(i16* %71, i16* %75, i16* nonnull dereferenceable(2) %15)
  br i1 %76, label %77, label %129

; <label>:77:                                     ; preds = %70
  %78 = tail call i16* @_ZN8SfxEntry7getContEv(%class.SfxEntry* nonnull %24)
  %79 = icmp eq i16* %78, null
  br i1 %79, label %129, label %80

; <label>:80:                                     ; preds = %77
  %81 = tail call i16* @_ZN8SfxEntry7getContEv(%class.SfxEntry* nonnull %24)
  %82 = tail call i16* @_ZN8SfxEntry7getContEv(%class.SfxEntry* nonnull %24)
  %83 = tail call signext i16 @_ZN8SfxEntry10getContLenEv(%class.SfxEntry* nonnull %24)
  %84 = sext i16 %83 to i64
  %85 = getelementptr inbounds i16, i16* %82, i64 %84
  %86 = tail call zeroext i1 @_ZSt13binary_searchIPKttEbT_S2_RKT0_(i16* %81, i16* %85, i16* nonnull dereferenceable(2) %15)
  br i1 %86, label %87, label %129

; <label>:87:                                     ; preds = %56, %42, %80, %59
  br i1 %17, label %98, label %88

; <label>:88:                                     ; preds = %87
  %89 = tail call i16* @_ZN8SfxEntry7getContEv(%class.SfxEntry* nonnull %24)
  %90 = icmp eq i16* %89, null
  br i1 %90, label %98, label %91

; <label>:91:                                     ; preds = %88
  %92 = tail call i16* @_ZN8SfxEntry7getContEv(%class.SfxEntry* nonnull %24)
  %93 = tail call i16* @_ZN8SfxEntry7getContEv(%class.SfxEntry* nonnull %24)
  %94 = tail call signext i16 @_ZN8SfxEntry10getContLenEv(%class.SfxEntry* nonnull %24)
  %95 = sext i16 %94 to i64
  %96 = getelementptr inbounds i16, i16* %93, i64 %95
  %97 = tail call zeroext i1 @_ZSt13binary_searchIPKttEbT_S2_RKT0_(i16* %92, i16* %96, i16* nonnull dereferenceable(2) %19)
  br i1 %97, label %129, label %98

; <label>:98:                                     ; preds = %88, %91, %87
  br i1 %13, label %120, label %99

; <label>:99:                                     ; preds = %98
  %100 = tail call i16* @_ZN8SfxEntry7getContEv(%class.SfxEntry* nonnull %24)
  %101 = icmp eq i16* %100, null
  br i1 %101, label %120, label %102

; <label>:102:                                    ; preds = %99
  %103 = tail call i16* @_ZN8SfxEntry7getContEv(%class.SfxEntry* nonnull %24)
  %104 = tail call i16* @_ZN8SfxEntry7getContEv(%class.SfxEntry* nonnull %24)
  %105 = tail call signext i16 @_ZN8SfxEntry10getContLenEv(%class.SfxEntry* nonnull %24)
  %106 = sext i16 %105 to i64
  %107 = getelementptr inbounds i16, i16* %104, i64 %106
  %108 = tail call zeroext i1 @_ZSt13binary_searchIPKttEbT_S2_RKT0_(i16* %103, i16* %107, i16* nonnull dereferenceable(2) %21)
  br i1 %108, label %109, label %120

; <label>:109:                                    ; preds = %102
  br i1 %22, label %129, label %110

; <label>:110:                                    ; preds = %109
  %111 = tail call i16* @_ZN8PfxEntry7getContEv(%class.PfxEntry* nonnull %4)
  %112 = icmp eq i16* %111, null
  br i1 %112, label %120, label %113

; <label>:113:                                    ; preds = %110
  %114 = tail call i16* @_ZN8PfxEntry7getContEv(%class.PfxEntry* nonnull %4)
  %115 = tail call i16* @_ZN8PfxEntry7getContEv(%class.PfxEntry* nonnull %4)
  %116 = tail call signext i16 @_ZN8PfxEntry10getContLenEv(%class.PfxEntry* nonnull %4)
  %117 = sext i16 %116 to i64
  %118 = getelementptr inbounds i16, i16* %115, i64 %117
  %119 = tail call zeroext i1 @_ZSt13binary_searchIPKttEbT_S2_RKT0_(i16* %114, i16* %118, i16* nonnull dereferenceable(2) %21)
  br i1 %119, label %129, label %120

; <label>:120:                                    ; preds = %110, %99, %113, %102, %98
  br i1 %17, label %123, label %121

; <label>:121:                                    ; preds = %120
  %122 = load i16, i16* %20, align 8
  br label %123

; <label>:123:                                    ; preds = %120, %121
  %124 = phi i16 [ %122, %121 ], [ 0, %120 ]
  %125 = tail call %struct.hentry* @_ZN8SfxEntry9checkwordEPKciiP8PfxEntryttt(%class.SfxEntry* nonnull %24, i8* %1, i32 %2, i32 %3, %class.PfxEntry* %4, i16 zeroext %5, i16 zeroext %6, i16 zeroext %124)
  %126 = icmp eq %struct.hentry* %125, null
  br i1 %126, label %129, label %127

; <label>:127:                                    ; preds = %123
  %128 = getelementptr inbounds %class.AffixMgr, %class.AffixMgr* %0, i64 0, i32 67
  store %class.SfxEntry* %24, %class.SfxEntry** %128, align 8
  br label %312

; <label>:129:                                    ; preds = %25, %77, %67, %109, %123, %32, %29, %35, %66, %70, %80, %91, %113
  %130 = tail call %class.SfxEntry* @_ZN8SfxEntry7getNextEv(%class.SfxEntry* nonnull %24)
  %131 = icmp eq %class.SfxEntry* %130, null
  br i1 %131, label %132, label %23

; <label>:132:                                    ; preds = %129, %8
  %133 = icmp eq i32 %2, 0
  br i1 %133, label %312, label %134

; <label>:134:                                    ; preds = %132
  %135 = sext i32 %2 to i64
  %136 = getelementptr inbounds i8, i8* %1, i64 %135
  %137 = getelementptr inbounds i8, i8* %136, i64 -1
  %138 = load i8, i8* %137, align 1
  %139 = zext i8 %138 to i64
  %140 = getelementptr inbounds %class.AffixMgr, %class.AffixMgr* %0, i64 0, i32 1, i64 %139
  %141 = load %class.SfxEntry*, %class.SfxEntry** %140, align 8
  %142 = icmp eq %class.SfxEntry* %141, null
  br i1 %142, label %312, label %143

; <label>:143:                                    ; preds = %134
  %144 = icmp eq i8 %7, 1
  %145 = getelementptr inbounds %class.AffixMgr, %class.AffixMgr* %0, i64 0, i32 79
  %146 = getelementptr inbounds %class.AffixMgr, %class.AffixMgr* %0, i64 0, i32 18
  %147 = icmp ne i8 %7, 0
  %148 = icmp ne %class.PfxEntry* %4, null
  %149 = icmp eq i16 %5, 0
  %150 = icmp ne i8 %7, 2
  %151 = icmp ne %class.PfxEntry* %4, null
  %152 = or i1 %151, %150
  %153 = getelementptr inbounds %class.AffixMgr, %class.AffixMgr* %0, i64 0, i32 80
  %154 = getelementptr inbounds %class.AffixMgr, %class.AffixMgr* %0, i64 0, i32 29
  %155 = getelementptr inbounds %class.AffixMgr, %class.AffixMgr* %0, i64 0, i32 80
  %156 = icmp eq %class.PfxEntry* %4, null
  %157 = getelementptr inbounds %class.AffixMgr, %class.AffixMgr* %0, i64 0, i32 80
  br label %158

; <label>:158:                                    ; preds = %143, %309
  %159 = phi %class.SfxEntry* [ %141, %143 ], [ %310, %309 ]
  %160 = tail call i8* @_ZN8SfxEntry6getKeyEv(%class.SfxEntry* nonnull %159)
  %161 = tail call i32 @_ZN8AffixMgr11isRevSubsetEPKcS1_i(%class.AffixMgr* %0, i8* %160, i8* nonnull %137, i32 %2)
  %162 = icmp eq i32 %161, 0
  br i1 %162, label %307, label %163

; <label>:163:                                    ; preds = %158
  br i1 %144, label %164, label %177

; <label>:164:                                    ; preds = %163
  %165 = tail call i16* @_ZN8SfxEntry7getContEv(%class.SfxEntry* nonnull %159)
  %166 = icmp eq i16* %165, null
  br i1 %166, label %305, label %167

; <label>:167:                                    ; preds = %164
  %168 = load i16, i16* %146, align 4
  %169 = icmp eq i16 %168, 0
  br i1 %169, label %305, label %170

; <label>:170:                                    ; preds = %167
  %171 = tail call i16* @_ZN8SfxEntry7getContEv(%class.SfxEntry* nonnull %159)
  %172 = tail call i16* @_ZN8SfxEntry7getContEv(%class.SfxEntry* nonnull %159)
  %173 = tail call signext i16 @_ZN8SfxEntry10getContLenEv(%class.SfxEntry* nonnull %159)
  %174 = sext i16 %173 to i64
  %175 = getelementptr inbounds i16, i16* %172, i64 %174
  %176 = tail call zeroext i1 @_ZSt13binary_searchIPKttEbT_S2_RKT0_(i16* %171, i16* %175, i16* nonnull dereferenceable(2) %146)
  br i1 %176, label %177, label %305

; <label>:177:                                    ; preds = %163, %170
  %178 = load i16, i16* %145, align 2
  %179 = icmp eq i16 %178, 0
  br i1 %179, label %222, label %180

; <label>:180:                                    ; preds = %177
  br i1 %148, label %181, label %191

; <label>:181:                                    ; preds = %180
  %182 = tail call i16* @_ZN8PfxEntry7getContEv(%class.PfxEntry* nonnull %4)
  %183 = icmp eq i16* %182, null
  br i1 %183, label %191, label %184

; <label>:184:                                    ; preds = %181
  %185 = tail call i16* @_ZN8PfxEntry7getContEv(%class.PfxEntry* nonnull %4)
  %186 = tail call i16* @_ZN8PfxEntry7getContEv(%class.PfxEntry* nonnull %4)
  %187 = tail call signext i16 @_ZN8PfxEntry10getContLenEv(%class.PfxEntry* nonnull %4)
  %188 = sext i16 %187 to i64
  %189 = getelementptr inbounds i16, i16* %186, i64 %188
  %190 = tail call zeroext i1 @_ZSt13binary_searchIPKttEbT_S2_RKT0_(i16* %185, i16* %189, i16* nonnull dereferenceable(2) %145)
  br i1 %190, label %202, label %191

; <label>:191:                                    ; preds = %181, %184, %180
  %192 = tail call i16* @_ZN8SfxEntry7getContEv(%class.SfxEntry* nonnull %159)
  %193 = icmp eq i16* %192, null
  br i1 %193, label %222, label %194

; <label>:194:                                    ; preds = %191
  %195 = tail call i16* @_ZN8SfxEntry7getContEv(%class.SfxEntry* nonnull %159)
  %196 = tail call i16* @_ZN8SfxEntry7getContEv(%class.SfxEntry* nonnull %159)
  %197 = tail call signext i16 @_ZN8SfxEntry10getContLenEv(%class.SfxEntry* nonnull %159)
  %198 = sext i16 %197 to i64
  %199 = getelementptr inbounds i16, i16* %196, i64 %198
  %200 = tail call zeroext i1 @_ZSt13binary_searchIPKttEbT_S2_RKT0_(i16* %195, i16* %199, i16* nonnull dereferenceable(2) %145)
  br i1 %200, label %201, label %222

; <label>:201:                                    ; preds = %194
  br i1 %148, label %202, label %305

; <label>:202:                                    ; preds = %184, %201
  %203 = tail call i16* @_ZN8PfxEntry7getContEv(%class.PfxEntry* nonnull %4)
  %204 = icmp eq i16* %203, null
  br i1 %204, label %305, label %205

; <label>:205:                                    ; preds = %202
  %206 = tail call i16* @_ZN8PfxEntry7getContEv(%class.PfxEntry* nonnull %4)
  %207 = tail call i16* @_ZN8PfxEntry7getContEv(%class.PfxEntry* nonnull %4)
  %208 = tail call signext i16 @_ZN8PfxEntry10getContLenEv(%class.PfxEntry* nonnull %4)
  %209 = sext i16 %208 to i64
  %210 = getelementptr inbounds i16, i16* %207, i64 %209
  %211 = tail call zeroext i1 @_ZSt13binary_searchIPKttEbT_S2_RKT0_(i16* %206, i16* %210, i16* nonnull dereferenceable(2) %145)
  br i1 %211, label %212, label %305

; <label>:212:                                    ; preds = %205
  %213 = tail call i16* @_ZN8SfxEntry7getContEv(%class.SfxEntry* nonnull %159)
  %214 = icmp eq i16* %213, null
  br i1 %214, label %305, label %215

; <label>:215:                                    ; preds = %212
  %216 = tail call i16* @_ZN8SfxEntry7getContEv(%class.SfxEntry* nonnull %159)
  %217 = tail call i16* @_ZN8SfxEntry7getContEv(%class.SfxEntry* nonnull %159)
  %218 = tail call signext i16 @_ZN8SfxEntry10getContLenEv(%class.SfxEntry* nonnull %159)
  %219 = sext i16 %218 to i64
  %220 = getelementptr inbounds i16, i16* %217, i64 %219
  %221 = tail call zeroext i1 @_ZSt13binary_searchIPKttEbT_S2_RKT0_(i16* %216, i16* %220, i16* nonnull dereferenceable(2) %145)
  br i1 %221, label %222, label %305

; <label>:222:                                    ; preds = %191, %177, %215, %194
  br i1 %147, label %233, label %223

; <label>:223:                                    ; preds = %222
  %224 = tail call i16* @_ZN8SfxEntry7getContEv(%class.SfxEntry* nonnull %159)
  %225 = icmp eq i16* %224, null
  br i1 %225, label %233, label %226

; <label>:226:                                    ; preds = %223
  %227 = tail call i16* @_ZN8SfxEntry7getContEv(%class.SfxEntry* nonnull %159)
  %228 = tail call i16* @_ZN8SfxEntry7getContEv(%class.SfxEntry* nonnull %159)
  %229 = tail call signext i16 @_ZN8SfxEntry10getContLenEv(%class.SfxEntry* nonnull %159)
  %230 = sext i16 %229 to i64
  %231 = getelementptr inbounds i16, i16* %228, i64 %230
  %232 = tail call zeroext i1 @_ZSt13binary_searchIPKttEbT_S2_RKT0_(i16* %227, i16* %231, i16* nonnull dereferenceable(2) %153)
  br i1 %232, label %305, label %233

; <label>:233:                                    ; preds = %223, %226, %222
  br i1 %149, label %234, label %255

; <label>:234:                                    ; preds = %233
  %235 = tail call i16* @_ZN8SfxEntry7getContEv(%class.SfxEntry* nonnull %159)
  %236 = icmp eq i16* %235, null
  br i1 %236, label %255, label %237

; <label>:237:                                    ; preds = %234
  %238 = tail call i16* @_ZN8SfxEntry7getContEv(%class.SfxEntry* nonnull %159)
  %239 = tail call i16* @_ZN8SfxEntry7getContEv(%class.SfxEntry* nonnull %159)
  %240 = tail call signext i16 @_ZN8SfxEntry10getContLenEv(%class.SfxEntry* nonnull %159)
  %241 = sext i16 %240 to i64
  %242 = getelementptr inbounds i16, i16* %239, i64 %241
  %243 = tail call zeroext i1 @_ZSt13binary_searchIPKttEbT_S2_RKT0_(i16* %238, i16* %242, i16* nonnull dereferenceable(2) %154)
  br i1 %243, label %244, label %255

; <label>:244:                                    ; preds = %237
  br i1 %156, label %305, label %245

; <label>:245:                                    ; preds = %244
  %246 = tail call i16* @_ZN8PfxEntry7getContEv(%class.PfxEntry* nonnull %4)
  %247 = icmp eq i16* %246, null
  br i1 %247, label %266, label %248

; <label>:248:                                    ; preds = %245
  %249 = tail call i16* @_ZN8PfxEntry7getContEv(%class.PfxEntry* nonnull %4)
  %250 = tail call i16* @_ZN8PfxEntry7getContEv(%class.PfxEntry* nonnull %4)
  %251 = tail call signext i16 @_ZN8PfxEntry10getContLenEv(%class.PfxEntry* nonnull %4)
  %252 = sext i16 %251 to i64
  %253 = getelementptr inbounds i16, i16* %250, i64 %252
  %254 = tail call zeroext i1 @_ZSt13binary_searchIPKttEbT_S2_RKT0_(i16* %249, i16* %253, i16* nonnull dereferenceable(2) %154)
  br i1 %254, label %305, label %266

; <label>:255:                                    ; preds = %234, %233, %237
  br i1 %152, label %266, label %256

; <label>:256:                                    ; preds = %255
  %257 = tail call i16* @_ZN8SfxEntry7getContEv(%class.SfxEntry* nonnull %159)
  %258 = icmp eq i16* %257, null
  br i1 %258, label %266, label %259

; <label>:259:                                    ; preds = %256
  %260 = tail call i16* @_ZN8SfxEntry7getContEv(%class.SfxEntry* nonnull %159)
  %261 = tail call i16* @_ZN8SfxEntry7getContEv(%class.SfxEntry* nonnull %159)
  %262 = tail call signext i16 @_ZN8SfxEntry10getContLenEv(%class.SfxEntry* nonnull %159)
  %263 = sext i16 %262 to i64
  %264 = getelementptr inbounds i16, i16* %261, i64 %263
  %265 = tail call zeroext i1 @_ZSt13binary_searchIPKttEbT_S2_RKT0_(i16* %260, i16* %264, i16* nonnull dereferenceable(2) %157)
  br i1 %265, label %305, label %266

; <label>:266:                                    ; preds = %248, %245, %256, %259, %255
  br i1 %147, label %269, label %267

; <label>:267:                                    ; preds = %266
  %268 = load i16, i16* %155, align 8
  br label %269

; <label>:269:                                    ; preds = %266, %267
  %270 = phi i16 [ %268, %267 ], [ 0, %266 ]
  %271 = tail call %struct.hentry* @_ZN8SfxEntry9checkwordEPKciiP8PfxEntryttt(%class.SfxEntry* nonnull %159, i8* %1, i32 %2, i32 %3, %class.PfxEntry* %4, i16 zeroext %5, i16 zeroext %6, i16 zeroext %270)
  %272 = icmp eq %struct.hentry* %271, null
  br i1 %272, label %305, label %273

; <label>:273:                                    ; preds = %269
  %274 = getelementptr inbounds %class.AffixMgr, %class.AffixMgr* %0, i64 0, i32 67
  store %class.SfxEntry* %159, %class.SfxEntry** %274, align 8
  %275 = tail call zeroext i16 @_ZN8SfxEntry7getFlagEv(%class.SfxEntry* nonnull %159)
  %276 = getelementptr inbounds %class.AffixMgr, %class.AffixMgr* %0, i64 0, i32 64
  store i16 %275, i16* %276, align 4
  %277 = tail call i16* @_ZN8SfxEntry7getContEv(%class.SfxEntry* nonnull %159)
  %278 = icmp eq i16* %277, null
  br i1 %278, label %279, label %282

; <label>:279:                                    ; preds = %273
  %280 = tail call i8* @_ZN8SfxEntry6getKeyEv(%class.SfxEntry* nonnull %159)
  %281 = getelementptr inbounds %class.AffixMgr, %class.AffixMgr* %0, i64 0, i32 62
  store i8* %280, i8** %281, align 8
  br label %312

; <label>:282:                                    ; preds = %273
  %283 = getelementptr inbounds %class.AffixMgr, %class.AffixMgr* %0, i64 0, i32 77
  %284 = load i32, i32* %283, align 8
  %285 = icmp eq i32 %284, 36
  br i1 %285, label %286, label %312

; <label>:286:                                    ; preds = %282
  %287 = tail call signext i16 @_ZN8SfxEntry9getKeyLenEv(%class.SfxEntry* nonnull %159)
  %288 = icmp eq i16 %287, 0
  br i1 %288, label %312, label %289

; <label>:289:                                    ; preds = %286
  %290 = tail call i8* @_ZN8SfxEntry6getKeyEv(%class.SfxEntry* nonnull %159)
  %291 = load i8, i8* %290, align 1
  %292 = icmp eq i8 %291, 105
  br i1 %292, label %293, label %312

; <label>:293:                                    ; preds = %289
  %294 = tail call i8* @_ZN8SfxEntry6getKeyEv(%class.SfxEntry* nonnull %159)
  %295 = getelementptr inbounds i8, i8* %294, i64 1
  %296 = load i8, i8* %295, align 1
  %297 = icmp eq i8 %296, 121
  br i1 %297, label %312, label %298

; <label>:298:                                    ; preds = %293
  %299 = tail call i8* @_ZN8SfxEntry6getKeyEv(%class.SfxEntry* nonnull %159)
  %300 = getelementptr inbounds i8, i8* %299, i64 1
  %301 = load i8, i8* %300, align 1
  %302 = icmp eq i8 %301, 116
  br i1 %302, label %312, label %303

; <label>:303:                                    ; preds = %298
  %304 = getelementptr inbounds %class.AffixMgr, %class.AffixMgr* %0, i64 0, i32 63
  store i32 1, i32* %304, align 8
  br label %312

; <label>:305:                                    ; preds = %212, %202, %244, %269, %167, %164, %259, %248, %226, %215, %205, %201, %170
  %306 = tail call %class.SfxEntry* @_ZN8SfxEntry9getNextEQEv(%class.SfxEntry* nonnull %159)
  br label %309

; <label>:307:                                    ; preds = %158
  %308 = tail call %class.SfxEntry* @_ZN8SfxEntry9getNextNEEv(%class.SfxEntry* nonnull %159)
  br label %309

; <label>:309:                                    ; preds = %307, %305
  %310 = phi %class.SfxEntry* [ %306, %305 ], [ %308, %307 ]
  %311 = icmp eq %class.SfxEntry* %310, null
  br i1 %311, label %312, label %158

; <label>:312:                                    ; preds = %309, %134, %298, %293, %286, %282, %289, %303, %279, %132, %127
  %313 = phi %struct.hentry* [ %125, %127 ], [ null, %132 ], [ %271, %298 ], [ %271, %293 ], [ %271, %286 ], [ %271, %282 ], [ %271, %289 ], [ %271, %303 ], [ %271, %279 ], [ null, %134 ], [ null, %309 ]
  ret %struct.hentry* %313
}

; Function Attrs: nounwind sspstrong uwtable
define hidden %struct.hentry* @_ZN8PfxEntry12check_twosfxEPKcict(%class.PfxEntry*, i8*, i32, i8 signext, i16 zeroext) local_unnamed_addr #0 align 2 {
  %6 = alloca %"class.std::__cxx11::basic_string", align 8
  %7 = getelementptr inbounds %class.PfxEntry, %class.PfxEntry* %0, i64 0, i32 0, i32 1
  %8 = tail call i64 @_ZNKSt7__cxx1112basic_stringIcSt11char_traitsIcESaIcEE4sizeEv(%"class.std::__cxx11::basic_string"* nonnull %7) #18
  %9 = trunc i64 %8 to i32
  %10 = sub i32 %2, %9
  %11 = icmp sgt i32 %10, 0
  br i1 %11, label %19, label %12

; <label>:12:                                     ; preds = %5
  %13 = icmp eq i32 %10, 0
  br i1 %13, label %14, label %54

; <label>:14:                                     ; preds = %12
  %15 = getelementptr inbounds %class.PfxEntry, %class.PfxEntry* %0, i64 0, i32 1
  %16 = load %class.AffixMgr*, %class.AffixMgr** %15, align 8
  %17 = tail call i32 @_ZNK8AffixMgr13get_fullstripEv(%class.AffixMgr* %16)
  %18 = icmp eq i32 %17, 0
  br i1 %18, label %54, label %19

; <label>:19:                                     ; preds = %14, %5
  %20 = sext i32 %10 to i64
  %21 = getelementptr inbounds %class.PfxEntry, %class.PfxEntry* %0, i64 0, i32 0, i32 2
  %22 = tail call i64 @_ZNKSt7__cxx1112basic_stringIcSt11char_traitsIcESaIcEE4sizeEv(%"class.std::__cxx11::basic_string"* nonnull %21) #18
  %23 = add i64 %22, %20
  %24 = getelementptr inbounds %class.PfxEntry, %class.PfxEntry* %0, i64 0, i32 0, i32 3
  %25 = load i8, i8* %24, align 8
  %26 = zext i8 %25 to i64
  %27 = icmp ult i64 %23, %26
  br i1 %27, label %54, label %28

; <label>:28:                                     ; preds = %19
  %29 = bitcast %"class.std::__cxx11::basic_string"* %6 to i8*
  call void @llvm.lifetime.start.p0i8(i64 32, i8* nonnull %29) #18
  call void @_ZNSt7__cxx1112basic_stringIcSt11char_traitsIcESaIcEEC2ERKS4_(%"class.std::__cxx11::basic_string"* nonnull %6, %"class.std::__cxx11::basic_string"* nonnull dereferenceable(32) %21)
  %30 = call i64 @_ZNKSt7__cxx1112basic_stringIcSt11char_traitsIcESaIcEE4sizeEv(%"class.std::__cxx11::basic_string"* nonnull %7) #18
  %31 = getelementptr inbounds i8, i8* %1, i64 %30
  %32 = call dereferenceable(32) %"class.std::__cxx11::basic_string"* @_ZNSt7__cxx1112basic_stringIcSt11char_traitsIcESaIcEE6appendEPKc(%"class.std::__cxx11::basic_string"* nonnull %6, i8* %31)
  %33 = call i8* @_ZNKSt7__cxx1112basic_stringIcSt11char_traitsIcESaIcEE5c_strEv(%"class.std::__cxx11::basic_string"* nonnull %6) #18
  %34 = call i32 @_ZN8PfxEntry14test_conditionEPKc(%class.PfxEntry* nonnull %0, i8* %33)
  %35 = icmp eq i32 %34, 0
  br i1 %35, label %52, label %36

; <label>:36:                                     ; preds = %28
  %37 = call i64 @_ZNKSt7__cxx1112basic_stringIcSt11char_traitsIcESaIcEE4sizeEv(%"class.std::__cxx11::basic_string"* nonnull %21) #18
  %38 = getelementptr inbounds %class.PfxEntry, %class.PfxEntry* %0, i64 0, i32 0, i32 4
  %39 = load i8, i8* %38, align 1
  %40 = and i8 %39, 1
  %41 = icmp eq i8 %40, 0
  %42 = icmp eq i8 %3, 1
  %43 = or i1 %42, %41
  br i1 %43, label %52, label %44

; <label>:44:                                     ; preds = %36
  %45 = trunc i64 %37 to i32
  %46 = add i32 %10, %45
  %47 = getelementptr inbounds %class.PfxEntry, %class.PfxEntry* %0, i64 0, i32 1
  %48 = load %class.AffixMgr*, %class.AffixMgr** %47, align 8
  %49 = call i8* @_ZNKSt7__cxx1112basic_stringIcSt11char_traitsIcESaIcEE5c_strEv(%"class.std::__cxx11::basic_string"* nonnull %6) #18
  %50 = call %struct.hentry* @_ZN8AffixMgr19suffix_check_twosfxEPKciiP8PfxEntryt(%class.AffixMgr* %48, i8* %49, i32 %46, i32 1, %class.PfxEntry* nonnull %0, i16 zeroext %4)
  %51 = icmp eq %struct.hentry* %50, null
  br i1 %51, label %52, label %53

; <label>:52:                                     ; preds = %44, %28, %36
  call void @_ZNSt7__cxx1112basic_stringIcSt11char_traitsIcESaIcEED2Ev(%"class.std::__cxx11::basic_string"* nonnull %6) #18
  call void @llvm.lifetime.end.p0i8(i64 32, i8* nonnull %29) #18
  br label %54

; <label>:53:                                     ; preds = %44
  call void @_ZNSt7__cxx1112basic_stringIcSt11char_traitsIcESaIcEED2Ev(%"class.std::__cxx11::basic_string"* nonnull %6) #18
  call void @llvm.lifetime.end.p0i8(i64 32, i8* nonnull %29) #18
  br label %54

; <label>:54:                                     ; preds = %12, %14, %19, %52, %53
  %55 = phi %struct.hentry* [ %50, %53 ], [ null, %52 ], [ null, %19 ], [ null, %14 ], [ null, %12 ]
  ret %struct.hentry* %55
}

; Function Attrs: nounwind sspstrong uwtable
define hidden %struct.hentry* @_ZN8AffixMgr19suffix_check_twosfxEPKciiP8PfxEntryt(%class.AffixMgr*, i8*, i32, i32, %class.PfxEntry*, i16 zeroext) local_unnamed_addr #0 align 2 {
  %7 = getelementptr inbounds %class.AffixMgr, %class.AffixMgr* %0, i64 0, i32 1, i64 0
  %8 = load %class.SfxEntry*, %class.SfxEntry** %7, align 8
  %9 = icmp eq %class.SfxEntry* %8, null
  br i1 %9, label %23, label %10

; <label>:10:                                     ; preds = %6, %20
  %11 = phi %class.SfxEntry* [ %21, %20 ], [ %8, %6 ]
  %12 = tail call zeroext i16 @_ZN8SfxEntry7getFlagEv(%class.SfxEntry* nonnull %11)
  %13 = zext i16 %12 to i64
  %14 = getelementptr inbounds %class.AffixMgr, %class.AffixMgr* %0, i64 0, i32 90, i64 %13
  %15 = load i8, i8* %14, align 1
  %16 = icmp eq i8 %15, 0
  br i1 %16, label %20, label %17

; <label>:17:                                     ; preds = %10
  %18 = tail call %struct.hentry* @_ZN8SfxEntry12check_twosfxEPKciiP8PfxEntryt(%class.SfxEntry* nonnull %11, i8* %1, i32 %2, i32 %3, %class.PfxEntry* %4, i16 zeroext %5)
  %19 = icmp eq %struct.hentry* %18, null
  br i1 %19, label %20, label %63

; <label>:20:                                     ; preds = %17, %10
  %21 = tail call %class.SfxEntry* @_ZN8SfxEntry7getNextEv(%class.SfxEntry* nonnull %11)
  %22 = icmp eq %class.SfxEntry* %21, null
  br i1 %22, label %23, label %10

; <label>:23:                                     ; preds = %20, %6
  %24 = icmp eq i32 %2, 0
  br i1 %24, label %63, label %25

; <label>:25:                                     ; preds = %23
  %26 = sext i32 %2 to i64
  %27 = getelementptr inbounds i8, i8* %1, i64 %26
  %28 = getelementptr inbounds i8, i8* %27, i64 -1
  %29 = load i8, i8* %28, align 1
  %30 = zext i8 %29 to i64
  %31 = getelementptr inbounds %class.AffixMgr, %class.AffixMgr* %0, i64 0, i32 1, i64 %30
  %32 = load %class.SfxEntry*, %class.SfxEntry** %31, align 8
  %33 = icmp eq %class.SfxEntry* %32, null
  br i1 %33, label %63, label %34

; <label>:34:                                     ; preds = %25, %60
  %35 = phi %class.SfxEntry* [ %61, %60 ], [ %32, %25 ]
  %36 = tail call i8* @_ZN8SfxEntry6getKeyEv(%class.SfxEntry* nonnull %35)
  %37 = tail call i32 @_ZN8AffixMgr11isRevSubsetEPKcS1_i(%class.AffixMgr* %0, i8* %36, i8* nonnull %28, i32 %2)
  %38 = icmp eq i32 %37, 0
  br i1 %38, label %58, label %39

; <label>:39:                                     ; preds = %34
  %40 = tail call zeroext i16 @_ZN8SfxEntry7getFlagEv(%class.SfxEntry* nonnull %35)
  %41 = zext i16 %40 to i64
  %42 = getelementptr inbounds %class.AffixMgr, %class.AffixMgr* %0, i64 0, i32 90, i64 %41
  %43 = load i8, i8* %42, align 1
  %44 = icmp eq i8 %43, 0
  br i1 %44, label %56, label %45

; <label>:45:                                     ; preds = %39
  %46 = tail call %struct.hentry* @_ZN8SfxEntry12check_twosfxEPKciiP8PfxEntryt(%class.SfxEntry* nonnull %35, i8* %1, i32 %2, i32 %3, %class.PfxEntry* %4, i16 zeroext %5)
  %47 = icmp eq %struct.hentry* %46, null
  br i1 %47, label %56, label %48

; <label>:48:                                     ; preds = %45
  %49 = tail call zeroext i16 @_ZN8SfxEntry7getFlagEv(%class.SfxEntry* nonnull %35)
  %50 = getelementptr inbounds %class.AffixMgr, %class.AffixMgr* %0, i64 0, i32 64
  store i16 %49, i16* %50, align 4
  %51 = tail call i16* @_ZN8SfxEntry7getContEv(%class.SfxEntry* nonnull %35)
  %52 = icmp eq i16* %51, null
  br i1 %52, label %53, label %63

; <label>:53:                                     ; preds = %48
  %54 = tail call i8* @_ZN8SfxEntry6getKeyEv(%class.SfxEntry* nonnull %35)
  %55 = getelementptr inbounds %class.AffixMgr, %class.AffixMgr* %0, i64 0, i32 62
  store i8* %54, i8** %55, align 8
  br label %63

; <label>:56:                                     ; preds = %45, %39
  %57 = tail call %class.SfxEntry* @_ZN8SfxEntry9getNextEQEv(%class.SfxEntry* nonnull %35)
  br label %60

; <label>:58:                                     ; preds = %34
  %59 = tail call %class.SfxEntry* @_ZN8SfxEntry9getNextNEEv(%class.SfxEntry* nonnull %35)
  br label %60

; <label>:60:                                     ; preds = %58, %56
  %61 = phi %class.SfxEntry* [ %57, %56 ], [ %59, %58 ]
  %62 = icmp eq %class.SfxEntry* %61, null
  br i1 %62, label %63, label %34

; <label>:63:                                     ; preds = %17, %60, %25, %48, %53, %23
  %64 = phi %struct.hentry* [ null, %23 ], [ %46, %48 ], [ %46, %53 ], [ null, %25 ], [ null, %60 ], [ %18, %17 ]
  ret %struct.hentry* %64
}

; Function Attrs: nounwind sspstrong uwtable
define hidden void @_ZN8PfxEntry18check_twosfx_morphB5cxx11EPKcict(%"class.std::__cxx11::basic_string"* noalias sret, %class.PfxEntry*, i8*, i32, i8 signext, i16 zeroext) local_unnamed_addr #0 align 2 {
  %7 = alloca %"class.std::__cxx11::basic_string", align 8
  %8 = alloca %"class.std::__cxx11::basic_string", align 8
  tail call void @_ZNSt7__cxx1112basic_stringIcSt11char_traitsIcESaIcEEC2Ev(%"class.std::__cxx11::basic_string"* %0) #18
  %9 = getelementptr inbounds %class.PfxEntry, %class.PfxEntry* %1, i64 0, i32 0, i32 1
  %10 = tail call i64 @_ZNKSt7__cxx1112basic_stringIcSt11char_traitsIcESaIcEE4sizeEv(%"class.std::__cxx11::basic_string"* nonnull %9) #18
  %11 = trunc i64 %10 to i32
  %12 = sub i32 %3, %11
  %13 = icmp sgt i32 %12, 0
  br i1 %13, label %21, label %14

; <label>:14:                                     ; preds = %6
  %15 = icmp eq i32 %12, 0
  br i1 %15, label %16, label %55

; <label>:16:                                     ; preds = %14
  %17 = getelementptr inbounds %class.PfxEntry, %class.PfxEntry* %1, i64 0, i32 1
  %18 = load %class.AffixMgr*, %class.AffixMgr** %17, align 8
  %19 = tail call i32 @_ZNK8AffixMgr13get_fullstripEv(%class.AffixMgr* %18)
  %20 = icmp eq i32 %19, 0
  br i1 %20, label %55, label %21

; <label>:21:                                     ; preds = %16, %6
  %22 = sext i32 %12 to i64
  %23 = getelementptr inbounds %class.PfxEntry, %class.PfxEntry* %1, i64 0, i32 0, i32 2
  %24 = tail call i64 @_ZNKSt7__cxx1112basic_stringIcSt11char_traitsIcESaIcEE4sizeEv(%"class.std::__cxx11::basic_string"* nonnull %23) #18
  %25 = add i64 %24, %22
  %26 = getelementptr inbounds %class.PfxEntry, %class.PfxEntry* %1, i64 0, i32 0, i32 3
  %27 = load i8, i8* %26, align 8
  %28 = zext i8 %27 to i64
  %29 = icmp ult i64 %25, %28
  br i1 %29, label %55, label %30

; <label>:30:                                     ; preds = %21
  %31 = bitcast %"class.std::__cxx11::basic_string"* %7 to i8*
  call void @llvm.lifetime.start.p0i8(i64 32, i8* nonnull %31) #18
  call void @_ZNSt7__cxx1112basic_stringIcSt11char_traitsIcESaIcEEC2ERKS4_(%"class.std::__cxx11::basic_string"* nonnull %7, %"class.std::__cxx11::basic_string"* nonnull dereferenceable(32) %23)
  %32 = call i64 @_ZNKSt7__cxx1112basic_stringIcSt11char_traitsIcESaIcEE4sizeEv(%"class.std::__cxx11::basic_string"* nonnull %9) #18
  %33 = getelementptr inbounds i8, i8* %2, i64 %32
  %34 = call dereferenceable(32) %"class.std::__cxx11::basic_string"* @_ZNSt7__cxx1112basic_stringIcSt11char_traitsIcESaIcEE6appendEPKc(%"class.std::__cxx11::basic_string"* nonnull %7, i8* %33)
  %35 = call i8* @_ZNKSt7__cxx1112basic_stringIcSt11char_traitsIcESaIcEE5c_strEv(%"class.std::__cxx11::basic_string"* nonnull %7) #18
  %36 = call i32 @_ZN8PfxEntry14test_conditionEPKc(%class.PfxEntry* nonnull %1, i8* %35)
  %37 = icmp eq i32 %36, 0
  br i1 %37, label %54, label %38

; <label>:38:                                     ; preds = %30
  %39 = call i64 @_ZNKSt7__cxx1112basic_stringIcSt11char_traitsIcESaIcEE4sizeEv(%"class.std::__cxx11::basic_string"* nonnull %23) #18
  %40 = getelementptr inbounds %class.PfxEntry, %class.PfxEntry* %1, i64 0, i32 0, i32 4
  %41 = load i8, i8* %40, align 1
  %42 = and i8 %41, 1
  %43 = icmp eq i8 %42, 0
  %44 = icmp eq i8 %4, 1
  %45 = or i1 %44, %43
  br i1 %45, label %54, label %46

; <label>:46:                                     ; preds = %38
  %47 = trunc i64 %39 to i32
  %48 = add i32 %12, %47
  %49 = bitcast %"class.std::__cxx11::basic_string"* %8 to i8*
  call void @llvm.lifetime.start.p0i8(i64 32, i8* nonnull %49) #18
  %50 = getelementptr inbounds %class.PfxEntry, %class.PfxEntry* %1, i64 0, i32 1
  %51 = load %class.AffixMgr*, %class.AffixMgr** %50, align 8
  %52 = call i8* @_ZNKSt7__cxx1112basic_stringIcSt11char_traitsIcESaIcEE5c_strEv(%"class.std::__cxx11::basic_string"* nonnull %7) #18
  call void @_ZN8AffixMgr25suffix_check_twosfx_morphB5cxx11EPKciiP8PfxEntryt(%"class.std::__cxx11::basic_string"* nonnull sret %8, %class.AffixMgr* %51, i8* %52, i32 %48, i32 1, %class.PfxEntry* nonnull %1, i16 zeroext %5)
  %53 = call dereferenceable(32) %"class.std::__cxx11::basic_string"* @_ZNSt7__cxx1112basic_stringIcSt11char_traitsIcESaIcEEaSEOS4_(%"class.std::__cxx11::basic_string"* %0, %"class.std::__cxx11::basic_string"* nonnull dereferenceable(32) %8) #18
  call void @_ZNSt7__cxx1112basic_stringIcSt11char_traitsIcESaIcEED2Ev(%"class.std::__cxx11::basic_string"* nonnull %8) #18
  call void @llvm.lifetime.end.p0i8(i64 32, i8* nonnull %49) #18
  br label %54

; <label>:54:                                     ; preds = %38, %30, %46
  call void @_ZNSt7__cxx1112basic_stringIcSt11char_traitsIcESaIcEED2Ev(%"class.std::__cxx11::basic_string"* nonnull %7) #18
  call void @llvm.lifetime.end.p0i8(i64 32, i8* nonnull %31) #18
  br label %55

; <label>:55:                                     ; preds = %14, %54, %16, %21
  ret void
}

; Function Attrs: nounwind sspstrong uwtable
define hidden void @_ZN8AffixMgr25suffix_check_twosfx_morphB5cxx11EPKciiP8PfxEntryt(%"class.std::__cxx11::basic_string"* noalias sret, %class.AffixMgr*, i8*, i32, i32, %class.PfxEntry*, i16 zeroext) local_unnamed_addr #0 align 2 {
  %8 = alloca %"class.std::__cxx11::basic_string", align 8
  %9 = alloca %"class.std::__cxx11::basic_string", align 8
  %10 = alloca %"class.std::__cxx11::basic_string", align 8
  %11 = alloca %"class.std::__cxx11::basic_string", align 8
  %12 = alloca %"class.std::__cxx11::basic_string", align 8
  %13 = bitcast %"class.std::__cxx11::basic_string"* %8 to i8*
  call void @llvm.lifetime.start.p0i8(i64 32, i8* nonnull %13) #18
  call void @_ZNSt7__cxx1112basic_stringIcSt11char_traitsIcESaIcEEC2Ev(%"class.std::__cxx11::basic_string"* nonnull %8) #18
  %14 = bitcast %"class.std::__cxx11::basic_string"* %9 to i8*
  call void @llvm.lifetime.start.p0i8(i64 32, i8* nonnull %14) #18
  call void @_ZNSt7__cxx1112basic_stringIcSt11char_traitsIcESaIcEEC2Ev(%"class.std::__cxx11::basic_string"* nonnull %9) #18
  %15 = bitcast %"class.std::__cxx11::basic_string"* %10 to i8*
  call void @llvm.lifetime.start.p0i8(i64 32, i8* nonnull %15) #18
  call void @_ZNSt7__cxx1112basic_stringIcSt11char_traitsIcESaIcEEC2Ev(%"class.std::__cxx11::basic_string"* nonnull %10) #18
  %16 = getelementptr inbounds %class.AffixMgr, %class.AffixMgr* %1, i64 0, i32 1, i64 0
  %17 = load %class.SfxEntry*, %class.SfxEntry** %16, align 8
  %18 = icmp eq %class.SfxEntry* %17, null
  br i1 %18, label %59, label %19

; <label>:19:                                     ; preds = %7
  %20 = bitcast %"class.std::__cxx11::basic_string"* %11 to i8*
  %21 = icmp eq %class.PfxEntry* %5, null
  br label %22

; <label>:22:                                     ; preds = %19, %56
  %23 = phi %class.SfxEntry* [ %17, %19 ], [ %57, %56 ]
  %24 = call zeroext i16 @_ZN8SfxEntry7getFlagEv(%class.SfxEntry* nonnull %23)
  %25 = zext i16 %24 to i64
  %26 = getelementptr inbounds %class.AffixMgr, %class.AffixMgr* %1, i64 0, i32 90, i64 %25
  %27 = load i8, i8* %26, align 1
  %28 = icmp eq i8 %27, 0
  br i1 %28, label %56, label %29

; <label>:29:                                     ; preds = %22
  call void @llvm.lifetime.start.p0i8(i64 32, i8* nonnull %20) #18
  call void @_ZN8SfxEntry18check_twosfx_morphB5cxx11EPKciiP8PfxEntryt(%"class.std::__cxx11::basic_string"* nonnull sret %11, %class.SfxEntry* nonnull %23, i8* %2, i32 %3, i32 %4, %class.PfxEntry* %5, i16 zeroext %6)
  %30 = call zeroext i1 @_ZNKSt7__cxx1112basic_stringIcSt11char_traitsIcESaIcEE5emptyEv(%"class.std::__cxx11::basic_string"* nonnull %11) #18
  br i1 %30, label %55, label %31

; <label>:31:                                     ; preds = %29
  br i1 %21, label %42, label %32

; <label>:32:                                     ; preds = %31
  %33 = call i8* @_ZN8PfxEntry8getMorphEv(%class.PfxEntry* nonnull %5)
  %34 = icmp eq i8* %33, null
  br i1 %34, label %39, label %35

; <label>:35:                                     ; preds = %32
  %36 = call i8* @_ZN8PfxEntry8getMorphEv(%class.PfxEntry* nonnull %5)
  %37 = call dereferenceable(32) %"class.std::__cxx11::basic_string"* @_ZNSt7__cxx1112basic_stringIcSt11char_traitsIcESaIcEE6appendEPKc(%"class.std::__cxx11::basic_string"* nonnull %8, i8* %36)
  %38 = call dereferenceable(32) %"class.std::__cxx11::basic_string"* @_ZNSt7__cxx1112basic_stringIcSt11char_traitsIcESaIcEE6appendEPKc(%"class.std::__cxx11::basic_string"* nonnull %8, i8* getelementptr inbounds ([2 x i8], [2 x i8]* @.str, i64 0, i64 0))
  br label %42

; <label>:39:                                     ; preds = %32
  %40 = call zeroext i16 @_ZN8PfxEntry7getFlagEv(%class.PfxEntry* nonnull %5)
  %41 = call dereferenceable(32) %"class.std::__cxx11::basic_string"* @_ZN8AffixMgr9debugflagERNSt7__cxx1112basic_stringIcSt11char_traitsIcESaIcEEEt(%class.AffixMgr* nonnull %1, %"class.std::__cxx11::basic_string"* nonnull dereferenceable(32) %8, i16 zeroext %40)
  br label %42

; <label>:42:                                     ; preds = %31, %35, %39
  %43 = call dereferenceable(32) %"class.std::__cxx11::basic_string"* @_ZNSt7__cxx1112basic_stringIcSt11char_traitsIcESaIcEE6appendERKS4_(%"class.std::__cxx11::basic_string"* nonnull %8, %"class.std::__cxx11::basic_string"* nonnull dereferenceable(32) %11)
  %44 = call i8* @_ZN8SfxEntry8getMorphEv(%class.SfxEntry* nonnull %23)
  %45 = icmp eq i8* %44, null
  br i1 %45, label %50, label %46

; <label>:46:                                     ; preds = %42
  %47 = call dereferenceable(32) %"class.std::__cxx11::basic_string"* @_ZNSt7__cxx1112basic_stringIcSt11char_traitsIcESaIcEE6appendEPKc(%"class.std::__cxx11::basic_string"* nonnull %8, i8* getelementptr inbounds ([2 x i8], [2 x i8]* @.str, i64 0, i64 0))
  %48 = call i8* @_ZN8SfxEntry8getMorphEv(%class.SfxEntry* nonnull %23)
  %49 = call dereferenceable(32) %"class.std::__cxx11::basic_string"* @_ZNSt7__cxx1112basic_stringIcSt11char_traitsIcESaIcEE6appendEPKc(%"class.std::__cxx11::basic_string"* nonnull %8, i8* %48)
  br label %53

; <label>:50:                                     ; preds = %42
  %51 = call zeroext i16 @_ZN8SfxEntry7getFlagEv(%class.SfxEntry* nonnull %23)
  %52 = call dereferenceable(32) %"class.std::__cxx11::basic_string"* @_ZN8AffixMgr9debugflagERNSt7__cxx1112basic_stringIcSt11char_traitsIcESaIcEEEt(%class.AffixMgr* nonnull %1, %"class.std::__cxx11::basic_string"* nonnull dereferenceable(32) %8, i16 zeroext %51)
  br label %53

; <label>:53:                                     ; preds = %50, %46
  %54 = call dereferenceable(32) %"class.std::__cxx11::basic_string"* @_ZNSt7__cxx1112basic_stringIcSt11char_traitsIcESaIcEE6appendEPKc(%"class.std::__cxx11::basic_string"* nonnull %8, i8* getelementptr inbounds ([2 x i8], [2 x i8]* @.str.3, i64 0, i64 0))
  br label %55

; <label>:55:                                     ; preds = %53, %29
  call void @_ZNSt7__cxx1112basic_stringIcSt11char_traitsIcESaIcEED2Ev(%"class.std::__cxx11::basic_string"* nonnull %11) #18
  call void @llvm.lifetime.end.p0i8(i64 32, i8* nonnull %20) #18
  br label %56

; <label>:56:                                     ; preds = %22, %55
  %57 = call %class.SfxEntry* @_ZN8SfxEntry7getNextEv(%class.SfxEntry* nonnull %23)
  %58 = icmp eq %class.SfxEntry* %57, null
  br i1 %58, label %59, label %22

; <label>:59:                                     ; preds = %56, %7
  %60 = icmp eq i32 %3, 0
  br i1 %60, label %61, label %62

; <label>:61:                                     ; preds = %59
  call void @_ZNSt7__cxx1112basic_stringIcSt11char_traitsIcESaIcEEC2Ev(%"class.std::__cxx11::basic_string"* %0) #18
  br label %118

; <label>:62:                                     ; preds = %59
  %63 = sext i32 %3 to i64
  %64 = getelementptr inbounds i8, i8* %2, i64 %63
  %65 = getelementptr inbounds i8, i8* %64, i64 -1
  %66 = load i8, i8* %65, align 1
  %67 = zext i8 %66 to i64
  %68 = getelementptr inbounds %class.AffixMgr, %class.AffixMgr* %1, i64 0, i32 1, i64 %67
  %69 = load %class.SfxEntry*, %class.SfxEntry** %68, align 8
  %70 = icmp eq %class.SfxEntry* %69, null
  br i1 %70, label %117, label %71

; <label>:71:                                     ; preds = %62
  %72 = bitcast %"class.std::__cxx11::basic_string"* %12 to i8*
  %73 = getelementptr inbounds %class.AffixMgr, %class.AffixMgr* %1, i64 0, i32 64
  %74 = getelementptr inbounds %class.AffixMgr, %class.AffixMgr* %1, i64 0, i32 62
  br label %75

; <label>:75:                                     ; preds = %71, %114
  %76 = phi %class.SfxEntry* [ %69, %71 ], [ %115, %114 ]
  %77 = call i8* @_ZN8SfxEntry6getKeyEv(%class.SfxEntry* nonnull %76)
  %78 = call i32 @_ZN8AffixMgr11isRevSubsetEPKcS1_i(%class.AffixMgr* %1, i8* %77, i8* nonnull %65, i32 %3)
  %79 = icmp eq i32 %78, 0
  br i1 %79, label %112, label %80

; <label>:80:                                     ; preds = %75
  %81 = call zeroext i16 @_ZN8SfxEntry7getFlagEv(%class.SfxEntry* nonnull %76)
  %82 = zext i16 %81 to i64
  %83 = getelementptr inbounds %class.AffixMgr, %class.AffixMgr* %1, i64 0, i32 90, i64 %82
  %84 = load i8, i8* %83, align 1
  %85 = icmp eq i8 %84, 0
  br i1 %85, label %110, label %86

; <label>:86:                                     ; preds = %80
  call void @llvm.lifetime.start.p0i8(i64 32, i8* nonnull %72) #18
  call void @_ZN8SfxEntry18check_twosfx_morphB5cxx11EPKciiP8PfxEntryt(%"class.std::__cxx11::basic_string"* nonnull sret %12, %class.SfxEntry* nonnull %76, i8* %2, i32 %3, i32 %4, %class.PfxEntry* %5, i16 zeroext %6)
  %87 = call zeroext i1 @_ZNKSt7__cxx1112basic_stringIcSt11char_traitsIcESaIcEE5emptyEv(%"class.std::__cxx11::basic_string"* nonnull %12) #18
  br i1 %87, label %109, label %88

; <label>:88:                                     ; preds = %86
  %89 = call zeroext i16 @_ZN8SfxEntry7getFlagEv(%class.SfxEntry* nonnull %76)
  store i16 %89, i16* %73, align 4
  %90 = call i16* @_ZN8SfxEntry7getContEv(%class.SfxEntry* nonnull %76)
  %91 = icmp eq i16* %90, null
  br i1 %91, label %92, label %94

; <label>:92:                                     ; preds = %88
  %93 = call i8* @_ZN8SfxEntry6getKeyEv(%class.SfxEntry* nonnull %76)
  store i8* %93, i8** %74, align 8
  br label %94

; <label>:94:                                     ; preds = %88, %92
  %95 = call dereferenceable(32) %"class.std::__cxx11::basic_string"* @_ZNSt7__cxx1112basic_stringIcSt11char_traitsIcESaIcEE6assignERKS4_(%"class.std::__cxx11::basic_string"* nonnull %9, %"class.std::__cxx11::basic_string"* nonnull dereferenceable(32) %12)
  call void @_ZNSt7__cxx1112basic_stringIcSt11char_traitsIcESaIcEE5clearEv(%"class.std::__cxx11::basic_string"* nonnull %10) #18
  %96 = call i8* @_ZN8SfxEntry8getMorphEv(%class.SfxEntry* nonnull %76)
  %97 = icmp eq i8* %96, null
  br i1 %97, label %102, label %98

; <label>:98:                                     ; preds = %94
  %99 = call dereferenceable(32) %"class.std::__cxx11::basic_string"* @_ZNSt7__cxx1112basic_stringIcSt11char_traitsIcESaIcEE6appendEPKc(%"class.std::__cxx11::basic_string"* nonnull %10, i8* getelementptr inbounds ([2 x i8], [2 x i8]* @.str, i64 0, i64 0))
  %100 = call i8* @_ZN8SfxEntry8getMorphEv(%class.SfxEntry* nonnull %76)
  %101 = call dereferenceable(32) %"class.std::__cxx11::basic_string"* @_ZNSt7__cxx1112basic_stringIcSt11char_traitsIcESaIcEE6appendEPKc(%"class.std::__cxx11::basic_string"* nonnull %10, i8* %100)
  br label %105

; <label>:102:                                    ; preds = %94
  %103 = call zeroext i16 @_ZN8SfxEntry7getFlagEv(%class.SfxEntry* nonnull %76)
  %104 = call dereferenceable(32) %"class.std::__cxx11::basic_string"* @_ZN8AffixMgr9debugflagERNSt7__cxx1112basic_stringIcSt11char_traitsIcESaIcEEEt(%class.AffixMgr* nonnull %1, %"class.std::__cxx11::basic_string"* nonnull dereferenceable(32) %10, i16 zeroext %103)
  br label %105

; <label>:105:                                    ; preds = %102, %98
  %106 = call dereferenceable(32) %"class.std::__cxx11::basic_string"* @_Z10strlinecatRNSt7__cxx1112basic_stringIcSt11char_traitsIcESaIcEEERKS4_(%"class.std::__cxx11::basic_string"* nonnull dereferenceable(32) %9, %"class.std::__cxx11::basic_string"* nonnull dereferenceable(32) %10)
  %107 = call dereferenceable(32) %"class.std::__cxx11::basic_string"* @_ZNSt7__cxx1112basic_stringIcSt11char_traitsIcESaIcEE6appendEPKc(%"class.std::__cxx11::basic_string"* nonnull %9, i8* getelementptr inbounds ([2 x i8], [2 x i8]* @.str.3, i64 0, i64 0))
  %108 = call dereferenceable(32) %"class.std::__cxx11::basic_string"* @_ZNSt7__cxx1112basic_stringIcSt11char_traitsIcESaIcEE6appendERKS4_(%"class.std::__cxx11::basic_string"* nonnull %8, %"class.std::__cxx11::basic_string"* nonnull dereferenceable(32) %9)
  br label %109

; <label>:109:                                    ; preds = %105, %86
  call void @_ZNSt7__cxx1112basic_stringIcSt11char_traitsIcESaIcEED2Ev(%"class.std::__cxx11::basic_string"* nonnull %12) #18
  call void @llvm.lifetime.end.p0i8(i64 32, i8* nonnull %72) #18
  br label %110

; <label>:110:                                    ; preds = %80, %109
  %111 = call %class.SfxEntry* @_ZN8SfxEntry9getNextEQEv(%class.SfxEntry* nonnull %76)
  br label %114

; <label>:112:                                    ; preds = %75
  %113 = call %class.SfxEntry* @_ZN8SfxEntry9getNextNEEv(%class.SfxEntry* nonnull %76)
  br label %114

; <label>:114:                                    ; preds = %112, %110
  %115 = phi %class.SfxEntry* [ %111, %110 ], [ %113, %112 ]
  %116 = icmp eq %class.SfxEntry* %115, null
  br i1 %116, label %117, label %75

; <label>:117:                                    ; preds = %114, %62
  call void @_ZNSt7__cxx1112basic_stringIcSt11char_traitsIcESaIcEEC2EOS4_(%"class.std::__cxx11::basic_string"* %0, %"class.std::__cxx11::basic_string"* nonnull dereferenceable(32) %8) #18
  br label %118

; <label>:118:                                    ; preds = %117, %61
  call void @_ZNSt7__cxx1112basic_stringIcSt11char_traitsIcESaIcEED2Ev(%"class.std::__cxx11::basic_string"* nonnull %10) #18
  call void @llvm.lifetime.end.p0i8(i64 32, i8* nonnull %15) #18
  call void @_ZNSt7__cxx1112basic_stringIcSt11char_traitsIcESaIcEED2Ev(%"class.std::__cxx11::basic_string"* nonnull %9) #18
  call void @llvm.lifetime.end.p0i8(i64 32, i8* nonnull %14) #18
  call void @_ZNSt7__cxx1112basic_stringIcSt11char_traitsIcESaIcEED2Ev(%"class.std::__cxx11::basic_string"* nonnull %8) #18
  call void @llvm.lifetime.end.p0i8(i64 32, i8* nonnull %13) #18
  ret void
}

; Function Attrs: nounwind sspstrong uwtable
define available_externally dereferenceable(32) %"class.std::__cxx11::basic_string"* @_ZNSt7__cxx1112basic_stringIcSt11char_traitsIcESaIcEEaSEOS4_(%"class.std::__cxx11::basic_string"*, %"class.std::__cxx11::basic_string"* dereferenceable(32)) local_unnamed_addr #0 align 2 {
  %3 = tail call zeroext i1 @_ZNKSt7__cxx1112basic_stringIcSt11char_traitsIcESaIcEE11_M_is_localEv(%"class.std::__cxx11::basic_string"* %0)
  br i1 %3, label %14, label %4

; <label>:4:                                      ; preds = %2
  %5 = tail call zeroext i1 @_ZN9__gnu_cxx14__alloc_traitsISaIcEcE15_S_always_equalEv()
  br i1 %5, label %14, label %6

; <label>:6:                                      ; preds = %4
  %7 = tail call dereferenceable(1) %"class.std::allocator"* @_ZNSt7__cxx1112basic_stringIcSt11char_traitsIcESaIcEE16_M_get_allocatorEv(%"class.std::__cxx11::basic_string"* %0)
  %8 = tail call dereferenceable(1) %"class.std::allocator"* @_ZNSt7__cxx1112basic_stringIcSt11char_traitsIcESaIcEE16_M_get_allocatorEv(%"class.std::__cxx11::basic_string"* nonnull %1)
  %9 = tail call zeroext i1 @_ZStneIcEbRKSaIT_ES3_(%"class.std::allocator"* nonnull dereferenceable(1) %7, %"class.std::allocator"* nonnull dereferenceable(1) %8) #18
  br i1 %9, label %10, label %14

; <label>:10:                                     ; preds = %6
  %11 = getelementptr inbounds %"class.std::__cxx11::basic_string", %"class.std::__cxx11::basic_string"* %0, i64 0, i32 2, i32 0
  %12 = load i64, i64* %11, align 8
  tail call void @_ZNSt7__cxx1112basic_stringIcSt11char_traitsIcESaIcEE10_M_destroyEm(%"class.std::__cxx11::basic_string"* %0, i64 %12) #18
  %13 = tail call i8* @_ZNSt7__cxx1112basic_stringIcSt11char_traitsIcESaIcEE13_M_local_dataEv(%"class.std::__cxx11::basic_string"* %0)
  tail call void @_ZNSt7__cxx1112basic_stringIcSt11char_traitsIcESaIcEE7_M_dataEPc(%"class.std::__cxx11::basic_string"* %0, i8* %13)
  tail call void @_ZNSt7__cxx1112basic_stringIcSt11char_traitsIcESaIcEE13_M_set_lengthEm(%"class.std::__cxx11::basic_string"* %0, i64 0)
  br label %14

; <label>:14:                                     ; preds = %10, %6, %4, %2
  %15 = tail call dereferenceable(1) %"class.std::allocator"* @_ZNSt7__cxx1112basic_stringIcSt11char_traitsIcESaIcEE16_M_get_allocatorEv(%"class.std::__cxx11::basic_string"* %0)
  %16 = tail call dereferenceable(1) %"class.std::allocator"* @_ZNSt7__cxx1112basic_stringIcSt11char_traitsIcESaIcEE16_M_get_allocatorEv(%"class.std::__cxx11::basic_string"* nonnull %1)
  tail call void @_ZSt15__alloc_on_moveISaIcEEvRT_S2_(%"class.std::allocator"* nonnull dereferenceable(1) %15, %"class.std::allocator"* nonnull dereferenceable(1) %16)
  %17 = tail call zeroext i1 @_ZNKSt7__cxx1112basic_stringIcSt11char_traitsIcESaIcEE11_M_is_localEv(%"class.std::__cxx11::basic_string"* nonnull %1)
  br i1 %17, label %18, label %27

; <label>:18:                                     ; preds = %14
  %19 = tail call i64 @_ZNKSt7__cxx1112basic_stringIcSt11char_traitsIcESaIcEE4sizeEv(%"class.std::__cxx11::basic_string"* nonnull %1) #18
  %20 = icmp eq i64 %19, 0
  br i1 %20, label %25, label %21

; <label>:21:                                     ; preds = %18
  %22 = tail call i8* @_ZNKSt7__cxx1112basic_stringIcSt11char_traitsIcESaIcEE7_M_dataEv(%"class.std::__cxx11::basic_string"* %0)
  %23 = tail call i8* @_ZNKSt7__cxx1112basic_stringIcSt11char_traitsIcESaIcEE7_M_dataEv(%"class.std::__cxx11::basic_string"* nonnull %1)
  %24 = tail call i64 @_ZNKSt7__cxx1112basic_stringIcSt11char_traitsIcESaIcEE4sizeEv(%"class.std::__cxx11::basic_string"* nonnull %1) #18
  tail call void @_ZNSt7__cxx1112basic_stringIcSt11char_traitsIcESaIcEE7_S_copyEPcPKcm(i8* %22, i8* %23, i64 %24)
  br label %25

; <label>:25:                                     ; preds = %18, %21
  %26 = tail call i64 @_ZNKSt7__cxx1112basic_stringIcSt11char_traitsIcESaIcEE4sizeEv(%"class.std::__cxx11::basic_string"* nonnull %1) #18
  tail call void @_ZNSt7__cxx1112basic_stringIcSt11char_traitsIcESaIcEE13_M_set_lengthEm(%"class.std::__cxx11::basic_string"* %0, i64 %26)
  br label %45

; <label>:27:                                     ; preds = %14
  %28 = tail call zeroext i1 @_ZNKSt7__cxx1112basic_stringIcSt11char_traitsIcESaIcEE11_M_is_localEv(%"class.std::__cxx11::basic_string"* %0)
  br i1 %28, label %33, label %29

; <label>:29:                                     ; preds = %27
  %30 = tail call i8* @_ZNKSt7__cxx1112basic_stringIcSt11char_traitsIcESaIcEE7_M_dataEv(%"class.std::__cxx11::basic_string"* %0)
  %31 = getelementptr inbounds %"class.std::__cxx11::basic_string", %"class.std::__cxx11::basic_string"* %0, i64 0, i32 2, i32 0
  %32 = load i64, i64* %31, align 8
  br label %33

; <label>:33:                                     ; preds = %29, %27
  %34 = phi i8* [ null, %27 ], [ %30, %29 ]
  %35 = phi i64 [ undef, %27 ], [ %32, %29 ]
  %36 = tail call i8* @_ZNKSt7__cxx1112basic_stringIcSt11char_traitsIcESaIcEE7_M_dataEv(%"class.std::__cxx11::basic_string"* nonnull %1)
  tail call void @_ZNSt7__cxx1112basic_stringIcSt11char_traitsIcESaIcEE7_M_dataEPc(%"class.std::__cxx11::basic_string"* %0, i8* %36)
  %37 = tail call i64 @_ZNKSt7__cxx1112basic_stringIcSt11char_traitsIcESaIcEE6lengthEv(%"class.std::__cxx11::basic_string"* nonnull %1) #18
  tail call void @_ZNSt7__cxx1112basic_stringIcSt11char_traitsIcESaIcEE9_M_lengthEm(%"class.std::__cxx11::basic_string"* %0, i64 %37)
  %38 = getelementptr inbounds %"class.std::__cxx11::basic_string", %"class.std::__cxx11::basic_string"* %1, i64 0, i32 2
  %39 = getelementptr inbounds %union.anon, %union.anon* %38, i64 0, i32 0
  %40 = load i64, i64* %39, align 8
  tail call void @_ZNSt7__cxx1112basic_stringIcSt11char_traitsIcESaIcEE11_M_capacityEm(%"class.std::__cxx11::basic_string"* %0, i64 %40)
  %41 = icmp eq i8* %34, null
  br i1 %41, label %43, label %42

; <label>:42:                                     ; preds = %33
  tail call void @_ZNSt7__cxx1112basic_stringIcSt11char_traitsIcESaIcEE7_M_dataEPc(%"class.std::__cxx11::basic_string"* nonnull %1, i8* nonnull %34)
  tail call void @_ZNSt7__cxx1112basic_stringIcSt11char_traitsIcESaIcEE11_M_capacityEm(%"class.std::__cxx11::basic_string"* nonnull %1, i64 %35)
  br label %45

; <label>:43:                                     ; preds = %33
  %44 = bitcast %union.anon* %38 to i8*
  tail call void @_ZNSt7__cxx1112basic_stringIcSt11char_traitsIcESaIcEE7_M_dataEPc(%"class.std::__cxx11::basic_string"* nonnull %1, i8* nonnull %44)
  br label %45

; <label>:45:                                     ; preds = %42, %43, %25
  tail call void @_ZNSt7__cxx1112basic_stringIcSt11char_traitsIcESaIcEE5clearEv(%"class.std::__cxx11::basic_string"* nonnull %1) #18
  ret %"class.std::__cxx11::basic_string"* %0
}

; Function Attrs: nounwind sspstrong uwtable
define hidden void @_ZN8PfxEntry11check_morphB5cxx11EPKcict(%"class.std::__cxx11::basic_string"* noalias sret, %class.PfxEntry*, i8*, i32, i8 signext, i16 zeroext) local_unnamed_addr #0 align 2 {
  %7 = alloca i16, align 2
  %8 = alloca %"class.std::__cxx11::basic_string", align 8
  %9 = alloca i16, align 2
  %10 = alloca %"class.std::__cxx11::basic_string", align 8
  store i16 %5, i16* %7, align 2
  tail call void @_ZNSt7__cxx1112basic_stringIcSt11char_traitsIcESaIcEEC2Ev(%"class.std::__cxx11::basic_string"* %0) #18
  %11 = getelementptr inbounds %class.PfxEntry, %class.PfxEntry* %1, i64 0, i32 0, i32 1
  %12 = tail call i64 @_ZNKSt7__cxx1112basic_stringIcSt11char_traitsIcESaIcEE4sizeEv(%"class.std::__cxx11::basic_string"* nonnull %11) #18
  %13 = trunc i64 %12 to i32
  %14 = sub i32 %3, %13
  %15 = icmp sgt i32 %14, 0
  br i1 %15, label %23, label %16

; <label>:16:                                     ; preds = %6
  %17 = icmp eq i32 %14, 0
  br i1 %17, label %18, label %149

; <label>:18:                                     ; preds = %16
  %19 = getelementptr inbounds %class.PfxEntry, %class.PfxEntry* %1, i64 0, i32 1
  %20 = load %class.AffixMgr*, %class.AffixMgr** %19, align 8
  %21 = tail call i32 @_ZNK8AffixMgr13get_fullstripEv(%class.AffixMgr* %20)
  %22 = icmp eq i32 %21, 0
  br i1 %22, label %149, label %23

; <label>:23:                                     ; preds = %18, %6
  %24 = sext i32 %14 to i64
  %25 = getelementptr inbounds %class.PfxEntry, %class.PfxEntry* %1, i64 0, i32 0, i32 2
  %26 = tail call i64 @_ZNKSt7__cxx1112basic_stringIcSt11char_traitsIcESaIcEE4sizeEv(%"class.std::__cxx11::basic_string"* nonnull %25) #18
  %27 = add i64 %26, %24
  %28 = getelementptr inbounds %class.PfxEntry, %class.PfxEntry* %1, i64 0, i32 0, i32 3
  %29 = load i8, i8* %28, align 8
  %30 = zext i8 %29 to i64
  %31 = icmp ult i64 %27, %30
  br i1 %31, label %149, label %32

; <label>:32:                                     ; preds = %23
  %33 = bitcast %"class.std::__cxx11::basic_string"* %8 to i8*
  call void @llvm.lifetime.start.p0i8(i64 32, i8* nonnull %33) #18
  call void @_ZNSt7__cxx1112basic_stringIcSt11char_traitsIcESaIcEEC2ERKS4_(%"class.std::__cxx11::basic_string"* nonnull %8, %"class.std::__cxx11::basic_string"* nonnull dereferenceable(32) %25)
  %34 = call i64 @_ZNKSt7__cxx1112basic_stringIcSt11char_traitsIcESaIcEE4sizeEv(%"class.std::__cxx11::basic_string"* nonnull %11) #18
  %35 = getelementptr inbounds i8, i8* %2, i64 %34
  %36 = call dereferenceable(32) %"class.std::__cxx11::basic_string"* @_ZNSt7__cxx1112basic_stringIcSt11char_traitsIcESaIcEE6appendEPKc(%"class.std::__cxx11::basic_string"* nonnull %8, i8* %35)
  %37 = call i8* @_ZNKSt7__cxx1112basic_stringIcSt11char_traitsIcESaIcEE5c_strEv(%"class.std::__cxx11::basic_string"* nonnull %8) #18
  %38 = call i32 @_ZN8PfxEntry14test_conditionEPKc(%class.PfxEntry* nonnull %1, i8* %37)
  %39 = icmp eq i32 %38, 0
  br i1 %39, label %148, label %40

; <label>:40:                                     ; preds = %32
  %41 = call i64 @_ZNKSt7__cxx1112basic_stringIcSt11char_traitsIcESaIcEE4sizeEv(%"class.std::__cxx11::basic_string"* nonnull %25) #18
  %42 = trunc i64 %41 to i32
  %43 = add i32 %14, %42
  %44 = getelementptr inbounds %class.PfxEntry, %class.PfxEntry* %1, i64 0, i32 1
  %45 = load %class.AffixMgr*, %class.AffixMgr** %44, align 8
  %46 = call i8* @_ZNKSt7__cxx1112basic_stringIcSt11char_traitsIcESaIcEE5c_strEv(%"class.std::__cxx11::basic_string"* nonnull %8) #18
  %47 = call %struct.hentry* @_ZN8AffixMgr6lookupEPKc(%class.AffixMgr* %45, i8* %46)
  %48 = icmp eq %struct.hentry* %47, null
  br i1 %48, label %132, label %49

; <label>:49:                                     ; preds = %40
  %50 = getelementptr inbounds %class.PfxEntry, %class.PfxEntry* %1, i64 0, i32 0, i32 5
  %51 = getelementptr inbounds %class.PfxEntry, %class.PfxEntry* %1, i64 0, i32 0, i32 9
  %52 = getelementptr inbounds %class.PfxEntry, %class.PfxEntry* %1, i64 0, i32 0, i32 10
  %53 = bitcast i16* %9 to i8*
  %54 = bitcast i16* %9 to i8*
  %55 = bitcast i16* %9 to i8*
  %56 = getelementptr inbounds %class.PfxEntry, %class.PfxEntry* %1, i64 0, i32 0, i32 8
  %57 = bitcast i16* %9 to i8*
  br label %58

; <label>:58:                                     ; preds = %49, %128
  %59 = phi %struct.hentry* [ %130, %128 ], [ %47, %49 ]
  %60 = getelementptr inbounds %struct.hentry, %struct.hentry* %59, i64 0, i32 3
  %61 = load i16*, i16** %60, align 8
  %62 = getelementptr inbounds %struct.hentry, %struct.hentry* %59, i64 0, i32 2
  %63 = load i16, i16* %62, align 2
  %64 = sext i16 %63 to i64
  %65 = getelementptr inbounds i16, i16* %61, i64 %64
  %66 = call zeroext i1 @_ZSt13binary_searchIPttEbT_S1_RKT0_(i16* %61, i16* %65, i16* nonnull dereferenceable(2) %50)
  br i1 %66, label %67, label %128

; <label>:67:                                     ; preds = %58
  %68 = load i16*, i16** %51, align 8
  %69 = load i16, i16* %52, align 8
  %70 = sext i16 %69 to i64
  %71 = getelementptr inbounds i16, i16* %68, i64 %70
  call void @llvm.lifetime.start.p0i8(i64 2, i8* nonnull %53) #18
  %72 = load %class.AffixMgr*, %class.AffixMgr** %44, align 8
  %73 = call zeroext i16 @_ZNK8AffixMgr13get_needaffixEv(%class.AffixMgr* %72)
  store i16 %73, i16* %9, align 2
  %74 = call zeroext i1 @_ZSt13binary_searchIPttEbT_S1_RKT0_(i16* %68, i16* %71, i16* nonnull dereferenceable(2) %9)
  br i1 %74, label %88, label %75

; <label>:75:                                     ; preds = %67
  %76 = load i16, i16* %7, align 2
  %77 = icmp eq i16 %76, 0
  br i1 %77, label %87, label %78

; <label>:78:                                     ; preds = %75
  %79 = load i16*, i16** %60, align 8
  %80 = load i16, i16* %62, align 2
  %81 = sext i16 %80 to i64
  %82 = getelementptr inbounds i16, i16* %79, i64 %81
  %83 = call zeroext i1 @_ZSt13binary_searchIPttEbT_S1_RKT0_(i16* %79, i16* %82, i16* nonnull dereferenceable(2) %7)
  br i1 %83, label %87, label %84

; <label>:84:                                     ; preds = %78
  %85 = load i16*, i16** %51, align 8
  %86 = icmp eq i16* %85, null
  br i1 %86, label %88, label %89

; <label>:87:                                     ; preds = %75, %78
  call void @llvm.lifetime.end.p0i8(i64 2, i8* nonnull %55) #18
  br label %94

; <label>:88:                                     ; preds = %84, %67
  call void @llvm.lifetime.end.p0i8(i64 2, i8* nonnull %54) #18
  br label %128

; <label>:89:                                     ; preds = %84
  %90 = load i16, i16* %52, align 8
  %91 = sext i16 %90 to i64
  %92 = getelementptr inbounds i16, i16* %85, i64 %91
  %93 = call zeroext i1 @_ZSt13binary_searchIPttEbT_S1_RKT0_(i16* nonnull %85, i16* nonnull %92, i16* nonnull dereferenceable(2) %7)
  call void @llvm.lifetime.end.p0i8(i64 2, i8* nonnull %57) #18
  br i1 %93, label %94, label %128

; <label>:94:                                     ; preds = %87, %89
  %95 = load i8*, i8** %56, align 8
  %96 = icmp eq i8* %95, null
  br i1 %96, label %101, label %97

; <label>:97:                                     ; preds = %94
  %98 = call dereferenceable(32) %"class.std::__cxx11::basic_string"* @_ZNSt7__cxx1112basic_stringIcSt11char_traitsIcESaIcEE6appendEPKc(%"class.std::__cxx11::basic_string"* %0, i8* getelementptr inbounds ([2 x i8], [2 x i8]* @.str, i64 0, i64 0))
  %99 = load i8*, i8** %56, align 8
  %100 = call dereferenceable(32) %"class.std::__cxx11::basic_string"* @_ZNSt7__cxx1112basic_stringIcSt11char_traitsIcESaIcEE6appendEPKc(%"class.std::__cxx11::basic_string"* %0, i8* %99)
  br label %104

; <label>:101:                                    ; preds = %94
  %102 = call i8* @_ZN8PfxEntry6getKeyEv(%class.PfxEntry* nonnull %1)
  %103 = call dereferenceable(32) %"class.std::__cxx11::basic_string"* @_ZNSt7__cxx1112basic_stringIcSt11char_traitsIcESaIcEE6appendEPKc(%"class.std::__cxx11::basic_string"* %0, i8* %102)
  br label %104

; <label>:104:                                    ; preds = %101, %97
  %105 = call i8* @_Z11HENTRY_FINDP6hentryPKc(%struct.hentry* nonnull %59, i8* getelementptr inbounds ([4 x i8], [4 x i8]* @.str.1, i64 0, i64 0))
  %106 = icmp eq i8* %105, null
  br i1 %106, label %107, label %112

; <label>:107:                                    ; preds = %104
  %108 = call dereferenceable(32) %"class.std::__cxx11::basic_string"* @_ZNSt7__cxx1112basic_stringIcSt11char_traitsIcESaIcEE6appendEPKc(%"class.std::__cxx11::basic_string"* %0, i8* getelementptr inbounds ([2 x i8], [2 x i8]* @.str, i64 0, i64 0))
  %109 = call dereferenceable(32) %"class.std::__cxx11::basic_string"* @_ZNSt7__cxx1112basic_stringIcSt11char_traitsIcESaIcEE6appendEPKc(%"class.std::__cxx11::basic_string"* %0, i8* getelementptr inbounds ([4 x i8], [4 x i8]* @.str.1, i64 0, i64 0))
  %110 = getelementptr inbounds %struct.hentry, %struct.hentry* %59, i64 0, i32 7, i64 0
  %111 = call dereferenceable(32) %"class.std::__cxx11::basic_string"* @_ZNSt7__cxx1112basic_stringIcSt11char_traitsIcESaIcEE6appendEPKc(%"class.std::__cxx11::basic_string"* %0, i8* nonnull %110)
  br label %112

; <label>:112:                                    ; preds = %104, %107
  %113 = call i8* @_Z11HENTRY_DATAP6hentry(%struct.hentry* nonnull %59)
  %114 = icmp eq i8* %113, null
  br i1 %114, label %119, label %115

; <label>:115:                                    ; preds = %112
  %116 = call dereferenceable(32) %"class.std::__cxx11::basic_string"* @_ZNSt7__cxx1112basic_stringIcSt11char_traitsIcESaIcEE6appendEPKc(%"class.std::__cxx11::basic_string"* %0, i8* getelementptr inbounds ([2 x i8], [2 x i8]* @.str, i64 0, i64 0))
  %117 = call i8* @_Z12HENTRY_DATA2PK6hentry(%struct.hentry* nonnull %59)
  %118 = call dereferenceable(32) %"class.std::__cxx11::basic_string"* @_ZNSt7__cxx1112basic_stringIcSt11char_traitsIcESaIcEE6appendEPKc(%"class.std::__cxx11::basic_string"* %0, i8* %117)
  br label %126

; <label>:119:                                    ; preds = %112
  %120 = load %class.AffixMgr*, %class.AffixMgr** %44, align 8
  %121 = call zeroext i16 @_ZN8PfxEntry7getFlagEv(%class.PfxEntry* nonnull %1)
  %122 = call i8* @_ZNK8AffixMgr11encode_flagEt(%class.AffixMgr* %120, i16 zeroext %121)
  %123 = call dereferenceable(32) %"class.std::__cxx11::basic_string"* @_ZNSt7__cxx1112basic_stringIcSt11char_traitsIcESaIcEE6appendEPKc(%"class.std::__cxx11::basic_string"* %0, i8* getelementptr inbounds ([2 x i8], [2 x i8]* @.str, i64 0, i64 0))
  %124 = call dereferenceable(32) %"class.std::__cxx11::basic_string"* @_ZNSt7__cxx1112basic_stringIcSt11char_traitsIcESaIcEE6appendEPKc(%"class.std::__cxx11::basic_string"* %0, i8* getelementptr inbounds ([4 x i8], [4 x i8]* @.str.2, i64 0, i64 0))
  %125 = call dereferenceable(32) %"class.std::__cxx11::basic_string"* @_ZNSt7__cxx1112basic_stringIcSt11char_traitsIcESaIcEE6appendEPKc(%"class.std::__cxx11::basic_string"* %0, i8* %122)
  call void @_ZN7mozilla21CountingAllocatorBaseI17HunspellAllocatorE12CountingFreeEPv(i8* %122)
  br label %126

; <label>:126:                                    ; preds = %119, %115
  %127 = call dereferenceable(32) %"class.std::__cxx11::basic_string"* @_ZNSt7__cxx1112basic_stringIcSt11char_traitsIcESaIcEE6appendEPKc(%"class.std::__cxx11::basic_string"* %0, i8* getelementptr inbounds ([2 x i8], [2 x i8]* @.str.3, i64 0, i64 0))
  br label %128

; <label>:128:                                    ; preds = %58, %88, %126, %89
  %129 = getelementptr inbounds %struct.hentry, %struct.hentry* %59, i64 0, i32 5
  %130 = load %struct.hentry*, %struct.hentry** %129, align 8
  %131 = icmp eq %struct.hentry* %130, null
  br i1 %131, label %132, label %58

; <label>:132:                                    ; preds = %128, %40
  %133 = getelementptr inbounds %class.PfxEntry, %class.PfxEntry* %1, i64 0, i32 0, i32 4
  %134 = load i8, i8* %133, align 1
  %135 = and i8 %134, 1
  %136 = icmp eq i8 %135, 0
  %137 = icmp eq i8 %4, 1
  %138 = or i1 %137, %136
  br i1 %138, label %148, label %139

; <label>:139:                                    ; preds = %132
  %140 = bitcast %"class.std::__cxx11::basic_string"* %10 to i8*
  call void @llvm.lifetime.start.p0i8(i64 32, i8* nonnull %140) #18
  %141 = load %class.AffixMgr*, %class.AffixMgr** %44, align 8
  %142 = call i8* @_ZNKSt7__cxx1112basic_stringIcSt11char_traitsIcESaIcEE5c_strEv(%"class.std::__cxx11::basic_string"* nonnull %8) #18
  %143 = load i16, i16* %7, align 2
  call void @_ZN8AffixMgr18suffix_check_morphB5cxx11EPKciiP8PfxEntryttc(%"class.std::__cxx11::basic_string"* nonnull sret %10, %class.AffixMgr* %141, i8* %142, i32 %43, i32 1, %class.PfxEntry* nonnull %1, i16 zeroext 0, i16 zeroext %143, i8 signext 0)
  %144 = call zeroext i1 @_ZNKSt7__cxx1112basic_stringIcSt11char_traitsIcESaIcEE5emptyEv(%"class.std::__cxx11::basic_string"* nonnull %10) #18
  br i1 %144, label %147, label %145

; <label>:145:                                    ; preds = %139
  %146 = call dereferenceable(32) %"class.std::__cxx11::basic_string"* @_ZNSt7__cxx1112basic_stringIcSt11char_traitsIcESaIcEE6appendERKS4_(%"class.std::__cxx11::basic_string"* %0, %"class.std::__cxx11::basic_string"* nonnull dereferenceable(32) %10)
  br label %147

; <label>:147:                                    ; preds = %145, %139
  call void @_ZNSt7__cxx1112basic_stringIcSt11char_traitsIcESaIcEED2Ev(%"class.std::__cxx11::basic_string"* nonnull %10) #18
  call void @llvm.lifetime.end.p0i8(i64 32, i8* nonnull %140) #18
  br label %148

; <label>:148:                                    ; preds = %147, %132, %32
  call void @_ZNSt7__cxx1112basic_stringIcSt11char_traitsIcESaIcEED2Ev(%"class.std::__cxx11::basic_string"* nonnull %8) #18
  call void @llvm.lifetime.end.p0i8(i64 32, i8* nonnull %33) #18
  br label %149

; <label>:149:                                    ; preds = %16, %148, %18, %23
  ret void
}

; Function Attrs: norecurse nounwind sspstrong uwtable
define linkonce_odr hidden i8* @_ZN8PfxEntry6getKeyEv(%class.PfxEntry*) local_unnamed_addr #1 comdat align 2 {
  %2 = getelementptr inbounds %class.PfxEntry, %class.PfxEntry* %0, i64 0, i32 0, i32 1
  %3 = tail call i8* @_ZNKSt7__cxx1112basic_stringIcSt11char_traitsIcESaIcEE5c_strEv(%"class.std::__cxx11::basic_string"* nonnull %2) #18
  ret i8* %3
}

; Function Attrs: inlinehint nounwind sspstrong uwtable
define linkonce_odr hidden i8* @_Z11HENTRY_FINDP6hentryPKc(%struct.hentry*, i8*) local_unnamed_addr #6 comdat {
  %3 = tail call i8* @_Z11HENTRY_DATAP6hentry(%struct.hentry* %0)
  %4 = icmp eq i8* %3, null
  br i1 %4, label %8, label %5

; <label>:5:                                      ; preds = %2
  %6 = tail call i8* @_Z11HENTRY_DATAP6hentry(%struct.hentry* %0)
  %7 = tail call i8* @strstr(i8* %6, i8* %1) #17
  br label %8

; <label>:8:                                      ; preds = %2, %5
  %9 = phi i8* [ %7, %5 ], [ null, %2 ]
  ret i8* %9
}

; Function Attrs: inlinehint norecurse nounwind sspstrong uwtable
define linkonce_odr hidden i8* @_Z11HENTRY_DATAP6hentry(%struct.hentry*) local_unnamed_addr #3 comdat {
  %2 = getelementptr inbounds %struct.hentry, %struct.hentry* %0, i64 0, i32 6
  %3 = load i8, i8* %2, align 8
  %4 = icmp eq i8 %3, 0
  br i1 %4, label %15, label %5

; <label>:5:                                      ; preds = %1
  %6 = and i8 %3, 2
  %7 = icmp eq i8 %6, 0
  %8 = getelementptr inbounds %struct.hentry, %struct.hentry* %0, i64 0, i32 0
  %9 = load i8, i8* %8, align 8
  %10 = zext i8 %9 to i64
  %11 = getelementptr inbounds %struct.hentry, %struct.hentry* %0, i64 0, i32 7, i64 %10
  %12 = getelementptr inbounds i8, i8* %11, i64 1
  br i1 %7, label %15, label %13

; <label>:13:                                     ; preds = %5
  %14 = tail call i8* @_Z18get_stored_pointerPKc(i8* nonnull %12)
  br label %15

; <label>:15:                                     ; preds = %5, %1, %13
  %16 = phi i8* [ %14, %13 ], [ null, %1 ], [ %12, %5 ]
  ret i8* %16
}

; Function Attrs: inlinehint norecurse nounwind sspstrong uwtable
define linkonce_odr hidden i8* @_Z12HENTRY_DATA2PK6hentry(%struct.hentry*) local_unnamed_addr #3 comdat {
  %2 = getelementptr inbounds %struct.hentry, %struct.hentry* %0, i64 0, i32 6
  %3 = load i8, i8* %2, align 8
  %4 = icmp eq i8 %3, 0
  br i1 %4, label %15, label %5

; <label>:5:                                      ; preds = %1
  %6 = and i8 %3, 2
  %7 = icmp eq i8 %6, 0
  %8 = getelementptr inbounds %struct.hentry, %struct.hentry* %0, i64 0, i32 0
  %9 = load i8, i8* %8, align 8
  %10 = zext i8 %9 to i64
  %11 = getelementptr inbounds %struct.hentry, %struct.hentry* %0, i64 0, i32 7, i64 %10
  %12 = getelementptr inbounds i8, i8* %11, i64 1
  br i1 %7, label %15, label %13

; <label>:13:                                     ; preds = %5
  %14 = tail call i8* @_Z18get_stored_pointerPKc(i8* nonnull %12)
  br label %15

; <label>:15:                                     ; preds = %5, %1, %13
  %16 = phi i8* [ %14, %13 ], [ getelementptr inbounds ([1 x i8], [1 x i8]* @.str.84, i64 0, i64 0), %1 ], [ %12, %5 ]
  ret i8* %16
}

; Function Attrs: nounwind sspstrong uwtable
define hidden i8* @_ZNK8AffixMgr11encode_flagEt(%class.AffixMgr* nocapture readonly, i16 zeroext) local_unnamed_addr #0 align 2 {
  %3 = getelementptr inbounds %class.AffixMgr, %class.AffixMgr* %0, i64 0, i32 5
  %4 = load %class.HashMgr*, %class.HashMgr** %3, align 8
  %5 = tail call i8* @_ZNK7HashMgr11encode_flagEt(%class.HashMgr* %4, i16 zeroext %1)
  ret i8* %5
}

; Function Attrs: norecurse nounwind sspstrong uwtable
define linkonce_odr hidden zeroext i16 @_ZN8PfxEntry7getFlagEv(%class.PfxEntry*) local_unnamed_addr #1 comdat align 2 {
  %2 = getelementptr inbounds %class.PfxEntry, %class.PfxEntry* %0, i64 0, i32 0, i32 5
  %3 = load i16, i16* %2, align 2
  ret i16 %3
}

; Function Attrs: nounwind sspstrong uwtable
define hidden void @_ZN8AffixMgr18suffix_check_morphB5cxx11EPKciiP8PfxEntryttc(%"class.std::__cxx11::basic_string"* noalias sret, %class.AffixMgr*, i8*, i32, i32, %class.PfxEntry*, i16 zeroext, i16 zeroext, i8 signext) local_unnamed_addr #0 align 2 {
  %10 = alloca %"class.std::__cxx11::basic_string", align 8
  %11 = bitcast %"class.std::__cxx11::basic_string"* %10 to i8*
  call void @llvm.lifetime.start.p0i8(i64 32, i8* nonnull %11) #18
  call void @_ZNSt7__cxx1112basic_stringIcSt11char_traitsIcESaIcEEC2Ev(%"class.std::__cxx11::basic_string"* nonnull %10) #18
  %12 = getelementptr inbounds %class.AffixMgr, %class.AffixMgr* %1, i64 0, i32 1, i64 0
  %13 = load %class.SfxEntry*, %class.SfxEntry** %12, align 8
  %14 = icmp eq %class.SfxEntry* %13, null
  br i1 %14, label %183, label %15

; <label>:15:                                     ; preds = %9
  %16 = icmp ne i16 %6, 0
  %17 = icmp eq i8 %8, 1
  %18 = getelementptr inbounds %class.AffixMgr, %class.AffixMgr* %1, i64 0, i32 79
  %19 = getelementptr inbounds %class.AffixMgr, %class.AffixMgr* %1, i64 0, i32 18
  %20 = icmp eq %class.PfxEntry* %5, null
  %21 = getelementptr inbounds %class.AffixMgr, %class.AffixMgr* %1, i64 0, i32 11
  %22 = icmp eq i8 %8, 0
  %23 = icmp ne %class.PfxEntry* %5, null
  %24 = getelementptr inbounds %class.AffixMgr, %class.AffixMgr* %1, i64 0, i32 80
  %25 = getelementptr inbounds %class.AffixMgr, %class.AffixMgr* %1, i64 0, i32 29
  %26 = icmp eq %class.PfxEntry* %5, null
  br label %27

; <label>:27:                                     ; preds = %15, %180
  %28 = phi %class.SfxEntry* [ %13, %15 ], [ %181, %180 ]
  br i1 %16, label %29, label %32

; <label>:29:                                     ; preds = %27
  %30 = call i16* @_ZN8SfxEntry7getContEv(%class.SfxEntry* nonnull %28)
  %31 = icmp eq i16* %30, null
  br i1 %31, label %180, label %32

; <label>:32:                                     ; preds = %29, %27
  br i1 %17, label %33, label %46

; <label>:33:                                     ; preds = %32
  %34 = call i16* @_ZN8SfxEntry7getContEv(%class.SfxEntry* nonnull %28)
  %35 = icmp eq i16* %34, null
  br i1 %35, label %180, label %36

; <label>:36:                                     ; preds = %33
  %37 = load i16, i16* %19, align 4
  %38 = icmp eq i16 %37, 0
  br i1 %38, label %180, label %39

; <label>:39:                                     ; preds = %36
  %40 = call i16* @_ZN8SfxEntry7getContEv(%class.SfxEntry* nonnull %28)
  %41 = call i16* @_ZN8SfxEntry7getContEv(%class.SfxEntry* nonnull %28)
  %42 = call signext i16 @_ZN8SfxEntry10getContLenEv(%class.SfxEntry* nonnull %28)
  %43 = sext i16 %42 to i64
  %44 = getelementptr inbounds i16, i16* %41, i64 %43
  %45 = call zeroext i1 @_ZSt13binary_searchIPKttEbT_S2_RKT0_(i16* %40, i16* %44, i16* nonnull dereferenceable(2) %19)
  br i1 %45, label %46, label %180

; <label>:46:                                     ; preds = %32, %39
  %47 = load i16, i16* %18, align 2
  %48 = icmp eq i16 %47, 0
  br i1 %48, label %91, label %49

; <label>:49:                                     ; preds = %46
  br i1 %23, label %50, label %60

; <label>:50:                                     ; preds = %49
  %51 = call i16* @_ZN8PfxEntry7getContEv(%class.PfxEntry* nonnull %5)
  %52 = icmp eq i16* %51, null
  br i1 %52, label %60, label %53

; <label>:53:                                     ; preds = %50
  %54 = call i16* @_ZN8PfxEntry7getContEv(%class.PfxEntry* nonnull %5)
  %55 = call i16* @_ZN8PfxEntry7getContEv(%class.PfxEntry* nonnull %5)
  %56 = call signext i16 @_ZN8PfxEntry10getContLenEv(%class.PfxEntry* nonnull %5)
  %57 = sext i16 %56 to i64
  %58 = getelementptr inbounds i16, i16* %55, i64 %57
  %59 = call zeroext i1 @_ZSt13binary_searchIPKttEbT_S2_RKT0_(i16* %54, i16* %58, i16* nonnull dereferenceable(2) %18)
  br i1 %59, label %71, label %60

; <label>:60:                                     ; preds = %50, %53, %49
  %61 = call i16* @_ZN8SfxEntry7getContEv(%class.SfxEntry* nonnull %28)
  %62 = icmp eq i16* %61, null
  br i1 %62, label %91, label %63

; <label>:63:                                     ; preds = %60
  %64 = call i16* @_ZN8SfxEntry7getContEv(%class.SfxEntry* nonnull %28)
  %65 = call i16* @_ZN8SfxEntry7getContEv(%class.SfxEntry* nonnull %28)
  %66 = call signext i16 @_ZN8SfxEntry10getContLenEv(%class.SfxEntry* nonnull %28)
  %67 = sext i16 %66 to i64
  %68 = getelementptr inbounds i16, i16* %65, i64 %67
  %69 = call zeroext i1 @_ZSt13binary_searchIPKttEbT_S2_RKT0_(i16* %64, i16* %68, i16* nonnull dereferenceable(2) %18)
  br i1 %69, label %70, label %91

; <label>:70:                                     ; preds = %63
  br i1 %23, label %71, label %180

; <label>:71:                                     ; preds = %53, %70
  %72 = call i16* @_ZN8PfxEntry7getContEv(%class.PfxEntry* nonnull %5)
  %73 = icmp eq i16* %72, null
  br i1 %73, label %180, label %74

; <label>:74:                                     ; preds = %71
  %75 = call i16* @_ZN8PfxEntry7getContEv(%class.PfxEntry* nonnull %5)
  %76 = call i16* @_ZN8PfxEntry7getContEv(%class.PfxEntry* nonnull %5)
  %77 = call signext i16 @_ZN8PfxEntry10getContLenEv(%class.PfxEntry* nonnull %5)
  %78 = sext i16 %77 to i64
  %79 = getelementptr inbounds i16, i16* %76, i64 %78
  %80 = call zeroext i1 @_ZSt13binary_searchIPKttEbT_S2_RKT0_(i16* %75, i16* %79, i16* nonnull dereferenceable(2) %18)
  br i1 %80, label %81, label %180

; <label>:81:                                     ; preds = %74
  %82 = call i16* @_ZN8SfxEntry7getContEv(%class.SfxEntry* nonnull %28)
  %83 = icmp eq i16* %82, null
  br i1 %83, label %180, label %84

; <label>:84:                                     ; preds = %81
  %85 = call i16* @_ZN8SfxEntry7getContEv(%class.SfxEntry* nonnull %28)
  %86 = call i16* @_ZN8SfxEntry7getContEv(%class.SfxEntry* nonnull %28)
  %87 = call signext i16 @_ZN8SfxEntry10getContLenEv(%class.SfxEntry* nonnull %28)
  %88 = sext i16 %87 to i64
  %89 = getelementptr inbounds i16, i16* %86, i64 %88
  %90 = call zeroext i1 @_ZSt13binary_searchIPKttEbT_S2_RKT0_(i16* %85, i16* %89, i16* nonnull dereferenceable(2) %18)
  br i1 %90, label %91, label %180

; <label>:91:                                     ; preds = %60, %46, %84, %63
  br i1 %22, label %92, label %102

; <label>:92:                                     ; preds = %91
  %93 = call i16* @_ZN8SfxEntry7getContEv(%class.SfxEntry* nonnull %28)
  %94 = icmp eq i16* %93, null
  br i1 %94, label %102, label %95

; <label>:95:                                     ; preds = %92
  %96 = call i16* @_ZN8SfxEntry7getContEv(%class.SfxEntry* nonnull %28)
  %97 = call i16* @_ZN8SfxEntry7getContEv(%class.SfxEntry* nonnull %28)
  %98 = call signext i16 @_ZN8SfxEntry10getContLenEv(%class.SfxEntry* nonnull %28)
  %99 = sext i16 %98 to i64
  %100 = getelementptr inbounds i16, i16* %97, i64 %99
  %101 = call zeroext i1 @_ZSt13binary_searchIPKttEbT_S2_RKT0_(i16* %96, i16* %100, i16* nonnull dereferenceable(2) %24)
  br i1 %101, label %180, label %102

; <label>:102:                                    ; preds = %92, %91, %95
  br i1 %16, label %124, label %103

; <label>:103:                                    ; preds = %102
  %104 = call i16* @_ZN8SfxEntry7getContEv(%class.SfxEntry* nonnull %28)
  %105 = icmp eq i16* %104, null
  br i1 %105, label %124, label %106

; <label>:106:                                    ; preds = %103
  %107 = call i16* @_ZN8SfxEntry7getContEv(%class.SfxEntry* nonnull %28)
  %108 = call i16* @_ZN8SfxEntry7getContEv(%class.SfxEntry* nonnull %28)
  %109 = call signext i16 @_ZN8SfxEntry10getContLenEv(%class.SfxEntry* nonnull %28)
  %110 = sext i16 %109 to i64
  %111 = getelementptr inbounds i16, i16* %108, i64 %110
  %112 = call zeroext i1 @_ZSt13binary_searchIPKttEbT_S2_RKT0_(i16* %107, i16* %111, i16* nonnull dereferenceable(2) %25)
  br i1 %112, label %113, label %124

; <label>:113:                                    ; preds = %106
  br i1 %26, label %180, label %114

; <label>:114:                                    ; preds = %113
  %115 = call i16* @_ZN8PfxEntry7getContEv(%class.PfxEntry* nonnull %5)
  %116 = icmp eq i16* %115, null
  br i1 %116, label %124, label %117

; <label>:117:                                    ; preds = %114
  %118 = call i16* @_ZN8PfxEntry7getContEv(%class.PfxEntry* nonnull %5)
  %119 = call i16* @_ZN8PfxEntry7getContEv(%class.PfxEntry* nonnull %5)
  %120 = call signext i16 @_ZN8PfxEntry10getContLenEv(%class.PfxEntry* nonnull %5)
  %121 = sext i16 %120 to i64
  %122 = getelementptr inbounds i16, i16* %119, i64 %121
  %123 = call zeroext i1 @_ZSt13binary_searchIPKttEbT_S2_RKT0_(i16* %118, i16* %122, i16* nonnull dereferenceable(2) %25)
  br i1 %123, label %180, label %124

; <label>:124:                                    ; preds = %102, %106, %117, %103, %114
  %125 = call %struct.hentry* @_ZN8SfxEntry9checkwordEPKciiP8PfxEntryttt(%class.SfxEntry* nonnull %28, i8* %2, i32 %3, i32 %4, %class.PfxEntry* %5, i16 zeroext %6, i16 zeroext %7, i16 zeroext 0)
  %126 = icmp eq %struct.hentry* %125, null
  br i1 %126, label %180, label %127

; <label>:127:                                    ; preds = %124, %176
  %128 = phi %struct.hentry* [ %178, %176 ], [ %125, %124 ]
  br i1 %20, label %139, label %129

; <label>:129:                                    ; preds = %127
  %130 = call i8* @_ZN8PfxEntry8getMorphEv(%class.PfxEntry* nonnull %5)
  %131 = icmp eq i8* %130, null
  br i1 %131, label %136, label %132

; <label>:132:                                    ; preds = %129
  %133 = call i8* @_ZN8PfxEntry8getMorphEv(%class.PfxEntry* nonnull %5)
  %134 = call dereferenceable(32) %"class.std::__cxx11::basic_string"* @_ZNSt7__cxx1112basic_stringIcSt11char_traitsIcESaIcEE6appendEPKc(%"class.std::__cxx11::basic_string"* nonnull %10, i8* %133)
  %135 = call dereferenceable(32) %"class.std::__cxx11::basic_string"* @_ZNSt7__cxx1112basic_stringIcSt11char_traitsIcESaIcEE6appendEPKc(%"class.std::__cxx11::basic_string"* nonnull %10, i8* getelementptr inbounds ([2 x i8], [2 x i8]* @.str, i64 0, i64 0))
  br label %139

; <label>:136:                                    ; preds = %129
  %137 = call zeroext i16 @_ZN8PfxEntry7getFlagEv(%class.PfxEntry* nonnull %5)
  %138 = call dereferenceable(32) %"class.std::__cxx11::basic_string"* @_ZN8AffixMgr9debugflagERNSt7__cxx1112basic_stringIcSt11char_traitsIcESaIcEEEt(%class.AffixMgr* nonnull %1, %"class.std::__cxx11::basic_string"* nonnull dereferenceable(32) %10, i16 zeroext %137)
  br label %139

; <label>:139:                                    ; preds = %127, %132, %136
  %140 = load i32, i32* %21, align 4
  %141 = icmp eq i32 %140, 0
  br i1 %141, label %148, label %142

; <label>:142:                                    ; preds = %139
  %143 = call i8* @_Z11HENTRY_DATAP6hentry(%struct.hentry* nonnull %128)
  %144 = icmp eq i8* %143, null
  br i1 %144, label %148, label %145

; <label>:145:                                    ; preds = %142
  %146 = call i8* @_Z12HENTRY_DATA2PK6hentry(%struct.hentry* nonnull %128)
  %147 = call dereferenceable(32) %"class.std::__cxx11::basic_string"* @_ZNSt7__cxx1112basic_stringIcSt11char_traitsIcESaIcEE6appendEPKc(%"class.std::__cxx11::basic_string"* nonnull %10, i8* %146)
  br label %148

; <label>:148:                                    ; preds = %142, %139, %145
  %149 = call i8* @_Z11HENTRY_FINDP6hentryPKc(%struct.hentry* nonnull %128, i8* getelementptr inbounds ([4 x i8], [4 x i8]* @.str.1, i64 0, i64 0))
  %150 = icmp eq i8* %149, null
  br i1 %150, label %151, label %156

; <label>:151:                                    ; preds = %148
  %152 = call dereferenceable(32) %"class.std::__cxx11::basic_string"* @_ZNSt7__cxx1112basic_stringIcSt11char_traitsIcESaIcEE6appendEPKc(%"class.std::__cxx11::basic_string"* nonnull %10, i8* getelementptr inbounds ([2 x i8], [2 x i8]* @.str, i64 0, i64 0))
  %153 = call dereferenceable(32) %"class.std::__cxx11::basic_string"* @_ZNSt7__cxx1112basic_stringIcSt11char_traitsIcESaIcEE6appendEPKc(%"class.std::__cxx11::basic_string"* nonnull %10, i8* getelementptr inbounds ([4 x i8], [4 x i8]* @.str.1, i64 0, i64 0))
  %154 = getelementptr inbounds %struct.hentry, %struct.hentry* %128, i64 0, i32 7, i64 0
  %155 = call dereferenceable(32) %"class.std::__cxx11::basic_string"* @_ZNSt7__cxx1112basic_stringIcSt11char_traitsIcESaIcEE6appendEPKc(%"class.std::__cxx11::basic_string"* nonnull %10, i8* nonnull %154)
  br label %156

; <label>:156:                                    ; preds = %148, %151
  %157 = load i32, i32* %21, align 4
  %158 = icmp eq i32 %157, 0
  br i1 %158, label %159, label %166

; <label>:159:                                    ; preds = %156
  %160 = call i8* @_Z11HENTRY_DATAP6hentry(%struct.hentry* nonnull %128)
  %161 = icmp eq i8* %160, null
  br i1 %161, label %166, label %162

; <label>:162:                                    ; preds = %159
  %163 = call dereferenceable(32) %"class.std::__cxx11::basic_string"* @_ZNSt7__cxx1112basic_stringIcSt11char_traitsIcESaIcEE6appendEPKc(%"class.std::__cxx11::basic_string"* nonnull %10, i8* getelementptr inbounds ([2 x i8], [2 x i8]* @.str, i64 0, i64 0))
  %164 = call i8* @_Z12HENTRY_DATA2PK6hentry(%struct.hentry* nonnull %128)
  %165 = call dereferenceable(32) %"class.std::__cxx11::basic_string"* @_ZNSt7__cxx1112basic_stringIcSt11char_traitsIcESaIcEE6appendEPKc(%"class.std::__cxx11::basic_string"* nonnull %10, i8* %164)
  br label %166

; <label>:166:                                    ; preds = %159, %156, %162
  %167 = call i8* @_ZN8SfxEntry8getMorphEv(%class.SfxEntry* %28)
  %168 = icmp eq i8* %167, null
  br i1 %168, label %173, label %169

; <label>:169:                                    ; preds = %166
  %170 = call dereferenceable(32) %"class.std::__cxx11::basic_string"* @_ZNSt7__cxx1112basic_stringIcSt11char_traitsIcESaIcEE6appendEPKc(%"class.std::__cxx11::basic_string"* nonnull %10, i8* getelementptr inbounds ([2 x i8], [2 x i8]* @.str, i64 0, i64 0))
  %171 = call i8* @_ZN8SfxEntry8getMorphEv(%class.SfxEntry* %28)
  %172 = call dereferenceable(32) %"class.std::__cxx11::basic_string"* @_ZNSt7__cxx1112basic_stringIcSt11char_traitsIcESaIcEE6appendEPKc(%"class.std::__cxx11::basic_string"* nonnull %10, i8* %171)
  br label %176

; <label>:173:                                    ; preds = %166
  %174 = call zeroext i16 @_ZN8SfxEntry7getFlagEv(%class.SfxEntry* %28)
  %175 = call dereferenceable(32) %"class.std::__cxx11::basic_string"* @_ZN8AffixMgr9debugflagERNSt7__cxx1112basic_stringIcSt11char_traitsIcESaIcEEEt(%class.AffixMgr* nonnull %1, %"class.std::__cxx11::basic_string"* nonnull dereferenceable(32) %10, i16 zeroext %174)
  br label %176

; <label>:176:                                    ; preds = %173, %169
  %177 = call dereferenceable(32) %"class.std::__cxx11::basic_string"* @_ZNSt7__cxx1112basic_stringIcSt11char_traitsIcESaIcEE6appendEPKc(%"class.std::__cxx11::basic_string"* nonnull %10, i8* getelementptr inbounds ([2 x i8], [2 x i8]* @.str.3, i64 0, i64 0))
  %178 = call %struct.hentry* @_ZN8SfxEntry16get_next_homonymEP6hentryiP8PfxEntrytt(%class.SfxEntry* %28, %struct.hentry* nonnull %128, i32 %4, %class.PfxEntry* %5, i16 zeroext %6, i16 zeroext %7)
  %179 = icmp eq %struct.hentry* %178, null
  br i1 %179, label %180, label %127

; <label>:180:                                    ; preds = %176, %33, %36, %39, %70, %71, %74, %81, %84, %95, %113, %117, %124, %29
  %181 = call %class.SfxEntry* @_ZN8SfxEntry7getNextEv(%class.SfxEntry* %28)
  %182 = icmp eq %class.SfxEntry* %181, null
  br i1 %182, label %183, label %27

; <label>:183:                                    ; preds = %180, %9
  %184 = icmp eq i32 %3, 0
  br i1 %184, label %185, label %186

; <label>:185:                                    ; preds = %183
  call void @_ZNSt7__cxx1112basic_stringIcSt11char_traitsIcESaIcEEC2Ev(%"class.std::__cxx11::basic_string"* %0) #18
  br label %356

; <label>:186:                                    ; preds = %183
  %187 = sext i32 %3 to i64
  %188 = getelementptr inbounds i8, i8* %2, i64 %187
  %189 = getelementptr inbounds i8, i8* %188, i64 -1
  %190 = load i8, i8* %189, align 1
  %191 = zext i8 %190 to i64
  %192 = getelementptr inbounds %class.AffixMgr, %class.AffixMgr* %1, i64 0, i32 1, i64 %191
  %193 = load %class.SfxEntry*, %class.SfxEntry** %192, align 8
  %194 = icmp eq %class.SfxEntry* %193, null
  br i1 %194, label %355, label %195

; <label>:195:                                    ; preds = %186
  %196 = icmp eq i8 %8, 1
  %197 = getelementptr inbounds %class.AffixMgr, %class.AffixMgr* %1, i64 0, i32 79
  %198 = getelementptr inbounds %class.AffixMgr, %class.AffixMgr* %1, i64 0, i32 18
  %199 = icmp eq %class.PfxEntry* %5, null
  %200 = getelementptr inbounds %class.AffixMgr, %class.AffixMgr* %1, i64 0, i32 11
  %201 = icmp eq i8 %8, 0
  %202 = icmp ne %class.PfxEntry* %5, null
  %203 = icmp eq i16 %6, 0
  %204 = getelementptr inbounds %class.AffixMgr, %class.AffixMgr* %1, i64 0, i32 80
  %205 = getelementptr inbounds %class.AffixMgr, %class.AffixMgr* %1, i64 0, i32 29
  br label %206

; <label>:206:                                    ; preds = %195, %352
  %207 = phi %class.SfxEntry* [ %193, %195 ], [ %353, %352 ]
  %208 = call i8* @_ZN8SfxEntry6getKeyEv(%class.SfxEntry* nonnull %207)
  %209 = call i32 @_ZN8AffixMgr11isRevSubsetEPKcS1_i(%class.AffixMgr* %1, i8* %208, i8* nonnull %189, i32 %3)
  %210 = icmp eq i32 %209, 0
  br i1 %210, label %350, label %211

; <label>:211:                                    ; preds = %206
  br i1 %196, label %212, label %225

; <label>:212:                                    ; preds = %211
  %213 = call i16* @_ZN8SfxEntry7getContEv(%class.SfxEntry* nonnull %207)
  %214 = icmp eq i16* %213, null
  br i1 %214, label %348, label %215

; <label>:215:                                    ; preds = %212
  %216 = load i16, i16* %198, align 4
  %217 = icmp eq i16 %216, 0
  br i1 %217, label %348, label %218

; <label>:218:                                    ; preds = %215
  %219 = call i16* @_ZN8SfxEntry7getContEv(%class.SfxEntry* nonnull %207)
  %220 = call i16* @_ZN8SfxEntry7getContEv(%class.SfxEntry* nonnull %207)
  %221 = call signext i16 @_ZN8SfxEntry10getContLenEv(%class.SfxEntry* nonnull %207)
  %222 = sext i16 %221 to i64
  %223 = getelementptr inbounds i16, i16* %220, i64 %222
  %224 = call zeroext i1 @_ZSt13binary_searchIPKttEbT_S2_RKT0_(i16* %219, i16* %223, i16* nonnull dereferenceable(2) %198)
  br i1 %224, label %225, label %348

; <label>:225:                                    ; preds = %211, %218
  %226 = load i16, i16* %197, align 2
  %227 = icmp eq i16 %226, 0
  br i1 %227, label %270, label %228

; <label>:228:                                    ; preds = %225
  br i1 %202, label %229, label %239

; <label>:229:                                    ; preds = %228
  %230 = call i16* @_ZN8PfxEntry7getContEv(%class.PfxEntry* nonnull %5)
  %231 = icmp eq i16* %230, null
  br i1 %231, label %239, label %232

; <label>:232:                                    ; preds = %229
  %233 = call i16* @_ZN8PfxEntry7getContEv(%class.PfxEntry* nonnull %5)
  %234 = call i16* @_ZN8PfxEntry7getContEv(%class.PfxEntry* nonnull %5)
  %235 = call signext i16 @_ZN8PfxEntry10getContLenEv(%class.PfxEntry* nonnull %5)
  %236 = sext i16 %235 to i64
  %237 = getelementptr inbounds i16, i16* %234, i64 %236
  %238 = call zeroext i1 @_ZSt13binary_searchIPKttEbT_S2_RKT0_(i16* %233, i16* %237, i16* nonnull dereferenceable(2) %197)
  br i1 %238, label %250, label %239

; <label>:239:                                    ; preds = %229, %232, %228
  %240 = call i16* @_ZN8SfxEntry7getContEv(%class.SfxEntry* nonnull %207)
  %241 = icmp eq i16* %240, null
  br i1 %241, label %270, label %242

; <label>:242:                                    ; preds = %239
  %243 = call i16* @_ZN8SfxEntry7getContEv(%class.SfxEntry* nonnull %207)
  %244 = call i16* @_ZN8SfxEntry7getContEv(%class.SfxEntry* nonnull %207)
  %245 = call signext i16 @_ZN8SfxEntry10getContLenEv(%class.SfxEntry* nonnull %207)
  %246 = sext i16 %245 to i64
  %247 = getelementptr inbounds i16, i16* %244, i64 %246
  %248 = call zeroext i1 @_ZSt13binary_searchIPKttEbT_S2_RKT0_(i16* %243, i16* %247, i16* nonnull dereferenceable(2) %197)
  br i1 %248, label %249, label %270

; <label>:249:                                    ; preds = %242
  br i1 %202, label %250, label %348

; <label>:250:                                    ; preds = %232, %249
  %251 = call i16* @_ZN8PfxEntry7getContEv(%class.PfxEntry* nonnull %5)
  %252 = icmp eq i16* %251, null
  br i1 %252, label %348, label %253

; <label>:253:                                    ; preds = %250
  %254 = call i16* @_ZN8PfxEntry7getContEv(%class.PfxEntry* nonnull %5)
  %255 = call i16* @_ZN8PfxEntry7getContEv(%class.PfxEntry* nonnull %5)
  %256 = call signext i16 @_ZN8PfxEntry10getContLenEv(%class.PfxEntry* nonnull %5)
  %257 = sext i16 %256 to i64
  %258 = getelementptr inbounds i16, i16* %255, i64 %257
  %259 = call zeroext i1 @_ZSt13binary_searchIPKttEbT_S2_RKT0_(i16* %254, i16* %258, i16* nonnull dereferenceable(2) %197)
  br i1 %259, label %260, label %348

; <label>:260:                                    ; preds = %253
  %261 = call i16* @_ZN8SfxEntry7getContEv(%class.SfxEntry* nonnull %207)
  %262 = icmp eq i16* %261, null
  br i1 %262, label %348, label %263

; <label>:263:                                    ; preds = %260
  %264 = call i16* @_ZN8SfxEntry7getContEv(%class.SfxEntry* nonnull %207)
  %265 = call i16* @_ZN8SfxEntry7getContEv(%class.SfxEntry* nonnull %207)
  %266 = call signext i16 @_ZN8SfxEntry10getContLenEv(%class.SfxEntry* nonnull %207)
  %267 = sext i16 %266 to i64
  %268 = getelementptr inbounds i16, i16* %265, i64 %267
  %269 = call zeroext i1 @_ZSt13binary_searchIPKttEbT_S2_RKT0_(i16* %264, i16* %268, i16* nonnull dereferenceable(2) %197)
  br i1 %269, label %270, label %348

; <label>:270:                                    ; preds = %239, %225, %263, %242
  br i1 %201, label %271, label %281

; <label>:271:                                    ; preds = %270
  %272 = call i16* @_ZN8SfxEntry7getContEv(%class.SfxEntry* nonnull %207)
  %273 = icmp eq i16* %272, null
  br i1 %273, label %281, label %274

; <label>:274:                                    ; preds = %271
  %275 = call i16* @_ZN8SfxEntry7getContEv(%class.SfxEntry* nonnull %207)
  %276 = call i16* @_ZN8SfxEntry7getContEv(%class.SfxEntry* nonnull %207)
  %277 = call signext i16 @_ZN8SfxEntry10getContLenEv(%class.SfxEntry* nonnull %207)
  %278 = sext i16 %277 to i64
  %279 = getelementptr inbounds i16, i16* %276, i64 %278
  %280 = call zeroext i1 @_ZSt13binary_searchIPKttEbT_S2_RKT0_(i16* %275, i16* %279, i16* nonnull dereferenceable(2) %204)
  br i1 %280, label %348, label %281

; <label>:281:                                    ; preds = %271, %270, %274
  br i1 %203, label %282, label %292

; <label>:282:                                    ; preds = %281
  %283 = call i16* @_ZN8SfxEntry7getContEv(%class.SfxEntry* nonnull %207)
  %284 = icmp eq i16* %283, null
  br i1 %284, label %292, label %285

; <label>:285:                                    ; preds = %282
  %286 = call i16* @_ZN8SfxEntry7getContEv(%class.SfxEntry* nonnull %207)
  %287 = call i16* @_ZN8SfxEntry7getContEv(%class.SfxEntry* nonnull %207)
  %288 = call signext i16 @_ZN8SfxEntry10getContLenEv(%class.SfxEntry* nonnull %207)
  %289 = sext i16 %288 to i64
  %290 = getelementptr inbounds i16, i16* %287, i64 %289
  %291 = call zeroext i1 @_ZSt13binary_searchIPKttEbT_S2_RKT0_(i16* %286, i16* %290, i16* nonnull dereferenceable(2) %205)
  br i1 %291, label %348, label %292

; <label>:292:                                    ; preds = %285, %281, %282
  %293 = call %struct.hentry* @_ZN8SfxEntry9checkwordEPKciiP8PfxEntryttt(%class.SfxEntry* nonnull %207, i8* %2, i32 %3, i32 %4, %class.PfxEntry* %5, i16 zeroext %6, i16 zeroext %7, i16 zeroext 0)
  %294 = icmp eq %struct.hentry* %293, null
  br i1 %294, label %348, label %295

; <label>:295:                                    ; preds = %292, %344
  %296 = phi %struct.hentry* [ %346, %344 ], [ %293, %292 ]
  br i1 %199, label %307, label %297

; <label>:297:                                    ; preds = %295
  %298 = call i8* @_ZN8PfxEntry8getMorphEv(%class.PfxEntry* nonnull %5)
  %299 = icmp eq i8* %298, null
  br i1 %299, label %304, label %300

; <label>:300:                                    ; preds = %297
  %301 = call i8* @_ZN8PfxEntry8getMorphEv(%class.PfxEntry* nonnull %5)
  %302 = call dereferenceable(32) %"class.std::__cxx11::basic_string"* @_ZNSt7__cxx1112basic_stringIcSt11char_traitsIcESaIcEE6appendEPKc(%"class.std::__cxx11::basic_string"* nonnull %10, i8* %301)
  %303 = call dereferenceable(32) %"class.std::__cxx11::basic_string"* @_ZNSt7__cxx1112basic_stringIcSt11char_traitsIcESaIcEE6appendEPKc(%"class.std::__cxx11::basic_string"* nonnull %10, i8* getelementptr inbounds ([2 x i8], [2 x i8]* @.str, i64 0, i64 0))
  br label %307

; <label>:304:                                    ; preds = %297
  %305 = call zeroext i16 @_ZN8PfxEntry7getFlagEv(%class.PfxEntry* nonnull %5)
  %306 = call dereferenceable(32) %"class.std::__cxx11::basic_string"* @_ZN8AffixMgr9debugflagERNSt7__cxx1112basic_stringIcSt11char_traitsIcESaIcEEEt(%class.AffixMgr* nonnull %1, %"class.std::__cxx11::basic_string"* nonnull dereferenceable(32) %10, i16 zeroext %305)
  br label %307

; <label>:307:                                    ; preds = %295, %300, %304
  %308 = load i32, i32* %200, align 4
  %309 = icmp eq i32 %308, 0
  br i1 %309, label %316, label %310

; <label>:310:                                    ; preds = %307
  %311 = call i8* @_Z11HENTRY_DATAP6hentry(%struct.hentry* nonnull %296)
  %312 = icmp eq i8* %311, null
  br i1 %312, label %316, label %313

; <label>:313:                                    ; preds = %310
  %314 = call i8* @_Z12HENTRY_DATA2PK6hentry(%struct.hentry* nonnull %296)
  %315 = call dereferenceable(32) %"class.std::__cxx11::basic_string"* @_ZNSt7__cxx1112basic_stringIcSt11char_traitsIcESaIcEE6appendEPKc(%"class.std::__cxx11::basic_string"* nonnull %10, i8* %314)
  br label %316

; <label>:316:                                    ; preds = %310, %307, %313
  %317 = call i8* @_Z11HENTRY_FINDP6hentryPKc(%struct.hentry* nonnull %296, i8* getelementptr inbounds ([4 x i8], [4 x i8]* @.str.1, i64 0, i64 0))
  %318 = icmp eq i8* %317, null
  br i1 %318, label %319, label %324

; <label>:319:                                    ; preds = %316
  %320 = call dereferenceable(32) %"class.std::__cxx11::basic_string"* @_ZNSt7__cxx1112basic_stringIcSt11char_traitsIcESaIcEE6appendEPKc(%"class.std::__cxx11::basic_string"* nonnull %10, i8* getelementptr inbounds ([2 x i8], [2 x i8]* @.str, i64 0, i64 0))
  %321 = call dereferenceable(32) %"class.std::__cxx11::basic_string"* @_ZNSt7__cxx1112basic_stringIcSt11char_traitsIcESaIcEE6appendEPKc(%"class.std::__cxx11::basic_string"* nonnull %10, i8* getelementptr inbounds ([4 x i8], [4 x i8]* @.str.1, i64 0, i64 0))
  %322 = getelementptr inbounds %struct.hentry, %struct.hentry* %296, i64 0, i32 7, i64 0
  %323 = call dereferenceable(32) %"class.std::__cxx11::basic_string"* @_ZNSt7__cxx1112basic_stringIcSt11char_traitsIcESaIcEE6appendEPKc(%"class.std::__cxx11::basic_string"* nonnull %10, i8* nonnull %322)
  br label %324

; <label>:324:                                    ; preds = %316, %319
  %325 = load i32, i32* %200, align 4
  %326 = icmp eq i32 %325, 0
  br i1 %326, label %327, label %334

; <label>:327:                                    ; preds = %324
  %328 = call i8* @_Z11HENTRY_DATAP6hentry(%struct.hentry* nonnull %296)
  %329 = icmp eq i8* %328, null
  br i1 %329, label %334, label %330

; <label>:330:                                    ; preds = %327
  %331 = call dereferenceable(32) %"class.std::__cxx11::basic_string"* @_ZNSt7__cxx1112basic_stringIcSt11char_traitsIcESaIcEE6appendEPKc(%"class.std::__cxx11::basic_string"* nonnull %10, i8* getelementptr inbounds ([2 x i8], [2 x i8]* @.str, i64 0, i64 0))
  %332 = call i8* @_Z12HENTRY_DATA2PK6hentry(%struct.hentry* nonnull %296)
  %333 = call dereferenceable(32) %"class.std::__cxx11::basic_string"* @_ZNSt7__cxx1112basic_stringIcSt11char_traitsIcESaIcEE6appendEPKc(%"class.std::__cxx11::basic_string"* nonnull %10, i8* %332)
  br label %334

; <label>:334:                                    ; preds = %327, %324, %330
  %335 = call i8* @_ZN8SfxEntry8getMorphEv(%class.SfxEntry* %207)
  %336 = icmp eq i8* %335, null
  br i1 %336, label %341, label %337

; <label>:337:                                    ; preds = %334
  %338 = call dereferenceable(32) %"class.std::__cxx11::basic_string"* @_ZNSt7__cxx1112basic_stringIcSt11char_traitsIcESaIcEE6appendEPKc(%"class.std::__cxx11::basic_string"* nonnull %10, i8* getelementptr inbounds ([2 x i8], [2 x i8]* @.str, i64 0, i64 0))
  %339 = call i8* @_ZN8SfxEntry8getMorphEv(%class.SfxEntry* %207)
  %340 = call dereferenceable(32) %"class.std::__cxx11::basic_string"* @_ZNSt7__cxx1112basic_stringIcSt11char_traitsIcESaIcEE6appendEPKc(%"class.std::__cxx11::basic_string"* nonnull %10, i8* %339)
  br label %344

; <label>:341:                                    ; preds = %334
  %342 = call zeroext i16 @_ZN8SfxEntry7getFlagEv(%class.SfxEntry* %207)
  %343 = call dereferenceable(32) %"class.std::__cxx11::basic_string"* @_ZN8AffixMgr9debugflagERNSt7__cxx1112basic_stringIcSt11char_traitsIcESaIcEEEt(%class.AffixMgr* nonnull %1, %"class.std::__cxx11::basic_string"* nonnull dereferenceable(32) %10, i16 zeroext %342)
  br label %344

; <label>:344:                                    ; preds = %341, %337
  %345 = call dereferenceable(32) %"class.std::__cxx11::basic_string"* @_ZNSt7__cxx1112basic_stringIcSt11char_traitsIcESaIcEE6appendEPKc(%"class.std::__cxx11::basic_string"* nonnull %10, i8* getelementptr inbounds ([2 x i8], [2 x i8]* @.str.3, i64 0, i64 0))
  %346 = call %struct.hentry* @_ZN8SfxEntry16get_next_homonymEP6hentryiP8PfxEntrytt(%class.SfxEntry* %207, %struct.hentry* nonnull %296, i32 %4, %class.PfxEntry* %5, i16 zeroext %6, i16 zeroext %7)
  %347 = icmp eq %struct.hentry* %346, null
  br i1 %347, label %348, label %295

; <label>:348:                                    ; preds = %344, %212, %215, %218, %249, %250, %253, %260, %263, %274, %285, %292
  %349 = call %class.SfxEntry* @_ZN8SfxEntry9getNextEQEv(%class.SfxEntry* %207)
  br label %352

; <label>:350:                                    ; preds = %206
  %351 = call %class.SfxEntry* @_ZN8SfxEntry9getNextNEEv(%class.SfxEntry* nonnull %207)
  br label %352

; <label>:352:                                    ; preds = %350, %348
  %353 = phi %class.SfxEntry* [ %349, %348 ], [ %351, %350 ]
  %354 = icmp eq %class.SfxEntry* %353, null
  br i1 %354, label %355, label %206

; <label>:355:                                    ; preds = %352, %186
  call void @_ZNSt7__cxx1112basic_stringIcSt11char_traitsIcESaIcEEC2EOS4_(%"class.std::__cxx11::basic_string"* %0, %"class.std::__cxx11::basic_string"* nonnull dereferenceable(32) %10) #18
  br label %356

; <label>:356:                                    ; preds = %355, %185
  call void @_ZNSt7__cxx1112basic_stringIcSt11char_traitsIcESaIcEED2Ev(%"class.std::__cxx11::basic_string"* nonnull %10) #18
  call void @llvm.lifetime.end.p0i8(i64 32, i8* nonnull %11) #18
  ret void
}

; Function Attrs: norecurse nounwind sspstrong uwtable
define available_externally zeroext i1 @_ZNKSt7__cxx1112basic_stringIcSt11char_traitsIcESaIcEE5emptyEv(%"class.std::__cxx11::basic_string"*) local_unnamed_addr #1 align 2 {
  %2 = tail call i64 @_ZNKSt7__cxx1112basic_stringIcSt11char_traitsIcESaIcEE4sizeEv(%"class.std::__cxx11::basic_string"* %0) #18
  %3 = icmp eq i64 %2, 0
  ret i1 %3
}

; Function Attrs: nounwind sspstrong uwtable
define available_externally dereferenceable(32) %"class.std::__cxx11::basic_string"* @_ZNSt7__cxx1112basic_stringIcSt11char_traitsIcESaIcEE6appendERKS4_(%"class.std::__cxx11::basic_string"*, %"class.std::__cxx11::basic_string"* dereferenceable(32)) local_unnamed_addr #0 align 2 {
  %3 = tail call i8* @_ZNKSt7__cxx1112basic_stringIcSt11char_traitsIcESaIcEE7_M_dataEv(%"class.std::__cxx11::basic_string"* nonnull %1)
  %4 = tail call i64 @_ZNKSt7__cxx1112basic_stringIcSt11char_traitsIcESaIcEE4sizeEv(%"class.std::__cxx11::basic_string"* nonnull %1) #18
  %5 = tail call dereferenceable(32) %"class.std::__cxx11::basic_string"* @_ZNSt7__cxx1112basic_stringIcSt11char_traitsIcESaIcEE9_M_appendEPKcm(%"class.std::__cxx11::basic_string"* %0, i8* %3, i64 %4) #18
  ret %"class.std::__cxx11::basic_string"* %5
}

; Function Attrs: nounwind sspstrong uwtable
define hidden void @_ZN8SfxEntryC2EP8AffixMgr(%class.SfxEntry*, %class.AffixMgr*) unnamed_addr #0 align 2 {
  %3 = bitcast %class.SfxEntry* %0 to %class.AffEntry*
  tail call void @_ZN8AffEntryC2Ev(%class.AffEntry* %3)
  %4 = getelementptr inbounds %class.SfxEntry, %class.SfxEntry* %0, i64 0, i32 0, i32 0
  store i32 (...)** bitcast (i8** getelementptr inbounds ({ [4 x i8*] }, { [4 x i8*] }* @_ZTV8SfxEntry, i64 0, inrange i32 0, i64 2) to i32 (...)**), i32 (...)*** %4, align 8
  %5 = getelementptr inbounds %class.SfxEntry, %class.SfxEntry* %0, i64 0, i32 1
  store %class.AffixMgr* %1, %class.AffixMgr** %5, align 8
  %6 = getelementptr inbounds %class.SfxEntry, %class.SfxEntry* %0, i64 0, i32 2
  tail call void @_ZNSt7__cxx1112basic_stringIcSt11char_traitsIcESaIcEEC2Ev(%"class.std::__cxx11::basic_string"* nonnull %6) #18
  %7 = getelementptr inbounds %class.SfxEntry, %class.SfxEntry* %0, i64 0, i32 3
  %8 = bitcast %class.SfxEntry** %7 to i8*
  call void @llvm.memset.p0i8.i64(i8* nonnull align 8 %8, i8 0, i64 56, i1 false)
  ret void
}

; Function Attrs: nounwind sspstrong uwtable
define hidden void @_ZN8SfxEntry3addB5cxx11EPKcm(%"class.std::__cxx11::basic_string"* noalias sret, %class.SfxEntry*, i8*, i64) local_unnamed_addr #0 align 2 {
  tail call void @_ZNSt7__cxx1112basic_stringIcSt11char_traitsIcESaIcEEC2Ev(%"class.std::__cxx11::basic_string"* %0) #18
  %5 = getelementptr inbounds %class.SfxEntry, %class.SfxEntry* %1, i64 0, i32 0, i32 2
  %6 = tail call i64 @_ZNKSt7__cxx1112basic_stringIcSt11char_traitsIcESaIcEE4sizeEv(%"class.std::__cxx11::basic_string"* nonnull %5) #18
  %7 = icmp ult i64 %6, %3
  br i1 %7, label %15, label %8

; <label>:8:                                      ; preds = %4
  %9 = icmp eq i64 %3, 0
  br i1 %9, label %10, label %40

; <label>:10:                                     ; preds = %8
  %11 = getelementptr inbounds %class.SfxEntry, %class.SfxEntry* %1, i64 0, i32 1
  %12 = load %class.AffixMgr*, %class.AffixMgr** %11, align 8
  %13 = tail call i32 @_ZNK8AffixMgr13get_fullstripEv(%class.AffixMgr* %12)
  %14 = icmp eq i32 %13, 0
  br i1 %14, label %40, label %15

; <label>:15:                                     ; preds = %10, %4
  %16 = getelementptr inbounds %class.SfxEntry, %class.SfxEntry* %1, i64 0, i32 0, i32 3
  %17 = load i8, i8* %16, align 8
  %18 = zext i8 %17 to i64
  %19 = icmp ugt i64 %18, %3
  br i1 %19, label %40, label %20

; <label>:20:                                     ; preds = %15
  %21 = getelementptr inbounds i8, i8* %2, i64 %3
  %22 = tail call i32 @_ZN8SfxEntry14test_conditionEPKcS1_(%class.SfxEntry* nonnull %1, i8* %21, i8* %2)
  %23 = icmp eq i32 %22, 0
  br i1 %23, label %40, label %24

; <label>:24:                                     ; preds = %20
  %25 = tail call i64 @_ZNKSt7__cxx1112basic_stringIcSt11char_traitsIcESaIcEE4sizeEv(%"class.std::__cxx11::basic_string"* nonnull %5) #18
  %26 = icmp eq i64 %25, 0
  br i1 %26, label %34, label %27

; <label>:27:                                     ; preds = %24
  %28 = tail call i64 @_ZNKSt7__cxx1112basic_stringIcSt11char_traitsIcESaIcEE4sizeEv(%"class.std::__cxx11::basic_string"* nonnull %5) #18
  %29 = sub i64 0, %28
  %30 = getelementptr inbounds i8, i8* %21, i64 %29
  %31 = tail call i8* @_ZNKSt7__cxx1112basic_stringIcSt11char_traitsIcESaIcEE5c_strEv(%"class.std::__cxx11::basic_string"* nonnull %5) #18
  %32 = tail call i32 @strcmp(i8* %30, i8* %31) #17
  %33 = icmp eq i32 %32, 0
  br i1 %33, label %34, label %40

; <label>:34:                                     ; preds = %24, %27
  %35 = tail call dereferenceable(32) %"class.std::__cxx11::basic_string"* @_ZNSt7__cxx1112basic_stringIcSt11char_traitsIcESaIcEE6assignEPKc(%"class.std::__cxx11::basic_string"* %0, i8* %2)
  %36 = tail call i64 @_ZNKSt7__cxx1112basic_stringIcSt11char_traitsIcESaIcEE4sizeEv(%"class.std::__cxx11::basic_string"* nonnull %5) #18
  %37 = sub i64 %3, %36
  %38 = getelementptr inbounds %class.SfxEntry, %class.SfxEntry* %1, i64 0, i32 0, i32 1
  %39 = tail call dereferenceable(32) %"class.std::__cxx11::basic_string"* @_ZNSt7__cxx1112basic_stringIcSt11char_traitsIcESaIcEE7replaceEmmRKS4_(%"class.std::__cxx11::basic_string"* %0, i64 %37, i64 -1, %"class.std::__cxx11::basic_string"* nonnull dereferenceable(32) %38)
  br label %40

; <label>:40:                                     ; preds = %8, %27, %34, %10, %15, %20
  ret void
}

; Function Attrs: inlinehint norecurse nounwind sspstrong uwtable
define linkonce_odr hidden i32 @_ZN8SfxEntry14test_conditionEPKcS1_(%class.SfxEntry*, i8*, i8*) local_unnamed_addr #3 comdat align 2 {
  %4 = getelementptr inbounds %class.SfxEntry, %class.SfxEntry* %0, i64 0, i32 0, i32 3
  %5 = load i8, i8* %4, align 8
  %6 = icmp eq i8 %5, 0
  br i1 %6, label %215, label %7

; <label>:7:                                      ; preds = %3
  %8 = getelementptr inbounds %class.SfxEntry, %class.SfxEntry* %0, i64 0, i32 0, i32 7, i32 0, i32 0, i64 0
  %9 = getelementptr inbounds i8, i8* %1, i64 -1
  %10 = getelementptr inbounds %class.SfxEntry, %class.SfxEntry* %0, i64 0, i32 0, i32 4
  %11 = getelementptr inbounds %class.SfxEntry, %class.SfxEntry* %0, i64 0, i32 0, i32 4
  %12 = getelementptr inbounds %class.SfxEntry, %class.SfxEntry* %0, i64 0, i32 0, i32 4
  br label %13

; <label>:13:                                     ; preds = %207, %7
  %14 = phi i8* [ %9, %7 ], [ %208, %207 ]
  %15 = phi i8* [ null, %7 ], [ %209, %207 ]
  %16 = phi i8 [ 0, %7 ], [ %210, %207 ]
  %17 = phi i8 [ 0, %7 ], [ %211, %207 ]
  %18 = phi i8* [ %8, %7 ], [ %212, %207 ]
  %19 = phi i32 [ 1, %7 ], [ %213, %207 ]
  %20 = load i8, i8* %18, align 1
  %21 = sext i8 %20 to i32
  switch i32 %21, label %89 [
    i32 0, label %215
    i32 91, label %22
    i32 94, label %24
    i32 93, label %26
    i32 46, label %61
  ]

; <label>:22:                                     ; preds = %13
  %23 = tail call i8* @_ZN8SfxEntry8nextcharEPc(%class.SfxEntry* %0, i8* nonnull %18)
  br label %207

; <label>:24:                                     ; preds = %13
  %25 = tail call i8* @_ZN8SfxEntry8nextcharEPc(%class.SfxEntry* %0, i8* nonnull %18)
  br label %207

; <label>:26:                                     ; preds = %13
  %27 = or i8 %17, %16
  %28 = and i8 %27, 1
  %29 = icmp eq i8 %28, 0
  br i1 %29, label %215, label %30

; <label>:30:                                     ; preds = %26
  %31 = and i8 %17, 1
  %32 = icmp eq i8 %31, 0
  %33 = add nsw i32 %19, 1
  br i1 %32, label %34, label %55

; <label>:34:                                     ; preds = %30
  %35 = load i8, i8* %12, align 1
  %36 = and i8 %35, 2
  %37 = icmp eq i8 %36, 0
  %38 = icmp ult i8* %14, %2
  %39 = or i1 %38, %37
  br i1 %39, label %52, label %40

; <label>:40:                                     ; preds = %34, %45
  %41 = phi i8* [ %46, %45 ], [ %14, %34 ]
  %42 = load i8, i8* %41, align 1
  %43 = and i8 %42, -64
  %44 = icmp eq i8 %43, -128
  br i1 %44, label %45, label %52

; <label>:45:                                     ; preds = %40
  %46 = getelementptr inbounds i8, i8* %41, i64 -1
  %47 = load i8, i8* %12, align 1
  %48 = and i8 %47, 2
  %49 = icmp eq i8 %48, 0
  %50 = icmp ult i8* %46, %2
  %51 = or i1 %50, %49
  br i1 %51, label %52, label %40

; <label>:52:                                     ; preds = %40, %45, %34
  %53 = phi i8* [ %14, %34 ], [ %46, %45 ], [ %41, %40 ]
  %54 = getelementptr inbounds i8, i8* %53, i64 -1
  br label %55

; <label>:55:                                     ; preds = %30, %52
  %56 = phi i8* [ %14, %30 ], [ %54, %52 ]
  %57 = tail call i8* @_ZN8SfxEntry8nextcharEPc(%class.SfxEntry* %0, i8* %18)
  %58 = icmp ult i8* %56, %2
  %59 = icmp ne i8* %57, null
  %60 = and i1 %58, %59
  br i1 %60, label %215, label %207

; <label>:61:                                     ; preds = %13
  %62 = icmp eq i8* %15, null
  br i1 %62, label %63, label %89

; <label>:63:                                     ; preds = %61
  %64 = tail call i8* @_ZN8SfxEntry8nextcharEPc(%class.SfxEntry* %0, i8* nonnull %18)
  %65 = load i8, i8* %11, align 1
  %66 = and i8 %65, 2
  %67 = icmp eq i8 %66, 0
  br label %68

; <label>:68:                                     ; preds = %73, %63
  %69 = phi i8* [ %14, %63 ], [ %70, %73 ]
  %70 = getelementptr inbounds i8, i8* %69, i64 -1
  %71 = icmp ult i8* %70, %2
  %72 = or i1 %71, %67
  br i1 %72, label %77, label %73

; <label>:73:                                     ; preds = %68
  %74 = load i8, i8* %70, align 1
  %75 = and i8 %74, -64
  %76 = icmp eq i8 %75, -128
  br i1 %76, label %68, label %77

; <label>:77:                                     ; preds = %68, %73
  br i1 %71, label %78, label %80

; <label>:78:                                     ; preds = %77
  %79 = icmp eq i8* %64, null
  br label %215

; <label>:80:                                     ; preds = %77
  br i1 %67, label %207, label %81

; <label>:81:                                     ; preds = %80
  %82 = load i8, i8* %70, align 1
  %83 = icmp slt i8 %82, 0
  br i1 %83, label %84, label %207

; <label>:84:                                     ; preds = %81
  %85 = getelementptr inbounds i8, i8* %69, i64 -2
  %86 = icmp ult i8* %85, %2
  br i1 %86, label %87, label %207

; <label>:87:                                     ; preds = %84
  %88 = icmp eq i8* %64, null
  br label %215

; <label>:89:                                     ; preds = %61, %13
  %90 = load i8, i8* %14, align 1
  %91 = icmp eq i8 %90, %20
  br i1 %91, label %92, label %203

; <label>:92:                                     ; preds = %89
  %93 = tail call i8* @_ZN8SfxEntry8nextcharEPc(%class.SfxEntry* %0, i8* nonnull %18)
  %94 = load i8, i8* %10, align 1
  %95 = and i8 %94, 2
  %96 = icmp eq i8 %95, 0
  br i1 %96, label %167, label %97

; <label>:97:                                     ; preds = %92
  %98 = load i8, i8* %14, align 1
  %99 = icmp slt i8 %98, 0
  br i1 %99, label %100, label %167

; <label>:100:                                    ; preds = %97
  %101 = getelementptr inbounds i8, i8* %14, i64 -1
  %102 = icmp ne i8* %93, null
  %103 = xor i1 %102, true
  %104 = icmp ult i8* %101, %2
  %105 = or i1 %104, %103
  br i1 %105, label %126, label %106

; <label>:106:                                    ; preds = %100, %119
  %107 = phi i1 [ %122, %119 ], [ %102, %100 ]
  %108 = phi i8* [ %121, %119 ], [ %101, %100 ]
  %109 = phi i8* [ %120, %119 ], [ %93, %100 ]
  %110 = phi i8* [ %108, %119 ], [ %14, %100 ]
  %111 = load i8, i8* %109, align 1
  %112 = load i8, i8* %108, align 1
  %113 = icmp eq i8 %111, %112
  br i1 %113, label %116, label %114

; <label>:114:                                    ; preds = %106
  %115 = icmp eq i8* %15, null
  br i1 %115, label %215, label %159

; <label>:116:                                    ; preds = %106
  %117 = and i8 %111, -64
  %118 = icmp eq i8 %117, -128
  br i1 %118, label %119, label %126

; <label>:119:                                    ; preds = %116
  %120 = tail call i8* @_ZN8SfxEntry8nextcharEPc(%class.SfxEntry* %0, i8* nonnull %109)
  %121 = getelementptr inbounds i8, i8* %108, i64 -1
  %122 = icmp ne i8* %120, null
  %123 = xor i1 %122, true
  %124 = icmp ult i8* %121, %2
  %125 = or i1 %124, %123
  br i1 %125, label %126, label %106

; <label>:126:                                    ; preds = %116, %119, %100
  %127 = phi i8* [ %14, %100 ], [ %108, %119 ], [ %110, %116 ]
  %128 = phi i8* [ %93, %100 ], [ %120, %119 ], [ %109, %116 ]
  %129 = phi i8* [ %101, %100 ], [ %121, %119 ], [ %108, %116 ]
  %130 = phi i1 [ %102, %100 ], [ %122, %119 ], [ %107, %116 ]
  %131 = icmp eq i8* %15, null
  %132 = icmp eq i8* %129, %15
  %133 = or i1 %131, %132
  br i1 %133, label %152, label %134

; <label>:134:                                    ; preds = %126
  %135 = and i8 %16, 1
  %136 = icmp eq i8 %135, 0
  br i1 %136, label %137, label %215

; <label>:137:                                    ; preds = %134
  %138 = load i8, i8* %4, align 8
  %139 = zext i8 %138 to i32
  %140 = icmp eq i32 %19, %139
  br i1 %140, label %215, label %141

; <label>:141:                                    ; preds = %137
  br i1 %130, label %142, label %149

; <label>:142:                                    ; preds = %141, %146
  %143 = phi i8* [ %147, %146 ], [ %128, %141 ]
  %144 = load i8, i8* %143, align 1
  %145 = icmp eq i8 %144, 93
  br i1 %145, label %149, label %146

; <label>:146:                                    ; preds = %142
  %147 = tail call i8* @_ZN8SfxEntry8nextcharEPc(%class.SfxEntry* %0, i8* nonnull %143)
  %148 = icmp eq i8* %147, null
  br i1 %148, label %149, label %142

; <label>:149:                                    ; preds = %146, %142, %141
  %150 = phi i8* [ null, %141 ], [ %143, %142 ], [ null, %146 ]
  %151 = getelementptr inbounds i8, i8* %127, i64 -2
  br label %152

; <label>:152:                                    ; preds = %126, %149
  %153 = phi i8* [ %151, %149 ], [ %129, %126 ]
  %154 = phi i8 [ 1, %149 ], [ %17, %126 ]
  %155 = phi i8* [ %150, %149 ], [ %128, %126 ]
  %156 = icmp eq i8* %155, null
  br i1 %156, label %188, label %157

; <label>:157:                                    ; preds = %152
  %158 = load i8, i8* %155, align 1
  br label %159

; <label>:159:                                    ; preds = %157, %114
  %160 = phi i8 [ %158, %157 ], [ %111, %114 ]
  %161 = phi i8* [ %155, %157 ], [ %109, %114 ]
  %162 = phi i8 [ %154, %157 ], [ %17, %114 ]
  %163 = phi i8* [ %153, %157 ], [ %15, %114 ]
  %164 = icmp eq i8 %160, 93
  br i1 %164, label %188, label %165

; <label>:165:                                    ; preds = %159
  %166 = tail call i8* @_ZN8SfxEntry8nextcharEPc(%class.SfxEntry* %0, i8* nonnull %161)
  br label %188

; <label>:167:                                    ; preds = %92, %97
  %168 = icmp eq i8* %15, null
  br i1 %168, label %188, label %169

; <label>:169:                                    ; preds = %167
  %170 = and i8 %16, 1
  %171 = icmp eq i8 %170, 0
  br i1 %171, label %172, label %215

; <label>:172:                                    ; preds = %169
  %173 = load i8, i8* %4, align 8
  %174 = zext i8 %173 to i32
  %175 = icmp eq i32 %19, %174
  br i1 %175, label %215, label %176

; <label>:176:                                    ; preds = %172
  %177 = icmp eq i8* %93, null
  br i1 %177, label %185, label %178

; <label>:178:                                    ; preds = %176, %182
  %179 = phi i8* [ %183, %182 ], [ %93, %176 ]
  %180 = load i8, i8* %179, align 1
  %181 = icmp eq i8 %180, 93
  br i1 %181, label %185, label %182

; <label>:182:                                    ; preds = %178
  %183 = tail call i8* @_ZN8SfxEntry8nextcharEPc(%class.SfxEntry* %0, i8* nonnull %179)
  %184 = icmp eq i8* %183, null
  br i1 %184, label %185, label %178

; <label>:185:                                    ; preds = %182, %178, %176
  %186 = phi i8* [ null, %176 ], [ %179, %178 ], [ null, %182 ]
  %187 = getelementptr inbounds i8, i8* %14, i64 -1
  br label %188

; <label>:188:                                    ; preds = %159, %152, %167, %185, %165
  %189 = phi i8* [ %163, %165 ], [ %163, %159 ], [ %153, %152 ], [ %187, %185 ], [ %14, %167 ]
  %190 = phi i8 [ %162, %165 ], [ %162, %159 ], [ %154, %152 ], [ 1, %185 ], [ %17, %167 ]
  %191 = phi i8* [ %166, %165 ], [ %161, %159 ], [ null, %152 ], [ %186, %185 ], [ %93, %167 ]
  %192 = icmp eq i8* %15, null
  %193 = getelementptr inbounds i8, i8* %189, i64 -1
  %194 = select i1 %192, i8* %193, i8* %189
  %195 = zext i1 %192 to i32
  %196 = add nsw i32 %19, %195
  %197 = icmp ult i8* %194, %2
  %198 = icmp ne i8* %191, null
  %199 = and i1 %197, %198
  br i1 %199, label %200, label %207

; <label>:200:                                    ; preds = %188
  %201 = load i8, i8* %191, align 1
  %202 = icmp eq i8 %201, 93
  br i1 %202, label %207, label %215

; <label>:203:                                    ; preds = %89
  %204 = icmp eq i8* %15, null
  br i1 %204, label %215, label %205

; <label>:205:                                    ; preds = %203
  %206 = tail call i8* @_ZN8SfxEntry8nextcharEPc(%class.SfxEntry* %0, i8* nonnull %18)
  br label %207

; <label>:207:                                    ; preds = %200, %80, %205, %188, %81, %84, %55, %24, %22
  %208 = phi i8* [ %194, %200 ], [ %194, %188 ], [ %14, %205 ], [ %85, %84 ], [ %70, %81 ], [ %70, %80 ], [ %56, %55 ], [ %14, %24 ], [ %14, %22 ]
  %209 = phi i8* [ %15, %200 ], [ %15, %188 ], [ %15, %205 ], [ %15, %84 ], [ %15, %81 ], [ %15, %80 ], [ null, %55 ], [ %15, %24 ], [ %14, %22 ]
  %210 = phi i8 [ %16, %200 ], [ %16, %188 ], [ %16, %205 ], [ %16, %84 ], [ %16, %81 ], [ %16, %80 ], [ 0, %55 ], [ 1, %24 ], [ %16, %22 ]
  %211 = phi i8 [ %190, %200 ], [ %190, %188 ], [ %17, %205 ], [ %17, %84 ], [ %17, %81 ], [ %17, %80 ], [ 0, %55 ], [ %17, %24 ], [ %17, %22 ]
  %212 = phi i8* [ %191, %200 ], [ %191, %188 ], [ %206, %205 ], [ %64, %84 ], [ %64, %81 ], [ %64, %80 ], [ %57, %55 ], [ %25, %24 ], [ %23, %22 ]
  %213 = phi i32 [ %196, %200 ], [ %196, %188 ], [ %19, %205 ], [ %19, %84 ], [ %19, %81 ], [ %19, %80 ], [ %33, %55 ], [ %19, %24 ], [ %19, %22 ]
  %214 = icmp eq i8* %212, null
  br i1 %214, label %215, label %13

; <label>:215:                                    ; preds = %13, %26, %55, %114, %134, %137, %169, %172, %200, %203, %207, %78, %87, %3
  %216 = phi i1 [ true, %3 ], [ %79, %78 ], [ %88, %87 ], [ true, %207 ], [ false, %203 ], [ false, %200 ], [ true, %172 ], [ false, %169 ], [ true, %137 ], [ false, %134 ], [ false, %114 ], [ false, %55 ], [ false, %26 ], [ true, %13 ]
  %217 = zext i1 %216 to i32
  ret i32 %217
}

; Function Attrs: nounwind readonly
declare i32 @strcmp(i8* nocapture, i8* nocapture) local_unnamed_addr #4

; Function Attrs: nounwind sspstrong uwtable
define available_externally dereferenceable(32) %"class.std::__cxx11::basic_string"* @_ZNSt7__cxx1112basic_stringIcSt11char_traitsIcESaIcEE6assignEPKc(%"class.std::__cxx11::basic_string"*, i8*) local_unnamed_addr #0 align 2 {
  %3 = tail call i64 @_ZNKSt7__cxx1112basic_stringIcSt11char_traitsIcESaIcEE4sizeEv(%"class.std::__cxx11::basic_string"* %0) #18
  %4 = tail call i64 @_ZNSt11char_traitsIcE6lengthEPKc(i8* %1)
  %5 = tail call dereferenceable(32) %"class.std::__cxx11::basic_string"* @_ZNSt7__cxx1112basic_stringIcSt11char_traitsIcESaIcEE10_M_replaceEmmPKcm(%"class.std::__cxx11::basic_string"* %0, i64 0, i64 %3, i8* %1, i64 %4) #18
  ret %"class.std::__cxx11::basic_string"* %5
}

; Function Attrs: nounwind sspstrong uwtable
define available_externally dereferenceable(32) %"class.std::__cxx11::basic_string"* @_ZNSt7__cxx1112basic_stringIcSt11char_traitsIcESaIcEE7replaceEmmRKS4_(%"class.std::__cxx11::basic_string"*, i64, i64, %"class.std::__cxx11::basic_string"* dereferenceable(32)) local_unnamed_addr #0 align 2 {
  %5 = tail call i8* @_ZNKSt7__cxx1112basic_stringIcSt11char_traitsIcESaIcEE7_M_dataEv(%"class.std::__cxx11::basic_string"* nonnull %3)
  %6 = tail call i64 @_ZNKSt7__cxx1112basic_stringIcSt11char_traitsIcESaIcEE4sizeEv(%"class.std::__cxx11::basic_string"* nonnull %3) #18
  %7 = tail call dereferenceable(32) %"class.std::__cxx11::basic_string"* @_ZNSt7__cxx1112basic_stringIcSt11char_traitsIcESaIcEE7replaceEmmPKcm(%"class.std::__cxx11::basic_string"* %0, i64 %1, i64 %2, i8* %5, i64 %6)
  ret %"class.std::__cxx11::basic_string"* %7
}

; Function Attrs: nounwind sspstrong uwtable
define hidden %struct.hentry* @_ZN8SfxEntry9checkwordEPKciiP8PfxEntryttt(%class.SfxEntry*, i8*, i32, i32, %class.PfxEntry*, i16 zeroext, i16 zeroext, i16 zeroext) local_unnamed_addr #0 align 2 {
  %9 = alloca i16, align 2
  %10 = alloca i16, align 2
  %11 = alloca i16, align 2
  %12 = alloca %"class.std::__cxx11::basic_string", align 8
  %13 = alloca %"class.std::allocator", align 1
  %14 = alloca i16, align 2
  %15 = alloca i16, align 2
  store i16 %5, i16* %9, align 2
  store i16 %6, i16* %10, align 2
  store i16 %7, i16* %11, align 2
  %16 = and i32 %3, 1
  %17 = icmp eq i32 %16, 0
  br i1 %17, label %23, label %18

; <label>:18:                                     ; preds = %8
  %19 = getelementptr inbounds %class.SfxEntry, %class.SfxEntry* %0, i64 0, i32 0, i32 4
  %20 = load i8, i8* %19, align 1
  %21 = and i8 %20, 1
  %22 = icmp eq i8 %21, 0
  br i1 %22, label %175, label %23

; <label>:23:                                     ; preds = %8, %18
  %24 = getelementptr inbounds %class.SfxEntry, %class.SfxEntry* %0, i64 0, i32 0, i32 1
  %25 = tail call i64 @_ZNKSt7__cxx1112basic_stringIcSt11char_traitsIcESaIcEE4sizeEv(%"class.std::__cxx11::basic_string"* nonnull %24) #18
  %26 = trunc i64 %25 to i32
  %27 = sub i32 %2, %26
  %28 = icmp sgt i32 %27, 0
  br i1 %28, label %36, label %29

; <label>:29:                                     ; preds = %23
  %30 = icmp eq i32 %27, 0
  br i1 %30, label %31, label %175

; <label>:31:                                     ; preds = %29
  %32 = getelementptr inbounds %class.SfxEntry, %class.SfxEntry* %0, i64 0, i32 1
  %33 = load %class.AffixMgr*, %class.AffixMgr** %32, align 8
  %34 = tail call i32 @_ZNK8AffixMgr13get_fullstripEv(%class.AffixMgr* %33)
  %35 = icmp eq i32 %34, 0
  br i1 %35, label %175, label %36

; <label>:36:                                     ; preds = %31, %23
  %37 = sext i32 %27 to i64
  %38 = getelementptr inbounds %class.SfxEntry, %class.SfxEntry* %0, i64 0, i32 0, i32 2
  %39 = tail call i64 @_ZNKSt7__cxx1112basic_stringIcSt11char_traitsIcESaIcEE4sizeEv(%"class.std::__cxx11::basic_string"* nonnull %38) #18
  %40 = add i64 %39, %37
  %41 = getelementptr inbounds %class.SfxEntry, %class.SfxEntry* %0, i64 0, i32 0, i32 3
  %42 = load i8, i8* %41, align 8
  %43 = zext i8 %42 to i64
  %44 = icmp ult i64 %40, %43
  br i1 %44, label %175, label %45

; <label>:45:                                     ; preds = %36
  %46 = bitcast %"class.std::__cxx11::basic_string"* %12 to i8*
  call void @llvm.lifetime.start.p0i8(i64 32, i8* nonnull %46) #18
  %47 = getelementptr inbounds %"class.std::allocator", %"class.std::allocator"* %13, i64 0, i32 0
  call void @llvm.lifetime.start.p0i8(i64 1, i8* nonnull %47) #18
  call void @_ZNSaIcEC2Ev(%"class.std::allocator"* nonnull %13) #18
  call void @_ZNSt7__cxx1112basic_stringIcSt11char_traitsIcESaIcEEC2EPKcmRKS3_(%"class.std::__cxx11::basic_string"* nonnull %12, i8* %1, i64 %37, %"class.std::allocator"* nonnull dereferenceable(1) %13)
  call void @_ZNSaIcED2Ev(%"class.std::allocator"* nonnull %13) #18
  call void @llvm.lifetime.end.p0i8(i64 1, i8* nonnull %47) #18
  %48 = call i64 @_ZNKSt7__cxx1112basic_stringIcSt11char_traitsIcESaIcEE4sizeEv(%"class.std::__cxx11::basic_string"* nonnull %38) #18
  %49 = icmp eq i64 %48, 0
  br i1 %49, label %52, label %50

; <label>:50:                                     ; preds = %45
  %51 = call dereferenceable(32) %"class.std::__cxx11::basic_string"* @_ZNSt7__cxx1112basic_stringIcSt11char_traitsIcESaIcEE6appendERKS4_(%"class.std::__cxx11::basic_string"* nonnull %12, %"class.std::__cxx11::basic_string"* nonnull dereferenceable(32) %38)
  br label %52

; <label>:52:                                     ; preds = %45, %50
  %53 = call i8* @_ZNKSt7__cxx1112basic_stringIcSt11char_traitsIcESaIcEE5c_strEv(%"class.std::__cxx11::basic_string"* nonnull %12) #18
  %54 = call i64 @_ZNKSt7__cxx1112basic_stringIcSt11char_traitsIcESaIcEE4sizeEv(%"class.std::__cxx11::basic_string"* nonnull %12) #18
  %55 = getelementptr inbounds i8, i8* %53, i64 %54
  %56 = call i32 @_ZN8SfxEntry14test_conditionEPKcS1_(%class.SfxEntry* nonnull %0, i8* %55, i8* %53)
  %57 = icmp eq i32 %56, 0
  br i1 %57, label %173, label %58

; <label>:58:                                     ; preds = %52
  %59 = getelementptr inbounds %class.SfxEntry, %class.SfxEntry* %0, i64 0, i32 1
  %60 = load %class.AffixMgr*, %class.AffixMgr** %59, align 8
  %61 = call %struct.hentry* @_ZN8AffixMgr6lookupEPKc(%class.AffixMgr* %60, i8* %53)
  %62 = icmp eq %struct.hentry* %61, null
  br i1 %62, label %173, label %63

; <label>:63:                                     ; preds = %58
  %64 = getelementptr inbounds %class.SfxEntry, %class.SfxEntry* %0, i64 0, i32 0, i32 5
  %65 = icmp eq %class.PfxEntry* %4, null
  %66 = icmp ne %class.PfxEntry* %4, null
  %67 = bitcast i16* %15 to i8*
  %68 = bitcast i16* %14 to i8*
  %69 = getelementptr inbounds %class.SfxEntry, %class.SfxEntry* %0, i64 0, i32 0, i32 9
  %70 = bitcast i16* %14 to i8*
  %71 = getelementptr inbounds %class.SfxEntry, %class.SfxEntry* %0, i64 0, i32 0, i32 10
  %72 = getelementptr inbounds %class.SfxEntry, %class.SfxEntry* %0, i64 0, i32 0, i32 9
  %73 = getelementptr inbounds %class.SfxEntry, %class.SfxEntry* %0, i64 0, i32 0, i32 10
  %74 = bitcast i16* %15 to i8*
  %75 = bitcast i16* %14 to i8*
  %76 = getelementptr inbounds %class.SfxEntry, %class.SfxEntry* %0, i64 0, i32 0, i32 9
  %77 = bitcast i16* %15 to i8*
  %78 = getelementptr inbounds %class.SfxEntry, %class.SfxEntry* %0, i64 0, i32 0, i32 10
  br label %79

; <label>:79:                                     ; preds = %63, %169
  %80 = phi %struct.hentry* [ %171, %169 ], [ %61, %63 ]
  %81 = getelementptr inbounds %struct.hentry, %struct.hentry* %80, i64 0, i32 3
  %82 = load i16*, i16** %81, align 8
  %83 = getelementptr inbounds %struct.hentry, %struct.hentry* %80, i64 0, i32 2
  %84 = load i16, i16* %83, align 2
  %85 = sext i16 %84 to i64
  %86 = getelementptr inbounds i16, i16* %82, i64 %85
  %87 = call zeroext i1 @_ZSt13binary_searchIPttEbT_S1_RKT0_(i16* %82, i16* %86, i16* nonnull dereferenceable(2) %64)
  br i1 %87, label %99, label %88

; <label>:88:                                     ; preds = %79
  br i1 %65, label %169, label %89

; <label>:89:                                     ; preds = %88
  %90 = call i16* @_ZN8PfxEntry7getContEv(%class.PfxEntry* nonnull %4)
  %91 = icmp eq i16* %90, null
  br i1 %91, label %169, label %92

; <label>:92:                                     ; preds = %89
  %93 = call i16* @_ZN8PfxEntry7getContEv(%class.PfxEntry* nonnull %4)
  %94 = call i16* @_ZN8PfxEntry7getContEv(%class.PfxEntry* nonnull %4)
  %95 = call signext i16 @_ZN8PfxEntry10getContLenEv(%class.PfxEntry* nonnull %4)
  %96 = sext i16 %95 to i64
  %97 = getelementptr inbounds i16, i16* %94, i64 %96
  %98 = call zeroext i1 @_ZSt13binary_searchIPKttEbT_S2_RKT0_(i16* %93, i16* %97, i16* nonnull dereferenceable(2) %64)
  br i1 %98, label %99, label %169

; <label>:99:                                     ; preds = %92, %79
  br i1 %17, label %119, label %100

; <label>:100:                                    ; preds = %99
  br i1 %66, label %101, label %169

; <label>:101:                                    ; preds = %100
  %102 = load i16*, i16** %81, align 8
  %103 = load i16, i16* %83, align 2
  %104 = sext i16 %103 to i64
  %105 = getelementptr inbounds i16, i16* %102, i64 %104
  call void @llvm.lifetime.start.p0i8(i64 2, i8* nonnull %70) #18
  %106 = call zeroext i16 @_ZN8PfxEntry7getFlagEv(%class.PfxEntry* nonnull %4)
  store i16 %106, i16* %14, align 2
  %107 = call zeroext i1 @_ZSt13binary_searchIPttEbT_S1_RKT0_(i16* %102, i16* %105, i16* nonnull dereferenceable(2) %14)
  br i1 %107, label %119, label %108

; <label>:108:                                    ; preds = %101
  %109 = load i16*, i16** %72, align 8
  %110 = icmp ne i16* %109, null
  %111 = and i1 %66, %110
  br i1 %111, label %112, label %164

; <label>:112:                                    ; preds = %108
  %113 = load i16, i16* %73, align 8
  %114 = sext i16 %113 to i64
  %115 = getelementptr inbounds i16, i16* %109, i64 %114
  call void @llvm.lifetime.start.p0i8(i64 2, i8* nonnull %74) #18
  %116 = call zeroext i16 @_ZN8PfxEntry7getFlagEv(%class.PfxEntry* nonnull %4)
  store i16 %116, i16* %15, align 2
  %117 = call zeroext i1 @_ZSt13binary_searchIPttEbT_S1_RKT0_(i16* nonnull %109, i16* %115, i16* nonnull dereferenceable(2) %15)
  br i1 %117, label %119, label %118

; <label>:118:                                    ; preds = %112
  call void @llvm.lifetime.end.p0i8(i64 2, i8* nonnull %77) #18
  br label %164

; <label>:119:                                    ; preds = %112, %101, %99
  %120 = phi i1 [ false, %99 ], [ true, %101 ], [ true, %112 ]
  %121 = phi i1 [ false, %99 ], [ false, %101 ], [ true, %112 ]
  %122 = load i16, i16* %9, align 2
  %123 = icmp eq i16 %122, 0
  br i1 %123, label %132, label %124

; <label>:124:                                    ; preds = %119
  %125 = load i16*, i16** %69, align 8
  %126 = icmp eq i16* %125, null
  br i1 %126, label %158, label %127

; <label>:127:                                    ; preds = %124
  %128 = load i16, i16* %71, align 8
  %129 = sext i16 %128 to i64
  %130 = getelementptr inbounds i16, i16* %125, i64 %129
  %131 = call zeroext i1 @_ZSt13binary_searchIPttEbT_S1_RKT0_(i16* nonnull %125, i16* nonnull %130, i16* nonnull dereferenceable(2) %9)
  br i1 %131, label %132, label %158

; <label>:132:                                    ; preds = %119, %127
  %133 = load i16, i16* %11, align 2
  %134 = icmp eq i16 %133, 0
  br i1 %134, label %141, label %135

; <label>:135:                                    ; preds = %132
  %136 = load i16*, i16** %81, align 8
  %137 = load i16, i16* %83, align 2
  %138 = sext i16 %137 to i64
  %139 = getelementptr inbounds i16, i16* %136, i64 %138
  %140 = call zeroext i1 @_ZSt13binary_searchIPttEbT_S1_RKT0_(i16* %136, i16* %139, i16* nonnull dereferenceable(2) %11)
  br i1 %140, label %158, label %141

; <label>:141:                                    ; preds = %132, %135
  %142 = load i16, i16* %10, align 2
  %143 = icmp eq i16 %142, 0
  br i1 %143, label %158, label %144

; <label>:144:                                    ; preds = %141
  %145 = load i16*, i16** %81, align 8
  %146 = load i16, i16* %83, align 2
  %147 = sext i16 %146 to i64
  %148 = getelementptr inbounds i16, i16* %145, i64 %147
  %149 = call zeroext i1 @_ZSt13binary_searchIPttEbT_S1_RKT0_(i16* %145, i16* %148, i16* nonnull dereferenceable(2) %10)
  br i1 %149, label %158, label %150

; <label>:150:                                    ; preds = %144
  %151 = load i16*, i16** %76, align 8
  %152 = icmp eq i16* %151, null
  br i1 %152, label %158, label %153

; <label>:153:                                    ; preds = %150
  %154 = load i16, i16* %78, align 8
  %155 = sext i16 %154 to i64
  %156 = getelementptr inbounds i16, i16* %151, i64 %155
  %157 = call zeroext i1 @_ZSt13binary_searchIPttEbT_S1_RKT0_(i16* nonnull %151, i16* nonnull %156, i16* nonnull dereferenceable(2) %10)
  br i1 %121, label %160, label %162

; <label>:158:                                    ; preds = %124, %150, %141, %144, %135, %127
  %159 = phi i1 [ false, %135 ], [ true, %144 ], [ false, %150 ], [ true, %141 ], [ false, %127 ], [ false, %124 ]
  br i1 %121, label %160, label %162

; <label>:160:                                    ; preds = %153, %158
  %161 = phi i1 [ %159, %158 ], [ %157, %153 ]
  call void @llvm.lifetime.end.p0i8(i64 2, i8* nonnull %67) #18
  br i1 %120, label %165, label %167

; <label>:162:                                    ; preds = %153, %158
  %163 = phi i1 [ %159, %158 ], [ %157, %153 ]
  br i1 %120, label %165, label %167

; <label>:164:                                    ; preds = %108, %118
  call void @llvm.lifetime.end.p0i8(i64 2, i8* nonnull %75) #18
  br label %169

; <label>:165:                                    ; preds = %160, %162
  %166 = phi i1 [ %163, %162 ], [ %161, %160 ]
  call void @llvm.lifetime.end.p0i8(i64 2, i8* nonnull %68) #18
  br i1 %166, label %174, label %169

; <label>:167:                                    ; preds = %160, %162
  %168 = phi i1 [ %163, %162 ], [ %161, %160 ]
  br i1 %168, label %174, label %169

; <label>:169:                                    ; preds = %164, %100, %92, %89, %88, %165, %167
  %170 = getelementptr inbounds %struct.hentry, %struct.hentry* %80, i64 0, i32 5
  %171 = load %struct.hentry*, %struct.hentry** %170, align 8
  %172 = icmp eq %struct.hentry* %171, null
  br i1 %172, label %173, label %79

; <label>:173:                                    ; preds = %169, %58, %52
  call void @_ZNSt7__cxx1112basic_stringIcSt11char_traitsIcESaIcEED2Ev(%"class.std::__cxx11::basic_string"* nonnull %12) #18
  call void @llvm.lifetime.end.p0i8(i64 32, i8* nonnull %46) #18
  br label %175

; <label>:174:                                    ; preds = %165, %167
  call void @_ZNSt7__cxx1112basic_stringIcSt11char_traitsIcESaIcEED2Ev(%"class.std::__cxx11::basic_string"* nonnull %12) #18
  call void @llvm.lifetime.end.p0i8(i64 32, i8* nonnull %46) #18
  br label %175

; <label>:175:                                    ; preds = %29, %31, %36, %173, %174, %18
  %176 = phi %struct.hentry* [ null, %18 ], [ %80, %174 ], [ null, %173 ], [ null, %36 ], [ null, %31 ], [ null, %29 ]
  ret %struct.hentry* %176
}

; Function Attrs: norecurse nounwind sspstrong uwtable
define available_externally void @_ZNSaIcEC2Ev(%"class.std::allocator"*) unnamed_addr #1 align 2 {
  %2 = bitcast %"class.std::allocator"* %0 to %"class.__gnu_cxx::new_allocator"*
  tail call void @_ZN9__gnu_cxx13new_allocatorIcEC2Ev(%"class.__gnu_cxx::new_allocator"* %2) #18
  ret void
}

; Function Attrs: nounwind sspstrong uwtable
define available_externally void @_ZNSt7__cxx1112basic_stringIcSt11char_traitsIcESaIcEEC2EPKcmRKS3_(%"class.std::__cxx11::basic_string"*, i8*, i64, %"class.std::allocator"* dereferenceable(1)) unnamed_addr #0 align 2 {
  %5 = getelementptr inbounds %"class.std::__cxx11::basic_string", %"class.std::__cxx11::basic_string"* %0, i64 0, i32 0
  %6 = tail call i8* @_ZNSt7__cxx1112basic_stringIcSt11char_traitsIcESaIcEE13_M_local_dataEv(%"class.std::__cxx11::basic_string"* %0)
  tail call void @_ZNSt7__cxx1112basic_stringIcSt11char_traitsIcESaIcEE12_Alloc_hiderC2EPcRKS3_(%"struct.std::__cxx11::basic_string<char, std::char_traits<char>, std::allocator<char> >::_Alloc_hider"* %5, i8* %6, %"class.std::allocator"* nonnull dereferenceable(1) %3)
  %7 = getelementptr inbounds i8, i8* %1, i64 %2
  tail call void @_ZNSt7__cxx1112basic_stringIcSt11char_traitsIcESaIcEE12_M_constructIPKcEEvT_S8_(%"class.std::__cxx11::basic_string"* %0, i8* %1, i8* %7)
  ret void
}

; Function Attrs: inlinehint norecurse nounwind sspstrong uwtable
define linkonce_odr hidden i16* @_ZN8PfxEntry7getContEv(%class.PfxEntry*) local_unnamed_addr #3 comdat align 2 {
  %2 = getelementptr inbounds %class.PfxEntry, %class.PfxEntry* %0, i64 0, i32 0, i32 9
  %3 = load i16*, i16** %2, align 8
  ret i16* %3
}

; Function Attrs: nounwind sspstrong uwtable
define linkonce_odr zeroext i1 @_ZSt13binary_searchIPKttEbT_S2_RKT0_(i16*, i16*, i16* dereferenceable(2)) local_unnamed_addr #0 comdat {
  tail call void @_ZN9__gnu_cxx5__ops15__iter_less_valEv()
  %4 = tail call i16* @_ZSt13__lower_boundIPKttN9__gnu_cxx5__ops14_Iter_less_valEET_S5_S5_RKT0_T1_(i16* %0, i16* %1, i16* nonnull dereferenceable(2) %2)
  %5 = icmp eq i16* %4, %1
  br i1 %5, label %10, label %6

; <label>:6:                                      ; preds = %3
  %7 = load i16, i16* %2, align 2
  %8 = load i16, i16* %4, align 2
  %9 = icmp uge i16 %7, %8
  br label %10

; <label>:10:                                     ; preds = %3, %6
  %11 = phi i1 [ false, %3 ], [ %9, %6 ]
  ret i1 %11
}

; Function Attrs: inlinehint norecurse nounwind sspstrong uwtable
define linkonce_odr hidden signext i16 @_ZN8PfxEntry10getContLenEv(%class.PfxEntry*) local_unnamed_addr #3 comdat align 2 {
  %2 = getelementptr inbounds %class.PfxEntry, %class.PfxEntry* %0, i64 0, i32 0, i32 10
  %3 = load i16, i16* %2, align 8
  ret i16 %3
}

; Function Attrs: nounwind sspstrong uwtable
define hidden %struct.hentry* @_ZN8SfxEntry12check_twosfxEPKciiP8PfxEntryt(%class.SfxEntry*, i8*, i32, i32, %class.PfxEntry*, i16 zeroext) local_unnamed_addr #0 align 2 {
  %7 = alloca %"class.std::__cxx11::basic_string", align 8
  %8 = alloca %"class.std::allocator", align 1
  %9 = alloca i16, align 2
  %10 = and i32 %3, 1
  %11 = icmp eq i32 %10, 0
  br i1 %11, label %17, label %12

; <label>:12:                                     ; preds = %6
  %13 = getelementptr inbounds %class.SfxEntry, %class.SfxEntry* %0, i64 0, i32 0, i32 4
  %14 = load i8, i8* %13, align 1
  %15 = and i8 %14, 1
  %16 = icmp eq i8 %15, 0
  br i1 %16, label %89, label %17

; <label>:17:                                     ; preds = %6, %12
  %18 = getelementptr inbounds %class.SfxEntry, %class.SfxEntry* %0, i64 0, i32 0, i32 1
  %19 = tail call i64 @_ZNKSt7__cxx1112basic_stringIcSt11char_traitsIcESaIcEE4sizeEv(%"class.std::__cxx11::basic_string"* nonnull %18) #18
  %20 = trunc i64 %19 to i32
  %21 = sub i32 %2, %20
  %22 = icmp sgt i32 %21, 0
  br i1 %22, label %30, label %23

; <label>:23:                                     ; preds = %17
  %24 = icmp eq i32 %21, 0
  br i1 %24, label %25, label %89

; <label>:25:                                     ; preds = %23
  %26 = getelementptr inbounds %class.SfxEntry, %class.SfxEntry* %0, i64 0, i32 1
  %27 = load %class.AffixMgr*, %class.AffixMgr** %26, align 8
  %28 = tail call i32 @_ZNK8AffixMgr13get_fullstripEv(%class.AffixMgr* %27)
  %29 = icmp eq i32 %28, 0
  br i1 %29, label %89, label %30

; <label>:30:                                     ; preds = %25, %17
  %31 = sext i32 %21 to i64
  %32 = getelementptr inbounds %class.SfxEntry, %class.SfxEntry* %0, i64 0, i32 0, i32 2
  %33 = tail call i64 @_ZNKSt7__cxx1112basic_stringIcSt11char_traitsIcESaIcEE4sizeEv(%"class.std::__cxx11::basic_string"* nonnull %32) #18
  %34 = add i64 %33, %31
  %35 = getelementptr inbounds %class.SfxEntry, %class.SfxEntry* %0, i64 0, i32 0, i32 3
  %36 = load i8, i8* %35, align 8
  %37 = zext i8 %36 to i64
  %38 = icmp ult i64 %34, %37
  br i1 %38, label %89, label %39

; <label>:39:                                     ; preds = %30
  %40 = bitcast %"class.std::__cxx11::basic_string"* %7 to i8*
  call void @llvm.lifetime.start.p0i8(i64 32, i8* nonnull %40) #18
  %41 = getelementptr inbounds %"class.std::allocator", %"class.std::allocator"* %8, i64 0, i32 0
  call void @llvm.lifetime.start.p0i8(i64 1, i8* nonnull %41) #18
  call void @_ZNSaIcEC2Ev(%"class.std::allocator"* nonnull %8) #18
  call void @_ZNSt7__cxx1112basic_stringIcSt11char_traitsIcESaIcEEC2EPKcRKS3_(%"class.std::__cxx11::basic_string"* nonnull %7, i8* %1, %"class.std::allocator"* nonnull dereferenceable(1) %8)
  call void @_ZNSaIcED2Ev(%"class.std::allocator"* nonnull %8) #18
  call void @llvm.lifetime.end.p0i8(i64 1, i8* nonnull %41) #18
  call void @_ZNSt7__cxx1112basic_stringIcSt11char_traitsIcESaIcEE6resizeEm(%"class.std::__cxx11::basic_string"* nonnull %7, i64 %31)
  %42 = call dereferenceable(32) %"class.std::__cxx11::basic_string"* @_ZNSt7__cxx1112basic_stringIcSt11char_traitsIcESaIcEE6appendERKS4_(%"class.std::__cxx11::basic_string"* nonnull %7, %"class.std::__cxx11::basic_string"* nonnull dereferenceable(32) %32)
  %43 = call i64 @_ZNKSt7__cxx1112basic_stringIcSt11char_traitsIcESaIcEE4sizeEv(%"class.std::__cxx11::basic_string"* nonnull %32) #18
  %44 = trunc i64 %43 to i32
  %45 = add i32 %21, %44
  %46 = call i8* @_ZNKSt7__cxx1112basic_stringIcSt11char_traitsIcESaIcEE5c_strEv(%"class.std::__cxx11::basic_string"* nonnull %7) #18
  %47 = sext i32 %45 to i64
  %48 = getelementptr inbounds i8, i8* %46, i64 %47
  %49 = call i32 @_ZN8SfxEntry14test_conditionEPKcS1_(%class.SfxEntry* nonnull %0, i8* %48, i8* %46)
  %50 = icmp eq i32 %49, 0
  br i1 %50, label %87, label %51

; <label>:51:                                     ; preds = %39
  %52 = icmp eq %class.PfxEntry* %4, null
  br i1 %52, label %77, label %53

; <label>:53:                                     ; preds = %51
  %54 = getelementptr inbounds %class.SfxEntry, %class.SfxEntry* %0, i64 0, i32 0, i32 9
  %55 = load i16*, i16** %54, align 8
  %56 = icmp eq i16* %55, null
  br i1 %56, label %66, label %57

; <label>:57:                                     ; preds = %53
  %58 = getelementptr inbounds %class.SfxEntry, %class.SfxEntry* %0, i64 0, i32 0, i32 10
  %59 = load i16, i16* %58, align 8
  %60 = sext i16 %59 to i64
  %61 = getelementptr inbounds i16, i16* %55, i64 %60
  %62 = bitcast i16* %9 to i8*
  call void @llvm.lifetime.start.p0i8(i64 2, i8* nonnull %62) #18
  %63 = call zeroext i16 @_ZN8PfxEntry7getFlagEv(%class.PfxEntry* nonnull %4)
  store i16 %63, i16* %9, align 2
  %64 = call zeroext i1 @_ZSt13binary_searchIPttEbT_S1_RKT0_(i16* nonnull %55, i16* nonnull %61, i16* nonnull dereferenceable(2) %9)
  %65 = bitcast i16* %9 to i8*
  call void @llvm.lifetime.end.p0i8(i64 2, i8* nonnull %65) #18
  br label %66

; <label>:66:                                     ; preds = %53, %57
  %67 = phi i1 [ %64, %57 ], [ false, %53 ]
  %68 = getelementptr inbounds %class.SfxEntry, %class.SfxEntry* %0, i64 0, i32 1
  %69 = load %class.AffixMgr*, %class.AffixMgr** %68, align 8
  %70 = call i8* @_ZNKSt7__cxx1112basic_stringIcSt11char_traitsIcESaIcEE5c_strEv(%"class.std::__cxx11::basic_string"* nonnull %7) #18
  %71 = getelementptr inbounds %class.SfxEntry, %class.SfxEntry* %0, i64 0, i32 0, i32 5
  %72 = load i16, i16* %71, align 2
  br i1 %67, label %73, label %75

; <label>:73:                                     ; preds = %66
  %74 = call %struct.hentry* @_ZN8AffixMgr12suffix_checkEPKciiP8PfxEntryttc(%class.AffixMgr* %69, i8* %70, i32 %45, i32 0, %class.PfxEntry* null, i16 zeroext %72, i16 zeroext %5, i8 signext 0)
  br label %84

; <label>:75:                                     ; preds = %66
  %76 = call %struct.hentry* @_ZN8AffixMgr12suffix_checkEPKciiP8PfxEntryttc(%class.AffixMgr* %69, i8* %70, i32 %45, i32 %3, %class.PfxEntry* nonnull %4, i16 zeroext %72, i16 zeroext %5, i8 signext 0)
  br label %84

; <label>:77:                                     ; preds = %51
  %78 = getelementptr inbounds %class.SfxEntry, %class.SfxEntry* %0, i64 0, i32 1
  %79 = load %class.AffixMgr*, %class.AffixMgr** %78, align 8
  %80 = call i8* @_ZNKSt7__cxx1112basic_stringIcSt11char_traitsIcESaIcEE5c_strEv(%"class.std::__cxx11::basic_string"* nonnull %7) #18
  %81 = getelementptr inbounds %class.SfxEntry, %class.SfxEntry* %0, i64 0, i32 0, i32 5
  %82 = load i16, i16* %81, align 2
  %83 = call %struct.hentry* @_ZN8AffixMgr12suffix_checkEPKciiP8PfxEntryttc(%class.AffixMgr* %79, i8* %80, i32 %45, i32 0, %class.PfxEntry* null, i16 zeroext %82, i16 zeroext %5, i8 signext 0)
  br label %84

; <label>:84:                                     ; preds = %73, %75, %77
  %85 = phi %struct.hentry* [ %74, %73 ], [ %76, %75 ], [ %83, %77 ]
  %86 = icmp eq %struct.hentry* %85, null
  br i1 %86, label %87, label %88

; <label>:87:                                     ; preds = %84, %39
  call void @_ZNSt7__cxx1112basic_stringIcSt11char_traitsIcESaIcEED2Ev(%"class.std::__cxx11::basic_string"* nonnull %7) #18
  call void @llvm.lifetime.end.p0i8(i64 32, i8* nonnull %40) #18
  br label %89

; <label>:88:                                     ; preds = %84
  call void @_ZNSt7__cxx1112basic_stringIcSt11char_traitsIcESaIcEED2Ev(%"class.std::__cxx11::basic_string"* nonnull %7) #18
  call void @llvm.lifetime.end.p0i8(i64 32, i8* nonnull %40) #18
  br label %89

; <label>:89:                                     ; preds = %23, %25, %30, %87, %88, %12
  %90 = phi %struct.hentry* [ null, %12 ], [ %85, %88 ], [ null, %87 ], [ null, %30 ], [ null, %25 ], [ null, %23 ]
  ret %struct.hentry* %90
}

; Function Attrs: nounwind sspstrong uwtable
define available_externally void @_ZNSt7__cxx1112basic_stringIcSt11char_traitsIcESaIcEEC2EPKcRKS3_(%"class.std::__cxx11::basic_string"*, i8*, %"class.std::allocator"* dereferenceable(1)) unnamed_addr #0 align 2 {
  %4 = getelementptr inbounds %"class.std::__cxx11::basic_string", %"class.std::__cxx11::basic_string"* %0, i64 0, i32 0
  %5 = tail call i8* @_ZNSt7__cxx1112basic_stringIcSt11char_traitsIcESaIcEE13_M_local_dataEv(%"class.std::__cxx11::basic_string"* %0)
  tail call void @_ZNSt7__cxx1112basic_stringIcSt11char_traitsIcESaIcEE12_Alloc_hiderC2EPcRKS3_(%"struct.std::__cxx11::basic_string<char, std::char_traits<char>, std::allocator<char> >::_Alloc_hider"* %4, i8* %5, %"class.std::allocator"* nonnull dereferenceable(1) %2)
  %6 = icmp eq i8* %1, null
  br i1 %6, label %9, label %7

; <label>:7:                                      ; preds = %3
  %8 = tail call i64 @_ZNSt11char_traitsIcE6lengthEPKc(i8* nonnull %1)
  br label %9

; <label>:9:                                      ; preds = %3, %7
  %10 = phi i64 [ %8, %7 ], [ -1, %3 ]
  %11 = getelementptr inbounds i8, i8* %1, i64 %10
  tail call void @_ZNSt7__cxx1112basic_stringIcSt11char_traitsIcESaIcEE12_M_constructIPKcEEvT_S8_(%"class.std::__cxx11::basic_string"* %0, i8* %1, i8* %11)
  ret void
}

; Function Attrs: nounwind sspstrong uwtable
define available_externally void @_ZNSt7__cxx1112basic_stringIcSt11char_traitsIcESaIcEE6resizeEm(%"class.std::__cxx11::basic_string"*, i64) local_unnamed_addr #0 align 2 {
  tail call void @_ZNSt7__cxx1112basic_stringIcSt11char_traitsIcESaIcEE6resizeEmc(%"class.std::__cxx11::basic_string"* %0, i64 %1, i8 signext 0) #18
  ret void
}

; Function Attrs: nounwind sspstrong uwtable
define hidden void @_ZN8SfxEntry18check_twosfx_morphB5cxx11EPKciiP8PfxEntryt(%"class.std::__cxx11::basic_string"* noalias sret, %class.SfxEntry*, i8*, i32, i32, %class.PfxEntry*, i16 zeroext) local_unnamed_addr #0 align 2 {
  %8 = alloca %"class.std::__cxx11::basic_string", align 8
  %9 = alloca %"class.std::allocator", align 1
  %10 = alloca i16, align 2
  %11 = alloca %"class.std::__cxx11::basic_string", align 8
  %12 = alloca %"class.std::__cxx11::basic_string", align 8
  %13 = alloca %"class.std::__cxx11::basic_string", align 8
  tail call void @_ZNSt7__cxx1112basic_stringIcSt11char_traitsIcESaIcEEC2Ev(%"class.std::__cxx11::basic_string"* %0) #18
  %14 = and i32 %4, 1
  %15 = icmp eq i32 %14, 0
  br i1 %15, label %21, label %16

; <label>:16:                                     ; preds = %7
  %17 = getelementptr inbounds %class.SfxEntry, %class.SfxEntry* %1, i64 0, i32 0, i32 4
  %18 = load i8, i8* %17, align 1
  %19 = and i8 %18, 1
  %20 = icmp eq i8 %19, 0
  br i1 %20, label %111, label %21

; <label>:21:                                     ; preds = %7, %16
  %22 = getelementptr inbounds %class.SfxEntry, %class.SfxEntry* %1, i64 0, i32 0, i32 1
  %23 = tail call i64 @_ZNKSt7__cxx1112basic_stringIcSt11char_traitsIcESaIcEE4sizeEv(%"class.std::__cxx11::basic_string"* nonnull %22) #18
  %24 = trunc i64 %23 to i32
  %25 = sub i32 %3, %24
  %26 = icmp sgt i32 %25, 0
  br i1 %26, label %34, label %27

; <label>:27:                                     ; preds = %21
  %28 = icmp eq i32 %25, 0
  br i1 %28, label %29, label %111

; <label>:29:                                     ; preds = %27
  %30 = getelementptr inbounds %class.SfxEntry, %class.SfxEntry* %1, i64 0, i32 1
  %31 = load %class.AffixMgr*, %class.AffixMgr** %30, align 8
  %32 = tail call i32 @_ZNK8AffixMgr13get_fullstripEv(%class.AffixMgr* %31)
  %33 = icmp eq i32 %32, 0
  br i1 %33, label %111, label %34

; <label>:34:                                     ; preds = %29, %21
  %35 = sext i32 %25 to i64
  %36 = getelementptr inbounds %class.SfxEntry, %class.SfxEntry* %1, i64 0, i32 0, i32 2
  %37 = tail call i64 @_ZNKSt7__cxx1112basic_stringIcSt11char_traitsIcESaIcEE4sizeEv(%"class.std::__cxx11::basic_string"* nonnull %36) #18
  %38 = add i64 %37, %35
  %39 = getelementptr inbounds %class.SfxEntry, %class.SfxEntry* %1, i64 0, i32 0, i32 3
  %40 = load i8, i8* %39, align 8
  %41 = zext i8 %40 to i64
  %42 = icmp ult i64 %38, %41
  br i1 %42, label %111, label %43

; <label>:43:                                     ; preds = %34
  %44 = bitcast %"class.std::__cxx11::basic_string"* %8 to i8*
  call void @llvm.lifetime.start.p0i8(i64 32, i8* nonnull %44) #18
  %45 = getelementptr inbounds %"class.std::allocator", %"class.std::allocator"* %9, i64 0, i32 0
  call void @llvm.lifetime.start.p0i8(i64 1, i8* nonnull %45) #18
  call void @_ZNSaIcEC2Ev(%"class.std::allocator"* nonnull %9) #18
  call void @_ZNSt7__cxx1112basic_stringIcSt11char_traitsIcESaIcEEC2EPKcRKS3_(%"class.std::__cxx11::basic_string"* nonnull %8, i8* %2, %"class.std::allocator"* nonnull dereferenceable(1) %9)
  call void @_ZNSaIcED2Ev(%"class.std::allocator"* nonnull %9) #18
  call void @llvm.lifetime.end.p0i8(i64 1, i8* nonnull %45) #18
  call void @_ZNSt7__cxx1112basic_stringIcSt11char_traitsIcESaIcEE6resizeEm(%"class.std::__cxx11::basic_string"* nonnull %8, i64 %35)
  %46 = call dereferenceable(32) %"class.std::__cxx11::basic_string"* @_ZNSt7__cxx1112basic_stringIcSt11char_traitsIcESaIcEE6appendERKS4_(%"class.std::__cxx11::basic_string"* nonnull %8, %"class.std::__cxx11::basic_string"* nonnull dereferenceable(32) %36)
  %47 = call i64 @_ZNKSt7__cxx1112basic_stringIcSt11char_traitsIcESaIcEE4sizeEv(%"class.std::__cxx11::basic_string"* nonnull %36) #18
  %48 = trunc i64 %47 to i32
  %49 = add i32 %25, %48
  %50 = call i8* @_ZNKSt7__cxx1112basic_stringIcSt11char_traitsIcESaIcEE5c_strEv(%"class.std::__cxx11::basic_string"* nonnull %8) #18
  %51 = sext i32 %49 to i64
  %52 = getelementptr inbounds i8, i8* %50, i64 %51
  %53 = call i32 @_ZN8SfxEntry14test_conditionEPKcS1_(%class.SfxEntry* nonnull %1, i8* %52, i8* %50)
  %54 = icmp eq i32 %53, 0
  br i1 %54, label %110, label %55

; <label>:55:                                     ; preds = %43
  %56 = icmp eq %class.PfxEntry* %5, null
  br i1 %56, label %99, label %57

; <label>:57:                                     ; preds = %55
  %58 = getelementptr inbounds %class.SfxEntry, %class.SfxEntry* %1, i64 0, i32 0, i32 9
  %59 = load i16*, i16** %58, align 8
  %60 = icmp eq i16* %59, null
  br i1 %60, label %88, label %61

; <label>:61:                                     ; preds = %57
  %62 = getelementptr inbounds %class.SfxEntry, %class.SfxEntry* %1, i64 0, i32 0, i32 10
  %63 = load i16, i16* %62, align 8
  %64 = sext i16 %63 to i64
  %65 = getelementptr inbounds i16, i16* %59, i64 %64
  %66 = bitcast i16* %10 to i8*
  call void @llvm.lifetime.start.p0i8(i64 2, i8* nonnull %66) #18
  %67 = call zeroext i16 @_ZN8PfxEntry7getFlagEv(%class.PfxEntry* nonnull %5)
  store i16 %67, i16* %10, align 2
  %68 = call zeroext i1 @_ZSt13binary_searchIPttEbT_S1_RKT0_(i16* nonnull %59, i16* nonnull %65, i16* nonnull dereferenceable(2) %10)
  %69 = bitcast i16* %10 to i8*
  call void @llvm.lifetime.end.p0i8(i64 2, i8* nonnull %69) #18
  br i1 %68, label %70, label %88

; <label>:70:                                     ; preds = %61
  %71 = bitcast %"class.std::__cxx11::basic_string"* %11 to i8*
  call void @llvm.lifetime.start.p0i8(i64 32, i8* nonnull %71) #18
  %72 = getelementptr inbounds %class.SfxEntry, %class.SfxEntry* %1, i64 0, i32 1
  %73 = load %class.AffixMgr*, %class.AffixMgr** %72, align 8
  %74 = call i8* @_ZNKSt7__cxx1112basic_stringIcSt11char_traitsIcESaIcEE5c_strEv(%"class.std::__cxx11::basic_string"* nonnull %8) #18
  %75 = getelementptr inbounds %class.SfxEntry, %class.SfxEntry* %1, i64 0, i32 0, i32 5
  %76 = load i16, i16* %75, align 2
  call void @_ZN8AffixMgr18suffix_check_morphB5cxx11EPKciiP8PfxEntryttc(%"class.std::__cxx11::basic_string"* nonnull sret %11, %class.AffixMgr* %73, i8* %74, i32 %49, i32 0, %class.PfxEntry* null, i16 zeroext %76, i16 zeroext %6, i8 signext 0)
  %77 = call zeroext i1 @_ZNKSt7__cxx1112basic_stringIcSt11char_traitsIcESaIcEE5emptyEv(%"class.std::__cxx11::basic_string"* nonnull %11) #18
  br i1 %77, label %87, label %78

; <label>:78:                                     ; preds = %70
  %79 = call i8* @_ZN8PfxEntry8getMorphEv(%class.PfxEntry* nonnull %5)
  %80 = icmp eq i8* %79, null
  br i1 %80, label %85, label %81

; <label>:81:                                     ; preds = %78
  %82 = call i8* @_ZN8PfxEntry8getMorphEv(%class.PfxEntry* nonnull %5)
  %83 = call dereferenceable(32) %"class.std::__cxx11::basic_string"* @_ZNSt7__cxx1112basic_stringIcSt11char_traitsIcESaIcEE6appendEPKc(%"class.std::__cxx11::basic_string"* %0, i8* %82)
  %84 = call dereferenceable(32) %"class.std::__cxx11::basic_string"* @_ZNSt7__cxx1112basic_stringIcSt11char_traitsIcESaIcEE6appendEPKc(%"class.std::__cxx11::basic_string"* %0, i8* getelementptr inbounds ([2 x i8], [2 x i8]* @.str, i64 0, i64 0))
  br label %85

; <label>:85:                                     ; preds = %78, %81
  %86 = call dereferenceable(32) %"class.std::__cxx11::basic_string"* @_ZNSt7__cxx1112basic_stringIcSt11char_traitsIcESaIcEE6appendERKS4_(%"class.std::__cxx11::basic_string"* %0, %"class.std::__cxx11::basic_string"* nonnull dereferenceable(32) %11)
  call void @_Z7mychompRNSt7__cxx1112basic_stringIcSt11char_traitsIcESaIcEEE(%"class.std::__cxx11::basic_string"* dereferenceable(32) %0)
  br label %87

; <label>:87:                                     ; preds = %85, %70
  call void @_ZNSt7__cxx1112basic_stringIcSt11char_traitsIcESaIcEED2Ev(%"class.std::__cxx11::basic_string"* nonnull %11) #18
  call void @llvm.lifetime.end.p0i8(i64 32, i8* nonnull %71) #18
  br label %110

; <label>:88:                                     ; preds = %57, %61
  %89 = bitcast %"class.std::__cxx11::basic_string"* %12 to i8*
  call void @llvm.lifetime.start.p0i8(i64 32, i8* nonnull %89) #18
  %90 = getelementptr inbounds %class.SfxEntry, %class.SfxEntry* %1, i64 0, i32 1
  %91 = load %class.AffixMgr*, %class.AffixMgr** %90, align 8
  %92 = call i8* @_ZNKSt7__cxx1112basic_stringIcSt11char_traitsIcESaIcEE5c_strEv(%"class.std::__cxx11::basic_string"* nonnull %8) #18
  %93 = getelementptr inbounds %class.SfxEntry, %class.SfxEntry* %1, i64 0, i32 0, i32 5
  %94 = load i16, i16* %93, align 2
  call void @_ZN8AffixMgr18suffix_check_morphB5cxx11EPKciiP8PfxEntryttc(%"class.std::__cxx11::basic_string"* nonnull sret %12, %class.AffixMgr* %91, i8* %92, i32 %49, i32 %4, %class.PfxEntry* nonnull %5, i16 zeroext %94, i16 zeroext %6, i8 signext 0)
  %95 = call zeroext i1 @_ZNKSt7__cxx1112basic_stringIcSt11char_traitsIcESaIcEE5emptyEv(%"class.std::__cxx11::basic_string"* nonnull %12) #18
  br i1 %95, label %98, label %96

; <label>:96:                                     ; preds = %88
  %97 = call dereferenceable(32) %"class.std::__cxx11::basic_string"* @_ZNSt7__cxx1112basic_stringIcSt11char_traitsIcESaIcEE6appendERKS4_(%"class.std::__cxx11::basic_string"* %0, %"class.std::__cxx11::basic_string"* nonnull dereferenceable(32) %12)
  call void @_Z7mychompRNSt7__cxx1112basic_stringIcSt11char_traitsIcESaIcEEE(%"class.std::__cxx11::basic_string"* dereferenceable(32) %0)
  br label %98

; <label>:98:                                     ; preds = %96, %88
  call void @_ZNSt7__cxx1112basic_stringIcSt11char_traitsIcESaIcEED2Ev(%"class.std::__cxx11::basic_string"* nonnull %12) #18
  call void @llvm.lifetime.end.p0i8(i64 32, i8* nonnull %89) #18
  br label %110

; <label>:99:                                     ; preds = %55
  %100 = bitcast %"class.std::__cxx11::basic_string"* %13 to i8*
  call void @llvm.lifetime.start.p0i8(i64 32, i8* nonnull %100) #18
  %101 = getelementptr inbounds %class.SfxEntry, %class.SfxEntry* %1, i64 0, i32 1
  %102 = load %class.AffixMgr*, %class.AffixMgr** %101, align 8
  %103 = call i8* @_ZNKSt7__cxx1112basic_stringIcSt11char_traitsIcESaIcEE5c_strEv(%"class.std::__cxx11::basic_string"* nonnull %8) #18
  %104 = getelementptr inbounds %class.SfxEntry, %class.SfxEntry* %1, i64 0, i32 0, i32 5
  %105 = load i16, i16* %104, align 2
  call void @_ZN8AffixMgr18suffix_check_morphB5cxx11EPKciiP8PfxEntryttc(%"class.std::__cxx11::basic_string"* nonnull sret %13, %class.AffixMgr* %102, i8* %103, i32 %49, i32 0, %class.PfxEntry* null, i16 zeroext %105, i16 zeroext %6, i8 signext 0)
  %106 = call zeroext i1 @_ZNKSt7__cxx1112basic_stringIcSt11char_traitsIcESaIcEE5emptyEv(%"class.std::__cxx11::basic_string"* nonnull %13) #18
  br i1 %106, label %109, label %107

; <label>:107:                                    ; preds = %99
  %108 = call dereferenceable(32) %"class.std::__cxx11::basic_string"* @_ZNSt7__cxx1112basic_stringIcSt11char_traitsIcESaIcEE6appendERKS4_(%"class.std::__cxx11::basic_string"* %0, %"class.std::__cxx11::basic_string"* nonnull dereferenceable(32) %13)
  call void @_Z7mychompRNSt7__cxx1112basic_stringIcSt11char_traitsIcESaIcEEE(%"class.std::__cxx11::basic_string"* dereferenceable(32) %0)
  br label %109

; <label>:109:                                    ; preds = %107, %99
  call void @_ZNSt7__cxx1112basic_stringIcSt11char_traitsIcESaIcEED2Ev(%"class.std::__cxx11::basic_string"* nonnull %13) #18
  call void @llvm.lifetime.end.p0i8(i64 32, i8* nonnull %100) #18
  br label %110

; <label>:110:                                    ; preds = %43, %109, %98, %87
  call void @_ZNSt7__cxx1112basic_stringIcSt11char_traitsIcESaIcEED2Ev(%"class.std::__cxx11::basic_string"* nonnull %8) #18
  call void @llvm.lifetime.end.p0i8(i64 32, i8* nonnull %44) #18
  br label %111

; <label>:111:                                    ; preds = %16, %34, %29, %110, %27
  ret void
}

; Function Attrs: inlinehint norecurse nounwind sspstrong uwtable
define linkonce_odr hidden i8* @_ZN8PfxEntry8getMorphEv(%class.PfxEntry*) local_unnamed_addr #3 comdat align 2 {
  %2 = getelementptr inbounds %class.PfxEntry, %class.PfxEntry* %0, i64 0, i32 0, i32 8
  %3 = load i8*, i8** %2, align 8
  ret i8* %3
}

; Function Attrs: nounwind sspstrong uwtable
define hidden void @_Z7mychompRNSt7__cxx1112basic_stringIcSt11char_traitsIcESaIcEEE(%"class.std::__cxx11::basic_string"* dereferenceable(32)) local_unnamed_addr #0 {
  %2 = tail call i64 @_ZNKSt7__cxx1112basic_stringIcSt11char_traitsIcESaIcEE4sizeEv(%"class.std::__cxx11::basic_string"* nonnull %0) #18
  %3 = icmp eq i64 %2, 0
  br i1 %3, label %24, label %4

; <label>:4:                                      ; preds = %1
  %5 = add i64 %2, -1
  %6 = tail call dereferenceable(1) i8* @_ZNSt7__cxx1112basic_stringIcSt11char_traitsIcESaIcEEixEm(%"class.std::__cxx11::basic_string"* nonnull %0, i64 %5)
  %7 = load i8, i8* %6, align 1
  %8 = icmp eq i8 %7, 13
  br i1 %8, label %13, label %9

; <label>:9:                                      ; preds = %4
  %10 = tail call dereferenceable(1) i8* @_ZNSt7__cxx1112basic_stringIcSt11char_traitsIcESaIcEEixEm(%"class.std::__cxx11::basic_string"* nonnull %0, i64 %5)
  %11 = load i8, i8* %10, align 1
  %12 = icmp eq i8 %11, 10
  br i1 %12, label %13, label %14

; <label>:13:                                     ; preds = %9, %4
  br label %14

; <label>:14:                                     ; preds = %13, %9
  %15 = phi i64 [ %5, %13 ], [ %2, %9 ]
  %16 = icmp ugt i64 %2, 1
  br i1 %16, label %17, label %24

; <label>:17:                                     ; preds = %14
  %18 = add i64 %2, -2
  %19 = tail call dereferenceable(1) i8* @_ZNSt7__cxx1112basic_stringIcSt11char_traitsIcESaIcEEixEm(%"class.std::__cxx11::basic_string"* nonnull %0, i64 %18)
  %20 = load i8, i8* %19, align 1
  %21 = icmp eq i8 %20, 13
  %22 = sext i1 %21 to i64
  %23 = add i64 %15, %22
  br label %24

; <label>:24:                                     ; preds = %1, %17, %14
  %25 = phi i64 [ %15, %14 ], [ %23, %17 ], [ 0, %1 ]
  tail call void @_ZNSt7__cxx1112basic_stringIcSt11char_traitsIcESaIcEE6resizeEm(%"class.std::__cxx11::basic_string"* nonnull %0, i64 %25)
  ret void
}

; Function Attrs: nounwind sspstrong uwtable
define hidden %struct.hentry* @_ZN8SfxEntry16get_next_homonymEP6hentryiP8PfxEntrytt(%class.SfxEntry*, %struct.hentry* nocapture readonly, i32, %class.PfxEntry*, i16 zeroext, i16 zeroext) local_unnamed_addr #0 align 2 {
  %7 = alloca i16, align 2
  %8 = alloca i16, align 2
  %9 = alloca i16, align 2
  store i16 %4, i16* %7, align 2
  store i16 %5, i16* %8, align 2
  %10 = bitcast i16* %9 to i8*
  call void @llvm.lifetime.start.p0i8(i64 2, i8* nonnull %10) #18
  %11 = icmp ne %class.PfxEntry* %3, null
  br i1 %11, label %12, label %14

; <label>:12:                                     ; preds = %6
  %13 = tail call zeroext i16 @_ZN8PfxEntry7getFlagEv(%class.PfxEntry* nonnull %3)
  br label %14

; <label>:14:                                     ; preds = %6, %12
  %15 = phi i16 [ %13, %12 ], [ 0, %6 ]
  store i16 %15, i16* %9, align 2
  %16 = getelementptr inbounds %struct.hentry, %struct.hentry* %1, i64 0, i32 5
  %17 = load %struct.hentry*, %struct.hentry** %16, align 8
  %18 = icmp eq %struct.hentry* %17, null
  br i1 %18, label %96, label %19

; <label>:19:                                     ; preds = %14
  %20 = getelementptr inbounds %class.SfxEntry, %class.SfxEntry* %0, i64 0, i32 0, i32 5
  %21 = and i32 %2, 1
  %22 = icmp eq i32 %21, 0
  %23 = getelementptr inbounds %class.SfxEntry, %class.SfxEntry* %0, i64 0, i32 0, i32 9
  %24 = getelementptr inbounds %class.SfxEntry, %class.SfxEntry* %0, i64 0, i32 0, i32 9
  %25 = getelementptr inbounds %class.SfxEntry, %class.SfxEntry* %0, i64 0, i32 0, i32 10
  %26 = getelementptr inbounds %class.SfxEntry, %class.SfxEntry* %0, i64 0, i32 0, i32 10
  %27 = getelementptr inbounds %class.SfxEntry, %class.SfxEntry* %0, i64 0, i32 0, i32 9
  %28 = getelementptr inbounds %class.SfxEntry, %class.SfxEntry* %0, i64 0, i32 0, i32 10
  br label %29

; <label>:29:                                     ; preds = %19, %92
  %30 = phi %struct.hentry* [ %17, %19 ], [ %94, %92 ]
  %31 = getelementptr inbounds %struct.hentry, %struct.hentry* %30, i64 0, i32 3
  %32 = load i16*, i16** %31, align 8
  %33 = getelementptr inbounds %struct.hentry, %struct.hentry* %30, i64 0, i32 2
  %34 = load i16, i16* %33, align 2
  %35 = sext i16 %34 to i64
  %36 = getelementptr inbounds i16, i16* %32, i64 %35
  %37 = call zeroext i1 @_ZSt13binary_searchIPttEbT_S1_RKT0_(i16* %32, i16* %36, i16* nonnull dereferenceable(2) %20)
  br i1 %37, label %49, label %38

; <label>:38:                                     ; preds = %29
  br i1 %11, label %39, label %92

; <label>:39:                                     ; preds = %38
  %40 = call i16* @_ZN8PfxEntry7getContEv(%class.PfxEntry* nonnull %3)
  %41 = icmp eq i16* %40, null
  br i1 %41, label %92, label %42

; <label>:42:                                     ; preds = %39
  %43 = call i16* @_ZN8PfxEntry7getContEv(%class.PfxEntry* nonnull %3)
  %44 = call i16* @_ZN8PfxEntry7getContEv(%class.PfxEntry* nonnull %3)
  %45 = call signext i16 @_ZN8PfxEntry10getContLenEv(%class.PfxEntry* nonnull %3)
  %46 = sext i16 %45 to i64
  %47 = getelementptr inbounds i16, i16* %44, i64 %46
  %48 = call zeroext i1 @_ZSt13binary_searchIPKttEbT_S2_RKT0_(i16* %43, i16* %47, i16* nonnull dereferenceable(2) %20)
  br i1 %48, label %49, label %92

; <label>:49:                                     ; preds = %42, %29
  br i1 %22, label %64, label %50

; <label>:50:                                     ; preds = %49
  %51 = load i16*, i16** %31, align 8
  %52 = load i16, i16* %33, align 2
  %53 = sext i16 %52 to i64
  %54 = getelementptr inbounds i16, i16* %51, i64 %53
  %55 = call zeroext i1 @_ZSt13binary_searchIPttEbT_S1_RKT0_(i16* %51, i16* %54, i16* nonnull dereferenceable(2) %9)
  br i1 %55, label %64, label %56

; <label>:56:                                     ; preds = %50
  %57 = load i16*, i16** %24, align 8
  %58 = icmp eq i16* %57, null
  br i1 %58, label %92, label %59

; <label>:59:                                     ; preds = %56
  %60 = load i16, i16* %26, align 8
  %61 = sext i16 %60 to i64
  %62 = getelementptr inbounds i16, i16* %57, i64 %61
  %63 = call zeroext i1 @_ZSt13binary_searchIPttEbT_S1_RKT0_(i16* nonnull %57, i16* nonnull %62, i16* nonnull dereferenceable(2) %9)
  br i1 %63, label %64, label %92

; <label>:64:                                     ; preds = %59, %50, %49
  %65 = load i16, i16* %7, align 2
  %66 = icmp eq i16 %65, 0
  br i1 %66, label %75, label %67

; <label>:67:                                     ; preds = %64
  %68 = load i16*, i16** %23, align 8
  %69 = icmp eq i16* %68, null
  br i1 %69, label %92, label %70

; <label>:70:                                     ; preds = %67
  %71 = load i16, i16* %25, align 8
  %72 = sext i16 %71 to i64
  %73 = getelementptr inbounds i16, i16* %68, i64 %72
  %74 = call zeroext i1 @_ZSt13binary_searchIPttEbT_S1_RKT0_(i16* nonnull %68, i16* nonnull %73, i16* nonnull dereferenceable(2) %7)
  br i1 %74, label %75, label %92

; <label>:75:                                     ; preds = %64, %70
  %76 = load i16, i16* %8, align 2
  %77 = icmp eq i16 %76, 0
  br i1 %77, label %96, label %78

; <label>:78:                                     ; preds = %75
  %79 = load i16*, i16** %31, align 8
  %80 = load i16, i16* %33, align 2
  %81 = sext i16 %80 to i64
  %82 = getelementptr inbounds i16, i16* %79, i64 %81
  %83 = call zeroext i1 @_ZSt13binary_searchIPttEbT_S1_RKT0_(i16* %79, i16* %82, i16* nonnull dereferenceable(2) %8)
  br i1 %83, label %96, label %84

; <label>:84:                                     ; preds = %78
  %85 = load i16*, i16** %27, align 8
  %86 = icmp eq i16* %85, null
  br i1 %86, label %92, label %87

; <label>:87:                                     ; preds = %84
  %88 = load i16, i16* %28, align 8
  %89 = sext i16 %88 to i64
  %90 = getelementptr inbounds i16, i16* %85, i64 %89
  %91 = call zeroext i1 @_ZSt13binary_searchIPttEbT_S1_RKT0_(i16* nonnull %85, i16* nonnull %90, i16* nonnull dereferenceable(2) %8)
  br i1 %91, label %96, label %92

; <label>:92:                                     ; preds = %67, %84, %56, %39, %87, %70, %59, %42, %38
  %93 = getelementptr inbounds %struct.hentry, %struct.hentry* %30, i64 0, i32 5
  %94 = load %struct.hentry*, %struct.hentry** %93, align 8
  %95 = icmp eq %struct.hentry* %94, null
  br i1 %95, label %96, label %29

; <label>:96:                                     ; preds = %75, %87, %78, %92, %14
  %97 = phi %struct.hentry* [ null, %14 ], [ null, %92 ], [ %30, %78 ], [ %30, %87 ], [ %30, %75 ]
  call void @llvm.lifetime.end.p0i8(i64 2, i8* nonnull %10) #18
  ret %struct.hentry* %97
}

; Function Attrs: nounwind sspstrong uwtable
define hidden void @_ZN8SfxEntry15initReverseWordEv(%class.SfxEntry*) local_unnamed_addr #0 align 2 {
  %2 = getelementptr inbounds %class.SfxEntry, %class.SfxEntry* %0, i64 0, i32 0, i32 1
  %3 = getelementptr inbounds %class.SfxEntry, %class.SfxEntry* %0, i64 0, i32 2
  %4 = tail call dereferenceable(32) %"class.std::__cxx11::basic_string"* @_ZNSt7__cxx1112basic_stringIcSt11char_traitsIcESaIcEEaSERKS4_(%"class.std::__cxx11::basic_string"* nonnull %3, %"class.std::__cxx11::basic_string"* nonnull dereferenceable(32) %2)
  %5 = tail call i64 @_Z11reversewordRNSt7__cxx1112basic_stringIcSt11char_traitsIcESaIcEEE(%"class.std::__cxx11::basic_string"* nonnull dereferenceable(32) %3)
  ret void
}

; Function Attrs: nounwind sspstrong uwtable
define available_externally dereferenceable(32) %"class.std::__cxx11::basic_string"* @_ZNSt7__cxx1112basic_stringIcSt11char_traitsIcESaIcEEaSERKS4_(%"class.std::__cxx11::basic_string"*, %"class.std::__cxx11::basic_string"* dereferenceable(32)) local_unnamed_addr #0 align 2 {
  %3 = tail call dereferenceable(32) %"class.std::__cxx11::basic_string"* @_ZNSt7__cxx1112basic_stringIcSt11char_traitsIcESaIcEE6assignERKS4_(%"class.std::__cxx11::basic_string"* %0, %"class.std::__cxx11::basic_string"* nonnull dereferenceable(32) %1)
  ret %"class.std::__cxx11::basic_string"* %3
}

; Function Attrs: nounwind sspstrong uwtable
define hidden i64 @_Z11reversewordRNSt7__cxx1112basic_stringIcSt11char_traitsIcESaIcEEE(%"class.std::__cxx11::basic_string"* dereferenceable(32)) local_unnamed_addr #0 {
  %2 = tail call i8* @_ZNSt7__cxx1112basic_stringIcSt11char_traitsIcESaIcEE5beginEv(%"class.std::__cxx11::basic_string"* nonnull %0) #18
  %3 = tail call i8* @_ZNSt7__cxx1112basic_stringIcSt11char_traitsIcESaIcEE3endEv(%"class.std::__cxx11::basic_string"* nonnull %0) #18
  tail call void @_ZSt7reverseIN9__gnu_cxx17__normal_iteratorIPcNSt7__cxx1112basic_stringIcSt11char_traitsIcESaIcEEEEEEvT_SA_(i8* %2, i8* %3)
  %4 = tail call i64 @_ZNKSt7__cxx1112basic_stringIcSt11char_traitsIcESaIcEE4sizeEv(%"class.std::__cxx11::basic_string"* nonnull %0) #18
  ret i64 %4
}

; Function Attrs: nounwind sspstrong uwtable
define hidden void @_ZN8AffixMgrC2EPKcRKSt6vectorIP7HashMgrSaIS4_EES1_(%class.AffixMgr*, i8*, %"class.std::vector"* dereferenceable(24), i8*) unnamed_addr #0 align 2 {
  %5 = getelementptr inbounds %class.AffixMgr, %class.AffixMgr* %0, i64 0, i32 4
  store %"class.std::vector"* %2, %"class.std::vector"** %5, align 8
  %6 = getelementptr inbounds %class.AffixMgr, %class.AffixMgr* %0, i64 0, i32 5
  %7 = tail call dereferenceable(8) %class.HashMgr** @_ZNKSt6vectorIP7HashMgrSaIS1_EEixEm(%"class.std::vector"* nonnull %2, i64 0) #18
  %8 = bitcast %class.HashMgr** %7 to i64*
  %9 = load i64, i64* %8, align 8
  %10 = bitcast %class.HashMgr** %6 to i64*
  store i64 %9, i64* %10, align 8
  %11 = getelementptr inbounds %class.AffixMgr, %class.AffixMgr* %0, i64 0, i32 6
  tail call void @_ZNSt7__cxx1112basic_stringIcSt11char_traitsIcESaIcEEC2Ev(%"class.std::__cxx11::basic_string"* nonnull %11) #18
  %12 = getelementptr inbounds %class.AffixMgr, %class.AffixMgr* %0, i64 0, i32 7
  tail call void @_ZNSt7__cxx1112basic_stringIcSt11char_traitsIcESaIcEEC2Ev(%"class.std::__cxx11::basic_string"* nonnull %12) #18
  %13 = getelementptr inbounds %class.AffixMgr, %class.AffixMgr* %0, i64 0, i32 8
  tail call void @_ZNSt7__cxx1112basic_stringIcSt11char_traitsIcESaIcEEC2Ev(%"class.std::__cxx11::basic_string"* nonnull %13) #18
  %14 = getelementptr inbounds %class.AffixMgr, %class.AffixMgr* %0, i64 0, i32 33
  tail call void @_ZNSt6vectorI9replentrySaIS0_EEC2Ev(%"class.std::vector.5"* nonnull %14) #18
  %15 = getelementptr inbounds %class.AffixMgr, %class.AffixMgr* %0, i64 0, i32 38
  tail call void @_ZNSt6vectorIS_INSt7__cxx1112basic_stringIcSt11char_traitsIcESaIcEEESaIS5_EESaIS7_EEC2Ev(%"class.std::vector.10"* nonnull %15) #18
  %16 = getelementptr inbounds %class.AffixMgr, %class.AffixMgr* %0, i64 0, i32 41
  tail call void @_ZNSt6vectorINSt7__cxx1112basic_stringIcSt11char_traitsIcESaIcEEESaIS5_EEC2Ev(%"class.std::vector.15"* nonnull %16) #18
  %17 = getelementptr inbounds %class.AffixMgr, %class.AffixMgr* %0, i64 0, i32 44
  tail call void @_ZNSt6vectorI8patentrySaIS0_EEC2Ev(%"class.std::vector.20"* nonnull %17) #18
  %18 = getelementptr inbounds %class.AffixMgr, %class.AffixMgr* %0, i64 0, i32 48
  tail call void @_ZNSt6vectorIS_ItSaItEESaIS1_EEC2Ev(%"class.std::vector.25"* nonnull %18) #18
  %19 = getelementptr inbounds %class.AffixMgr, %class.AffixMgr* %0, i64 0, i32 58
  tail call void @_ZNSt7__cxx1112basic_stringIcSt11char_traitsIcESaIcEEC2Ev(%"class.std::__cxx11::basic_string"* nonnull %19) #18
  %20 = getelementptr inbounds %class.AffixMgr, %class.AffixMgr* %0, i64 0, i32 59
  tail call void @_ZNSt6vectorI6w_charSaIS0_EEC2Ev(%"class.std::vector.1"* nonnull %20) #18
  %21 = getelementptr inbounds %class.AffixMgr, %class.AffixMgr* %0, i64 0, i32 60
  tail call void @_ZNSt7__cxx1112basic_stringIcSt11char_traitsIcESaIcEEC2Ev(%"class.std::__cxx11::basic_string"* nonnull %21) #18
  %22 = getelementptr inbounds %class.AffixMgr, %class.AffixMgr* %0, i64 0, i32 71
  tail call void @_ZNSt7__cxx1112basic_stringIcSt11char_traitsIcESaIcEEC2Ev(%"class.std::__cxx11::basic_string"* nonnull %22) #18
  %23 = getelementptr inbounds %class.AffixMgr, %class.AffixMgr* %0, i64 0, i32 72
  tail call void @_ZNSt6vectorI6w_charSaIS0_EEC2Ev(%"class.std::vector.1"* nonnull %23) #18
  %24 = getelementptr inbounds %class.AffixMgr, %class.AffixMgr* %0, i64 0, i32 73
  tail call void @_ZNSt7__cxx1112basic_stringIcSt11char_traitsIcESaIcEEC2Ev(%"class.std::__cxx11::basic_string"* nonnull %24) #18
  %25 = getelementptr inbounds %class.AffixMgr, %class.AffixMgr* %0, i64 0, i32 74
  tail call void @_ZNSt6vectorI6w_charSaIS0_EEC2Ev(%"class.std::vector.1"* nonnull %25) #18
  %26 = getelementptr inbounds %class.AffixMgr, %class.AffixMgr* %0, i64 0, i32 75
  tail call void @_ZNSt7__cxx1112basic_stringIcSt11char_traitsIcESaIcEEC2Ev(%"class.std::__cxx11::basic_string"* nonnull %26) #18
  %27 = getelementptr inbounds %class.AffixMgr, %class.AffixMgr* %0, i64 0, i32 76
  tail call void @_ZNSt7__cxx1112basic_stringIcSt11char_traitsIcESaIcEEC2Ev(%"class.std::__cxx11::basic_string"* nonnull %27) #18
  %28 = getelementptr inbounds %class.AffixMgr, %class.AffixMgr* %0, i64 0, i32 9
  %29 = getelementptr inbounds %class.AffixMgr, %class.AffixMgr* %0, i64 0, i32 39
  store i8 0, i8* %29, align 8
  %30 = getelementptr inbounds %class.AffixMgr, %class.AffixMgr* %0, i64 0, i32 31
  store i8 0, i8* %30, align 4
  %31 = getelementptr inbounds %class.AffixMgr, %class.AffixMgr* %0, i64 0, i32 34
  %32 = getelementptr inbounds %class.AffixMgr, %class.AffixMgr* %0, i64 0, i32 45
  store i32 0, i32* %32, align 8
  %33 = getelementptr inbounds %class.AffixMgr, %class.AffixMgr* %0, i64 0, i32 42
  store i8 0, i8* %33, align 8
  %34 = getelementptr inbounds %class.AffixMgr, %class.AffixMgr* %0, i64 0, i32 46
  store i8 0, i8* %34, align 4
  %35 = getelementptr inbounds %class.AffixMgr, %class.AffixMgr* %0, i64 0, i32 49
  store %struct.phonetable* null, %struct.phonetable** %35, align 8
  %36 = getelementptr inbounds %class.AffixMgr, %class.AffixMgr* %0, i64 0, i32 20
  %37 = getelementptr inbounds %class.AffixMgr, %class.AffixMgr* %0, i64 0, i32 26
  %38 = bitcast %struct.cs_info** %28 to i8*
  call void @llvm.memset.p0i8.i64(i8* nonnull align 8 %38, i8 0, i64 30, i1 false)
  %39 = bitcast i32* %36 to i8*
  call void @llvm.memset.p0i8.i64(i8* nonnull align 8 %39, i8 0, i64 24, i1 false)
  %40 = bitcast %class.RepList** %31 to i8*
  call void @llvm.memset.p0i8.i64(i8* nonnull align 8 %40, i8 0, i64 17, i1 false)
  store i16 -26, i16* %37, align 8
  %41 = getelementptr inbounds %class.AffixMgr, %class.AffixMgr* %0, i64 0, i32 27
  store i16 0, i16* %41, align 2
  %42 = getelementptr inbounds %class.AffixMgr, %class.AffixMgr* %0, i64 0, i32 28
  store i16 0, i16* %42, align 4
  %43 = getelementptr inbounds %class.AffixMgr, %class.AffixMgr* %0, i64 0, i32 77
  store i32 0, i32* %43, align 8
  %44 = getelementptr inbounds %class.AffixMgr, %class.AffixMgr* %0, i64 0, i32 29
  store i16 0, i16* %44, align 2
  %45 = getelementptr inbounds %class.AffixMgr, %class.AffixMgr* %0, i64 0, i32 56
  store i32 -1, i32* %45, align 8
  %46 = getelementptr inbounds %class.AffixMgr, %class.AffixMgr* %0, i64 0, i32 30
  store i32 -1, i32* %46, align 8
  %47 = getelementptr inbounds %class.AffixMgr, %class.AffixMgr* %0, i64 0, i32 57
  store i32 0, i32* %47, align 4
  %48 = getelementptr inbounds %class.AffixMgr, %class.AffixMgr* %0, i64 0, i32 61
  %49 = getelementptr inbounds %class.AffixMgr, %class.AffixMgr* %0, i64 0, i32 69
  store i32 0, i32* %49, align 8
  %50 = getelementptr inbounds %class.AffixMgr, %class.AffixMgr* %0, i64 0, i32 89
  store i32 0, i32* %50, align 8
  %51 = getelementptr inbounds %class.AffixMgr, %class.AffixMgr* %0, i64 0, i32 78
  store i16 0, i16* %51, align 4
  %52 = getelementptr inbounds %class.AffixMgr, %class.AffixMgr* %0, i64 0, i32 79
  store i16 0, i16* %52, align 2
  %53 = getelementptr inbounds %class.AffixMgr, %class.AffixMgr* %0, i64 0, i32 80
  store i16 0, i16* %53, align 8
  %54 = getelementptr inbounds %class.AffixMgr, %class.AffixMgr* %0, i64 0, i32 50
  %55 = bitcast i8** %48 to i8*
  call void @llvm.memset.p0i8.i64(i8* nonnull align 8 %55, i8 0, i64 20, i1 false)
  store i32 -1, i32* %54, align 8
  %56 = getelementptr inbounds %class.AffixMgr, %class.AffixMgr* %0, i64 0, i32 52
  store i32 -1, i32* %56, align 8
  %57 = getelementptr inbounds %class.AffixMgr, %class.AffixMgr* %0, i64 0, i32 53
  store i32 0, i32* %57, align 4
  %58 = getelementptr inbounds %class.AffixMgr, %class.AffixMgr* %0, i64 0, i32 51
  store i32 -1, i32* %58, align 4
  %59 = getelementptr inbounds %class.AffixMgr, %class.AffixMgr* %0, i64 0, i32 54
  store i32 0, i32* %59, align 8
  %60 = getelementptr inbounds %class.AffixMgr, %class.AffixMgr* %0, i64 0, i32 55
  store i32 0, i32* %60, align 4
  %61 = getelementptr inbounds %class.AffixMgr, %class.AffixMgr* %0, i64 0, i32 81
  %62 = getelementptr inbounds %class.AffixMgr, %class.AffixMgr* %0, i64 0, i32 87
  store i32 0, i32* %62, align 8
  %63 = getelementptr inbounds %class.AffixMgr, %class.AffixMgr* %0, i64 0, i32 88
  store i32 0, i32* %63, align 4
  %64 = getelementptr inbounds %class.AffixMgr, %class.AffixMgr* %0, i64 0, i32 67
  %65 = bitcast %class.AffixMgr* %0 to i8*
  call void @llvm.memset.p0i8.i64(i8* align 8 %65, i8 0, i64 8192, i1 false)
  %66 = bitcast %class.SfxEntry** %64 to i8*
  call void @llvm.memset.p0i8.i64(i8* nonnull align 8 %66, i8 0, i64 16, i1 false)
  %67 = bitcast i16* %61 to i8*
  call void @llvm.memset.p0i8.i64(i8* nonnull align 2 %67, i8 0, i64 12, i1 false)
  %68 = getelementptr %class.AffixMgr, %class.AffixMgr* %0, i64 0, i32 90, i64 0
  call void @llvm.memset.p0i8.i64(i8* align 1 %68, i8 0, i64 65536, i1 false)
  %69 = tail call i32 @_ZN8AffixMgr10parse_fileEPKcS1_(%class.AffixMgr* nonnull %0, i8* %1, i8* %3)
  %70 = load i32, i32* %46, align 8
  %71 = icmp eq i32 %70, -1
  br i1 %71, label %72, label %73

; <label>:72:                                     ; preds = %4
  store i32 3, i32* %46, align 8
  br label %73

; <label>:73:                                     ; preds = %72, %4
  ret void
}

; Function Attrs: norecurse nounwind sspstrong uwtable
define linkonce_odr hidden dereferenceable(8) %class.HashMgr** @_ZNKSt6vectorIP7HashMgrSaIS1_EEixEm(%"class.std::vector"*, i64) local_unnamed_addr #1 comdat align 2 {
  %3 = getelementptr inbounds %"class.std::vector", %"class.std::vector"* %0, i64 0, i32 0, i32 0, i32 0
  %4 = load %class.HashMgr**, %class.HashMgr*** %3, align 8
  %5 = getelementptr inbounds %class.HashMgr*, %class.HashMgr** %4, i64 %1
  ret %class.HashMgr** %5
}

; Function Attrs: norecurse nounwind sspstrong uwtable
define linkonce_odr hidden void @_ZNSt6vectorI9replentrySaIS0_EEC2Ev(%"class.std::vector.5"*) unnamed_addr #1 comdat align 2 {
  %2 = getelementptr inbounds %"class.std::vector.5", %"class.std::vector.5"* %0, i64 0, i32 0
  tail call void @_ZNSt12_Vector_baseI9replentrySaIS0_EEC2Ev(%"struct.std::_Vector_base.6"* %2)
  ret void
}

; Function Attrs: norecurse nounwind sspstrong uwtable
define linkonce_odr void @_ZNSt6vectorIS_INSt7__cxx1112basic_stringIcSt11char_traitsIcESaIcEEESaIS5_EESaIS7_EEC2Ev(%"class.std::vector.10"*) unnamed_addr #1 comdat align 2 {
  %2 = getelementptr inbounds %"class.std::vector.10", %"class.std::vector.10"* %0, i64 0, i32 0
  tail call void @_ZNSt12_Vector_baseISt6vectorINSt7__cxx1112basic_stringIcSt11char_traitsIcESaIcEEESaIS6_EESaIS8_EEC2Ev(%"struct.std::_Vector_base.11"* %2)
  ret void
}

; Function Attrs: norecurse nounwind sspstrong uwtable
define linkonce_odr void @_ZNSt6vectorINSt7__cxx1112basic_stringIcSt11char_traitsIcESaIcEEESaIS5_EEC2Ev(%"class.std::vector.15"*) unnamed_addr #1 comdat align 2 {
  %2 = getelementptr inbounds %"class.std::vector.15", %"class.std::vector.15"* %0, i64 0, i32 0
  tail call void @_ZNSt12_Vector_baseINSt7__cxx1112basic_stringIcSt11char_traitsIcESaIcEEESaIS5_EEC2Ev(%"struct.std::_Vector_base.16"* %2)
  ret void
}

; Function Attrs: norecurse nounwind sspstrong uwtable
define linkonce_odr hidden void @_ZNSt6vectorI8patentrySaIS0_EEC2Ev(%"class.std::vector.20"*) unnamed_addr #1 comdat align 2 {
  %2 = getelementptr inbounds %"class.std::vector.20", %"class.std::vector.20"* %0, i64 0, i32 0
  tail call void @_ZNSt12_Vector_baseI8patentrySaIS0_EEC2Ev(%"struct.std::_Vector_base.21"* %2)
  ret void
}

; Function Attrs: norecurse nounwind sspstrong uwtable
define linkonce_odr void @_ZNSt6vectorIS_ItSaItEESaIS1_EEC2Ev(%"class.std::vector.25"*) unnamed_addr #1 comdat align 2 {
  %2 = getelementptr inbounds %"class.std::vector.25", %"class.std::vector.25"* %0, i64 0, i32 0
  tail call void @_ZNSt12_Vector_baseISt6vectorItSaItEESaIS2_EEC2Ev(%"struct.std::_Vector_base.26"* %2)
  ret void
}

; Function Attrs: norecurse nounwind sspstrong uwtable
define linkonce_odr hidden void @_ZNSt6vectorI6w_charSaIS0_EEC2Ev(%"class.std::vector.1"*) unnamed_addr #1 comdat align 2 {
  %2 = getelementptr inbounds %"class.std::vector.1", %"class.std::vector.1"* %0, i64 0, i32 0
  tail call void @_ZNSt12_Vector_baseI6w_charSaIS0_EEC2Ev(%"struct.std::_Vector_base"* %2)
  ret void
}

; Function Attrs: nounwind sspstrong uwtable
define hidden i32 @_ZN8AffixMgr10parse_fileEPKcS1_(%class.AffixMgr*, i8*, i8*) local_unnamed_addr #0 align 2 {
  %4 = alloca [65536 x i8], align 16
  %5 = alloca %"class.std::__cxx11::basic_string", align 8
  %6 = alloca %"class.std::__cxx11::basic_string", align 8
  %7 = alloca %"class.std::allocator", align 1
  %8 = alloca %"class.std::__cxx11::basic_string", align 8
  %9 = alloca %"class.std::allocator", align 1
  %10 = alloca %"class.std::__cxx11::basic_string", align 8
  %11 = alloca %"class.std::__cxx11::basic_string", align 8
  %12 = alloca %"class.std::allocator", align 1
  %13 = alloca %"class.std::__cxx11::basic_string", align 8
  %14 = alloca %"class.std::allocator", align 1
  %15 = alloca %"class.std::__cxx11::basic_string", align 8
  %16 = alloca %"class.std::allocator", align 1
  %17 = getelementptr inbounds [65536 x i8], [65536 x i8]* %4, i64 0, i64 0
  call void @llvm.lifetime.start.p0i8(i64 65536, i8* nonnull %17) #18
  %18 = tail call noalias i8* @moz_xmalloc(i64 4136) #18
  %19 = bitcast i8* %18 to %class.FileMgr*
  tail call void @_ZN7FileMgrC1EPKcS1_(%class.FileMgr* %19, i8* %1, i8* %2) #18
  %20 = icmp eq i8* %18, null
  br i1 %20, label %502, label %21

; <label>:21:                                     ; preds = %3
  %22 = bitcast %"class.std::__cxx11::basic_string"* %5 to i8*
  call void @llvm.lifetime.start.p0i8(i64 32, i8* nonnull %22) #18
  call void @_ZNSt7__cxx1112basic_stringIcSt11char_traitsIcESaIcEEC2Ev(%"class.std::__cxx11::basic_string"* nonnull %5) #18
  %23 = call zeroext i1 @_ZN7FileMgr7getlineERNSt7__cxx1112basic_stringIcSt11char_traitsIcESaIcEEE(%class.FileMgr* %19, %"class.std::__cxx11::basic_string"* nonnull dereferenceable(32) %5) #18
  br i1 %23, label %24, label %459

; <label>:24:                                     ; preds = %21
  %25 = getelementptr inbounds %class.AffixMgr, %class.AffixMgr* %0, i64 0, i32 6
  %26 = getelementptr inbounds %class.AffixMgr, %class.AffixMgr* %0, i64 0, i32 7
  %27 = getelementptr inbounds %class.AffixMgr, %class.AffixMgr* %0, i64 0, i32 8
  %28 = getelementptr inbounds %class.AffixMgr, %class.AffixMgr* %0, i64 0, i32 11
  %29 = getelementptr inbounds %class.AffixMgr, %class.AffixMgr* %0, i64 0, i32 10
  %30 = getelementptr inbounds %class.AffixMgr, %class.AffixMgr* %0, i64 0, i32 12
  %31 = getelementptr inbounds %class.AffixMgr, %class.AffixMgr* %0, i64 0, i32 11
  %32 = getelementptr inbounds %class.AffixMgr, %class.AffixMgr* %0, i64 0, i32 13
  %33 = getelementptr inbounds %class.AffixMgr, %class.AffixMgr* %0, i64 0, i32 15
  %34 = getelementptr inbounds %class.AffixMgr, %class.AffixMgr* %0, i64 0, i32 14
  %35 = getelementptr inbounds %class.AffixMgr, %class.AffixMgr* %0, i64 0, i32 11
  %36 = getelementptr inbounds %class.AffixMgr, %class.AffixMgr* %0, i64 0, i32 15
  %37 = getelementptr inbounds %class.AffixMgr, %class.AffixMgr* %0, i64 0, i32 13
  %38 = getelementptr inbounds %class.AffixMgr, %class.AffixMgr* %0, i64 0, i32 56
  %39 = getelementptr inbounds %class.AffixMgr, %class.AffixMgr* %0, i64 0, i32 16
  %40 = getelementptr inbounds %class.AffixMgr, %class.AffixMgr* %0, i64 0, i32 18
  %41 = getelementptr inbounds %class.AffixMgr, %class.AffixMgr* %0, i64 0, i32 17
  %42 = getelementptr inbounds %class.AffixMgr, %class.AffixMgr* %0, i64 0, i32 20
  %43 = getelementptr inbounds %class.AffixMgr, %class.AffixMgr* %0, i64 0, i32 21
  %44 = getelementptr inbounds %class.AffixMgr, %class.AffixMgr* %0, i64 0, i32 22
  %45 = getelementptr inbounds %class.AffixMgr, %class.AffixMgr* %0, i64 0, i32 24
  %46 = getelementptr inbounds %class.AffixMgr, %class.AffixMgr* %0, i64 0, i32 25
  %47 = getelementptr inbounds %class.AffixMgr, %class.AffixMgr* %0, i64 0, i32 23
  %48 = getelementptr inbounds %class.AffixMgr, %class.AffixMgr* %0, i64 0, i32 27
  %49 = getelementptr inbounds %class.AffixMgr, %class.AffixMgr* %0, i64 0, i32 28
  %50 = getelementptr inbounds %class.AffixMgr, %class.AffixMgr* %0, i64 0, i32 26
  %51 = getelementptr inbounds %class.AffixMgr, %class.AffixMgr* %0, i64 0, i32 78
  %52 = getelementptr inbounds %class.AffixMgr, %class.AffixMgr* %0, i64 0, i32 79
  %53 = getelementptr inbounds %class.AffixMgr, %class.AffixMgr* %0, i64 0, i32 80
  %54 = getelementptr inbounds %class.AffixMgr, %class.AffixMgr* %0, i64 0, i32 29
  %55 = getelementptr inbounds %class.AffixMgr, %class.AffixMgr* %0, i64 0, i32 29
  %56 = getelementptr inbounds %class.AffixMgr, %class.AffixMgr* %0, i64 0, i32 30
  %57 = getelementptr inbounds %class.AffixMgr, %class.AffixMgr* %0, i64 0, i32 60
  %58 = getelementptr inbounds %class.AffixMgr, %class.AffixMgr* %0, i64 0, i32 69
  %59 = getelementptr inbounds %class.AffixMgr, %class.AffixMgr* %0, i64 0, i32 71
  %60 = getelementptr inbounds %class.AffixMgr, %class.AffixMgr* %0, i64 0, i32 72
  %61 = getelementptr inbounds %class.AffixMgr, %class.AffixMgr* %0, i64 0, i32 10
  %62 = getelementptr inbounds %class.AffixMgr, %class.AffixMgr* %0, i64 0, i32 73
  %63 = getelementptr inbounds %class.AffixMgr, %class.AffixMgr* %0, i64 0, i32 74
  %64 = getelementptr inbounds %class.AffixMgr, %class.AffixMgr* %0, i64 0, i32 10
  %65 = getelementptr inbounds %class.AffixMgr, %class.AffixMgr* %0, i64 0, i32 34
  %66 = bitcast %"class.std::__cxx11::basic_string"* %6 to i8*
  %67 = getelementptr inbounds %"class.std::allocator", %"class.std::allocator"* %7, i64 0, i32 0
  %68 = getelementptr inbounds %class.AffixMgr, %class.AffixMgr* %0, i64 0, i32 35
  %69 = bitcast %"class.std::__cxx11::basic_string"* %8 to i8*
  %70 = getelementptr inbounds %"class.std::allocator", %"class.std::allocator"* %9, i64 0, i32 0
  %71 = getelementptr inbounds %class.AffixMgr, %class.AffixMgr* %0, i64 0, i32 76
  %72 = getelementptr inbounds %class.AffixMgr, %class.AffixMgr* %0, i64 0, i32 77
  %73 = bitcast %"class.std::__cxx11::basic_string"* %10 to i8*
  %74 = getelementptr inbounds %class.AffixMgr, %class.AffixMgr* %0, i64 0, i32 75
  %75 = getelementptr inbounds %class.AffixMgr, %class.AffixMgr* %0, i64 0, i32 50
  %76 = getelementptr inbounds %class.AffixMgr, %class.AffixMgr* %0, i64 0, i32 53
  %77 = getelementptr inbounds %class.AffixMgr, %class.AffixMgr* %0, i64 0, i32 52
  %78 = getelementptr inbounds %class.AffixMgr, %class.AffixMgr* %0, i64 0, i32 51
  %79 = getelementptr inbounds %class.AffixMgr, %class.AffixMgr* %0, i64 0, i32 54
  %80 = getelementptr inbounds %class.AffixMgr, %class.AffixMgr* %0, i64 0, i32 88
  %81 = getelementptr inbounds %class.AffixMgr, %class.AffixMgr* %0, i64 0, i32 55
  %82 = getelementptr inbounds %class.AffixMgr, %class.AffixMgr* %0, i64 0, i32 81
  %83 = getelementptr inbounds %class.AffixMgr, %class.AffixMgr* %0, i64 0, i32 82
  %84 = getelementptr inbounds %class.AffixMgr, %class.AffixMgr* %0, i64 0, i32 83
  %85 = getelementptr inbounds %class.AffixMgr, %class.AffixMgr* %0, i64 0, i32 84
  %86 = getelementptr inbounds %class.AffixMgr, %class.AffixMgr* %0, i64 0, i32 85
  %87 = getelementptr inbounds %class.AffixMgr, %class.AffixMgr* %0, i64 0, i32 87
  %88 = getelementptr inbounds %class.AffixMgr, %class.AffixMgr* %0, i64 0, i32 11
  %89 = getelementptr inbounds %class.AffixMgr, %class.AffixMgr* %0, i64 0, i32 11
  br label %90

; <label>:90:                                     ; preds = %24, %456
  %91 = phi i8 [ 1, %24 ], [ %457, %456 ]
  %92 = phi i1 [ false, %24 ], [ true, %456 ]
  call void @_Z7mychompRNSt7__cxx1112basic_stringIcSt11char_traitsIcESaIcEEE(%"class.std::__cxx11::basic_string"* nonnull dereferenceable(32) %5)
  br i1 %92, label %98, label %93

; <label>:93:                                     ; preds = %90
  %94 = call i32 @_ZNKSt7__cxx1112basic_stringIcSt11char_traitsIcESaIcEE7compareEmmPKcm(%"class.std::__cxx11::basic_string"* nonnull %5, i64 0, i64 3, i8* getelementptr inbounds ([4 x i8], [4 x i8]* @.str.6, i64 0, i64 0), i64 3) #18
  %95 = icmp eq i32 %94, 0
  br i1 %95, label %96, label %98

; <label>:96:                                     ; preds = %93
  %97 = call dereferenceable(32) %"class.std::__cxx11::basic_string"* @_ZNSt7__cxx1112basic_stringIcSt11char_traitsIcESaIcEE5eraseEmm(%"class.std::__cxx11::basic_string"* nonnull %5, i64 0, i64 3)
  br label %98

; <label>:98:                                     ; preds = %90, %93, %96
  %99 = call i32 @_ZNKSt7__cxx1112basic_stringIcSt11char_traitsIcESaIcEE7compareEmmPKcm(%"class.std::__cxx11::basic_string"* nonnull %5, i64 0, i64 3, i8* getelementptr inbounds ([4 x i8], [4 x i8]* @.str.7, i64 0, i64 0), i64 3) #18
  %100 = icmp eq i32 %99, 0
  br i1 %100, label %101, label %105

; <label>:101:                                    ; preds = %98
  %102 = call i32 @_ZNK7FileMgr10getlinenumEv(%class.FileMgr* %19)
  %103 = call zeroext i1 @_Z12parse_stringRKNSt7__cxx1112basic_stringIcSt11char_traitsIcESaIcEEERS4_i(%"class.std::__cxx11::basic_string"* nonnull dereferenceable(32) %5, %"class.std::__cxx11::basic_string"* nonnull dereferenceable(32) %25, i32 undef)
  br i1 %103, label %105, label %104

; <label>:104:                                    ; preds = %101
  call void @_ZN8AffixMgr13finishFileMgrEP7FileMgr(%class.AffixMgr* %0, %class.FileMgr* %19)
  br label %500

; <label>:105:                                    ; preds = %101, %98
  %106 = call i32 @_ZNKSt7__cxx1112basic_stringIcSt11char_traitsIcESaIcEE7compareEmmPKcm(%"class.std::__cxx11::basic_string"* nonnull %5, i64 0, i64 3, i8* getelementptr inbounds ([4 x i8], [4 x i8]* @.str.8, i64 0, i64 0), i64 3) #18
  %107 = icmp eq i32 %106, 0
  br i1 %107, label %108, label %112

; <label>:108:                                    ; preds = %105
  %109 = call i32 @_ZNK7FileMgr10getlinenumEv(%class.FileMgr* %19)
  %110 = call zeroext i1 @_Z12parse_stringRKNSt7__cxx1112basic_stringIcSt11char_traitsIcESaIcEEERS4_i(%"class.std::__cxx11::basic_string"* nonnull dereferenceable(32) %5, %"class.std::__cxx11::basic_string"* nonnull dereferenceable(32) %26, i32 undef)
  br i1 %110, label %112, label %111

; <label>:111:                                    ; preds = %108
  call void @_ZN8AffixMgr13finishFileMgrEP7FileMgr(%class.AffixMgr* %0, %class.FileMgr* %19)
  br label %500

; <label>:112:                                    ; preds = %108, %105
  %113 = call i32 @_ZNKSt7__cxx1112basic_stringIcSt11char_traitsIcESaIcEE7compareEmmPKcm(%"class.std::__cxx11::basic_string"* nonnull %5, i64 0, i64 3, i8* getelementptr inbounds ([4 x i8], [4 x i8]* @.str.9, i64 0, i64 0), i64 3) #18
  %114 = icmp eq i32 %113, 0
  br i1 %114, label %115, label %122

; <label>:115:                                    ; preds = %112
  %116 = call i32 @_ZNK7FileMgr10getlinenumEv(%class.FileMgr* %19)
  %117 = call zeroext i1 @_Z12parse_stringRKNSt7__cxx1112basic_stringIcSt11char_traitsIcESaIcEEERS4_i(%"class.std::__cxx11::basic_string"* nonnull dereferenceable(32) %5, %"class.std::__cxx11::basic_string"* nonnull dereferenceable(32) %27, i32 undef)
  br i1 %117, label %119, label %118

; <label>:118:                                    ; preds = %115
  call void @_ZN8AffixMgr13finishFileMgrEP7FileMgr(%class.AffixMgr* %0, %class.FileMgr* %19)
  br label %500

; <label>:119:                                    ; preds = %115
  %120 = call zeroext i1 @_ZSteqIcSt11char_traitsIcESaIcEEbRKNSt7__cxx1112basic_stringIT_T0_T1_EEPKS5_(%"class.std::__cxx11::basic_string"* nonnull dereferenceable(32) %27, i8* getelementptr inbounds ([6 x i8], [6 x i8]* @.str.10, i64 0, i64 0))
  br i1 %120, label %121, label %122

; <label>:121:                                    ; preds = %119
  store i32 1, i32* %29, align 8
  br label %122

; <label>:122:                                    ; preds = %119, %121, %112
  %123 = call i32 @_ZNKSt7__cxx1112basic_stringIcSt11char_traitsIcESaIcEE7compareEmmPKcm(%"class.std::__cxx11::basic_string"* nonnull %5, i64 0, i64 15, i8* getelementptr inbounds ([16 x i8], [16 x i8]* @.str.11, i64 0, i64 0), i64 15) #18
  %124 = icmp eq i32 %123, 0
  br i1 %124, label %125, label %126

; <label>:125:                                    ; preds = %122
  store i32 1, i32* %28, align 4
  br label %126

; <label>:126:                                    ; preds = %125, %122
  %127 = call i32 @_ZNKSt7__cxx1112basic_stringIcSt11char_traitsIcESaIcEE7compareEmmPKcm(%"class.std::__cxx11::basic_string"* nonnull %5, i64 0, i64 12, i8* getelementptr inbounds ([13 x i8], [13 x i8]* @.str.12, i64 0, i64 0), i64 12) #18
  %128 = icmp eq i32 %127, 0
  br i1 %128, label %129, label %132

; <label>:129:                                    ; preds = %126
  %130 = call zeroext i1 @_ZN8AffixMgr10parse_flagERKNSt7__cxx1112basic_stringIcSt11char_traitsIcESaIcEEEPtP7FileMgr(%class.AffixMgr* %0, %"class.std::__cxx11::basic_string"* nonnull dereferenceable(32) %5, i16* nonnull %30, %class.FileMgr* %19)
  br i1 %130, label %132, label %131

; <label>:131:                                    ; preds = %129
  call void @_ZN8AffixMgr13finishFileMgrEP7FileMgr(%class.AffixMgr* %0, %class.FileMgr* %19)
  br label %500

; <label>:132:                                    ; preds = %129, %126
  %133 = call i32 @_ZNKSt7__cxx1112basic_stringIcSt11char_traitsIcESaIcEE7compareEmmPKcm(%"class.std::__cxx11::basic_string"* nonnull %5, i64 0, i64 13, i8* getelementptr inbounds ([14 x i8], [14 x i8]* @.str.13, i64 0, i64 0), i64 13) #18
  %134 = icmp eq i32 %133, 0
  br i1 %134, label %135, label %144

; <label>:135:                                    ; preds = %132
  %136 = load i32, i32* %31, align 4
  %137 = icmp eq i32 %136, 0
  br i1 %137, label %141, label %138

; <label>:138:                                    ; preds = %135
  %139 = call zeroext i1 @_ZN8AffixMgr10parse_flagERKNSt7__cxx1112basic_stringIcSt11char_traitsIcESaIcEEEPtP7FileMgr(%class.AffixMgr* nonnull %0, %"class.std::__cxx11::basic_string"* nonnull dereferenceable(32) %5, i16* nonnull %33, %class.FileMgr* %19)
  br i1 %139, label %144, label %140

; <label>:140:                                    ; preds = %138
  call void @_ZN8AffixMgr13finishFileMgrEP7FileMgr(%class.AffixMgr* nonnull %0, %class.FileMgr* %19)
  br label %500

; <label>:141:                                    ; preds = %135
  %142 = call zeroext i1 @_ZN8AffixMgr10parse_flagERKNSt7__cxx1112basic_stringIcSt11char_traitsIcESaIcEEEPtP7FileMgr(%class.AffixMgr* nonnull %0, %"class.std::__cxx11::basic_string"* nonnull dereferenceable(32) %5, i16* nonnull %32, %class.FileMgr* %19)
  br i1 %142, label %144, label %143

; <label>:143:                                    ; preds = %141
  call void @_ZN8AffixMgr13finishFileMgrEP7FileMgr(%class.AffixMgr* nonnull %0, %class.FileMgr* %19)
  br label %500

; <label>:144:                                    ; preds = %138, %141, %132
  %145 = call i32 @_ZNKSt7__cxx1112basic_stringIcSt11char_traitsIcESaIcEE7compareEmmPKcm(%"class.std::__cxx11::basic_string"* nonnull %5, i64 0, i64 14, i8* getelementptr inbounds ([15 x i8], [15 x i8]* @.str.14, i64 0, i64 0), i64 14) #18
  %146 = icmp eq i32 %145, 0
  br i1 %146, label %147, label %150

; <label>:147:                                    ; preds = %144
  %148 = call zeroext i1 @_ZN8AffixMgr10parse_flagERKNSt7__cxx1112basic_stringIcSt11char_traitsIcESaIcEEEPtP7FileMgr(%class.AffixMgr* %0, %"class.std::__cxx11::basic_string"* nonnull dereferenceable(32) %5, i16* nonnull %34, %class.FileMgr* %19)
  br i1 %148, label %150, label %149

; <label>:149:                                    ; preds = %147
  call void @_ZN8AffixMgr13finishFileMgrEP7FileMgr(%class.AffixMgr* %0, %class.FileMgr* %19)
  br label %500

; <label>:150:                                    ; preds = %147, %144
  %151 = call i32 @_ZNKSt7__cxx1112basic_stringIcSt11char_traitsIcESaIcEE7compareEmmPKcm(%"class.std::__cxx11::basic_string"* nonnull %5, i64 0, i64 11, i8* getelementptr inbounds ([12 x i8], [12 x i8]* @.str.15, i64 0, i64 0), i64 11) #18
  %152 = icmp eq i32 %151, 0
  br i1 %152, label %153, label %162

; <label>:153:                                    ; preds = %150
  %154 = load i32, i32* %35, align 4
  %155 = icmp eq i32 %154, 0
  br i1 %155, label %159, label %156

; <label>:156:                                    ; preds = %153
  %157 = call zeroext i1 @_ZN8AffixMgr10parse_flagERKNSt7__cxx1112basic_stringIcSt11char_traitsIcESaIcEEEPtP7FileMgr(%class.AffixMgr* nonnull %0, %"class.std::__cxx11::basic_string"* nonnull dereferenceable(32) %5, i16* nonnull %37, %class.FileMgr* %19)
  br i1 %157, label %162, label %158

; <label>:158:                                    ; preds = %156
  call void @_ZN8AffixMgr13finishFileMgrEP7FileMgr(%class.AffixMgr* nonnull %0, %class.FileMgr* %19)
  br label %500

; <label>:159:                                    ; preds = %153
  %160 = call zeroext i1 @_ZN8AffixMgr10parse_flagERKNSt7__cxx1112basic_stringIcSt11char_traitsIcESaIcEEEPtP7FileMgr(%class.AffixMgr* nonnull %0, %"class.std::__cxx11::basic_string"* nonnull dereferenceable(32) %5, i16* nonnull %36, %class.FileMgr* %19)
  br i1 %160, label %162, label %161

; <label>:161:                                    ; preds = %159
  call void @_ZN8AffixMgr13finishFileMgrEP7FileMgr(%class.AffixMgr* nonnull %0, %class.FileMgr* %19)
  br label %500

; <label>:162:                                    ; preds = %156, %159, %150
  %163 = call i32 @_ZNKSt7__cxx1112basic_stringIcSt11char_traitsIcESaIcEE7compareEmmPKcm(%"class.std::__cxx11::basic_string"* nonnull %5, i64 0, i64 15, i8* getelementptr inbounds ([16 x i8], [16 x i8]* @.str.16, i64 0, i64 0), i64 15) #18
  %164 = icmp eq i32 %163, 0
  br i1 %164, label %165, label %168

; <label>:165:                                    ; preds = %162
  %166 = call zeroext i1 @_ZN8AffixMgr9parse_numERKNSt7__cxx1112basic_stringIcSt11char_traitsIcESaIcEEEPiP7FileMgr(%class.AffixMgr* undef, %"class.std::__cxx11::basic_string"* nonnull dereferenceable(32) %5, i32* nonnull %38, %class.FileMgr* %19)
  br i1 %166, label %168, label %167

; <label>:167:                                    ; preds = %165
  call void @_ZN8AffixMgr13finishFileMgrEP7FileMgr(%class.AffixMgr* %0, %class.FileMgr* %19)
  br label %500

; <label>:168:                                    ; preds = %165, %162
  %169 = call i32 @_ZNKSt7__cxx1112basic_stringIcSt11char_traitsIcESaIcEE7compareEmmPKcm(%"class.std::__cxx11::basic_string"* nonnull %5, i64 0, i64 12, i8* getelementptr inbounds ([13 x i8], [13 x i8]* @.str.17, i64 0, i64 0), i64 12) #18
  %170 = icmp eq i32 %169, 0
  br i1 %170, label %171, label %174

; <label>:171:                                    ; preds = %168
  %172 = call zeroext i1 @_ZN8AffixMgr10parse_flagERKNSt7__cxx1112basic_stringIcSt11char_traitsIcESaIcEEEPtP7FileMgr(%class.AffixMgr* %0, %"class.std::__cxx11::basic_string"* nonnull dereferenceable(32) %5, i16* nonnull %39, %class.FileMgr* %19)
  br i1 %172, label %174, label %173

; <label>:173:                                    ; preds = %171
  call void @_ZN8AffixMgr13finishFileMgrEP7FileMgr(%class.AffixMgr* %0, %class.FileMgr* %19)
  br label %500

; <label>:174:                                    ; preds = %171, %168
  %175 = call i32 @_ZNKSt7__cxx1112basic_stringIcSt11char_traitsIcESaIcEE7compareEmmPKcm(%"class.std::__cxx11::basic_string"* nonnull %5, i64 0, i64 18, i8* getelementptr inbounds ([19 x i8], [19 x i8]* @.str.18, i64 0, i64 0), i64 18) #18
  %176 = icmp eq i32 %175, 0
  br i1 %176, label %177, label %180

; <label>:177:                                    ; preds = %174
  %178 = call zeroext i1 @_ZN8AffixMgr10parse_flagERKNSt7__cxx1112basic_stringIcSt11char_traitsIcESaIcEEEPtP7FileMgr(%class.AffixMgr* %0, %"class.std::__cxx11::basic_string"* nonnull dereferenceable(32) %5, i16* nonnull %40, %class.FileMgr* %19)
  br i1 %178, label %180, label %179

; <label>:179:                                    ; preds = %177
  call void @_ZN8AffixMgr13finishFileMgrEP7FileMgr(%class.AffixMgr* %0, %class.FileMgr* %19)
  br label %500

; <label>:180:                                    ; preds = %177, %174
  %181 = call i32 @_ZNKSt7__cxx1112basic_stringIcSt11char_traitsIcESaIcEE7compareEmmPKcm(%"class.std::__cxx11::basic_string"* nonnull %5, i64 0, i64 18, i8* getelementptr inbounds ([19 x i8], [19 x i8]* @.str.19, i64 0, i64 0), i64 18) #18
  %182 = icmp eq i32 %181, 0
  br i1 %182, label %183, label %186

; <label>:183:                                    ; preds = %180
  %184 = call zeroext i1 @_ZN8AffixMgr10parse_flagERKNSt7__cxx1112basic_stringIcSt11char_traitsIcESaIcEEEPtP7FileMgr(%class.AffixMgr* %0, %"class.std::__cxx11::basic_string"* nonnull dereferenceable(32) %5, i16* nonnull %41, %class.FileMgr* %19)
  br i1 %184, label %186, label %185

; <label>:185:                                    ; preds = %183
  call void @_ZN8AffixMgr13finishFileMgrEP7FileMgr(%class.AffixMgr* %0, %class.FileMgr* %19)
  br label %500

; <label>:186:                                    ; preds = %183, %180
  %187 = call i32 @_ZNKSt7__cxx1112basic_stringIcSt11char_traitsIcESaIcEE7compareEmmPKcm(%"class.std::__cxx11::basic_string"* nonnull %5, i64 0, i64 20, i8* getelementptr inbounds ([21 x i8], [21 x i8]* @.str.20, i64 0, i64 0), i64 20) #18
  %188 = icmp eq i32 %187, 0
  br i1 %188, label %189, label %190

; <label>:189:                                    ; preds = %186
  store i32 1, i32* %42, align 8
  br label %190

; <label>:190:                                    ; preds = %189, %186
  %191 = call i32 @_ZNKSt7__cxx1112basic_stringIcSt11char_traitsIcESaIcEE7compareEmmPKcm(%"class.std::__cxx11::basic_string"* nonnull %5, i64 0, i64 16, i8* getelementptr inbounds ([17 x i8], [17 x i8]* @.str.21, i64 0, i64 0), i64 16) #18
  %192 = icmp eq i32 %191, 0
  br i1 %192, label %193, label %194

; <label>:193:                                    ; preds = %190
  store i32 1, i32* %43, align 4
  br label %194

; <label>:194:                                    ; preds = %193, %190
  %195 = call i32 @_ZNKSt7__cxx1112basic_stringIcSt11char_traitsIcESaIcEE7compareEmmPKcm(%"class.std::__cxx11::basic_string"* nonnull %5, i64 0, i64 16, i8* getelementptr inbounds ([17 x i8], [17 x i8]* @.str.22, i64 0, i64 0), i64 16) #18
  %196 = icmp eq i32 %195, 0
  br i1 %196, label %197, label %198

; <label>:197:                                    ; preds = %194
  store i32 1, i32* %44, align 8
  br label %198

; <label>:198:                                    ; preds = %197, %194
  %199 = call i32 @_ZNKSt7__cxx1112basic_stringIcSt11char_traitsIcESaIcEE7compareEmmPKcm(%"class.std::__cxx11::basic_string"* nonnull %5, i64 0, i64 19, i8* getelementptr inbounds ([20 x i8], [20 x i8]* @.str.23, i64 0, i64 0), i64 19) #18
  %200 = icmp eq i32 %199, 0
  br i1 %200, label %201, label %202

; <label>:201:                                    ; preds = %198
  store i32 1, i32* %45, align 8
  br label %202

; <label>:202:                                    ; preds = %201, %198
  %203 = call i32 @_ZNKSt7__cxx1112basic_stringIcSt11char_traitsIcESaIcEE7compareEmmPKcm(%"class.std::__cxx11::basic_string"* nonnull %5, i64 0, i64 16, i8* getelementptr inbounds ([17 x i8], [17 x i8]* @.str.24, i64 0, i64 0), i64 16) #18
  %204 = icmp eq i32 %203, 0
  br i1 %204, label %205, label %206

; <label>:205:                                    ; preds = %202
  store i32 1, i32* %46, align 4
  br label %206

; <label>:206:                                    ; preds = %205, %202
  %207 = call i32 @_ZNKSt7__cxx1112basic_stringIcSt11char_traitsIcESaIcEE7compareEmmPKcm(%"class.std::__cxx11::basic_string"* nonnull %5, i64 0, i64 17, i8* getelementptr inbounds ([18 x i8], [18 x i8]* @.str.25, i64 0, i64 0), i64 17) #18
  %208 = icmp eq i32 %207, 0
  br i1 %208, label %209, label %210

; <label>:209:                                    ; preds = %206
  store i32 1, i32* %47, align 4
  br label %210

; <label>:210:                                    ; preds = %209, %206
  %211 = call i32 @_ZNKSt7__cxx1112basic_stringIcSt11char_traitsIcESaIcEE7compareEmmPKcm(%"class.std::__cxx11::basic_string"* nonnull %5, i64 0, i64 9, i8* getelementptr inbounds ([10 x i8], [10 x i8]* @.str.26, i64 0, i64 0), i64 9) #18
  %212 = icmp eq i32 %211, 0
  br i1 %212, label %213, label %216

; <label>:213:                                    ; preds = %210
  %214 = call zeroext i1 @_ZN8AffixMgr10parse_flagERKNSt7__cxx1112basic_stringIcSt11char_traitsIcESaIcEEEPtP7FileMgr(%class.AffixMgr* %0, %"class.std::__cxx11::basic_string"* nonnull dereferenceable(32) %5, i16* nonnull %48, %class.FileMgr* %19)
  br i1 %214, label %216, label %215

; <label>:215:                                    ; preds = %213
  call void @_ZN8AffixMgr13finishFileMgrEP7FileMgr(%class.AffixMgr* %0, %class.FileMgr* %19)
  br label %500

; <label>:216:                                    ; preds = %213, %210
  %217 = call i32 @_ZNKSt7__cxx1112basic_stringIcSt11char_traitsIcESaIcEE7compareEmmPKcm(%"class.std::__cxx11::basic_string"* nonnull %5, i64 0, i64 14, i8* getelementptr inbounds ([15 x i8], [15 x i8]* @.str.27, i64 0, i64 0), i64 14) #18
  %218 = icmp eq i32 %217, 0
  br i1 %218, label %219, label %222

; <label>:219:                                    ; preds = %216
  %220 = call zeroext i1 @_ZN8AffixMgr10parse_flagERKNSt7__cxx1112basic_stringIcSt11char_traitsIcESaIcEEEPtP7FileMgr(%class.AffixMgr* %0, %"class.std::__cxx11::basic_string"* nonnull dereferenceable(32) %5, i16* nonnull %49, %class.FileMgr* %19)
  br i1 %220, label %222, label %221

; <label>:221:                                    ; preds = %219
  call void @_ZN8AffixMgr13finishFileMgrEP7FileMgr(%class.AffixMgr* %0, %class.FileMgr* %19)
  br label %500

; <label>:222:                                    ; preds = %219, %216
  %223 = call i32 @_ZNKSt7__cxx1112basic_stringIcSt11char_traitsIcESaIcEE7compareEmmPKcm(%"class.std::__cxx11::basic_string"* nonnull %5, i64 0, i64 13, i8* getelementptr inbounds ([14 x i8], [14 x i8]* @.str.28, i64 0, i64 0), i64 13) #18
  %224 = icmp eq i32 %223, 0
  br i1 %224, label %225, label %228

; <label>:225:                                    ; preds = %222
  %226 = call zeroext i1 @_ZN8AffixMgr10parse_flagERKNSt7__cxx1112basic_stringIcSt11char_traitsIcESaIcEEEPtP7FileMgr(%class.AffixMgr* %0, %"class.std::__cxx11::basic_string"* nonnull dereferenceable(32) %5, i16* nonnull %50, %class.FileMgr* %19)
  br i1 %226, label %228, label %227

; <label>:227:                                    ; preds = %225
  call void @_ZN8AffixMgr13finishFileMgrEP7FileMgr(%class.AffixMgr* %0, %class.FileMgr* %19)
  br label %500

; <label>:228:                                    ; preds = %225, %222
  %229 = call i32 @_ZNKSt7__cxx1112basic_stringIcSt11char_traitsIcESaIcEE7compareEmmPKcm(%"class.std::__cxx11::basic_string"* nonnull %5, i64 0, i64 13, i8* getelementptr inbounds ([14 x i8], [14 x i8]* @.str.29, i64 0, i64 0), i64 13) #18
  %230 = icmp eq i32 %229, 0
  br i1 %230, label %231, label %234

; <label>:231:                                    ; preds = %228
  %232 = call zeroext i1 @_ZN8AffixMgr10parse_flagERKNSt7__cxx1112basic_stringIcSt11char_traitsIcESaIcEEEPtP7FileMgr(%class.AffixMgr* %0, %"class.std::__cxx11::basic_string"* nonnull dereferenceable(32) %5, i16* nonnull %51, %class.FileMgr* %19)
  br i1 %232, label %234, label %233

; <label>:233:                                    ; preds = %231
  call void @_ZN8AffixMgr13finishFileMgrEP7FileMgr(%class.AffixMgr* %0, %class.FileMgr* %19)
  br label %500

; <label>:234:                                    ; preds = %231, %228
  %235 = call i32 @_ZNKSt7__cxx1112basic_stringIcSt11char_traitsIcESaIcEE7compareEmmPKcm(%"class.std::__cxx11::basic_string"* nonnull %5, i64 0, i64 9, i8* getelementptr inbounds ([10 x i8], [10 x i8]* @.str.30, i64 0, i64 0), i64 9) #18
  %236 = icmp eq i32 %235, 0
  br i1 %236, label %237, label %240

; <label>:237:                                    ; preds = %234
  %238 = call zeroext i1 @_ZN8AffixMgr10parse_flagERKNSt7__cxx1112basic_stringIcSt11char_traitsIcESaIcEEEPtP7FileMgr(%class.AffixMgr* %0, %"class.std::__cxx11::basic_string"* nonnull dereferenceable(32) %5, i16* nonnull %52, %class.FileMgr* %19)
  br i1 %238, label %240, label %239

; <label>:239:                                    ; preds = %237
  call void @_ZN8AffixMgr13finishFileMgrEP7FileMgr(%class.AffixMgr* %0, %class.FileMgr* %19)
  br label %500

; <label>:240:                                    ; preds = %237, %234
  %241 = call i32 @_ZNKSt7__cxx1112basic_stringIcSt11char_traitsIcESaIcEE7compareEmmPKcm(%"class.std::__cxx11::basic_string"* nonnull %5, i64 0, i64 14, i8* getelementptr inbounds ([15 x i8], [15 x i8]* @.str.31, i64 0, i64 0), i64 14) #18
  %242 = icmp eq i32 %241, 0
  br i1 %242, label %243, label %246

; <label>:243:                                    ; preds = %240
  %244 = call zeroext i1 @_ZN8AffixMgr10parse_flagERKNSt7__cxx1112basic_stringIcSt11char_traitsIcESaIcEEEPtP7FileMgr(%class.AffixMgr* %0, %"class.std::__cxx11::basic_string"* nonnull dereferenceable(32) %5, i16* nonnull %53, %class.FileMgr* %19)
  br i1 %244, label %246, label %245

; <label>:245:                                    ; preds = %243
  call void @_ZN8AffixMgr13finishFileMgrEP7FileMgr(%class.AffixMgr* %0, %class.FileMgr* %19)
  br label %500

; <label>:246:                                    ; preds = %243, %240
  %247 = call i32 @_ZNKSt7__cxx1112basic_stringIcSt11char_traitsIcESaIcEE7compareEmmPKcm(%"class.std::__cxx11::basic_string"* nonnull %5, i64 0, i64 10, i8* getelementptr inbounds ([11 x i8], [11 x i8]* @.str.32, i64 0, i64 0), i64 10) #18
  %248 = icmp eq i32 %247, 0
  br i1 %248, label %249, label %252

; <label>:249:                                    ; preds = %246
  %250 = call zeroext i1 @_ZN8AffixMgr10parse_flagERKNSt7__cxx1112basic_stringIcSt11char_traitsIcESaIcEEEPtP7FileMgr(%class.AffixMgr* %0, %"class.std::__cxx11::basic_string"* nonnull dereferenceable(32) %5, i16* nonnull %54, %class.FileMgr* %19)
  br i1 %250, label %252, label %251

; <label>:251:                                    ; preds = %249
  call void @_ZN8AffixMgr13finishFileMgrEP7FileMgr(%class.AffixMgr* %0, %class.FileMgr* %19)
  br label %500

; <label>:252:                                    ; preds = %249, %246
  %253 = call i32 @_ZNKSt7__cxx1112basic_stringIcSt11char_traitsIcESaIcEE7compareEmmPKcm(%"class.std::__cxx11::basic_string"* nonnull %5, i64 0, i64 9, i8* getelementptr inbounds ([10 x i8], [10 x i8]* @.str.33, i64 0, i64 0), i64 9) #18
  %254 = icmp eq i32 %253, 0
  br i1 %254, label %255, label %258

; <label>:255:                                    ; preds = %252
  %256 = call zeroext i1 @_ZN8AffixMgr10parse_flagERKNSt7__cxx1112basic_stringIcSt11char_traitsIcESaIcEEEPtP7FileMgr(%class.AffixMgr* %0, %"class.std::__cxx11::basic_string"* nonnull dereferenceable(32) %5, i16* nonnull %55, %class.FileMgr* %19)
  br i1 %256, label %258, label %257

; <label>:257:                                    ; preds = %255
  call void @_ZN8AffixMgr13finishFileMgrEP7FileMgr(%class.AffixMgr* %0, %class.FileMgr* %19)
  br label %500

; <label>:258:                                    ; preds = %255, %252
  %259 = call i32 @_ZNKSt7__cxx1112basic_stringIcSt11char_traitsIcESaIcEE7compareEmmPKcm(%"class.std::__cxx11::basic_string"* nonnull %5, i64 0, i64 11, i8* getelementptr inbounds ([12 x i8], [12 x i8]* @.str.34, i64 0, i64 0), i64 11) #18
  %260 = icmp eq i32 %259, 0
  br i1 %260, label %261, label %268

; <label>:261:                                    ; preds = %258
  %262 = call zeroext i1 @_ZN8AffixMgr9parse_numERKNSt7__cxx1112basic_stringIcSt11char_traitsIcESaIcEEEPiP7FileMgr(%class.AffixMgr* undef, %"class.std::__cxx11::basic_string"* nonnull dereferenceable(32) %5, i32* nonnull %56, %class.FileMgr* %19)
  br i1 %262, label %264, label %263

; <label>:263:                                    ; preds = %261
  call void @_ZN8AffixMgr13finishFileMgrEP7FileMgr(%class.AffixMgr* %0, %class.FileMgr* %19)
  br label %500

; <label>:264:                                    ; preds = %261
  %265 = load i32, i32* %56, align 8
  %266 = icmp slt i32 %265, 1
  br i1 %266, label %267, label %268

; <label>:267:                                    ; preds = %264
  store i32 1, i32* %56, align 8
  br label %268

; <label>:268:                                    ; preds = %264, %267, %258
  %269 = call i32 @_ZNKSt7__cxx1112basic_stringIcSt11char_traitsIcESaIcEE7compareEmmPKcm(%"class.std::__cxx11::basic_string"* nonnull %5, i64 0, i64 16, i8* getelementptr inbounds ([17 x i8], [17 x i8]* @.str.35, i64 0, i64 0), i64 16) #18
  %270 = icmp eq i32 %269, 0
  br i1 %270, label %271, label %274

; <label>:271:                                    ; preds = %268
  %272 = call zeroext i1 @_ZN8AffixMgr17parse_cpdsyllableERKNSt7__cxx1112basic_stringIcSt11char_traitsIcESaIcEEEP7FileMgr(%class.AffixMgr* %0, %"class.std::__cxx11::basic_string"* nonnull dereferenceable(32) %5, %class.FileMgr* %19)
  br i1 %272, label %274, label %273

; <label>:273:                                    ; preds = %271
  call void @_ZN8AffixMgr13finishFileMgrEP7FileMgr(%class.AffixMgr* %0, %class.FileMgr* %19)
  br label %500

; <label>:274:                                    ; preds = %271, %268
  %275 = call i32 @_ZNKSt7__cxx1112basic_stringIcSt11char_traitsIcESaIcEE7compareEmmPKcm(%"class.std::__cxx11::basic_string"* nonnull %5, i64 0, i64 11, i8* getelementptr inbounds ([12 x i8], [12 x i8]* @.str.36, i64 0, i64 0), i64 11) #18
  %276 = icmp eq i32 %275, 0
  br i1 %276, label %277, label %281

; <label>:277:                                    ; preds = %274
  %278 = call i32 @_ZNK7FileMgr10getlinenumEv(%class.FileMgr* %19)
  %279 = call zeroext i1 @_Z12parse_stringRKNSt7__cxx1112basic_stringIcSt11char_traitsIcESaIcEEERS4_i(%"class.std::__cxx11::basic_string"* nonnull dereferenceable(32) %5, %"class.std::__cxx11::basic_string"* nonnull dereferenceable(32) %57, i32 undef)
  br i1 %279, label %281, label %280

; <label>:280:                                    ; preds = %277
  call void @_ZN8AffixMgr13finishFileMgrEP7FileMgr(%class.AffixMgr* %0, %class.FileMgr* %19)
  br label %500

; <label>:281:                                    ; preds = %277, %274
  %282 = call i32 @_ZNKSt7__cxx1112basic_stringIcSt11char_traitsIcESaIcEE7compareEmmPKcm(%"class.std::__cxx11::basic_string"* nonnull %5, i64 0, i64 8, i8* getelementptr inbounds ([9 x i8], [9 x i8]* @.str.37, i64 0, i64 0), i64 8) #18
  %283 = icmp eq i32 %282, 0
  br i1 %283, label %284, label %285

; <label>:284:                                    ; preds = %281
  store i32 1, i32* %58, align 8
  br label %285

; <label>:285:                                    ; preds = %284, %281
  %286 = call i32 @_ZNKSt7__cxx1112basic_stringIcSt11char_traitsIcESaIcEE7compareEmmPKcm(%"class.std::__cxx11::basic_string"* nonnull %5, i64 0, i64 9, i8* getelementptr inbounds ([10 x i8], [10 x i8]* @.str.38, i64 0, i64 0), i64 9) #18
  %287 = icmp eq i32 %286, 0
  br i1 %287, label %288, label %293

; <label>:288:                                    ; preds = %285
  %289 = load i32, i32* %61, align 8
  %290 = call i32 @_ZNK7FileMgr10getlinenumEv(%class.FileMgr* %19)
  %291 = call zeroext i1 @_Z11parse_arrayRKNSt7__cxx1112basic_stringIcSt11char_traitsIcESaIcEEERS4_RSt6vectorI6w_charSaIS9_EEii(%"class.std::__cxx11::basic_string"* nonnull dereferenceable(32) %5, %"class.std::__cxx11::basic_string"* nonnull dereferenceable(32) %59, %"class.std::vector.1"* nonnull dereferenceable(24) %60, i32 %289, i32 undef)
  br i1 %291, label %293, label %292

; <label>:292:                                    ; preds = %288
  call void @_ZN8AffixMgr13finishFileMgrEP7FileMgr(%class.AffixMgr* nonnull %0, %class.FileMgr* %19)
  br label %500

; <label>:293:                                    ; preds = %288, %285
  %294 = call i32 @_ZNKSt7__cxx1112basic_stringIcSt11char_traitsIcESaIcEE7compareEmmPKcm(%"class.std::__cxx11::basic_string"* nonnull %5, i64 0, i64 6, i8* getelementptr inbounds ([7 x i8], [7 x i8]* @.str.39, i64 0, i64 0), i64 6) #18
  %295 = icmp eq i32 %294, 0
  br i1 %295, label %296, label %301

; <label>:296:                                    ; preds = %293
  %297 = load i32, i32* %64, align 8
  %298 = call i32 @_ZNK7FileMgr10getlinenumEv(%class.FileMgr* %19)
  %299 = call zeroext i1 @_Z11parse_arrayRKNSt7__cxx1112basic_stringIcSt11char_traitsIcESaIcEEERS4_RSt6vectorI6w_charSaIS9_EEii(%"class.std::__cxx11::basic_string"* nonnull dereferenceable(32) %5, %"class.std::__cxx11::basic_string"* nonnull dereferenceable(32) %62, %"class.std::vector.1"* nonnull dereferenceable(24) %63, i32 %297, i32 undef)
  br i1 %299, label %301, label %300

; <label>:300:                                    ; preds = %296
  call void @_ZN8AffixMgr13finishFileMgrEP7FileMgr(%class.AffixMgr* nonnull %0, %class.FileMgr* %19)
  br label %500

; <label>:301:                                    ; preds = %296, %293
  %302 = call i32 @_ZNKSt7__cxx1112basic_stringIcSt11char_traitsIcESaIcEE7compareEmmPKcm(%"class.std::__cxx11::basic_string"* nonnull %5, i64 0, i64 3, i8* getelementptr inbounds ([4 x i8], [4 x i8]* @.str.40, i64 0, i64 0), i64 3) #18
  %303 = icmp eq i32 %302, 0
  br i1 %303, label %304, label %307

; <label>:304:                                    ; preds = %301
  %305 = call zeroext i1 @_ZN8AffixMgr14parse_reptableERKNSt7__cxx1112basic_stringIcSt11char_traitsIcESaIcEEEP7FileMgr(%class.AffixMgr* %0, %"class.std::__cxx11::basic_string"* nonnull dereferenceable(32) %5, %class.FileMgr* %19)
  br i1 %305, label %307, label %306

; <label>:306:                                    ; preds = %304
  call void @_ZN8AffixMgr13finishFileMgrEP7FileMgr(%class.AffixMgr* %0, %class.FileMgr* %19)
  br label %500

; <label>:307:                                    ; preds = %304, %301
  %308 = call i32 @_ZNKSt7__cxx1112basic_stringIcSt11char_traitsIcESaIcEE7compareEmmPKcm(%"class.std::__cxx11::basic_string"* nonnull %5, i64 0, i64 5, i8* getelementptr inbounds ([6 x i8], [6 x i8]* @.str.41, i64 0, i64 0), i64 5) #18
  %309 = icmp eq i32 %308, 0
  br i1 %309, label %310, label %313

; <label>:310:                                    ; preds = %307
  call void @llvm.lifetime.start.p0i8(i64 32, i8* nonnull %66) #18
  call void @llvm.lifetime.start.p0i8(i64 1, i8* nonnull %67) #18
  call void @_ZNSaIcEC2Ev(%"class.std::allocator"* nonnull %7) #18
  call void @_ZNSt7__cxx1112basic_stringIcSt11char_traitsIcESaIcEEC2EPKcRKS3_(%"class.std::__cxx11::basic_string"* nonnull %6, i8* getelementptr inbounds ([6 x i8], [6 x i8]* @.str.41, i64 0, i64 0), %"class.std::allocator"* nonnull dereferenceable(1) %7)
  %311 = call zeroext i1 @_ZN8AffixMgr15parse_convtableERKNSt7__cxx1112basic_stringIcSt11char_traitsIcESaIcEEEP7FileMgrPP7RepListS7_(%class.AffixMgr* undef, %"class.std::__cxx11::basic_string"* nonnull dereferenceable(32) %5, %class.FileMgr* %19, %class.RepList** nonnull %65, %"class.std::__cxx11::basic_string"* nonnull dereferenceable(32) %6)
  call void @_ZNSt7__cxx1112basic_stringIcSt11char_traitsIcESaIcEED2Ev(%"class.std::__cxx11::basic_string"* nonnull %6) #18
  call void @_ZNSaIcED2Ev(%"class.std::allocator"* nonnull %7) #18
  call void @llvm.lifetime.end.p0i8(i64 1, i8* nonnull %67) #18
  call void @llvm.lifetime.end.p0i8(i64 32, i8* nonnull %66) #18
  br i1 %311, label %313, label %312

; <label>:312:                                    ; preds = %310
  call void @_ZN8AffixMgr13finishFileMgrEP7FileMgr(%class.AffixMgr* %0, %class.FileMgr* %19)
  br label %500

; <label>:313:                                    ; preds = %310, %307
  %314 = call i32 @_ZNKSt7__cxx1112basic_stringIcSt11char_traitsIcESaIcEE7compareEmmPKcm(%"class.std::__cxx11::basic_string"* nonnull %5, i64 0, i64 5, i8* getelementptr inbounds ([6 x i8], [6 x i8]* @.str.42, i64 0, i64 0), i64 5) #18
  %315 = icmp eq i32 %314, 0
  br i1 %315, label %316, label %319

; <label>:316:                                    ; preds = %313
  call void @llvm.lifetime.start.p0i8(i64 32, i8* nonnull %69) #18
  call void @llvm.lifetime.start.p0i8(i64 1, i8* nonnull %70) #18
  call void @_ZNSaIcEC2Ev(%"class.std::allocator"* nonnull %9) #18
  call void @_ZNSt7__cxx1112basic_stringIcSt11char_traitsIcESaIcEEC2EPKcRKS3_(%"class.std::__cxx11::basic_string"* nonnull %8, i8* getelementptr inbounds ([6 x i8], [6 x i8]* @.str.42, i64 0, i64 0), %"class.std::allocator"* nonnull dereferenceable(1) %9)
  %317 = call zeroext i1 @_ZN8AffixMgr15parse_convtableERKNSt7__cxx1112basic_stringIcSt11char_traitsIcESaIcEEEP7FileMgrPP7RepListS7_(%class.AffixMgr* undef, %"class.std::__cxx11::basic_string"* nonnull dereferenceable(32) %5, %class.FileMgr* %19, %class.RepList** nonnull %68, %"class.std::__cxx11::basic_string"* nonnull dereferenceable(32) %8)
  call void @_ZNSt7__cxx1112basic_stringIcSt11char_traitsIcESaIcEED2Ev(%"class.std::__cxx11::basic_string"* nonnull %8) #18
  call void @_ZNSaIcED2Ev(%"class.std::allocator"* nonnull %9) #18
  call void @llvm.lifetime.end.p0i8(i64 1, i8* nonnull %70) #18
  call void @llvm.lifetime.end.p0i8(i64 32, i8* nonnull %69) #18
  br i1 %317, label %319, label %318

; <label>:318:                                    ; preds = %316
  call void @_ZN8AffixMgr13finishFileMgrEP7FileMgr(%class.AffixMgr* %0, %class.FileMgr* %19)
  br label %500

; <label>:319:                                    ; preds = %316, %313
  %320 = call i32 @_ZNKSt7__cxx1112basic_stringIcSt11char_traitsIcESaIcEE7compareEmmPKcm(%"class.std::__cxx11::basic_string"* nonnull %5, i64 0, i64 5, i8* getelementptr inbounds ([6 x i8], [6 x i8]* @.str.43, i64 0, i64 0), i64 5) #18
  %321 = icmp eq i32 %320, 0
  br i1 %321, label %322, label %325

; <label>:322:                                    ; preds = %319
  %323 = call zeroext i1 @_ZN8AffixMgr16parse_phonetableERKNSt7__cxx1112basic_stringIcSt11char_traitsIcESaIcEEEP7FileMgr(%class.AffixMgr* %0, %"class.std::__cxx11::basic_string"* nonnull dereferenceable(32) %5, %class.FileMgr* %19)
  br i1 %323, label %325, label %324

; <label>:324:                                    ; preds = %322
  call void @_ZN8AffixMgr13finishFileMgrEP7FileMgr(%class.AffixMgr* %0, %class.FileMgr* %19)
  br label %500

; <label>:325:                                    ; preds = %322, %319
  %326 = call i32 @_ZNKSt7__cxx1112basic_stringIcSt11char_traitsIcESaIcEE7compareEmmPKcm(%"class.std::__cxx11::basic_string"* nonnull %5, i64 0, i64 20, i8* getelementptr inbounds ([21 x i8], [21 x i8]* @.str.44, i64 0, i64 0), i64 20) #18
  %327 = icmp eq i32 %326, 0
  br i1 %327, label %328, label %331

; <label>:328:                                    ; preds = %325
  %329 = call zeroext i1 @_ZN8AffixMgr19parse_checkcpdtableERKNSt7__cxx1112basic_stringIcSt11char_traitsIcESaIcEEEP7FileMgr(%class.AffixMgr* %0, %"class.std::__cxx11::basic_string"* nonnull dereferenceable(32) %5, %class.FileMgr* %19)
  br i1 %329, label %331, label %330

; <label>:330:                                    ; preds = %328
  call void @_ZN8AffixMgr13finishFileMgrEP7FileMgr(%class.AffixMgr* %0, %class.FileMgr* %19)
  br label %500

; <label>:331:                                    ; preds = %328, %325
  %332 = call i32 @_ZNKSt7__cxx1112basic_stringIcSt11char_traitsIcESaIcEE7compareEmmPKcm(%"class.std::__cxx11::basic_string"* nonnull %5, i64 0, i64 12, i8* getelementptr inbounds ([13 x i8], [13 x i8]* @.str.45, i64 0, i64 0), i64 12) #18
  %333 = icmp eq i32 %332, 0
  br i1 %333, label %334, label %337

; <label>:334:                                    ; preds = %331
  %335 = call zeroext i1 @_ZN8AffixMgr17parse_defcpdtableERKNSt7__cxx1112basic_stringIcSt11char_traitsIcESaIcEEEP7FileMgr(%class.AffixMgr* %0, %"class.std::__cxx11::basic_string"* nonnull dereferenceable(32) %5, %class.FileMgr* %19)
  br i1 %335, label %337, label %336

; <label>:336:                                    ; preds = %334
  call void @_ZN8AffixMgr13finishFileMgrEP7FileMgr(%class.AffixMgr* %0, %class.FileMgr* %19)
  br label %500

; <label>:337:                                    ; preds = %334, %331
  %338 = call i32 @_ZNKSt7__cxx1112basic_stringIcSt11char_traitsIcESaIcEE7compareEmmPKcm(%"class.std::__cxx11::basic_string"* nonnull %5, i64 0, i64 3, i8* getelementptr inbounds ([4 x i8], [4 x i8]* @.str.46, i64 0, i64 0), i64 3) #18
  %339 = icmp eq i32 %338, 0
  br i1 %339, label %340, label %343

; <label>:340:                                    ; preds = %337
  %341 = call zeroext i1 @_ZN8AffixMgr14parse_maptableERKNSt7__cxx1112basic_stringIcSt11char_traitsIcESaIcEEEP7FileMgr(%class.AffixMgr* %0, %"class.std::__cxx11::basic_string"* nonnull dereferenceable(32) %5, %class.FileMgr* %19)
  br i1 %341, label %343, label %342

; <label>:342:                                    ; preds = %340
  call void @_ZN8AffixMgr13finishFileMgrEP7FileMgr(%class.AffixMgr* %0, %class.FileMgr* %19)
  br label %500

; <label>:343:                                    ; preds = %340, %337
  %344 = call i32 @_ZNKSt7__cxx1112basic_stringIcSt11char_traitsIcESaIcEE7compareEmmPKcm(%"class.std::__cxx11::basic_string"* nonnull %5, i64 0, i64 5, i8* getelementptr inbounds ([6 x i8], [6 x i8]* @.str.47, i64 0, i64 0), i64 5) #18
  %345 = icmp eq i32 %344, 0
  br i1 %345, label %346, label %349

; <label>:346:                                    ; preds = %343
  %347 = call zeroext i1 @_ZN8AffixMgr16parse_breaktableERKNSt7__cxx1112basic_stringIcSt11char_traitsIcESaIcEEEP7FileMgr(%class.AffixMgr* %0, %"class.std::__cxx11::basic_string"* nonnull dereferenceable(32) %5, %class.FileMgr* %19)
  br i1 %347, label %349, label %348

; <label>:348:                                    ; preds = %346
  call void @_ZN8AffixMgr13finishFileMgrEP7FileMgr(%class.AffixMgr* %0, %class.FileMgr* %19)
  br label %500

; <label>:349:                                    ; preds = %346, %343
  %350 = call i32 @_ZNKSt7__cxx1112basic_stringIcSt11char_traitsIcESaIcEE7compareEmmPKcm(%"class.std::__cxx11::basic_string"* nonnull %5, i64 0, i64 4, i8* getelementptr inbounds ([5 x i8], [5 x i8]* @.str.48, i64 0, i64 0), i64 4) #18
  %351 = icmp eq i32 %350, 0
  br i1 %351, label %352, label %358

; <label>:352:                                    ; preds = %349
  %353 = call i32 @_ZNK7FileMgr10getlinenumEv(%class.FileMgr* %19)
  %354 = call zeroext i1 @_Z12parse_stringRKNSt7__cxx1112basic_stringIcSt11char_traitsIcESaIcEEERS4_i(%"class.std::__cxx11::basic_string"* nonnull dereferenceable(32) %5, %"class.std::__cxx11::basic_string"* nonnull dereferenceable(32) %71, i32 undef)
  br i1 %354, label %356, label %355

; <label>:355:                                    ; preds = %352
  call void @_ZN8AffixMgr13finishFileMgrEP7FileMgr(%class.AffixMgr* %0, %class.FileMgr* %19)
  br label %500

; <label>:356:                                    ; preds = %352
  %357 = call i32 @_Z12get_lang_numRKNSt7__cxx1112basic_stringIcSt11char_traitsIcESaIcEEE(%"class.std::__cxx11::basic_string"* nonnull dereferenceable(32) %71)
  store i32 %357, i32* %72, align 8
  br label %358

; <label>:358:                                    ; preds = %356, %349
  %359 = call i32 @_ZNKSt7__cxx1112basic_stringIcSt11char_traitsIcESaIcEE7compareEmmPKcm(%"class.std::__cxx11::basic_string"* nonnull %5, i64 0, i64 7, i8* getelementptr inbounds ([8 x i8], [8 x i8]* @.str.49, i64 0, i64 0), i64 7) #18
  %360 = icmp eq i32 %359, 0
  br i1 %360, label %361, label %366

; <label>:361:                                    ; preds = %358
  %362 = call i64 @_ZNKSt7__cxx1112basic_stringIcSt11char_traitsIcESaIcEE17find_first_not_ofEPKcm(%"class.std::__cxx11::basic_string"* nonnull %5, i8* getelementptr inbounds ([3 x i8], [3 x i8]* @.str.50, i64 0, i64 0), i64 7) #18
  %363 = icmp eq i64 %362, -1
  br i1 %363, label %366, label %364

; <label>:364:                                    ; preds = %361
  call void @llvm.lifetime.start.p0i8(i64 32, i8* nonnull %73) #18
  call void @_ZNKSt7__cxx1112basic_stringIcSt11char_traitsIcESaIcEE6substrEmm(%"class.std::__cxx11::basic_string"* nonnull sret %10, %"class.std::__cxx11::basic_string"* nonnull %5, i64 %362, i64 -1)
  %365 = call dereferenceable(32) %"class.std::__cxx11::basic_string"* @_ZNSt7__cxx1112basic_stringIcSt11char_traitsIcESaIcEEaSEOS4_(%"class.std::__cxx11::basic_string"* nonnull %74, %"class.std::__cxx11::basic_string"* nonnull dereferenceable(32) %10) #18
  call void @_ZNSt7__cxx1112basic_stringIcSt11char_traitsIcESaIcEED2Ev(%"class.std::__cxx11::basic_string"* nonnull %10) #18
  call void @llvm.lifetime.end.p0i8(i64 32, i8* nonnull %73) #18
  br label %366

; <label>:366:                                    ; preds = %364, %361, %358
  %367 = call i32 @_ZNKSt7__cxx1112basic_stringIcSt11char_traitsIcESaIcEE7compareEmmPKcm(%"class.std::__cxx11::basic_string"* nonnull %5, i64 0, i64 12, i8* getelementptr inbounds ([13 x i8], [13 x i8]* @.str.51, i64 0, i64 0), i64 12) #18
  %368 = icmp eq i32 %367, 0
  br i1 %368, label %369, label %372

; <label>:369:                                    ; preds = %366
  %370 = call zeroext i1 @_ZN8AffixMgr9parse_numERKNSt7__cxx1112basic_stringIcSt11char_traitsIcESaIcEEEPiP7FileMgr(%class.AffixMgr* undef, %"class.std::__cxx11::basic_string"* nonnull dereferenceable(32) %5, i32* nonnull %75, %class.FileMgr* %19)
  br i1 %370, label %372, label %371

; <label>:371:                                    ; preds = %369
  call void @_ZN8AffixMgr13finishFileMgrEP7FileMgr(%class.AffixMgr* %0, %class.FileMgr* %19)
  br label %500

; <label>:372:                                    ; preds = %369, %366
  %373 = call i32 @_ZNKSt7__cxx1112basic_stringIcSt11char_traitsIcESaIcEE7compareEmmPKcm(%"class.std::__cxx11::basic_string"* nonnull %5, i64 0, i64 11, i8* getelementptr inbounds ([12 x i8], [12 x i8]* @.str.52, i64 0, i64 0), i64 11) #18
  %374 = icmp eq i32 %373, 0
  br i1 %374, label %375, label %376

; <label>:375:                                    ; preds = %372
  store i32 1, i32* %76, align 4
  br label %376

; <label>:376:                                    ; preds = %375, %372
  %377 = call i32 @_ZNKSt7__cxx1112basic_stringIcSt11char_traitsIcESaIcEE7compareEmmPKcm(%"class.std::__cxx11::basic_string"* nonnull %5, i64 0, i64 7, i8* getelementptr inbounds ([8 x i8], [8 x i8]* @.str.53, i64 0, i64 0), i64 7) #18
  %378 = icmp eq i32 %377, 0
  br i1 %378, label %379, label %382

; <label>:379:                                    ; preds = %376
  %380 = call zeroext i1 @_ZN8AffixMgr9parse_numERKNSt7__cxx1112basic_stringIcSt11char_traitsIcESaIcEEEPiP7FileMgr(%class.AffixMgr* undef, %"class.std::__cxx11::basic_string"* nonnull dereferenceable(32) %5, i32* nonnull %77, %class.FileMgr* %19)
  br i1 %380, label %382, label %381

; <label>:381:                                    ; preds = %379
  call void @_ZN8AffixMgr13finishFileMgrEP7FileMgr(%class.AffixMgr* %0, %class.FileMgr* %19)
  br label %500

; <label>:382:                                    ; preds = %379, %376
  %383 = call i32 @_ZNKSt7__cxx1112basic_stringIcSt11char_traitsIcESaIcEE7compareEmmPKcm(%"class.std::__cxx11::basic_string"* nonnull %5, i64 0, i64 10, i8* getelementptr inbounds ([11 x i8], [11 x i8]* @.str.54, i64 0, i64 0), i64 10) #18
  %384 = icmp eq i32 %383, 0
  br i1 %384, label %385, label %388

; <label>:385:                                    ; preds = %382
  %386 = call zeroext i1 @_ZN8AffixMgr9parse_numERKNSt7__cxx1112basic_stringIcSt11char_traitsIcESaIcEEEPiP7FileMgr(%class.AffixMgr* undef, %"class.std::__cxx11::basic_string"* nonnull dereferenceable(32) %5, i32* nonnull %78, %class.FileMgr* %19)
  br i1 %386, label %388, label %387

; <label>:387:                                    ; preds = %385
  call void @_ZN8AffixMgr13finishFileMgrEP7FileMgr(%class.AffixMgr* %0, %class.FileMgr* %19)
  br label %500

; <label>:388:                                    ; preds = %385, %382
  %389 = call i32 @_ZNKSt7__cxx1112basic_stringIcSt11char_traitsIcESaIcEE7compareEmmPKcm(%"class.std::__cxx11::basic_string"* nonnull %5, i64 0, i64 11, i8* getelementptr inbounds ([12 x i8], [12 x i8]* @.str.55, i64 0, i64 0), i64 11) #18
  %390 = icmp eq i32 %389, 0
  br i1 %390, label %391, label %392

; <label>:391:                                    ; preds = %388
  store i32 1, i32* %79, align 8
  br label %392

; <label>:392:                                    ; preds = %391, %388
  %393 = call i32 @_ZNKSt7__cxx1112basic_stringIcSt11char_traitsIcESaIcEE7compareEmmPKcm(%"class.std::__cxx11::basic_string"* nonnull %5, i64 0, i64 9, i8* getelementptr inbounds ([10 x i8], [10 x i8]* @.str.56, i64 0, i64 0), i64 9) #18
  %394 = icmp eq i32 %393, 0
  br i1 %394, label %395, label %396

; <label>:395:                                    ; preds = %392
  store i32 1, i32* %80, align 4
  br label %396

; <label>:396:                                    ; preds = %395, %392
  %397 = call i32 @_ZNKSt7__cxx1112basic_stringIcSt11char_traitsIcESaIcEE7compareEmmPKcm(%"class.std::__cxx11::basic_string"* nonnull %5, i64 0, i64 12, i8* getelementptr inbounds ([13 x i8], [13 x i8]* @.str.57, i64 0, i64 0), i64 12) #18
  %398 = icmp eq i32 %397, 0
  br i1 %398, label %399, label %400

; <label>:399:                                    ; preds = %396
  store i32 1, i32* %81, align 4
  br label %400

; <label>:400:                                    ; preds = %399, %396
  %401 = call i32 @_ZNKSt7__cxx1112basic_stringIcSt11char_traitsIcESaIcEE7compareEmmPKcm(%"class.std::__cxx11::basic_string"* nonnull %5, i64 0, i64 8, i8* getelementptr inbounds ([9 x i8], [9 x i8]* @.str.58, i64 0, i64 0), i64 8) #18
  %402 = icmp eq i32 %401, 0
  br i1 %402, label %403, label %406

; <label>:403:                                    ; preds = %400
  %404 = call zeroext i1 @_ZN8AffixMgr10parse_flagERKNSt7__cxx1112basic_stringIcSt11char_traitsIcESaIcEEEPtP7FileMgr(%class.AffixMgr* %0, %"class.std::__cxx11::basic_string"* nonnull dereferenceable(32) %5, i16* nonnull %82, %class.FileMgr* %19)
  br i1 %404, label %406, label %405

; <label>:405:                                    ; preds = %403
  call void @_ZN8AffixMgr13finishFileMgrEP7FileMgr(%class.AffixMgr* %0, %class.FileMgr* %19)
  br label %500

; <label>:406:                                    ; preds = %403, %400
  %407 = call i32 @_ZNKSt7__cxx1112basic_stringIcSt11char_traitsIcESaIcEE7compareEmmPKcm(%"class.std::__cxx11::basic_string"* nonnull %5, i64 0, i64 10, i8* getelementptr inbounds ([11 x i8], [11 x i8]* @.str.59, i64 0, i64 0), i64 10) #18
  %408 = icmp eq i32 %407, 0
  br i1 %408, label %409, label %412

; <label>:409:                                    ; preds = %406
  %410 = call zeroext i1 @_ZN8AffixMgr10parse_flagERKNSt7__cxx1112basic_stringIcSt11char_traitsIcESaIcEEEPtP7FileMgr(%class.AffixMgr* %0, %"class.std::__cxx11::basic_string"* nonnull dereferenceable(32) %5, i16* nonnull %83, %class.FileMgr* %19)
  br i1 %410, label %412, label %411

; <label>:411:                                    ; preds = %409
  call void @_ZN8AffixMgr13finishFileMgrEP7FileMgr(%class.AffixMgr* %0, %class.FileMgr* %19)
  br label %500

; <label>:412:                                    ; preds = %409, %406
  %413 = call i32 @_ZNKSt7__cxx1112basic_stringIcSt11char_traitsIcESaIcEE7compareEmmPKcm(%"class.std::__cxx11::basic_string"* nonnull %5, i64 0, i64 4, i8* getelementptr inbounds ([5 x i8], [5 x i8]* @.str.60, i64 0, i64 0), i64 4) #18
  %414 = icmp eq i32 %413, 0
  br i1 %414, label %415, label %418

; <label>:415:                                    ; preds = %412
  %416 = call zeroext i1 @_ZN8AffixMgr10parse_flagERKNSt7__cxx1112basic_stringIcSt11char_traitsIcESaIcEEEPtP7FileMgr(%class.AffixMgr* %0, %"class.std::__cxx11::basic_string"* nonnull dereferenceable(32) %5, i16* nonnull %84, %class.FileMgr* %19)
  br i1 %416, label %418, label %417

; <label>:417:                                    ; preds = %415
  call void @_ZN8AffixMgr13finishFileMgrEP7FileMgr(%class.AffixMgr* %0, %class.FileMgr* %19)
  br label %500

; <label>:418:                                    ; preds = %415, %412
  %419 = call i32 @_ZNKSt7__cxx1112basic_stringIcSt11char_traitsIcESaIcEE7compareEmmPKcm(%"class.std::__cxx11::basic_string"* nonnull %5, i64 0, i64 10, i8* getelementptr inbounds ([11 x i8], [11 x i8]* @.str.61, i64 0, i64 0), i64 10) #18
  %420 = icmp eq i32 %419, 0
  br i1 %420, label %421, label %422

; <label>:421:                                    ; preds = %418
  store i32 1, i32* %85, align 8
  br label %422

; <label>:422:                                    ; preds = %421, %418
  %423 = call i32 @_ZNKSt7__cxx1112basic_stringIcSt11char_traitsIcESaIcEE7compareEmmPKcm(%"class.std::__cxx11::basic_string"* nonnull %5, i64 0, i64 11, i8* getelementptr inbounds ([12 x i8], [12 x i8]* @.str.62, i64 0, i64 0), i64 11) #18
  %424 = icmp eq i32 %423, 0
  br i1 %424, label %425, label %428

; <label>:425:                                    ; preds = %422
  %426 = call zeroext i1 @_ZN8AffixMgr10parse_flagERKNSt7__cxx1112basic_stringIcSt11char_traitsIcESaIcEEEPtP7FileMgr(%class.AffixMgr* %0, %"class.std::__cxx11::basic_string"* nonnull dereferenceable(32) %5, i16* nonnull %86, %class.FileMgr* %19)
  br i1 %426, label %428, label %427

; <label>:427:                                    ; preds = %425
  call void @_ZN8AffixMgr13finishFileMgrEP7FileMgr(%class.AffixMgr* %0, %class.FileMgr* %19)
  br label %500

; <label>:428:                                    ; preds = %425, %422
  %429 = call i32 @_ZNKSt7__cxx1112basic_stringIcSt11char_traitsIcESaIcEE7compareEmmPKcm(%"class.std::__cxx11::basic_string"* nonnull %5, i64 0, i64 11, i8* getelementptr inbounds ([12 x i8], [12 x i8]* @.str.63, i64 0, i64 0), i64 11) #18
  %430 = icmp eq i32 %429, 0
  br i1 %430, label %431, label %432

; <label>:431:                                    ; preds = %428
  store i32 1, i32* %87, align 8
  br label %432

; <label>:432:                                    ; preds = %431, %428
  %433 = call i32 @_ZNKSt7__cxx1112basic_stringIcSt11char_traitsIcESaIcEE7compareEmmPKcm(%"class.std::__cxx11::basic_string"* nonnull %5, i64 0, i64 3, i8* getelementptr inbounds ([4 x i8], [4 x i8]* @.str.64, i64 0, i64 0), i64 3) #18
  %434 = icmp eq i32 %433, 0
  br i1 %434, label %435, label %439

; <label>:435:                                    ; preds = %432
  %436 = load i32, i32* %88, align 4
  %437 = icmp eq i32 %436, 0
  %438 = select i1 %437, i8 80, i8 83
  br label %439

; <label>:439:                                    ; preds = %435, %432
  %440 = phi i8 [ %438, %435 ], [ 32, %432 ]
  %441 = call i32 @_ZNKSt7__cxx1112basic_stringIcSt11char_traitsIcESaIcEE7compareEmmPKcm(%"class.std::__cxx11::basic_string"* nonnull %5, i64 0, i64 3, i8* getelementptr inbounds ([4 x i8], [4 x i8]* @.str.65, i64 0, i64 0), i64 3) #18
  %442 = icmp eq i32 %441, 0
  br i1 %442, label %443, label %447

; <label>:443:                                    ; preds = %439
  %444 = load i32, i32* %89, align 4
  %445 = icmp eq i32 %444, 0
  %446 = select i1 %445, i8 83, i8 80
  br label %449

; <label>:447:                                    ; preds = %439
  %448 = icmp eq i8 %440, 32
  br i1 %448, label %456, label %449

; <label>:449:                                    ; preds = %443, %447
  %450 = phi i8 [ %446, %443 ], [ %440, %447 ]
  %451 = icmp eq i8 %91, 0
  br i1 %451, label %453, label %452

; <label>:452:                                    ; preds = %449
  call void @llvm.memset.p0i8.i64(i8* nonnull align 16 %17, i8 0, i64 65536, i1 false)
  br label %453

; <label>:453:                                    ; preds = %449, %452
  %454 = call zeroext i1 @_ZN8AffixMgr11parse_affixERKNSt7__cxx1112basic_stringIcSt11char_traitsIcESaIcEEEcP7FileMgrPc(%class.AffixMgr* %0, %"class.std::__cxx11::basic_string"* nonnull dereferenceable(32) %5, i8 signext %450, %class.FileMgr* %19, i8* nonnull %17)
  br i1 %454, label %456, label %455

; <label>:455:                                    ; preds = %453
  call void @_ZN8AffixMgr13finishFileMgrEP7FileMgr(%class.AffixMgr* %0, %class.FileMgr* %19)
  br label %500

; <label>:456:                                    ; preds = %453, %447
  %457 = phi i8 [ 0, %453 ], [ %91, %447 ]
  %458 = call zeroext i1 @_ZN7FileMgr7getlineERNSt7__cxx1112basic_stringIcSt11char_traitsIcESaIcEEE(%class.FileMgr* %19, %"class.std::__cxx11::basic_string"* nonnull dereferenceable(32) %5) #18
  br i1 %458, label %90, label %459

; <label>:459:                                    ; preds = %456, %21
  call void @_ZN8AffixMgr13finishFileMgrEP7FileMgr(%class.AffixMgr* %0, %class.FileMgr* %19)
  %460 = call i32 @_ZN8AffixMgr17process_pfx_orderEv(%class.AffixMgr* %0)
  %461 = call i32 @_ZN8AffixMgr17process_sfx_orderEv(%class.AffixMgr* %0)
  %462 = getelementptr inbounds %class.AffixMgr, %class.AffixMgr* %0, i64 0, i32 10
  %463 = load i32, i32* %462, align 8
  %464 = icmp eq i32 %463, 0
  br i1 %464, label %465, label %488

; <label>:465:                                    ; preds = %459
  %466 = call dereferenceable(32) %"class.std::__cxx11::basic_string"* @_ZN8AffixMgr12get_encodingB5cxx11Ev(%class.AffixMgr* nonnull %0)
  %467 = call %struct.cs_info* @_Z14get_current_csRKNSt7__cxx1112basic_stringIcSt11char_traitsIcESaIcEEE(%"class.std::__cxx11::basic_string"* nonnull dereferenceable(32) %466)
  %468 = getelementptr inbounds %class.AffixMgr, %class.AffixMgr* %0, i64 0, i32 9
  store %struct.cs_info* %467, %struct.cs_info** %468, align 8
  %469 = getelementptr inbounds %class.AffixMgr, %class.AffixMgr* %0, i64 0, i32 71
  br label %470

; <label>:470:                                    ; preds = %484, %465
  %471 = phi i64 [ 0, %465 ], [ %485, %484 ]
  %472 = phi i32 [ 0, %465 ], [ %486, %484 ]
  %473 = load %struct.cs_info*, %struct.cs_info** %468, align 8
  %474 = getelementptr inbounds %struct.cs_info, %struct.cs_info* %473, i64 %471, i32 2
  %475 = load i8, i8* %474, align 1
  %476 = getelementptr inbounds %struct.cs_info, %struct.cs_info* %473, i64 %471, i32 1
  %477 = load i8, i8* %476, align 1
  %478 = icmp eq i8 %475, %477
  br i1 %478, label %484, label %479

; <label>:479:                                    ; preds = %470
  %480 = trunc i32 %472 to i8
  %481 = call i64 @_ZNKSt7__cxx1112basic_stringIcSt11char_traitsIcESaIcEE4findEcm(%"class.std::__cxx11::basic_string"* nonnull %469, i8 signext %480, i64 0) #18
  %482 = icmp eq i64 %481, -1
  br i1 %482, label %483, label %484

; <label>:483:                                    ; preds = %479
  call void @_ZNSt7__cxx1112basic_stringIcSt11char_traitsIcESaIcEE9push_backEc(%"class.std::__cxx11::basic_string"* nonnull %469, i8 signext %480)
  br label %484

; <label>:484:                                    ; preds = %470, %479, %483
  %485 = add nuw nsw i64 %471, 1
  %486 = add nuw nsw i32 %472, 1
  %487 = icmp eq i64 %485, 256
  br i1 %487, label %488, label %470

; <label>:488:                                    ; preds = %484, %459
  %489 = getelementptr inbounds %class.AffixMgr, %class.AffixMgr* %0, i64 0, i32 39
  %490 = load i8, i8* %489, align 8, !range !3
  %491 = icmp eq i8 %490, 0
  br i1 %491, label %492, label %500

; <label>:492:                                    ; preds = %488
  %493 = getelementptr inbounds %class.AffixMgr, %class.AffixMgr* %0, i64 0, i32 41
  %494 = bitcast %"class.std::__cxx11::basic_string"* %11 to i8*
  call void @llvm.lifetime.start.p0i8(i64 32, i8* nonnull %494) #18
  %495 = getelementptr inbounds %"class.std::allocator", %"class.std::allocator"* %12, i64 0, i32 0
  call void @llvm.lifetime.start.p0i8(i64 1, i8* nonnull %495) #18
  call void @_ZNSaIcEC2Ev(%"class.std::allocator"* nonnull %12) #18
  call void @_ZNSt7__cxx1112basic_stringIcSt11char_traitsIcESaIcEEC2EPKcRKS3_(%"class.std::__cxx11::basic_string"* nonnull %11, i8* getelementptr inbounds ([2 x i8], [2 x i8]* @.str.66, i64 0, i64 0), %"class.std::allocator"* nonnull dereferenceable(1) %12)
  call void @_ZNSt6vectorINSt7__cxx1112basic_stringIcSt11char_traitsIcESaIcEEESaIS5_EE9push_backEOS5_(%"class.std::vector.15"* nonnull %493, %"class.std::__cxx11::basic_string"* nonnull dereferenceable(32) %11)
  call void @_ZNSt7__cxx1112basic_stringIcSt11char_traitsIcESaIcEED2Ev(%"class.std::__cxx11::basic_string"* nonnull %11) #18
  call void @_ZNSaIcED2Ev(%"class.std::allocator"* nonnull %12) #18
  call void @llvm.lifetime.end.p0i8(i64 1, i8* nonnull %495) #18
  call void @llvm.lifetime.end.p0i8(i64 32, i8* nonnull %494) #18
  %496 = bitcast %"class.std::__cxx11::basic_string"* %13 to i8*
  call void @llvm.lifetime.start.p0i8(i64 32, i8* nonnull %496) #18
  %497 = getelementptr inbounds %"class.std::allocator", %"class.std::allocator"* %14, i64 0, i32 0
  call void @llvm.lifetime.start.p0i8(i64 1, i8* nonnull %497) #18
  call void @_ZNSaIcEC2Ev(%"class.std::allocator"* nonnull %14) #18
  call void @_ZNSt7__cxx1112basic_stringIcSt11char_traitsIcESaIcEEC2EPKcRKS3_(%"class.std::__cxx11::basic_string"* nonnull %13, i8* getelementptr inbounds ([3 x i8], [3 x i8]* @.str.67, i64 0, i64 0), %"class.std::allocator"* nonnull dereferenceable(1) %14)
  call void @_ZNSt6vectorINSt7__cxx1112basic_stringIcSt11char_traitsIcESaIcEEESaIS5_EE9push_backEOS5_(%"class.std::vector.15"* nonnull %493, %"class.std::__cxx11::basic_string"* nonnull dereferenceable(32) %13)
  call void @_ZNSt7__cxx1112basic_stringIcSt11char_traitsIcESaIcEED2Ev(%"class.std::__cxx11::basic_string"* nonnull %13) #18
  call void @_ZNSaIcED2Ev(%"class.std::allocator"* nonnull %14) #18
  call void @llvm.lifetime.end.p0i8(i64 1, i8* nonnull %497) #18
  call void @llvm.lifetime.end.p0i8(i64 32, i8* nonnull %496) #18
  %498 = bitcast %"class.std::__cxx11::basic_string"* %15 to i8*
  call void @llvm.lifetime.start.p0i8(i64 32, i8* nonnull %498) #18
  %499 = getelementptr inbounds %"class.std::allocator", %"class.std::allocator"* %16, i64 0, i32 0
  call void @llvm.lifetime.start.p0i8(i64 1, i8* nonnull %499) #18
  call void @_ZNSaIcEC2Ev(%"class.std::allocator"* nonnull %16) #18
  call void @_ZNSt7__cxx1112basic_stringIcSt11char_traitsIcESaIcEEC2EPKcRKS3_(%"class.std::__cxx11::basic_string"* nonnull %15, i8* getelementptr inbounds ([3 x i8], [3 x i8]* @.str.68, i64 0, i64 0), %"class.std::allocator"* nonnull dereferenceable(1) %16)
  call void @_ZNSt6vectorINSt7__cxx1112basic_stringIcSt11char_traitsIcESaIcEEESaIS5_EE9push_backEOS5_(%"class.std::vector.15"* nonnull %493, %"class.std::__cxx11::basic_string"* nonnull dereferenceable(32) %15)
  call void @_ZNSt7__cxx1112basic_stringIcSt11char_traitsIcESaIcEED2Ev(%"class.std::__cxx11::basic_string"* nonnull %15) #18
  call void @_ZNSaIcED2Ev(%"class.std::allocator"* nonnull %16) #18
  call void @llvm.lifetime.end.p0i8(i64 1, i8* nonnull %499) #18
  call void @llvm.lifetime.end.p0i8(i64 32, i8* nonnull %498) #18
  store i8 1, i8* %489, align 8
  br label %500

; <label>:500:                                    ; preds = %455, %492, %488, %427, %417, %411, %405, %387, %381, %371, %355, %348, %342, %336, %330, %324, %318, %312, %306, %300, %292, %280, %273, %263, %257, %251, %245, %239, %233, %227, %221, %215, %185, %179, %173, %167, %161, %158, %149, %143, %140, %131, %118, %111, %104
  %501 = phi i32 [ 1, %312 ], [ 1, %318 ], [ 1, %427 ], [ 1, %417 ], [ 1, %411 ], [ 1, %405 ], [ 1, %387 ], [ 1, %381 ], [ 1, %371 ], [ 1, %355 ], [ 1, %348 ], [ 1, %342 ], [ 1, %336 ], [ 1, %330 ], [ 1, %324 ], [ 1, %306 ], [ 1, %300 ], [ 1, %292 ], [ 1, %280 ], [ 1, %273 ], [ 1, %263 ], [ 1, %257 ], [ 1, %251 ], [ 1, %245 ], [ 1, %239 ], [ 1, %233 ], [ 1, %227 ], [ 1, %221 ], [ 1, %215 ], [ 1, %185 ], [ 1, %179 ], [ 1, %173 ], [ 1, %167 ], [ 1, %158 ], [ 1, %161 ], [ 1, %149 ], [ 1, %140 ], [ 1, %143 ], [ 1, %131 ], [ 1, %118 ], [ 1, %111 ], [ 1, %104 ], [ 0, %488 ], [ 0, %492 ], [ 1, %455 ]
  call void @_ZNSt7__cxx1112basic_stringIcSt11char_traitsIcESaIcEED2Ev(%"class.std::__cxx11::basic_string"* nonnull %5) #18
  call void @llvm.lifetime.end.p0i8(i64 32, i8* nonnull %22) #18
  br label %502

; <label>:502:                                    ; preds = %3, %500
  %503 = phi i32 [ %501, %500 ], [ 1, %3 ]
  call void @llvm.lifetime.end.p0i8(i64 65536, i8* nonnull %17) #18
  ret i32 %503
}

; Function Attrs: nounwind sspstrong uwtable
define hidden void @_ZN8AffixMgrD2Ev(%class.AffixMgr*) unnamed_addr #0 align 2 {
  br label %2

; <label>:2:                                      ; preds = %16, %1
  %3 = phi i64 [ 0, %1 ], [ %17, %16 ]
  %4 = getelementptr inbounds %class.AffixMgr, %class.AffixMgr* %0, i64 0, i32 2, i64 %3
  store %class.PfxEntry* null, %class.PfxEntry** %4, align 8
  %5 = getelementptr inbounds %class.AffixMgr, %class.AffixMgr* %0, i64 0, i32 0, i64 %3
  %6 = load %class.PfxEntry*, %class.PfxEntry** %5, align 8
  %7 = icmp eq %class.PfxEntry* %6, null
  br i1 %7, label %16, label %8

; <label>:8:                                      ; preds = %2, %8
  %9 = phi %class.PfxEntry* [ %10, %8 ], [ %6, %2 ]
  %10 = tail call %class.PfxEntry* @_ZN8PfxEntry7getNextEv(%class.PfxEntry* nonnull %9)
  %11 = bitcast %class.PfxEntry* %9 to void (%class.PfxEntry*)***
  %12 = load void (%class.PfxEntry*)**, void (%class.PfxEntry*)*** %11, align 8
  %13 = getelementptr inbounds void (%class.PfxEntry*)*, void (%class.PfxEntry*)** %12, i64 1
  %14 = load void (%class.PfxEntry*)*, void (%class.PfxEntry*)** %13, align 8
  tail call void %14(%class.PfxEntry* nonnull %9) #18
  %15 = icmp eq %class.PfxEntry* %10, null
  br i1 %15, label %16, label %8

; <label>:16:                                     ; preds = %8, %2
  %17 = add nuw nsw i64 %3, 1
  %18 = icmp eq i64 %17, 256
  br i1 %18, label %23, label %2

; <label>:19:                                     ; preds = %37
  %20 = getelementptr inbounds %class.AffixMgr, %class.AffixMgr* %0, i64 0, i32 34
  %21 = load %class.RepList*, %class.RepList** %20, align 8
  %22 = icmp eq %class.RepList* %21, null
  br i1 %22, label %42, label %40

; <label>:23:                                     ; preds = %16, %37
  %24 = phi i64 [ %38, %37 ], [ 0, %16 ]
  %25 = getelementptr inbounds %class.AffixMgr, %class.AffixMgr* %0, i64 0, i32 3, i64 %24
  store %class.SfxEntry* null, %class.SfxEntry** %25, align 8
  %26 = getelementptr inbounds %class.AffixMgr, %class.AffixMgr* %0, i64 0, i32 1, i64 %24
  %27 = load %class.SfxEntry*, %class.SfxEntry** %26, align 8
  %28 = icmp eq %class.SfxEntry* %27, null
  br i1 %28, label %37, label %29

; <label>:29:                                     ; preds = %23, %29
  %30 = phi %class.SfxEntry* [ %31, %29 ], [ %27, %23 ]
  %31 = tail call %class.SfxEntry* @_ZN8SfxEntry7getNextEv(%class.SfxEntry* nonnull %30)
  %32 = bitcast %class.SfxEntry* %30 to void (%class.SfxEntry*)***
  %33 = load void (%class.SfxEntry*)**, void (%class.SfxEntry*)*** %32, align 8
  %34 = getelementptr inbounds void (%class.SfxEntry*)*, void (%class.SfxEntry*)** %33, i64 1
  %35 = load void (%class.SfxEntry*)*, void (%class.SfxEntry*)** %34, align 8
  tail call void %35(%class.SfxEntry* nonnull %30) #18
  %36 = icmp eq %class.SfxEntry* %31, null
  br i1 %36, label %37, label %29

; <label>:37:                                     ; preds = %29, %23
  store %class.SfxEntry* null, %class.SfxEntry** %26, align 8
  %38 = add nuw nsw i64 %24, 1
  %39 = icmp eq i64 %38, 256
  br i1 %39, label %19, label %23

; <label>:40:                                     ; preds = %19
  tail call void @_ZN7RepListD2Ev(%class.RepList* nonnull %21) #18
  %41 = bitcast %class.RepList* %21 to i8*
  tail call void @free(i8* %41) #18
  br label %42

; <label>:42:                                     ; preds = %40, %19
  %43 = getelementptr inbounds %class.AffixMgr, %class.AffixMgr* %0, i64 0, i32 35
  %44 = load %class.RepList*, %class.RepList** %43, align 8
  %45 = icmp eq %class.RepList* %44, null
  br i1 %45, label %48, label %46

; <label>:46:                                     ; preds = %42
  tail call void @_ZN7RepListD2Ev(%class.RepList* nonnull %44) #18
  %47 = bitcast %class.RepList* %44 to i8*
  tail call void @free(i8* %47) #18
  br label %48

; <label>:48:                                     ; preds = %46, %42
  %49 = getelementptr inbounds %class.AffixMgr, %class.AffixMgr* %0, i64 0, i32 49
  %50 = load %struct.phonetable*, %struct.phonetable** %49, align 8
  %51 = icmp eq %struct.phonetable* %50, null
  br i1 %51, label %54, label %52

; <label>:52:                                     ; preds = %48
  tail call void @_ZN10phonetableD2Ev(%struct.phonetable* nonnull %50) #18
  %53 = getelementptr inbounds %struct.phonetable, %struct.phonetable* %50, i64 0, i32 0
  tail call void @free(i8* %53) #18
  br label %54

; <label>:54:                                     ; preds = %52, %48
  %55 = getelementptr inbounds %class.AffixMgr, %class.AffixMgr* %0, i64 0, i32 12
  %56 = getelementptr inbounds %class.AffixMgr, %class.AffixMgr* %0, i64 0, i32 26
  %57 = getelementptr inbounds %class.AffixMgr, %class.AffixMgr* %0, i64 0, i32 78
  store i16 0, i16* %57, align 4
  %58 = getelementptr inbounds %class.AffixMgr, %class.AffixMgr* %0, i64 0, i32 79
  store i16 0, i16* %58, align 2
  %59 = getelementptr inbounds %class.AffixMgr, %class.AffixMgr* %0, i64 0, i32 80
  store i16 0, i16* %59, align 8
  %60 = getelementptr inbounds %class.AffixMgr, %class.AffixMgr* %0, i64 0, i32 56
  store i32 0, i32* %60, align 8
  %61 = getelementptr inbounds %class.AffixMgr, %class.AffixMgr* %0, i64 0, i32 5
  store %class.HashMgr* null, %class.HashMgr** %61, align 8
  %62 = getelementptr inbounds %class.AffixMgr, %class.AffixMgr* %0, i64 0, i32 57
  store i32 0, i32* %62, align 4
  %63 = getelementptr inbounds %class.AffixMgr, %class.AffixMgr* %0, i64 0, i32 69
  store i32 0, i32* %63, align 8
  %64 = getelementptr inbounds %class.AffixMgr, %class.AffixMgr* %0, i64 0, i32 9
  %65 = bitcast i16* %55 to i8*
  call void @llvm.memset.p0i8.i64(i8* nonnull align 8 %65, i8 0, i64 14, i1 false)
  %66 = bitcast i16* %56 to i8*
  call void @llvm.memset.p0i8.i64(i8* nonnull align 8 %66, i8 0, i64 12, i1 false)
  %67 = load %struct.cs_info*, %struct.cs_info** %64, align 8
  %68 = icmp eq %struct.cs_info* %67, null
  br i1 %68, label %71, label %69

; <label>:69:                                     ; preds = %54
  %70 = getelementptr inbounds %struct.cs_info, %struct.cs_info* %67, i64 0, i32 0
  tail call void @free(i8* %70) #18
  br label %71

; <label>:71:                                     ; preds = %69, %54
  %72 = getelementptr inbounds %class.AffixMgr, %class.AffixMgr* %0, i64 0, i32 76
  tail call void @_ZNSt7__cxx1112basic_stringIcSt11char_traitsIcESaIcEED2Ev(%"class.std::__cxx11::basic_string"* nonnull %72) #18
  %73 = getelementptr inbounds %class.AffixMgr, %class.AffixMgr* %0, i64 0, i32 75
  tail call void @_ZNSt7__cxx1112basic_stringIcSt11char_traitsIcESaIcEED2Ev(%"class.std::__cxx11::basic_string"* nonnull %73) #18
  %74 = getelementptr inbounds %class.AffixMgr, %class.AffixMgr* %0, i64 0, i32 74
  tail call void @_ZNSt6vectorI6w_charSaIS0_EED2Ev(%"class.std::vector.1"* nonnull %74) #18
  %75 = getelementptr inbounds %class.AffixMgr, %class.AffixMgr* %0, i64 0, i32 73
  tail call void @_ZNSt7__cxx1112basic_stringIcSt11char_traitsIcESaIcEED2Ev(%"class.std::__cxx11::basic_string"* nonnull %75) #18
  %76 = getelementptr inbounds %class.AffixMgr, %class.AffixMgr* %0, i64 0, i32 72
  tail call void @_ZNSt6vectorI6w_charSaIS0_EED2Ev(%"class.std::vector.1"* nonnull %76) #18
  %77 = getelementptr inbounds %class.AffixMgr, %class.AffixMgr* %0, i64 0, i32 71
  tail call void @_ZNSt7__cxx1112basic_stringIcSt11char_traitsIcESaIcEED2Ev(%"class.std::__cxx11::basic_string"* nonnull %77) #18
  %78 = getelementptr inbounds %class.AffixMgr, %class.AffixMgr* %0, i64 0, i32 60
  tail call void @_ZNSt7__cxx1112basic_stringIcSt11char_traitsIcESaIcEED2Ev(%"class.std::__cxx11::basic_string"* nonnull %78) #18
  %79 = getelementptr inbounds %class.AffixMgr, %class.AffixMgr* %0, i64 0, i32 59
  tail call void @_ZNSt6vectorI6w_charSaIS0_EED2Ev(%"class.std::vector.1"* nonnull %79) #18
  %80 = getelementptr inbounds %class.AffixMgr, %class.AffixMgr* %0, i64 0, i32 58
  tail call void @_ZNSt7__cxx1112basic_stringIcSt11char_traitsIcESaIcEED2Ev(%"class.std::__cxx11::basic_string"* nonnull %80) #18
  %81 = getelementptr inbounds %class.AffixMgr, %class.AffixMgr* %0, i64 0, i32 48
  tail call void @_ZNSt6vectorIS_ItSaItEESaIS1_EED2Ev(%"class.std::vector.25"* nonnull %81) #18
  %82 = getelementptr inbounds %class.AffixMgr, %class.AffixMgr* %0, i64 0, i32 44
  tail call void @_ZNSt6vectorI8patentrySaIS0_EED2Ev(%"class.std::vector.20"* nonnull %82) #18
  %83 = getelementptr inbounds %class.AffixMgr, %class.AffixMgr* %0, i64 0, i32 41
  tail call void @_ZNSt6vectorINSt7__cxx1112basic_stringIcSt11char_traitsIcESaIcEEESaIS5_EED2Ev(%"class.std::vector.15"* nonnull %83) #18
  %84 = getelementptr inbounds %class.AffixMgr, %class.AffixMgr* %0, i64 0, i32 38
  tail call void @_ZNSt6vectorIS_INSt7__cxx1112basic_stringIcSt11char_traitsIcESaIcEEESaIS5_EESaIS7_EED2Ev(%"class.std::vector.10"* nonnull %84) #18
  %85 = getelementptr inbounds %class.AffixMgr, %class.AffixMgr* %0, i64 0, i32 33
  tail call void @_ZNSt6vectorI9replentrySaIS0_EED2Ev(%"class.std::vector.5"* nonnull %85) #18
  %86 = getelementptr inbounds %class.AffixMgr, %class.AffixMgr* %0, i64 0, i32 8
  tail call void @_ZNSt7__cxx1112basic_stringIcSt11char_traitsIcESaIcEED2Ev(%"class.std::__cxx11::basic_string"* nonnull %86) #18
  %87 = getelementptr inbounds %class.AffixMgr, %class.AffixMgr* %0, i64 0, i32 7
  tail call void @_ZNSt7__cxx1112basic_stringIcSt11char_traitsIcESaIcEED2Ev(%"class.std::__cxx11::basic_string"* nonnull %87) #18
  %88 = getelementptr inbounds %class.AffixMgr, %class.AffixMgr* %0, i64 0, i32 6
  tail call void @_ZNSt7__cxx1112basic_stringIcSt11char_traitsIcESaIcEED2Ev(%"class.std::__cxx11::basic_string"* nonnull %88) #18
  ret void
}

; Function Attrs: inlinehint norecurse nounwind sspstrong uwtable
define linkonce_odr hidden %class.PfxEntry* @_ZN8PfxEntry7getNextEv(%class.PfxEntry*) local_unnamed_addr #3 comdat align 2 {
  %2 = getelementptr inbounds %class.PfxEntry, %class.PfxEntry* %0, i64 0, i32 2
  %3 = load %class.PfxEntry*, %class.PfxEntry** %2, align 8
  ret %class.PfxEntry* %3
}

; Function Attrs: inlinehint norecurse nounwind sspstrong uwtable
define linkonce_odr hidden %class.SfxEntry* @_ZN8SfxEntry7getNextEv(%class.SfxEntry*) local_unnamed_addr #3 comdat align 2 {
  %2 = getelementptr inbounds %class.SfxEntry, %class.SfxEntry* %0, i64 0, i32 3
  %3 = load %class.SfxEntry*, %class.SfxEntry** %2, align 8
  ret %class.SfxEntry* %3
}

; Function Attrs: inlinehint nounwind sspstrong uwtable
define linkonce_odr hidden void @_ZN10phonetableD2Ev(%struct.phonetable*) unnamed_addr #6 comdat align 2 {
  %2 = getelementptr inbounds %struct.phonetable, %struct.phonetable* %0, i64 0, i32 1
  tail call void @_ZNSt6vectorINSt7__cxx1112basic_stringIcSt11char_traitsIcESaIcEEESaIS5_EED2Ev(%"class.std::vector.15"* nonnull %2) #18
  ret void
}

; Function Attrs: norecurse nounwind readnone sspstrong uwtable
define hidden void @_Z12free_utf_tblv() local_unnamed_addr #7 {
  ret void
}

; Function Attrs: nounwind sspstrong uwtable
define linkonce_odr hidden void @_ZNSt6vectorI6w_charSaIS0_EED2Ev(%"class.std::vector.1"*) unnamed_addr #0 comdat align 2 {
  %2 = getelementptr inbounds %"class.std::vector.1", %"class.std::vector.1"* %0, i64 0, i32 0
  %3 = getelementptr inbounds %"class.std::vector.1", %"class.std::vector.1"* %0, i64 0, i32 0, i32 0, i32 0
  %4 = load %struct.w_char*, %struct.w_char** %3, align 8
  %5 = getelementptr inbounds %"class.std::vector.1", %"class.std::vector.1"* %0, i64 0, i32 0, i32 0, i32 1
  %6 = load %struct.w_char*, %struct.w_char** %5, align 8
  %7 = tail call dereferenceable(1) %"class.std::allocator.2"* @_ZNSt12_Vector_baseI6w_charSaIS0_EE19_M_get_Tp_allocatorEv(%"struct.std::_Vector_base"* %2) #18
  tail call void @_ZSt8_DestroyIP6w_charS0_EvT_S2_RSaIT0_E(%struct.w_char* %4, %struct.w_char* %6, %"class.std::allocator.2"* nonnull dereferenceable(1) %7)
  tail call void @_ZNSt12_Vector_baseI6w_charSaIS0_EED2Ev(%"struct.std::_Vector_base"* %2) #18
  ret void
}

; Function Attrs: nounwind sspstrong uwtable
define linkonce_odr void @_ZNSt6vectorIS_ItSaItEESaIS1_EED2Ev(%"class.std::vector.25"*) unnamed_addr #0 comdat align 2 {
  %2 = getelementptr inbounds %"class.std::vector.25", %"class.std::vector.25"* %0, i64 0, i32 0
  %3 = getelementptr inbounds %"class.std::vector.25", %"class.std::vector.25"* %0, i64 0, i32 0, i32 0, i32 0
  %4 = load %"class.std::vector.30"*, %"class.std::vector.30"** %3, align 8
  %5 = getelementptr inbounds %"class.std::vector.25", %"class.std::vector.25"* %0, i64 0, i32 0, i32 0, i32 1
  %6 = load %"class.std::vector.30"*, %"class.std::vector.30"** %5, align 8
  %7 = tail call dereferenceable(1) %"class.std::allocator.27"* @_ZNSt12_Vector_baseISt6vectorItSaItEESaIS2_EE19_M_get_Tp_allocatorEv(%"struct.std::_Vector_base.26"* %2) #18
  tail call void @_ZSt8_DestroyIPSt6vectorItSaItEES2_EvT_S4_RSaIT0_E(%"class.std::vector.30"* %4, %"class.std::vector.30"* %6, %"class.std::allocator.27"* nonnull dereferenceable(1) %7)
  tail call void @_ZNSt12_Vector_baseISt6vectorItSaItEESaIS2_EED2Ev(%"struct.std::_Vector_base.26"* %2) #18
  ret void
}

; Function Attrs: nounwind sspstrong uwtable
define linkonce_odr hidden void @_ZNSt6vectorI8patentrySaIS0_EED2Ev(%"class.std::vector.20"*) unnamed_addr #0 comdat align 2 {
  %2 = getelementptr inbounds %"class.std::vector.20", %"class.std::vector.20"* %0, i64 0, i32 0
  %3 = getelementptr inbounds %"class.std::vector.20", %"class.std::vector.20"* %0, i64 0, i32 0, i32 0, i32 0
  %4 = load %struct.patentry*, %struct.patentry** %3, align 8
  %5 = getelementptr inbounds %"class.std::vector.20", %"class.std::vector.20"* %0, i64 0, i32 0, i32 0, i32 1
  %6 = load %struct.patentry*, %struct.patentry** %5, align 8
  %7 = tail call dereferenceable(1) %"class.std::allocator.22"* @_ZNSt12_Vector_baseI8patentrySaIS0_EE19_M_get_Tp_allocatorEv(%"struct.std::_Vector_base.21"* %2) #18
  tail call void @_ZSt8_DestroyIP8patentryS0_EvT_S2_RSaIT0_E(%struct.patentry* %4, %struct.patentry* %6, %"class.std::allocator.22"* nonnull dereferenceable(1) %7)
  tail call void @_ZNSt12_Vector_baseI8patentrySaIS0_EED2Ev(%"struct.std::_Vector_base.21"* %2) #18
  ret void
}

; Function Attrs: nounwind sspstrong uwtable
define linkonce_odr void @_ZNSt6vectorINSt7__cxx1112basic_stringIcSt11char_traitsIcESaIcEEESaIS5_EED2Ev(%"class.std::vector.15"*) unnamed_addr #0 comdat align 2 {
  %2 = getelementptr inbounds %"class.std::vector.15", %"class.std::vector.15"* %0, i64 0, i32 0
  %3 = getelementptr inbounds %"class.std::vector.15", %"class.std::vector.15"* %0, i64 0, i32 0, i32 0, i32 0
  %4 = load %"class.std::__cxx11::basic_string"*, %"class.std::__cxx11::basic_string"** %3, align 8
  %5 = getelementptr inbounds %"class.std::vector.15", %"class.std::vector.15"* %0, i64 0, i32 0, i32 0, i32 1
  %6 = load %"class.std::__cxx11::basic_string"*, %"class.std::__cxx11::basic_string"** %5, align 8
  %7 = tail call dereferenceable(1) %"class.std::allocator.17"* @_ZNSt12_Vector_baseINSt7__cxx1112basic_stringIcSt11char_traitsIcESaIcEEESaIS5_EE19_M_get_Tp_allocatorEv(%"struct.std::_Vector_base.16"* %2) #18
  tail call void @_ZSt8_DestroyIPNSt7__cxx1112basic_stringIcSt11char_traitsIcESaIcEEES5_EvT_S7_RSaIT0_E(%"class.std::__cxx11::basic_string"* %4, %"class.std::__cxx11::basic_string"* %6, %"class.std::allocator.17"* nonnull dereferenceable(1) %7)
  tail call void @_ZNSt12_Vector_baseINSt7__cxx1112basic_stringIcSt11char_traitsIcESaIcEEESaIS5_EED2Ev(%"struct.std::_Vector_base.16"* %2) #18
  ret void
}

; Function Attrs: nounwind sspstrong uwtable
define linkonce_odr void @_ZNSt6vectorIS_INSt7__cxx1112basic_stringIcSt11char_traitsIcESaIcEEESaIS5_EESaIS7_EED2Ev(%"class.std::vector.10"*) unnamed_addr #0 comdat align 2 {
  %2 = getelementptr inbounds %"class.std::vector.10", %"class.std::vector.10"* %0, i64 0, i32 0
  %3 = getelementptr inbounds %"class.std::vector.10", %"class.std::vector.10"* %0, i64 0, i32 0, i32 0, i32 0
  %4 = load %"class.std::vector.15"*, %"class.std::vector.15"** %3, align 8
  %5 = getelementptr inbounds %"class.std::vector.10", %"class.std::vector.10"* %0, i64 0, i32 0, i32 0, i32 1
  %6 = load %"class.std::vector.15"*, %"class.std::vector.15"** %5, align 8
  %7 = tail call dereferenceable(1) %"class.std::allocator.12"* @_ZNSt12_Vector_baseISt6vectorINSt7__cxx1112basic_stringIcSt11char_traitsIcESaIcEEESaIS6_EESaIS8_EE19_M_get_Tp_allocatorEv(%"struct.std::_Vector_base.11"* %2) #18
  tail call void @_ZSt8_DestroyIPSt6vectorINSt7__cxx1112basic_stringIcSt11char_traitsIcESaIcEEESaIS6_EES8_EvT_SA_RSaIT0_E(%"class.std::vector.15"* %4, %"class.std::vector.15"* %6, %"class.std::allocator.12"* nonnull dereferenceable(1) %7)
  tail call void @_ZNSt12_Vector_baseISt6vectorINSt7__cxx1112basic_stringIcSt11char_traitsIcESaIcEEESaIS6_EESaIS8_EED2Ev(%"struct.std::_Vector_base.11"* %2) #18
  ret void
}

; Function Attrs: nounwind sspstrong uwtable
define linkonce_odr hidden void @_ZNSt6vectorI9replentrySaIS0_EED2Ev(%"class.std::vector.5"*) unnamed_addr #0 comdat align 2 {
  %2 = getelementptr inbounds %"class.std::vector.5", %"class.std::vector.5"* %0, i64 0, i32 0
  %3 = getelementptr inbounds %"class.std::vector.5", %"class.std::vector.5"* %0, i64 0, i32 0, i32 0, i32 0
  %4 = load %struct.replentry*, %struct.replentry** %3, align 8
  %5 = getelementptr inbounds %"class.std::vector.5", %"class.std::vector.5"* %0, i64 0, i32 0, i32 0, i32 1
  %6 = load %struct.replentry*, %struct.replentry** %5, align 8
  %7 = tail call dereferenceable(1) %"class.std::allocator.7"* @_ZNSt12_Vector_baseI9replentrySaIS0_EE19_M_get_Tp_allocatorEv(%"struct.std::_Vector_base.6"* %2) #18
  tail call void @_ZSt8_DestroyIP9replentryS0_EvT_S2_RSaIT0_E(%struct.replentry* %4, %struct.replentry* %6, %"class.std::allocator.7"* nonnull dereferenceable(1) %7)
  tail call void @_ZNSt12_Vector_baseI9replentrySaIS0_EED2Ev(%"struct.std::_Vector_base.6"* %2) #18
  ret void
}

; Function Attrs: nounwind sspstrong uwtable
define hidden void @_ZN8AffixMgr13finishFileMgrEP7FileMgr(%class.AffixMgr*, %class.FileMgr*) local_unnamed_addr #0 align 2 {
  %3 = icmp eq %class.FileMgr* %1, null
  br i1 %3, label %6, label %4

; <label>:4:                                      ; preds = %2
  tail call void @_ZN7FileMgrD2Ev(%class.FileMgr* nonnull %1) #18
  %5 = bitcast %class.FileMgr* %1 to i8*
  tail call void @free(i8* %5) #18
  br label %6

; <label>:6:                                      ; preds = %4, %2
  %7 = tail call i32 @_ZN8AffixMgr24process_pfx_tree_to_listEv(%class.AffixMgr* %0)
  %8 = tail call i32 @_ZN8AffixMgr24process_sfx_tree_to_listEv(%class.AffixMgr* %0)
  ret void
}

; Function Attrs: nounwind sspstrong uwtable
define linkonce_odr hidden void @_ZN7FileMgrD2Ev(%class.FileMgr*) unnamed_addr #0 comdat align 2 {
  %2 = getelementptr inbounds %class.FileMgr, %class.FileMgr* %0, i64 0, i32 1, i32 0
  tail call void @_ZN13nsCOMPtr_baseD2Ev(%class.nsCOMPtr_base* nonnull %2) #18
  ret void
}

; Function Attrs: nounwind sspstrong uwtable
define hidden i32 @_ZN8AffixMgr24process_pfx_tree_to_listEv(%class.AffixMgr*) local_unnamed_addr #0 align 2 {
  br label %3

; <label>:2:                                      ; preds = %3
  ret i32 0

; <label>:3:                                      ; preds = %3, %1
  %4 = phi i64 [ 1, %1 ], [ %8, %3 ]
  %5 = getelementptr inbounds %class.AffixMgr, %class.AffixMgr* %0, i64 0, i32 0, i64 %4
  %6 = load %class.PfxEntry*, %class.PfxEntry** %5, align 8
  %7 = tail call %class.PfxEntry* @_ZN8AffixMgr20process_pfx_in_orderEP8PfxEntryS1_(%class.AffixMgr* %0, %class.PfxEntry* %6, %class.PfxEntry* null)
  store %class.PfxEntry* %7, %class.PfxEntry** %5, align 8
  %8 = add nuw nsw i64 %4, 1
  %9 = icmp eq i64 %8, 256
  br i1 %9, label %2, label %3
}

; Function Attrs: nounwind sspstrong uwtable
define hidden i32 @_ZN8AffixMgr24process_sfx_tree_to_listEv(%class.AffixMgr*) local_unnamed_addr #0 align 2 {
  br label %3

; <label>:2:                                      ; preds = %3
  ret i32 0

; <label>:3:                                      ; preds = %3, %1
  %4 = phi i64 [ 1, %1 ], [ %8, %3 ]
  %5 = getelementptr inbounds %class.AffixMgr, %class.AffixMgr* %0, i64 0, i32 1, i64 %4
  %6 = load %class.SfxEntry*, %class.SfxEntry** %5, align 8
  %7 = tail call %class.SfxEntry* @_ZN8AffixMgr20process_sfx_in_orderEP8SfxEntryS1_(%class.AffixMgr* %0, %class.SfxEntry* %6, %class.SfxEntry* null)
  store %class.SfxEntry* %7, %class.SfxEntry** %5, align 8
  %8 = add nuw nsw i64 %4, 1
  %9 = icmp eq i64 %8, 256
  br i1 %9, label %2, label %3
}

declare hidden void @_ZN7FileMgrC1EPKcS1_(%class.FileMgr*, i8*, i8*) unnamed_addr #8

declare hidden zeroext i1 @_ZN7FileMgr7getlineERNSt7__cxx1112basic_stringIcSt11char_traitsIcESaIcEEE(%class.FileMgr*, %"class.std::__cxx11::basic_string"* dereferenceable(32)) local_unnamed_addr #8

declare i32 @_ZNKSt7__cxx1112basic_stringIcSt11char_traitsIcESaIcEE7compareEmmPKcm(%"class.std::__cxx11::basic_string"*, i64, i64, i8*, i64) local_unnamed_addr #8

; Function Attrs: nounwind sspstrong uwtable
define available_externally dereferenceable(32) %"class.std::__cxx11::basic_string"* @_ZNSt7__cxx1112basic_stringIcSt11char_traitsIcESaIcEE5eraseEmm(%"class.std::__cxx11::basic_string"*, i64, i64) local_unnamed_addr #0 align 2 {
  %4 = tail call i64 @_ZNKSt7__cxx1112basic_stringIcSt11char_traitsIcESaIcEE8_M_checkEmPKc(%"class.std::__cxx11::basic_string"* %0, i64 %1, i8* getelementptr inbounds ([20 x i8], [20 x i8]* @.str.184, i64 0, i64 0))
  switch i64 %2, label %6 [
    i64 -1, label %5
    i64 0, label %8
  ]

; <label>:5:                                      ; preds = %3
  tail call void @_ZNSt7__cxx1112basic_stringIcSt11char_traitsIcESaIcEE13_M_set_lengthEm(%"class.std::__cxx11::basic_string"* %0, i64 %1)
  br label %8

; <label>:6:                                      ; preds = %3
  %7 = tail call i64 @_ZNKSt7__cxx1112basic_stringIcSt11char_traitsIcESaIcEE8_M_limitEmm(%"class.std::__cxx11::basic_string"* %0, i64 %1, i64 %2) #18
  tail call void @_ZNSt7__cxx1112basic_stringIcSt11char_traitsIcESaIcEE8_M_eraseEmm(%"class.std::__cxx11::basic_string"* %0, i64 %1, i64 %7) #18
  br label %8

; <label>:8:                                      ; preds = %3, %6, %5
  ret %"class.std::__cxx11::basic_string"* %0
}

; Function Attrs: nounwind sspstrong uwtable
define hidden zeroext i1 @_Z12parse_stringRKNSt7__cxx1112basic_stringIcSt11char_traitsIcESaIcEEERS4_i(%"class.std::__cxx11::basic_string"* dereferenceable(32), %"class.std::__cxx11::basic_string"* dereferenceable(32), i32) local_unnamed_addr #0 {
  %4 = alloca %"class.__gnu_cxx::__normal_iterator.45", align 8
  %5 = alloca %"class.__gnu_cxx::__normal_iterator.45", align 8
  %6 = alloca %"class.__gnu_cxx::__normal_iterator.45", align 8
  %7 = tail call zeroext i1 @_ZNKSt7__cxx1112basic_stringIcSt11char_traitsIcESaIcEE5emptyEv(%"class.std::__cxx11::basic_string"* nonnull %1) #18
  br i1 %7, label %8, label %39

; <label>:8:                                      ; preds = %3
  %9 = bitcast %"class.__gnu_cxx::__normal_iterator.45"* %4 to i8*
  call void @llvm.lifetime.start.p0i8(i64 8, i8* nonnull %9) #18
  %10 = tail call i8* @_ZNKSt7__cxx1112basic_stringIcSt11char_traitsIcESaIcEE5beginEv(%"class.std::__cxx11::basic_string"* nonnull %0) #18
  %11 = getelementptr inbounds %"class.__gnu_cxx::__normal_iterator.45", %"class.__gnu_cxx::__normal_iterator.45"* %4, i64 0, i32 0
  store i8* %10, i8** %11, align 8
  %12 = bitcast %"class.__gnu_cxx::__normal_iterator.45"* %5 to i8*
  call void @llvm.lifetime.start.p0i8(i64 8, i8* nonnull %12) #18
  %13 = call i8* @_Z8mystrsepRKNSt7__cxx1112basic_stringIcSt11char_traitsIcESaIcEEERN9__gnu_cxx17__normal_iteratorIPKcS4_EE(%"class.std::__cxx11::basic_string"* nonnull dereferenceable(32) %0, %"class.__gnu_cxx::__normal_iterator.45"* nonnull dereferenceable(8) %4)
  %14 = getelementptr inbounds %"class.__gnu_cxx::__normal_iterator.45", %"class.__gnu_cxx::__normal_iterator.45"* %5, i64 0, i32 0
  store i8* %13, i8** %14, align 8
  %15 = bitcast %"class.__gnu_cxx::__normal_iterator.45"* %6 to i8*
  call void @llvm.lifetime.start.p0i8(i64 8, i8* nonnull %15) #18
  %16 = call i8* @_ZNKSt7__cxx1112basic_stringIcSt11char_traitsIcESaIcEE3endEv(%"class.std::__cxx11::basic_string"* nonnull %0) #18
  %17 = getelementptr inbounds %"class.__gnu_cxx::__normal_iterator.45", %"class.__gnu_cxx::__normal_iterator.45"* %6, i64 0, i32 0
  store i8* %16, i8** %17, align 8
  %18 = call zeroext i1 @_ZN9__gnu_cxxneIPKcNSt7__cxx1112basic_stringIcSt11char_traitsIcESaIcEEEEEbRKNS_17__normal_iteratorIT_T0_EESE_(%"class.__gnu_cxx::__normal_iterator.45"* nonnull dereferenceable(8) %5, %"class.__gnu_cxx::__normal_iterator.45"* nonnull dereferenceable(8) %6) #18
  call void @llvm.lifetime.end.p0i8(i64 8, i8* nonnull %15) #18
  br i1 %18, label %19, label %36

; <label>:19:                                     ; preds = %8, %30
  %20 = phi i32 [ %32, %30 ], [ 0, %8 ]
  %21 = phi i32 [ %31, %30 ], [ 0, %8 ]
  %22 = trunc i32 %20 to i31
  switch i31 %22, label %30 [
    i31 0, label %23
    i31 1, label %25
  ]

; <label>:23:                                     ; preds = %19
  %24 = add nsw i32 %21, 1
  br label %30

; <label>:25:                                     ; preds = %19
  %26 = load i8*, i8** %14, align 8
  %27 = load i8*, i8** %11, align 8
  %28 = call dereferenceable(32) %"class.std::__cxx11::basic_string"* @_ZNSt7__cxx1112basic_stringIcSt11char_traitsIcESaIcEE6assignIN9__gnu_cxx17__normal_iteratorIPKcS4_EEvEERS4_T_SC_(%"class.std::__cxx11::basic_string"* nonnull %1, i8* %26, i8* %27)
  %29 = add nsw i32 %21, 1
  br label %30

; <label>:30:                                     ; preds = %19, %25, %23
  %31 = phi i32 [ %21, %19 ], [ %29, %25 ], [ %24, %23 ]
  %32 = add nuw nsw i32 %20, 1
  %33 = call i8* @_Z8mystrsepRKNSt7__cxx1112basic_stringIcSt11char_traitsIcESaIcEEERN9__gnu_cxx17__normal_iteratorIPKcS4_EE(%"class.std::__cxx11::basic_string"* nonnull dereferenceable(32) %0, %"class.__gnu_cxx::__normal_iterator.45"* nonnull dereferenceable(8) %4)
  store i8* %33, i8** %14, align 8
  call void @llvm.lifetime.start.p0i8(i64 8, i8* nonnull %15) #18
  %34 = call i8* @_ZNKSt7__cxx1112basic_stringIcSt11char_traitsIcESaIcEE3endEv(%"class.std::__cxx11::basic_string"* nonnull %0) #18
  store i8* %34, i8** %17, align 8
  %35 = call zeroext i1 @_ZN9__gnu_cxxneIPKcNSt7__cxx1112basic_stringIcSt11char_traitsIcESaIcEEEEEbRKNS_17__normal_iteratorIT_T0_EESE_(%"class.__gnu_cxx::__normal_iterator.45"* nonnull dereferenceable(8) %5, %"class.__gnu_cxx::__normal_iterator.45"* nonnull dereferenceable(8) %6) #18
  call void @llvm.lifetime.end.p0i8(i64 8, i8* nonnull %15) #18
  br i1 %35, label %19, label %36

; <label>:36:                                     ; preds = %30, %8
  %37 = phi i32 [ 0, %8 ], [ %31, %30 ]
  %38 = icmp eq i32 %37, 2
  call void @llvm.lifetime.end.p0i8(i64 8, i8* nonnull %12) #18
  call void @llvm.lifetime.end.p0i8(i64 8, i8* nonnull %9) #18
  br label %39

; <label>:39:                                     ; preds = %3, %36
  %40 = phi i1 [ %38, %36 ], [ false, %3 ]
  ret i1 %40
}

; Function Attrs: norecurse nounwind sspstrong uwtable
define linkonce_odr hidden i32 @_ZNK7FileMgr10getlinenumEv(%class.FileMgr*) local_unnamed_addr #1 comdat align 2 {
  %2 = getelementptr inbounds %class.FileMgr, %class.FileMgr* %0, i64 0, i32 0
  %3 = load i32, i32* %2, align 8
  ret i32 %3
}

; Function Attrs: inlinehint nounwind sspstrong uwtable
define linkonce_odr zeroext i1 @_ZSteqIcSt11char_traitsIcESaIcEEbRKNSt7__cxx1112basic_stringIT_T0_T1_EEPKS5_(%"class.std::__cxx11::basic_string"* dereferenceable(32), i8*) local_unnamed_addr #6 comdat {
  %3 = tail call i32 @_ZNKSt7__cxx1112basic_stringIcSt11char_traitsIcESaIcEE7compareEPKc(%"class.std::__cxx11::basic_string"* nonnull %0, i8* %1) #18
  %4 = icmp eq i32 %3, 0
  ret i1 %4
}

; Function Attrs: nounwind sspstrong uwtable
define hidden zeroext i1 @_ZN8AffixMgr10parse_flagERKNSt7__cxx1112basic_stringIcSt11char_traitsIcESaIcEEEPtP7FileMgr(%class.AffixMgr* nocapture readonly, %"class.std::__cxx11::basic_string"* dereferenceable(32), i16* nocapture, %class.FileMgr*) local_unnamed_addr #0 align 2 {
  %5 = alloca %"class.std::__cxx11::basic_string", align 8
  %6 = load i16, i16* %2, align 2
  %7 = add i16 %6, -1
  %8 = icmp ugt i16 %7, -28
  br i1 %8, label %11, label %9

; <label>:9:                                      ; preds = %4
  %10 = tail call i32 @_ZNK7FileMgr10getlinenumEv(%class.FileMgr* %3)
  br label %22

; <label>:11:                                     ; preds = %4
  %12 = bitcast %"class.std::__cxx11::basic_string"* %5 to i8*
  call void @llvm.lifetime.start.p0i8(i64 32, i8* nonnull %12) #18
  call void @_ZNSt7__cxx1112basic_stringIcSt11char_traitsIcESaIcEEC2Ev(%"class.std::__cxx11::basic_string"* nonnull %5) #18
  %13 = call i32 @_ZNK7FileMgr10getlinenumEv(%class.FileMgr* %3)
  %14 = call zeroext i1 @_Z12parse_stringRKNSt7__cxx1112basic_stringIcSt11char_traitsIcESaIcEEERS4_i(%"class.std::__cxx11::basic_string"* nonnull dereferenceable(32) %1, %"class.std::__cxx11::basic_string"* nonnull dereferenceable(32) %5, i32 undef)
  br i1 %14, label %15, label %20

; <label>:15:                                     ; preds = %11
  %16 = getelementptr inbounds %class.AffixMgr, %class.AffixMgr* %0, i64 0, i32 5
  %17 = load %class.HashMgr*, %class.HashMgr** %16, align 8
  %18 = call i8* @_ZNKSt7__cxx1112basic_stringIcSt11char_traitsIcESaIcEE5c_strEv(%"class.std::__cxx11::basic_string"* nonnull %5) #18
  %19 = call zeroext i16 @_ZNK7HashMgr11decode_flagEPKc(%class.HashMgr* %17, i8* %18)
  store i16 %19, i16* %2, align 2
  br label %20

; <label>:20:                                     ; preds = %11, %15
  %21 = phi i1 [ true, %15 ], [ false, %11 ]
  call void @_ZNSt7__cxx1112basic_stringIcSt11char_traitsIcESaIcEED2Ev(%"class.std::__cxx11::basic_string"* nonnull %5) #18
  call void @llvm.lifetime.end.p0i8(i64 32, i8* nonnull %12) #18
  br label %22

; <label>:22:                                     ; preds = %20, %9
  %23 = phi i1 [ %21, %20 ], [ false, %9 ]
  ret i1 %23
}

; Function Attrs: nounwind sspstrong uwtable
define hidden zeroext i1 @_ZN8AffixMgr9parse_numERKNSt7__cxx1112basic_stringIcSt11char_traitsIcESaIcEEEPiP7FileMgr(%class.AffixMgr* nocapture readnone, %"class.std::__cxx11::basic_string"* dereferenceable(32), i32* nocapture, %class.FileMgr*) local_unnamed_addr #0 align 2 {
  %5 = alloca %"class.std::__cxx11::basic_string", align 8
  %6 = load i32, i32* %2, align 4
  %7 = icmp eq i32 %6, -1
  br i1 %7, label %10, label %8

; <label>:8:                                      ; preds = %4
  %9 = tail call i32 @_ZNK7FileMgr10getlinenumEv(%class.FileMgr* %3)
  br label %19

; <label>:10:                                     ; preds = %4
  %11 = bitcast %"class.std::__cxx11::basic_string"* %5 to i8*
  call void @llvm.lifetime.start.p0i8(i64 32, i8* nonnull %11) #18
  call void @_ZNSt7__cxx1112basic_stringIcSt11char_traitsIcESaIcEEC2Ev(%"class.std::__cxx11::basic_string"* nonnull %5) #18
  %12 = call i32 @_ZNK7FileMgr10getlinenumEv(%class.FileMgr* %3)
  %13 = call zeroext i1 @_Z12parse_stringRKNSt7__cxx1112basic_stringIcSt11char_traitsIcESaIcEEERS4_i(%"class.std::__cxx11::basic_string"* nonnull dereferenceable(32) %1, %"class.std::__cxx11::basic_string"* nonnull dereferenceable(32) %5, i32 undef)
  br i1 %13, label %14, label %17

; <label>:14:                                     ; preds = %10
  %15 = call i8* @_ZNKSt7__cxx1112basic_stringIcSt11char_traitsIcESaIcEE5c_strEv(%"class.std::__cxx11::basic_string"* nonnull %5) #18
  %16 = call i32 @atoi(i8* %15) #17
  store i32 %16, i32* %2, align 4
  br label %17

; <label>:17:                                     ; preds = %10, %14
  %18 = phi i1 [ true, %14 ], [ false, %10 ]
  call void @_ZNSt7__cxx1112basic_stringIcSt11char_traitsIcESaIcEED2Ev(%"class.std::__cxx11::basic_string"* nonnull %5) #18
  call void @llvm.lifetime.end.p0i8(i64 32, i8* nonnull %11) #18
  br label %19

; <label>:19:                                     ; preds = %17, %8
  %20 = phi i1 [ false, %8 ], [ %18, %17 ]
  ret i1 %20
}

; Function Attrs: nounwind sspstrong uwtable
define hidden zeroext i1 @_ZN8AffixMgr17parse_cpdsyllableERKNSt7__cxx1112basic_stringIcSt11char_traitsIcESaIcEEEP7FileMgr(%class.AffixMgr*, %"class.std::__cxx11::basic_string"* dereferenceable(32), %class.FileMgr*) local_unnamed_addr #0 align 2 {
  %4 = alloca %"class.__gnu_cxx::__normal_iterator.45", align 8
  %5 = alloca %"class.__gnu_cxx::__normal_iterator.45", align 8
  %6 = alloca %"class.__gnu_cxx::__normal_iterator.45", align 8
  %7 = alloca %"class.std::__cxx11::basic_string", align 8
  %8 = alloca %"class.std::allocator", align 1
  %9 = alloca %"class.std::__cxx11::basic_string", align 8
  %10 = alloca %"class.std::allocator", align 1
  %11 = bitcast %"class.__gnu_cxx::__normal_iterator.45"* %4 to i8*
  call void @llvm.lifetime.start.p0i8(i64 8, i8* nonnull %11) #18
  %12 = tail call i8* @_ZNKSt7__cxx1112basic_stringIcSt11char_traitsIcESaIcEE5beginEv(%"class.std::__cxx11::basic_string"* nonnull %1) #18
  %13 = getelementptr inbounds %"class.__gnu_cxx::__normal_iterator.45", %"class.__gnu_cxx::__normal_iterator.45"* %4, i64 0, i32 0
  store i8* %12, i8** %13, align 8
  %14 = bitcast %"class.__gnu_cxx::__normal_iterator.45"* %5 to i8*
  call void @llvm.lifetime.start.p0i8(i64 8, i8* nonnull %14) #18
  %15 = call i8* @_Z8mystrsepRKNSt7__cxx1112basic_stringIcSt11char_traitsIcESaIcEEERN9__gnu_cxx17__normal_iteratorIPKcS4_EE(%"class.std::__cxx11::basic_string"* nonnull dereferenceable(32) %1, %"class.__gnu_cxx::__normal_iterator.45"* nonnull dereferenceable(8) %4)
  %16 = getelementptr inbounds %"class.__gnu_cxx::__normal_iterator.45", %"class.__gnu_cxx::__normal_iterator.45"* %5, i64 0, i32 0
  store i8* %15, i8** %16, align 8
  %17 = bitcast %"class.__gnu_cxx::__normal_iterator.45"* %6 to i8*
  call void @llvm.lifetime.start.p0i8(i64 8, i8* nonnull %17) #18
  %18 = call i8* @_ZNKSt7__cxx1112basic_stringIcSt11char_traitsIcESaIcEE3endEv(%"class.std::__cxx11::basic_string"* nonnull %1) #18
  %19 = getelementptr inbounds %"class.__gnu_cxx::__normal_iterator.45", %"class.__gnu_cxx::__normal_iterator.45"* %6, i64 0, i32 0
  store i8* %18, i8** %19, align 8
  %20 = call zeroext i1 @_ZN9__gnu_cxxneIPKcNSt7__cxx1112basic_stringIcSt11char_traitsIcESaIcEEEEEbRKNS_17__normal_iteratorIT_T0_EESE_(%"class.__gnu_cxx::__normal_iterator.45"* nonnull dereferenceable(8) %5, %"class.__gnu_cxx::__normal_iterator.45"* nonnull dereferenceable(8) %6) #18
  call void @llvm.lifetime.end.p0i8(i64 8, i8* nonnull %17) #18
  br i1 %20, label %21, label %67

; <label>:21:                                     ; preds = %3
  %22 = bitcast %"class.std::__cxx11::basic_string"* %7 to i8*
  %23 = getelementptr inbounds %"class.std::allocator", %"class.std::allocator"* %8, i64 0, i32 0
  %24 = getelementptr inbounds %class.AffixMgr, %class.AffixMgr* %0, i64 0, i32 57
  %25 = getelementptr inbounds %class.AffixMgr, %class.AffixMgr* %0, i64 0, i32 10
  %26 = getelementptr inbounds %class.AffixMgr, %class.AffixMgr* %0, i64 0, i32 58
  %27 = bitcast %"class.std::__cxx11::basic_string"* %9 to i8*
  %28 = getelementptr inbounds %"class.std::allocator", %"class.std::allocator"* %10, i64 0, i32 0
  %29 = getelementptr inbounds %class.AffixMgr, %class.AffixMgr* %0, i64 0, i32 59
  br label %30

; <label>:30:                                     ; preds = %21, %59
  %31 = phi i32 [ 0, %21 ], [ %61, %59 ]
  %32 = phi i32 [ 0, %21 ], [ %60, %59 ]
  %33 = trunc i32 %31 to i31
  switch i31 %33, label %59 [
    i31 0, label %34
    i31 1, label %36
    i31 2, label %42
  ]

; <label>:34:                                     ; preds = %30
  %35 = add nsw i32 %32, 1
  br label %59

; <label>:36:                                     ; preds = %30
  call void @llvm.lifetime.start.p0i8(i64 32, i8* nonnull %22) #18
  %37 = load i8*, i8** %16, align 8
  %38 = load i8*, i8** %13, align 8
  call void @llvm.lifetime.start.p0i8(i64 1, i8* nonnull %23) #18
  call void @_ZNSaIcEC2Ev(%"class.std::allocator"* nonnull %8) #18
  call void @_ZNSt7__cxx1112basic_stringIcSt11char_traitsIcESaIcEEC2IN9__gnu_cxx17__normal_iteratorIPKcS4_EEvEET_SB_RKS3_(%"class.std::__cxx11::basic_string"* nonnull %7, i8* %37, i8* %38, %"class.std::allocator"* nonnull dereferenceable(1) %8)
  %39 = call i8* @_ZNKSt7__cxx1112basic_stringIcSt11char_traitsIcESaIcEE5c_strEv(%"class.std::__cxx11::basic_string"* nonnull %7) #18
  %40 = call i32 @atoi(i8* %39) #17
  store i32 %40, i32* %24, align 4
  call void @_ZNSt7__cxx1112basic_stringIcSt11char_traitsIcESaIcEED2Ev(%"class.std::__cxx11::basic_string"* nonnull %7) #18
  call void @_ZNSaIcED2Ev(%"class.std::allocator"* nonnull %8) #18
  call void @llvm.lifetime.end.p0i8(i64 1, i8* nonnull %23) #18
  call void @llvm.lifetime.end.p0i8(i64 32, i8* nonnull %22) #18
  %41 = add nsw i32 %32, 1
  br label %59

; <label>:42:                                     ; preds = %30
  %43 = load i32, i32* %25, align 8
  %44 = icmp eq i32 %43, 0
  br i1 %44, label %45, label %51

; <label>:45:                                     ; preds = %42
  %46 = load i8*, i8** %16, align 8
  %47 = load i8*, i8** %13, align 8
  %48 = call dereferenceable(32) %"class.std::__cxx11::basic_string"* @_ZNSt7__cxx1112basic_stringIcSt11char_traitsIcESaIcEE6assignIN9__gnu_cxx17__normal_iteratorIPKcS4_EEvEERS4_T_SC_(%"class.std::__cxx11::basic_string"* nonnull %26, i8* %46, i8* %47)
  %49 = call i8* @_ZNSt7__cxx1112basic_stringIcSt11char_traitsIcESaIcEE5beginEv(%"class.std::__cxx11::basic_string"* nonnull %26) #18
  %50 = call i8* @_ZNSt7__cxx1112basic_stringIcSt11char_traitsIcESaIcEE3endEv(%"class.std::__cxx11::basic_string"* nonnull %26) #18
  call void @_ZSt4sortIN9__gnu_cxx17__normal_iteratorIPcNSt7__cxx1112basic_stringIcSt11char_traitsIcESaIcEEEEEEvT_SA_(i8* %49, i8* %50)
  br label %57

; <label>:51:                                     ; preds = %42
  call void @llvm.lifetime.start.p0i8(i64 32, i8* nonnull %27) #18
  %52 = load i8*, i8** %16, align 8
  %53 = load i8*, i8** %13, align 8
  call void @llvm.lifetime.start.p0i8(i64 1, i8* nonnull %28) #18
  call void @_ZNSaIcEC2Ev(%"class.std::allocator"* nonnull %10) #18
  call void @_ZNSt7__cxx1112basic_stringIcSt11char_traitsIcESaIcEEC2IN9__gnu_cxx17__normal_iteratorIPKcS4_EEvEET_SB_RKS3_(%"class.std::__cxx11::basic_string"* nonnull %9, i8* %52, i8* %53, %"class.std::allocator"* nonnull dereferenceable(1) %10)
  call void @_ZNSaIcED2Ev(%"class.std::allocator"* nonnull %10) #18
  call void @llvm.lifetime.end.p0i8(i64 1, i8* nonnull %28) #18
  %54 = call i32 @_Z6u8_u16RSt6vectorI6w_charSaIS0_EERKNSt7__cxx1112basic_stringIcSt11char_traitsIcESaIcEEE(%"class.std::vector.1"* nonnull dereferenceable(24) %29, %"class.std::__cxx11::basic_string"* nonnull dereferenceable(32) %9)
  %55 = call %struct.w_char* @_ZNSt6vectorI6w_charSaIS0_EE5beginEv(%"class.std::vector.1"* nonnull %29) #18
  %56 = call %struct.w_char* @_ZNSt6vectorI6w_charSaIS0_EE3endEv(%"class.std::vector.1"* nonnull %29) #18
  call void @_ZSt4sortIN9__gnu_cxx17__normal_iteratorIP6w_charSt6vectorIS2_SaIS2_EEEEEvT_S8_(%struct.w_char* %55, %struct.w_char* %56)
  call void @_ZNSt7__cxx1112basic_stringIcSt11char_traitsIcESaIcEED2Ev(%"class.std::__cxx11::basic_string"* nonnull %9) #18
  call void @llvm.lifetime.end.p0i8(i64 32, i8* nonnull %27) #18
  br label %57

; <label>:57:                                     ; preds = %51, %45
  %58 = add nsw i32 %32, 1
  br label %59

; <label>:59:                                     ; preds = %30, %57, %36, %34
  %60 = phi i32 [ %32, %30 ], [ %58, %57 ], [ %41, %36 ], [ %35, %34 ]
  %61 = add nuw nsw i32 %31, 1
  %62 = call i8* @_Z8mystrsepRKNSt7__cxx1112basic_stringIcSt11char_traitsIcESaIcEEERN9__gnu_cxx17__normal_iteratorIPKcS4_EE(%"class.std::__cxx11::basic_string"* nonnull dereferenceable(32) %1, %"class.__gnu_cxx::__normal_iterator.45"* nonnull dereferenceable(8) %4)
  store i8* %62, i8** %16, align 8
  call void @llvm.lifetime.start.p0i8(i64 8, i8* nonnull %17) #18
  %63 = call i8* @_ZNKSt7__cxx1112basic_stringIcSt11char_traitsIcESaIcEE3endEv(%"class.std::__cxx11::basic_string"* nonnull %1) #18
  store i8* %63, i8** %19, align 8
  %64 = call zeroext i1 @_ZN9__gnu_cxxneIPKcNSt7__cxx1112basic_stringIcSt11char_traitsIcESaIcEEEEEbRKNS_17__normal_iteratorIT_T0_EESE_(%"class.__gnu_cxx::__normal_iterator.45"* nonnull dereferenceable(8) %5, %"class.__gnu_cxx::__normal_iterator.45"* nonnull dereferenceable(8) %6) #18
  call void @llvm.lifetime.end.p0i8(i64 8, i8* nonnull %17) #18
  br i1 %64, label %30, label %65

; <label>:65:                                     ; preds = %59
  %66 = icmp slt i32 %60, 2
  br i1 %66, label %67, label %69

; <label>:67:                                     ; preds = %3, %65
  %68 = call i32 @_ZNK7FileMgr10getlinenumEv(%class.FileMgr* %2)
  br label %74

; <label>:69:                                     ; preds = %65
  %70 = icmp eq i32 %60, 2
  br i1 %70, label %71, label %74

; <label>:71:                                     ; preds = %69
  %72 = getelementptr inbounds %class.AffixMgr, %class.AffixMgr* %0, i64 0, i32 58
  %73 = call dereferenceable(32) %"class.std::__cxx11::basic_string"* @_ZNSt7__cxx1112basic_stringIcSt11char_traitsIcESaIcEEaSEPKc(%"class.std::__cxx11::basic_string"* nonnull %72, i8* getelementptr inbounds ([11 x i8], [11 x i8]* @.str.77, i64 0, i64 0))
  br label %74

; <label>:74:                                     ; preds = %69, %71, %67
  %75 = phi i1 [ false, %67 ], [ true, %71 ], [ true, %69 ]
  call void @llvm.lifetime.end.p0i8(i64 8, i8* nonnull %14) #18
  call void @llvm.lifetime.end.p0i8(i64 8, i8* nonnull %11) #18
  ret i1 %75
}

; Function Attrs: nounwind sspstrong uwtable
define hidden zeroext i1 @_Z11parse_arrayRKNSt7__cxx1112basic_stringIcSt11char_traitsIcESaIcEEERS4_RSt6vectorI6w_charSaIS9_EEii(%"class.std::__cxx11::basic_string"* dereferenceable(32), %"class.std::__cxx11::basic_string"* dereferenceable(32), %"class.std::vector.1"* dereferenceable(24), i32, i32) local_unnamed_addr #0 {
  %6 = tail call zeroext i1 @_Z12parse_stringRKNSt7__cxx1112basic_stringIcSt11char_traitsIcESaIcEEERS4_i(%"class.std::__cxx11::basic_string"* nonnull dereferenceable(32) %0, %"class.std::__cxx11::basic_string"* nonnull dereferenceable(32) %1, i32 undef)
  br i1 %6, label %7, label %13

; <label>:7:                                      ; preds = %5
  %8 = icmp eq i32 %3, 0
  br i1 %8, label %13, label %9

; <label>:9:                                      ; preds = %7
  %10 = tail call i32 @_Z6u8_u16RSt6vectorI6w_charSaIS0_EERKNSt7__cxx1112basic_stringIcSt11char_traitsIcESaIcEEE(%"class.std::vector.1"* nonnull dereferenceable(24) %2, %"class.std::__cxx11::basic_string"* nonnull dereferenceable(32) %1)
  %11 = tail call %struct.w_char* @_ZNSt6vectorI6w_charSaIS0_EE5beginEv(%"class.std::vector.1"* nonnull %2) #18
  %12 = tail call %struct.w_char* @_ZNSt6vectorI6w_charSaIS0_EE3endEv(%"class.std::vector.1"* nonnull %2) #18
  tail call void @_ZSt4sortIN9__gnu_cxx17__normal_iteratorIP6w_charSt6vectorIS2_SaIS2_EEEEEvT_S8_(%struct.w_char* %11, %struct.w_char* %12)
  br label %13

; <label>:13:                                     ; preds = %9, %7, %5
  %14 = phi i1 [ false, %5 ], [ true, %7 ], [ true, %9 ]
  ret i1 %14
}

; Function Attrs: nounwind sspstrong uwtable
define hidden zeroext i1 @_ZN8AffixMgr14parse_reptableERKNSt7__cxx1112basic_stringIcSt11char_traitsIcESaIcEEEP7FileMgr(%class.AffixMgr*, %"class.std::__cxx11::basic_string"* dereferenceable(32), %class.FileMgr*) local_unnamed_addr #0 align 2 {
  %4 = alloca %"class.__gnu_cxx::__normal_iterator.45", align 8
  %5 = alloca %"class.__gnu_cxx::__normal_iterator.45", align 8
  %6 = alloca %"class.__gnu_cxx::__normal_iterator.45", align 8
  %7 = alloca %"class.std::__cxx11::basic_string", align 8
  %8 = alloca %"class.std::allocator", align 1
  %9 = alloca %"class.std::__cxx11::basic_string", align 8
  %10 = alloca %struct.replentry, align 8
  %11 = alloca %"class.__gnu_cxx::__normal_iterator.45", align 8
  %12 = alloca %"class.__gnu_cxx::__normal_iterator", align 8
  %13 = alloca %"class.__gnu_cxx::__normal_iterator", align 8
  %14 = alloca %"class.__gnu_cxx::__normal_iterator", align 8
  %15 = alloca %"class.std::__cxx11::basic_string", align 8
  %16 = alloca %"class.std::allocator", align 1
  %17 = alloca %"class.std::__cxx11::basic_string", align 8
  %18 = alloca %"class.std::allocator", align 1
  %19 = alloca %"class.std::__cxx11::basic_string", align 8
  %20 = alloca %"class.std::allocator", align 1
  %21 = alloca %"class.std::__cxx11::basic_string", align 8
  %22 = alloca %"class.std::allocator", align 1
  %23 = getelementptr inbounds %class.AffixMgr, %class.AffixMgr* %0, i64 0, i32 31
  %24 = load i8, i8* %23, align 4, !range !3
  %25 = icmp eq i8 %24, 0
  br i1 %25, label %28, label %26

; <label>:26:                                     ; preds = %3
  %27 = tail call i32 @_ZNK7FileMgr10getlinenumEv(%class.FileMgr* %2)
  br label %187

; <label>:28:                                     ; preds = %3
  store i8 1, i8* %23, align 4
  %29 = bitcast %"class.__gnu_cxx::__normal_iterator.45"* %4 to i8*
  call void @llvm.lifetime.start.p0i8(i64 8, i8* nonnull %29) #18
  %30 = tail call i8* @_ZNKSt7__cxx1112basic_stringIcSt11char_traitsIcESaIcEE5beginEv(%"class.std::__cxx11::basic_string"* nonnull %1) #18
  %31 = getelementptr inbounds %"class.__gnu_cxx::__normal_iterator.45", %"class.__gnu_cxx::__normal_iterator.45"* %4, i64 0, i32 0
  store i8* %30, i8** %31, align 8
  %32 = bitcast %"class.__gnu_cxx::__normal_iterator.45"* %5 to i8*
  call void @llvm.lifetime.start.p0i8(i64 8, i8* nonnull %32) #18
  %33 = call i8* @_Z8mystrsepRKNSt7__cxx1112basic_stringIcSt11char_traitsIcESaIcEEERN9__gnu_cxx17__normal_iteratorIPKcS4_EE(%"class.std::__cxx11::basic_string"* nonnull dereferenceable(32) %1, %"class.__gnu_cxx::__normal_iterator.45"* nonnull dereferenceable(8) %4)
  %34 = getelementptr inbounds %"class.__gnu_cxx::__normal_iterator.45", %"class.__gnu_cxx::__normal_iterator.45"* %5, i64 0, i32 0
  store i8* %33, i8** %34, align 8
  %35 = bitcast %"class.__gnu_cxx::__normal_iterator.45"* %6 to i8*
  call void @llvm.lifetime.start.p0i8(i64 8, i8* nonnull %35) #18
  %36 = call i8* @_ZNKSt7__cxx1112basic_stringIcSt11char_traitsIcESaIcEE3endEv(%"class.std::__cxx11::basic_string"* nonnull %1) #18
  %37 = getelementptr inbounds %"class.__gnu_cxx::__normal_iterator.45", %"class.__gnu_cxx::__normal_iterator.45"* %6, i64 0, i32 0
  store i8* %36, i8** %37, align 8
  %38 = call zeroext i1 @_ZN9__gnu_cxxneIPKcNSt7__cxx1112basic_stringIcSt11char_traitsIcESaIcEEEEEbRKNS_17__normal_iteratorIT_T0_EESE_(%"class.__gnu_cxx::__normal_iterator.45"* nonnull dereferenceable(8) %5, %"class.__gnu_cxx::__normal_iterator.45"* nonnull dereferenceable(8) %6) #18
  call void @llvm.lifetime.end.p0i8(i64 8, i8* nonnull %35) #18
  br i1 %38, label %39, label %93

; <label>:39:                                     ; preds = %28
  %40 = bitcast %"class.std::__cxx11::basic_string"* %7 to i8*
  %41 = getelementptr inbounds %"class.std::allocator", %"class.std::allocator"* %8, i64 0, i32 0
  %42 = getelementptr inbounds %class.AffixMgr, %class.AffixMgr* %0, i64 0, i32 33
  br label %43

; <label>:43:                                     ; preds = %39, %61
  %44 = phi i32 [ -1, %39 ], [ %63, %61 ]
  %45 = phi i32 [ 0, %39 ], [ %64, %61 ]
  %46 = phi i32 [ 0, %39 ], [ %62, %61 ]
  %47 = trunc i32 %45 to i31
  switch i31 %47, label %61 [
    i31 0, label %48
    i31 1, label %50
  ]

; <label>:48:                                     ; preds = %43
  %49 = add nsw i32 %46, 1
  br label %61

; <label>:50:                                     ; preds = %43
  call void @llvm.lifetime.start.p0i8(i64 32, i8* nonnull %40) #18
  %51 = load i8*, i8** %34, align 8
  %52 = load i8*, i8** %31, align 8
  call void @llvm.lifetime.start.p0i8(i64 1, i8* nonnull %41) #18
  call void @_ZNSaIcEC2Ev(%"class.std::allocator"* nonnull %8) #18
  call void @_ZNSt7__cxx1112basic_stringIcSt11char_traitsIcESaIcEEC2IN9__gnu_cxx17__normal_iteratorIPKcS4_EEvEET_SB_RKS3_(%"class.std::__cxx11::basic_string"* nonnull %7, i8* %51, i8* %52, %"class.std::allocator"* nonnull dereferenceable(1) %8)
  %53 = call i8* @_ZNKSt7__cxx1112basic_stringIcSt11char_traitsIcESaIcEE5c_strEv(%"class.std::__cxx11::basic_string"* nonnull %7) #18
  %54 = call i32 @atoi(i8* %53) #17
  call void @_ZNSt7__cxx1112basic_stringIcSt11char_traitsIcESaIcEED2Ev(%"class.std::__cxx11::basic_string"* nonnull %7) #18
  call void @_ZNSaIcED2Ev(%"class.std::allocator"* nonnull %8) #18
  call void @llvm.lifetime.end.p0i8(i64 1, i8* nonnull %41) #18
  call void @llvm.lifetime.end.p0i8(i64 32, i8* nonnull %40) #18
  %55 = icmp slt i32 %54, 1
  br i1 %55, label %56, label %58

; <label>:56:                                     ; preds = %50
  %57 = call i32 @_ZNK7FileMgr10getlinenumEv(%class.FileMgr* %2)
  br label %185

; <label>:58:                                     ; preds = %50
  %59 = sext i32 %54 to i64
  call void @_ZNSt6vectorI9replentrySaIS0_EE7reserveEm(%"class.std::vector.5"* nonnull %42, i64 %59)
  %60 = add nsw i32 %46, 1
  br label %61

; <label>:61:                                     ; preds = %43, %58, %48
  %62 = phi i32 [ %46, %43 ], [ %60, %58 ], [ %49, %48 ]
  %63 = phi i32 [ %44, %43 ], [ %54, %58 ], [ %44, %48 ]
  %64 = add nuw nsw i32 %45, 1
  %65 = call i8* @_Z8mystrsepRKNSt7__cxx1112basic_stringIcSt11char_traitsIcESaIcEEERN9__gnu_cxx17__normal_iteratorIPKcS4_EE(%"class.std::__cxx11::basic_string"* nonnull dereferenceable(32) %1, %"class.__gnu_cxx::__normal_iterator.45"* nonnull dereferenceable(8) %4)
  store i8* %65, i8** %34, align 8
  call void @llvm.lifetime.start.p0i8(i64 8, i8* nonnull %35) #18
  %66 = call i8* @_ZNKSt7__cxx1112basic_stringIcSt11char_traitsIcESaIcEE3endEv(%"class.std::__cxx11::basic_string"* nonnull %1) #18
  store i8* %66, i8** %37, align 8
  %67 = call zeroext i1 @_ZN9__gnu_cxxneIPKcNSt7__cxx1112basic_stringIcSt11char_traitsIcESaIcEEEEEbRKNS_17__normal_iteratorIT_T0_EESE_(%"class.__gnu_cxx::__normal_iterator.45"* nonnull dereferenceable(8) %5, %"class.__gnu_cxx::__normal_iterator.45"* nonnull dereferenceable(8) %6) #18
  call void @llvm.lifetime.end.p0i8(i64 8, i8* nonnull %35) #18
