; ModuleID = '../../third_party/protobuf/src/google/protobuf/compiler/php/php_generator.cc'
source_filename = "../../third_party/protobuf/src/google/protobuf/compiler/php/php_generator.cc"
target datalayout = "e-m:e-i64:64-f80:128-n8:16:32:64-S128"
target triple = "x86_64-pc-linux-gnu"

module asm ".symver exp2f, exp2f@GLIBC_2.2.5"
module asm ".symver expf, expf@GLIBC_2.2.5"
module asm ".symver lgamma, lgamma@GLIBC_2.2.5"
module asm ".symver lgammaf, lgammaf@GLIBC_2.2.5"
module asm ".symver lgammal, lgammal@GLIBC_2.2.5"
module asm ".symver log2f, log2f@GLIBC_2.2.5"
module asm ".symver logf, logf@GLIBC_2.2.5"
module asm ".symver powf, powf@GLIBC_2.2.5"

%"class.std::__1::basic_string" = type { %"class.std::__1::__compressed_pair" }
%"class.std::__1::__compressed_pair" = type { %"struct.std::__1::__compressed_pair_elem" }
%"struct.std::__1::__compressed_pair_elem" = type { %"struct.std::__1::basic_string<char, std::__1::char_traits<char>, std::__1::allocator<char> >::__rep" }
%"struct.std::__1::basic_string<char, std::__1::char_traits<char>, std::__1::allocator<char> >::__rep" = type { %union.anon }
%union.anon = type { %"struct.std::__1::basic_string<char, std::__1::char_traits<char>, std::__1::allocator<char> >::__long" }
%"struct.std::__1::basic_string<char, std::__1::char_traits<char>, std::__1::allocator<char> >::__long" = type { i8*, i64, i64 }
%"class.google::protobuf::FileDescriptor" = type { %"class.std::__1::basic_string"*, %"class.std::__1::basic_string"*, %"class.google::protobuf::DescriptorPool"*, %"class.google::protobuf::GoogleOnceDynamic"*, i32, i32, i32, i32, i32, i32, i32, i32, i8, i8, %"class.google::protobuf::FileDescriptor"**, %"class.std::__1::basic_string"**, i32*, i32*, %"class.google::protobuf::Descriptor"*, %"class.google::protobuf::EnumDescriptor"*, %"class.google::protobuf::ServiceDescriptor"*, %"class.google::protobuf::FieldDescriptor"*, %"class.google::protobuf::FileOptions"*, %"class.google::protobuf::FileDescriptorTables"*, %"class.google::protobuf::SourceCodeInfo"* }
%"class.google::protobuf::DescriptorPool" = type { %"class.google::protobuf::internal::WrappedMutex"*, %"class.google::protobuf::DescriptorDatabase"*, %"class.google::protobuf::DescriptorPool::ErrorCollector"*, %"class.google::protobuf::DescriptorPool"*, %"class.std::__1::unique_ptr", i8, i8, i8, i8, i8, %"class.std::__1::set" }
%"class.google::protobuf::internal::WrappedMutex" = type { %"class.std::__1::mutex" }
%"class.std::__1::mutex" = type { %union.pthread_mutex_t }
%union.pthread_mutex_t = type { %struct.__pthread_mutex_s }
%struct.__pthread_mutex_s = type { i32, i32, i32, i32, i32, i16, i16, %struct.__pthread_internal_list }
%struct.__pthread_internal_list = type { %struct.__pthread_internal_list*, %struct.__pthread_internal_list* }
%"class.google::protobuf::DescriptorDatabase" = type opaque
%"class.google::protobuf::DescriptorPool::ErrorCollector" = type { i32 (...)** }
%"class.std::__1::unique_ptr" = type { %"class.std::__1::__compressed_pair.1" }
%"class.std::__1::__compressed_pair.1" = type { %"struct.std::__1::__compressed_pair_elem.2" }
%"struct.std::__1::__compressed_pair_elem.2" = type { %"class.google::protobuf::DescriptorPool::Tables"* }
%"class.google::protobuf::DescriptorPool::Tables" = type opaque
%"class.std::__1::set" = type { %"class.std::__1::__tree" }
%"class.std::__1::__tree" = type { %"class.std::__1::__tree_end_node"*, %"class.std::__1::__compressed_pair.4", %"class.std::__1::__compressed_pair.9" }
%"class.std::__1::__tree_end_node" = type { %"class.std::__1::__tree_node_base"* }
%"class.std::__1::__tree_node_base" = type opaque
%"class.std::__1::__compressed_pair.4" = type { %"struct.std::__1::__compressed_pair_elem.5" }
%"struct.std::__1::__compressed_pair_elem.5" = type { %"class.std::__1::__tree_end_node" }
%"class.std::__1::__compressed_pair.9" = type { %"struct.std::__1::__compressed_pair_elem.10" }
%"struct.std::__1::__compressed_pair_elem.10" = type { i64 }
%"class.google::protobuf::GoogleOnceDynamic" = type { %"struct.std::__1::once_flag" }
%"struct.std::__1::once_flag" = type { i64 }
%"class.google::protobuf::Descriptor" = type <{ %"class.std::__1::basic_string"*, %"class.std::__1::basic_string"*, %"class.google::protobuf::FileDescriptor"*, %"class.google::protobuf::Descriptor"*, %"class.google::protobuf::MessageOptions"*, %"class.google::protobuf::FieldDescriptor"*, %"class.google::protobuf::OneofDescriptor"*, %"class.google::protobuf::Descriptor"*, %"class.google::protobuf::EnumDescriptor"*, %"struct.google::protobuf::Descriptor::ExtensionRange"*, %"class.google::protobuf::FieldDescriptor"*, %"struct.google::protobuf::Descriptor::ReservedRange"*, %"class.std::__1::basic_string"**, i32, i32, i32, i32, i32, i32, i32, i32, i8, i8, [6 x i8] }>
%"class.google::protobuf::MessageOptions" = type <{ %"class.google::protobuf::Message", %"class.google::protobuf::internal::ExtensionSet", %"class.google::protobuf::internal::InternalMetadataWithArena", %"class.google::protobuf::internal::HasBits", %"class.google::protobuf::internal::CachedSize", %"class.google::protobuf::RepeatedPtrField.36", i8, i8, i8, i8, [4 x i8] }>
%"class.google::protobuf::Message" = type { %"class.google::protobuf::MessageLite" }
%"class.google::protobuf::MessageLite" = type { i32 (...)** }
%"class.google::protobuf::internal::ExtensionSet" = type { %"class.google::protobuf::Arena"*, i16, i16, %"union.google::protobuf::internal::ExtensionSet::AllocatedData" }
%"class.google::protobuf::Arena" = type { %"class.google::protobuf::internal::ArenaImpl", void (%"class.std::type_info"*, i64, i8*)*, void (%"class.google::protobuf::Arena"*, i8*, i64)*, void (%"class.google::protobuf::Arena"*, i8*, i64)*, i8* }
%"class.google::protobuf::internal::ArenaImpl" = type { %"struct.std::__1::atomic", %"struct.std::__1::atomic", %"struct.std::__1::atomic.12", %"class.google::protobuf::internal::ArenaImpl::Block"*, i64, %"struct.google::protobuf::internal::ArenaImpl::Options" }
%"struct.std::__1::atomic" = type { %"struct.std::__1::__atomic_base" }
%"struct.std::__1::__atomic_base" = type { %"class.google::protobuf::internal::ArenaImpl::SerialArena"* }
%"class.google::protobuf::internal::ArenaImpl::SerialArena" = type { %"class.google::protobuf::internal::ArenaImpl"*, i8*, %"class.google::protobuf::internal::ArenaImpl::Block"*, %"struct.google::protobuf::internal::ArenaImpl::CleanupChunk"*, %"class.google::protobuf::internal::ArenaImpl::SerialArena"*, i8*, i8*, %"struct.google::protobuf::internal::ArenaImpl::CleanupNode"*, %"struct.google::protobuf::internal::ArenaImpl::CleanupNode"* }
%"struct.google::protobuf::internal::ArenaImpl::CleanupChunk" = type { i64, %"struct.google::protobuf::internal::ArenaImpl::CleanupChunk"*, [1 x %"struct.google::protobuf::internal::ArenaImpl::CleanupNode"] }
%"struct.google::protobuf::internal::ArenaImpl::CleanupNode" = type { i8*, void (i8*)* }
%"struct.std::__1::atomic.12" = type { %"struct.std::__1::__atomic_base.13" }
%"struct.std::__1::__atomic_base.13" = type { %"struct.std::__1::__atomic_base.14" }
%"struct.std::__1::__atomic_base.14" = type { i64 }
%"class.google::protobuf::internal::ArenaImpl::Block" = type { %"class.google::protobuf::internal::ArenaImpl::Block"*, i64, i64 }
%"struct.google::protobuf::internal::ArenaImpl::Options" = type { i64, i64, i8*, i64, i8* (i64)*, void (i8*, i64)* }
%"class.std::type_info" = type { i32 (...)**, i8* }
%"union.google::protobuf::internal::ExtensionSet::AllocatedData" = type { %"struct.google::protobuf::internal::ExtensionSet::KeyValue"* }
%"struct.google::protobuf::internal::ExtensionSet::KeyValue" = type { i32, %"struct.google::protobuf::internal::ExtensionSet::Extension" }
%"struct.google::protobuf::internal::ExtensionSet::Extension" = type { %union.anon.15, i8, i8, i8, i8, i32, %"class.google::protobuf::FieldDescriptor"* }
%union.anon.15 = type { i64 }
%"class.google::protobuf::internal::InternalMetadataWithArena" = type { %"class.google::protobuf::internal::InternalMetadataWithArenaBase" }
%"class.google::protobuf::internal::InternalMetadataWithArenaBase" = type { i8* }
%"class.google::protobuf::internal::HasBits" = type { [1 x i32] }
%"class.google::protobuf::internal::CachedSize" = type { %"struct.std::__1::atomic.33" }
%"struct.std::__1::atomic.33" = type { %"struct.std::__1::__atomic_base.34" }
%"struct.std::__1::__atomic_base.34" = type { %"struct.std::__1::__atomic_base.35" }
%"struct.std::__1::__atomic_base.35" = type { i32 }
%"class.google::protobuf::RepeatedPtrField.36" = type { %"class.google::protobuf::internal::RepeatedPtrFieldBase" }
%"class.google::protobuf::internal::RepeatedPtrFieldBase" = type { %"class.google::protobuf::Arena"*, i32, i32, %"struct.google::protobuf::internal::RepeatedPtrFieldBase::Rep"* }
%"struct.google::protobuf::internal::RepeatedPtrFieldBase::Rep" = type { i32, [1 x i8*] }
%"class.google::protobuf::OneofDescriptor" = type { %"class.std::__1::basic_string"*, %"class.std::__1::basic_string"*, %"class.google::protobuf::Descriptor"*, i8, i32, %"class.google::protobuf::FieldDescriptor"**, %"class.google::protobuf::OneofOptions"* }
%"class.google::protobuf::OneofOptions" = type { %"class.google::protobuf::Message", %"class.google::protobuf::internal::ExtensionSet", %"class.google::protobuf::internal::InternalMetadataWithArena", %"class.google::protobuf::internal::HasBits", %"class.google::protobuf::internal::CachedSize", %"class.google::protobuf::RepeatedPtrField.36" }
%"struct.google::protobuf::Descriptor::ExtensionRange" = type { i32, i32, %"class.google::protobuf::ExtensionRangeOptions"* }
%"class.google::protobuf::ExtensionRangeOptions" = type { %"class.google::protobuf::Message", %"class.google::protobuf::internal::ExtensionSet", %"class.google::protobuf::internal::InternalMetadataWithArena", %"class.google::protobuf::internal::HasBits", %"class.google::protobuf::internal::CachedSize", %"class.google::protobuf::RepeatedPtrField.36" }
%"struct.google::protobuf::Descriptor::ReservedRange" = type { i32, i32 }
%"class.google::protobuf::EnumDescriptor" = type { %"class.std::__1::basic_string"*, %"class.std::__1::basic_string"*, %"class.google::protobuf::FileDescriptor"*, %"class.google::protobuf::Descriptor"*, %"class.google::protobuf::EnumOptions"*, i8, i8, i32, %"class.google::protobuf::EnumValueDescriptor"*, i32, i32, %"struct.google::protobuf::EnumDescriptor::ReservedRange"*, %"class.std::__1::basic_string"** }
%"class.google::protobuf::EnumOptions" = type <{ %"class.google::protobuf::Message", %"class.google::protobuf::internal::ExtensionSet", %"class.google::protobuf::internal::InternalMetadataWithArena", %"class.google::protobuf::internal::HasBits", %"class.google::protobuf::internal::CachedSize", %"class.google::protobuf::RepeatedPtrField.36", i8, i8, [6 x i8] }>
%"class.google::protobuf::EnumValueDescriptor" = type { %"class.std::__1::basic_string"*, %"class.std::__1::basic_string"*, i32, %"class.google::protobuf::EnumDescriptor"*, %"class.google::protobuf::EnumValueOptions"* }
%"class.google::protobuf::EnumValueOptions" = type <{ %"class.google::protobuf::Message", %"class.google::protobuf::internal::ExtensionSet", %"class.google::protobuf::internal::InternalMetadataWithArena", %"class.google::protobuf::internal::HasBits", %"class.google::protobuf::internal::CachedSize", %"class.google::protobuf::RepeatedPtrField.36", i8, [7 x i8] }>
%"struct.google::protobuf::EnumDescriptor::ReservedRange" = type { i32, i32 }
%"class.google::protobuf::ServiceDescriptor" = type <{ %"class.std::__1::basic_string"*, %"class.std::__1::basic_string"*, %"class.google::protobuf::FileDescriptor"*, %"class.google::protobuf::ServiceOptions"*, %"class.google::protobuf::MethodDescriptor"*, i32, [4 x i8] }>
%"class.google::protobuf::ServiceOptions" = type <{ %"class.google::protobuf::Message", %"class.google::protobuf::internal::ExtensionSet", %"class.google::protobuf::internal::InternalMetadataWithArena", %"class.google::protobuf::internal::HasBits", %"class.google::protobuf::internal::CachedSize", %"class.google::protobuf::RepeatedPtrField.36", i8, [7 x i8] }>
%"class.google::protobuf::MethodDescriptor" = type <{ %"class.std::__1::basic_string"*, %"class.std::__1::basic_string"*, %"class.google::protobuf::ServiceDescriptor"*, %"class.google::protobuf::internal::LazyDescriptor", %"class.google::protobuf::internal::LazyDescriptor", %"class.google::protobuf::MethodOptions"*, i8, i8, [6 x i8] }>
%"class.google::protobuf::internal::LazyDescriptor" = type { %"class.google::protobuf::Descriptor"*, %"class.std::__1::basic_string"*, %"class.google::protobuf::GoogleOnceDynamic"*, %"class.google::protobuf::FileDescriptor"* }
%"class.google::protobuf::MethodOptions" = type { %"class.google::protobuf::Message", %"class.google::protobuf::internal::ExtensionSet", %"class.google::protobuf::internal::InternalMetadataWithArena", %"class.google::protobuf::internal::HasBits", %"class.google::protobuf::internal::CachedSize", %"class.google::protobuf::RepeatedPtrField.36", i8, i32 }
%"class.google::protobuf::FieldDescriptor" = type { %"class.std::__1::basic_string"*, %"class.std::__1::basic_string"*, %"class.std::__1::basic_string"*, %"class.std::__1::basic_string"*, %"class.std::__1::basic_string"*, %"class.google::protobuf::FileDescriptor"*, %"class.google::protobuf::GoogleOnceDynamic"*, i32, i32, i8, i8, i8, i32, i32, %"class.google::protobuf::Descriptor"*, %"class.google::protobuf::OneofDescriptor"*, %"class.google::protobuf::Descriptor"*, %"class.google::protobuf::Descriptor"*, %"class.google::protobuf::EnumDescriptor"*, %"class.google::protobuf::FieldOptions"*, %"class.std::__1::basic_string"*, %"class.std::__1::basic_string"*, %union.anon.23 }
%"class.google::protobuf::FieldOptions" = type <{ %"class.google::protobuf::Message", %"class.google::protobuf::internal::ExtensionSet", %"class.google::protobuf::internal::InternalMetadataWithArena", %"class.google::protobuf::internal::HasBits", %"class.google::protobuf::internal::CachedSize", %"class.google::protobuf::RepeatedPtrField.36", i32, i8, i8, i8, i8, i32, [4 x i8] }>
%union.anon.23 = type { i64 }
%"class.google::protobuf::FileOptions" = type { %"class.google::protobuf::Message", %"class.google::protobuf::internal::ExtensionSet", %"class.google::protobuf::internal::InternalMetadataWithArena", %"class.google::protobuf::internal::HasBits", %"class.google::protobuf::internal::CachedSize", %"class.google::protobuf::RepeatedPtrField.36", %"struct.google::protobuf::internal::ArenaStringPtr", %"struct.google::protobuf::internal::ArenaStringPtr", %"struct.google::protobuf::internal::ArenaStringPtr", %"struct.google::protobuf::internal::ArenaStringPtr", %"struct.google::protobuf::internal::ArenaStringPtr", %"struct.google::protobuf::internal::ArenaStringPtr", %"struct.google::protobuf::internal::ArenaStringPtr", %"struct.google::protobuf::internal::ArenaStringPtr", %"struct.google::protobuf::internal::ArenaStringPtr", %"struct.google::protobuf::internal::ArenaStringPtr", i8, i8, i8, i8, i8, i8, i8, i8, i8, i32 }
%"struct.google::protobuf::internal::ArenaStringPtr" = type { %"class.std::__1::basic_string"* }
%"class.google::protobuf::FileDescriptorTables" = type opaque
%"class.google::protobuf::SourceCodeInfo" = type { %"class.google::protobuf::Message", %"class.google::protobuf::internal::InternalMetadataWithArena", %"class.google::protobuf::internal::HasBits", %"class.google::protobuf::internal::CachedSize", %"class.google::protobuf::RepeatedPtrField.37" }
%"class.google::protobuf::RepeatedPtrField.37" = type { %"class.google::protobuf::internal::RepeatedPtrFieldBase" }
%"struct.std::__1::basic_string<char, std::__1::char_traits<char>, std::__1::allocator<char> >::__short" = type { [23 x i8], %struct.anon }
%struct.anon = type { i8 }
%"class.std::__1::tuple" = type { %"struct.std::__1::__tuple_impl" }
%"struct.std::__1::__tuple_impl" = type { %"class.std::__1::__tuple_leaf", %"class.std::__1::__tuple_leaf.71" }
%"class.std::__1::__tuple_leaf" = type { void (%"class.google::protobuf::FieldDescriptor"*)** }
%"class.std::__1::__tuple_leaf.71" = type { %"class.google::protobuf::FieldDescriptor"** }
%"class.std::__1::__call_once_param" = type { %"class.std::__1::tuple"* }
%"class.std::__1::allocator" = type { i8 }
%"class.std::__1::__basic_string_common" = type { i8 }
%"class.std::__1::basic_ostringstream" = type { %"class.std::__1::basic_ostream.base", %"class.std::__1::basic_stringbuf", %"class.std::__1::basic_ios.base" }
%"class.std::__1::basic_ostream.base" = type { i32 (...)** }
%"class.std::__1::basic_stringbuf" = type <{ %"class.std::__1::basic_streambuf", %"class.std::__1::basic_string", i8*, i32, [4 x i8] }>
%"class.std::__1::basic_streambuf" = type { i32 (...)**, %"class.std::__1::locale", i8*, i8*, i8*, i8*, i8*, i8* }
%"class.std::__1::locale" = type { %"class.std::__1::locale::__imp"* }
%"class.std::__1::locale::__imp" = type opaque
%"class.std::__1::basic_ios.base" = type <{ %"class.std::__1::ios_base", %"class.std::__1::basic_ostream"*, i32 }>
%"class.std::__1::ios_base" = type { i32 (...)**, i32, i64, i64, i32, i32, i8*, i8*, void (i32, %"class.std::__1::ios_base"*, i32)**, i32*, i64, i64, i64*, i64, i64, i8**, i64, i64 }
%"class.std::__1::basic_ostream" = type { i32 (...)**, %"class.std::__1::basic_ios.base" }
%"class.std::__1::basic_ios" = type <{ %"class.std::__1::ios_base", %"class.std::__1::basic_ostream"*, i32, [4 x i8] }>
%"class.google::protobuf::io::Printer" = type { i8, %"class.google::protobuf::io::ZeroCopyOutputStream"*, i8*, i32, i64, %"class.std::__1::basic_string", i8, i8, %"class.std::__1::map.38", %"class.std::__1::vector", %"class.google::protobuf::io::AnnotationCollector"* }
%"class.google::protobuf::io::ZeroCopyOutputStream" = type { i32 (...)** }
%"class.std::__1::map.38" = type { %"class.std::__1::__tree.39" }
%"class.std::__1::__tree.39" = type { %"class.std::__1::__tree_end_node"*, %"class.std::__1::__compressed_pair.40", %"class.std::__1::__compressed_pair.44" }
%"class.std::__1::__compressed_pair.40" = type { %"struct.std::__1::__compressed_pair_elem.5" }
%"class.std::__1::__compressed_pair.44" = type { %"struct.std::__1::__compressed_pair_elem.10" }
%"class.std::__1::vector" = type { %"class.std::__1::__vector_base" }
%"class.std::__1::__vector_base" = type { %"class.std::__1::basic_string"*, %"class.std::__1::basic_string"*, %"class.std::__1::__compressed_pair.47" }
%"class.std::__1::__compressed_pair.47" = type { %"struct.std::__1::__compressed_pair_elem.48" }
%"struct.std::__1::__compressed_pair_elem.48" = type { %"class.std::__1::basic_string"* }
%"class.google::protobuf::io::AnnotationCollector" = type { i32 (...)** }
%"struct.google::protobuf::SourceLocation" = type { i32, i32, i32, i32, %"class.std::__1::basic_string", %"class.std::__1::basic_string", %"class.std::__1::vector" }
%"class.google::protobuf::FileDescriptorSet" = type { %"class.google::protobuf::Message", %"class.google::protobuf::internal::InternalMetadataWithArena", %"class.google::protobuf::internal::HasBits", %"class.google::protobuf::internal::CachedSize", %"class.google::protobuf::RepeatedPtrField.52" }
%"class.google::protobuf::RepeatedPtrField.52" = type { %"class.google::protobuf::internal::RepeatedPtrFieldBase" }
%"class.google::protobuf::FileDescriptorProto" = type { %"class.google::protobuf::Message", %"class.google::protobuf::internal::InternalMetadataWithArena", %"class.google::protobuf::internal::HasBits", %"class.google::protobuf::internal::CachedSize", %"class.google::protobuf::RepeatedPtrField", %"class.google::protobuf::RepeatedPtrField.53", %"class.google::protobuf::RepeatedPtrField.54", %"class.google::protobuf::RepeatedPtrField.55", %"class.google::protobuf::RepeatedPtrField.56", %"class.google::protobuf::RepeatedField", %"class.google::protobuf::RepeatedField", %"struct.google::protobuf::internal::ArenaStringPtr", %"struct.google::protobuf::internal::ArenaStringPtr", %"struct.google::protobuf::internal::ArenaStringPtr", %"class.google::protobuf::FileOptions"*, %"class.google::protobuf::SourceCodeInfo"* }
%"class.google::protobuf::RepeatedPtrField" = type { %"class.google::protobuf::internal::RepeatedPtrFieldBase" }
%"class.google::protobuf::RepeatedPtrField.53" = type { %"class.google::protobuf::internal::RepeatedPtrFieldBase" }
%"class.google::protobuf::RepeatedPtrField.54" = type { %"class.google::protobuf::internal::RepeatedPtrFieldBase" }
%"class.google::protobuf::RepeatedPtrField.55" = type { %"class.google::protobuf::internal::RepeatedPtrFieldBase" }
%"class.google::protobuf::RepeatedPtrField.56" = type { %"class.google::protobuf::internal::RepeatedPtrFieldBase" }
%"class.google::protobuf::RepeatedField" = type { i32, i32, %"union.google::protobuf::RepeatedField<int>::Pointer" }
%"union.google::protobuf::RepeatedField<int>::Pointer" = type { %"class.google::protobuf::Arena"* }
%"class.google::protobuf::FieldDescriptorProto" = type { %"class.google::protobuf::Message", %"class.google::protobuf::internal::InternalMetadataWithArena", %"class.google::protobuf::internal::HasBits", %"class.google::protobuf::internal::CachedSize", %"struct.google::protobuf::internal::ArenaStringPtr", %"struct.google::protobuf::internal::ArenaStringPtr", %"struct.google::protobuf::internal::ArenaStringPtr", %"struct.google::protobuf::internal::ArenaStringPtr", %"struct.google::protobuf::internal::ArenaStringPtr", %"class.google::protobuf::FieldOptions"*, i32, i32, i32, i32 }
%"class.google::protobuf::DescriptorProto" = type { %"class.google::protobuf::Message", %"class.google::protobuf::internal::InternalMetadataWithArena", %"class.google::protobuf::internal::HasBits", %"class.google::protobuf::internal::CachedSize", %"class.google::protobuf::RepeatedPtrField.56", %"class.google::protobuf::RepeatedPtrField.53", %"class.google::protobuf::RepeatedPtrField.54", %"class.google::protobuf::RepeatedPtrField.61", %"class.google::protobuf::RepeatedPtrField.56", %"class.google::protobuf::RepeatedPtrField.62", %"class.google::protobuf::RepeatedPtrField.63", %"class.google::protobuf::RepeatedPtrField", %"struct.google::protobuf::internal::ArenaStringPtr", %"class.google::protobuf::MessageOptions"* }
%"class.google::protobuf::RepeatedPtrField.61" = type { %"class.google::protobuf::internal::RepeatedPtrFieldBase" }
%"class.google::protobuf::RepeatedPtrField.62" = type { %"class.google::protobuf::internal::RepeatedPtrFieldBase" }
%"class.google::protobuf::RepeatedPtrField.63" = type { %"class.google::protobuf::internal::RepeatedPtrFieldBase" }
%"class.google::protobuf::compiler::GeneratorContext" = type { i32 (...)** }
%"class.google::protobuf::compiler::php::Generator" = type { %"class.google::protobuf::compiler::CodeGenerator" }
%"class.google::protobuf::compiler::CodeGenerator" = type { i32 (...)** }
%"class.std::__1::vector.70" = type opaque

$_ZN6google8protobuf8compiler3php22GeneratedClassNameImplINS0_10DescriptorEEENSt3__112basic_stringIcNS5_11char_traitsIcEENS5_9allocatorIcEEEEPKT_ = comdat any

$_ZN6google8protobuf8compiler3php22GeneratedClassNameImplINS0_14EnumDescriptorEEENSt3__112basic_stringIcNS5_11char_traitsIcEENS5_9allocatorIcEEEEPKT_ = comdat any

$_ZN6google8protobuf8compiler3php13FullClassNameINS0_17ServiceDescriptorEEENSt3__112basic_stringIcNS5_11char_traitsIcEENS5_9allocatorIcEEEEPKT_b = comdat any

$_ZNSt3__119basic_ostringstreamIcNS_11char_traitsIcEENS_9allocatorIcEEED1Ev = comdat any

$_ZN6google8protobuf8compiler3php13FullClassNameINS0_10DescriptorEEENSt3__112basic_stringIcNS5_11char_traitsIcEENS5_9allocatorIcEEEEPKT_b = comdat any

$_ZN6google8protobuf8compiler3php18DescriptorFullNameINS0_10DescriptorEEENSt3__112basic_stringIcNS5_11char_traitsIcEENS5_9allocatorIcEEEEPKT_b = comdat any

$_ZN6google8protobuf8compiler3php18DescriptorFullNameINS0_14EnumDescriptorEEENSt3__112basic_stringIcNS5_11char_traitsIcEENS5_9allocatorIcEEEEPKT_b = comdat any

$_ZN6google8protobuf8compiler3php13FullClassNameINS0_14EnumDescriptorEEENSt3__112basic_stringIcNS5_11char_traitsIcEENS5_9allocatorIcEEEEPKT_b = comdat any

$_ZN6google8protobuf8compiler3php19LegacyFullClassNameINS0_10DescriptorEEENSt3__112basic_stringIcNS5_11char_traitsIcEENS5_9allocatorIcEEEEPKT_b = comdat any

$_ZN6google8protobuf8compiler3php19LegacyFullClassNameINS0_14EnumDescriptorEEENSt3__112basic_stringIcNS5_11char_traitsIcEENS5_9allocatorIcEEEEPKT_b = comdat any

$_ZN6google8protobuf8compiler3php22GeneratedClassFileNameINS0_14EnumDescriptorEEENSt3__112basic_stringIcNS5_11char_traitsIcEENS5_9allocatorIcEEEEPKT_b = comdat any

$_ZN6google8protobuf8compiler3php23LegacyGenerateClassFileINS0_14EnumDescriptorEEEvPKNS0_14FileDescriptorEPKT_bPNS1_16GeneratorContextE = comdat any

$_ZN6google8protobuf8compiler3php22GeneratedClassFileNameINS0_10DescriptorEEENSt3__112basic_stringIcNS5_11char_traitsIcEENS5_9allocatorIcEEEEPKT_b = comdat any

$_ZN6google8protobuf8compiler3php23LegacyGenerateClassFileINS0_10DescriptorEEEvPKNS0_14FileDescriptorEPKT_bPNS1_16GeneratorContextE = comdat any

$_ZN6google8protobuf8compiler3php9GeneratorD0Ev = comdat any

$_ZNK6google8protobuf8compiler13CodeGenerator14HasGenerateAllEv = comdat any

$_ZNSt3__117__call_once_proxyINS_5tupleIJRPFvPKN6google8protobuf15FieldDescriptorEERS6_EEEEEvPv = comdat any

$_ZTv0_n24_NSt3__119basic_ostringstreamIcNS_11char_traitsIcEENS_9allocatorIcEEED1Ev = comdat any

$_ZNSt3__119basic_ostringstreamIcNS_11char_traitsIcEENS_9allocatorIcEEED0Ev = comdat any

$_ZTv0_n24_NSt3__119basic_ostringstreamIcNS_11char_traitsIcEENS_9allocatorIcEEED0Ev = comdat any

$_ZNSt3__115basic_stringbufIcNS_11char_traitsIcEENS_9allocatorIcEEED2Ev = comdat any

$_ZNSt3__115basic_stringbufIcNS_11char_traitsIcEENS_9allocatorIcEEED0Ev = comdat any

$_ZNSt3__115basic_stringbufIcNS_11char_traitsIcEENS_9allocatorIcEEE7seekoffExNS_8ios_base7seekdirEj = comdat any

$_ZNSt3__115basic_stringbufIcNS_11char_traitsIcEENS_9allocatorIcEEE7seekposENS_4fposI11__mbstate_tEEj = comdat any

$_ZNSt3__115basic_stringbufIcNS_11char_traitsIcEENS_9allocatorIcEEE9underflowEv = comdat any

$_ZNSt3__115basic_stringbufIcNS_11char_traitsIcEENS_9allocatorIcEEE9pbackfailEi = comdat any

$_ZNSt3__115basic_stringbufIcNS_11char_traitsIcEENS_9allocatorIcEEE8overflowEi = comdat any

$_ZN6google8protobuf8compiler3php16RootPhpNamespaceINS0_17ServiceDescriptorEEENSt3__112basic_stringIcNS5_11char_traitsIcEENS5_9allocatorIcEEEEPKT_b = comdat any

$_ZNKSt3__115basic_stringbufIcNS_11char_traitsIcEENS_9allocatorIcEEE3strEv = comdat any

$_ZN6google8protobuf8compiler3php16RootPhpNamespaceINS0_10DescriptorEEENSt3__112basic_stringIcNS5_11char_traitsIcEENS5_9allocatorIcEEEEPKT_b = comdat any

$_ZN6google8protobuf8compiler3php16RootPhpNamespaceINS0_14EnumDescriptorEEENSt3__112basic_stringIcNS5_11char_traitsIcEENS5_9allocatorIcEEEEPKT_b = comdat any

$_ZN6google8protobuf8compiler3php24LegacyGeneratedClassNameINS0_10DescriptorEEENSt3__112basic_stringIcNS5_11char_traitsIcEENS5_9allocatorIcEEEEPKT_ = comdat any

$_ZN6google8protobuf8compiler3php24LegacyGeneratedClassNameINS0_14EnumDescriptorEEENSt3__112basic_stringIcNS5_11char_traitsIcEENS5_9allocatorIcEEEEPKT_ = comdat any

$_ZN6google8protobuf16RepeatedPtrFieldINSt3__112basic_stringIcNS2_11char_traitsIcEENS2_9allocatorIcEEEEE5eraseENS0_8internal19RepeatedPtrIteratorIKS8_EESD_ = comdat any

$_ZN6google8protobuf8compiler3php28LegacyGeneratedClassFileNameINS0_14EnumDescriptorEEENSt3__112basic_stringIcNS5_11char_traitsIcEENS5_9allocatorIcEEEEPKT_b = comdat any

$_ZN6google8protobuf8compiler3php28LegacyGeneratedClassFileNameINS0_10DescriptorEEENSt3__112basic_stringIcNS5_11char_traitsIcEENS5_9allocatorIcEEEEPKT_b = comdat any

$_ZTVNSt3__119basic_ostringstreamIcNS_11char_traitsIcEENS_9allocatorIcEEEE = comdat any

$_ZTTNSt3__119basic_ostringstreamIcNS_11char_traitsIcEENS_9allocatorIcEEEE = comdat any

$_ZTCNSt3__119basic_ostringstreamIcNS_11char_traitsIcEENS_9allocatorIcEEEE0_NS_13basic_ostreamIcS2_EE = comdat any

$_ZTVNSt3__115basic_stringbufIcNS_11char_traitsIcEENS_9allocatorIcEEEE = comdat any

@_ZL15kDescriptorFile = internal global %"class.std::__1::basic_string" zeroinitializer, align 8
@.str = private unnamed_addr constant [33 x i8] c"google/protobuf/descriptor.proto\00", align 1
@__dso_handle = external hidden global i8
@_ZL10kEmptyFile = internal global %"class.std::__1::basic_string" zeroinitializer, align 8
@.str.2 = private unnamed_addr constant [28 x i8] c"google/protobuf/empty.proto\00", align 1
@_ZL18kEmptyMetadataFile = internal global %"class.std::__1::basic_string" zeroinitializer, align 8
@.str.4 = private unnamed_addr constant [41 x i8] c"GPBMetadata/Google/Protobuf/GPBEmpty.php\00", align 1
@_ZL23kDescriptorMetadataFile = internal global %"class.std::__1::basic_string" zeroinitializer, align 8
@.str.6 = private unnamed_addr constant [52 x i8] c"GPBMetadata/Google/Protobuf/Internal/Descriptor.php\00", align 1
@_ZL18kDescriptorDirName = internal global %"class.std::__1::basic_string" zeroinitializer, align 8
@.str.8 = private unnamed_addr constant [25 x i8] c"Google/Protobuf/Internal\00", align 1
@_ZL22kDescriptorPackageName = internal global %"class.std::__1::basic_string" zeroinitializer, align 8
@.str.10 = private unnamed_addr constant [25 x i8] c"Google\5CProtobuf\5CInternal\00", align 1
@_ZL14kReservedNames = internal unnamed_addr constant [73 x i8*] [i8* getelementptr inbounds ([9 x i8], [9 x i8]* @.str.169, i32 0, i32 0), i8* getelementptr inbounds ([4 x i8], [4 x i8]* @.str.170, i32 0, i32 0), i8* getelementptr inbounds ([6 x i8], [6 x i8]* @.str.171, i32 0, i32 0), i8* getelementptr inbounds ([3 x i8], [3 x i8]* @.str.172, i32 0, i32 0), i8* getelementptr inbounds ([6 x i8], [6 x i8]* @.str.173, i32 0, i32 0), i8* getelementptr inbounds ([9 x i8], [9 x i8]* @.str.174, i32 0, i32 0), i8* getelementptr inbounds ([5 x i8], [5 x i8]* @.str.175, i32 0, i32 0), i8* getelementptr inbounds ([6 x i8], [6 x i8]* @.str.176, i32 0, i32 0), i8* getelementptr inbounds ([6 x i8], [6 x i8]* @.str.177, i32 0, i32 0), i8* getelementptr inbounds ([6 x i8], [6 x i8]* @.str.178, i32 0, i32 0), i8* getelementptr inbounds ([6 x i8], [6 x i8]* @.str.179, i32 0, i32 0), i8* getelementptr inbounds ([9 x i8], [9 x i8]* @.str.180, i32 0, i32 0), i8* getelementptr inbounds ([8 x i8], [8 x i8]* @.str.181, i32 0, i32 0), i8* getelementptr inbounds ([8 x i8], [8 x i8]* @.str.62, i32 0, i32 0), i8* getelementptr inbounds ([4 x i8], [4 x i8]* @.str.182, i32 0, i32 0), i8* getelementptr inbounds ([3 x i8], [3 x i8]* @.str.183, i32 0, i32 0), i8* getelementptr inbounds ([5 x i8], [5 x i8]* @.str.184, i32 0, i32 0), i8* getelementptr inbounds ([5 x i8], [5 x i8]* @.str.185, i32 0, i32 0), i8* getelementptr inbounds ([7 x i8], [7 x i8]* @.str.186, i32 0, i32 0), i8* getelementptr inbounds ([6 x i8], [6 x i8]* @.str.187, i32 0, i32 0), i8* getelementptr inbounds ([11 x i8], [11 x i8]* @.str.188, i32 0, i32 0), i8* getelementptr inbounds ([7 x i8], [7 x i8]* @.str.189, i32 0, i32 0), i8* getelementptr inbounds ([11 x i8], [11 x i8]* @.str.190, i32 0, i32 0), i8* getelementptr inbounds ([6 x i8], [6 x i8]* @.str.191, i32 0, i32 0), i8* getelementptr inbounds ([10 x i8], [10 x i8]* @.str.192, i32 0, i32 0), i8* getelementptr inbounds ([9 x i8], [9 x i8]* @.str.193, i32 0, i32 0), i8* getelementptr inbounds ([5 x i8], [5 x i8]* @.str.194, i32 0, i32 0), i8* getelementptr inbounds ([5 x i8], [5 x i8]* @.str.195, i32 0, i32 0), i8* getelementptr inbounds ([8 x i8], [8 x i8]* @.str.196, i32 0, i32 0), i8* getelementptr inbounds ([6 x i8], [6 x i8]* @.str.197, i32 0, i32 0), i8* getelementptr inbounds ([4 x i8], [4 x i8]* @.str.198, i32 0, i32 0), i8* getelementptr inbounds ([8 x i8], [8 x i8]* @.str.199, i32 0, i32 0), i8* getelementptr inbounds ([9 x i8], [9 x i8]* @.str.200, i32 0, i32 0), i8* getelementptr inbounds ([7 x i8], [7 x i8]* @.str.201, i32 0, i32 0), i8* getelementptr inbounds ([5 x i8], [5 x i8]* @.str.202, i32 0, i32 0), i8* getelementptr inbounds ([3 x i8], [3 x i8]* @.str.203, i32 0, i32 0), i8* getelementptr inbounds ([11 x i8], [11 x i8]* @.str.204, i32 0, i32 0), i8* getelementptr inbounds ([8 x i8], [8 x i8]* @.str.205, i32 0, i32 0), i8* getelementptr inbounds ([13 x i8], [13 x i8]* @.str.206, i32 0, i32 0), i8* getelementptr inbounds ([11 x i8], [11 x i8]* @.str.207, i32 0, i32 0), i8* getelementptr inbounds ([10 x i8], [10 x i8]* @.str.208, i32 0, i32 0), i8* getelementptr inbounds ([10 x i8], [10 x i8]* @.str.209, i32 0, i32 0), i8* getelementptr inbounds ([6 x i8], [6 x i8]* @.str.210, i32 0, i32 0), i8* getelementptr inbounds ([5 x i8], [5 x i8]* @.str.211, i32 0, i32 0), i8* getelementptr inbounds ([10 x i8], [10 x i8]* @.str.212, i32 0, i32 0), i8* getelementptr inbounds ([4 x i8], [4 x i8]* @.str.133, i32 0, i32 0), i8* getelementptr inbounds ([3 x i8], [3 x i8]* @.str.213, i32 0, i32 0), i8* getelementptr inbounds ([6 x i8], [6 x i8]* @.str.214, i32 0, i32 0), i8* getelementptr inbounds ([8 x i8], [8 x i8]* @.str.215, i32 0, i32 0), i8* getelementptr inbounds ([10 x i8], [10 x i8]* @.str.216, i32 0, i32 0), i8* getelementptr inbounds ([7 x i8], [7 x i8]* @.str.217, i32 0, i32 0), i8* getelementptr inbounds ([8 x i8], [8 x i8]* @.str.218, i32 0, i32 0), i8* getelementptr inbounds ([13 x i8], [13 x i8]* @.str.219, i32 0, i32 0), i8* getelementptr inbounds ([7 x i8], [7 x i8]* @.str.220, i32 0, i32 0), i8* getelementptr inbounds ([7 x i8], [7 x i8]* @.str.221, i32 0, i32 0), i8* getelementptr inbounds ([7 x i8], [7 x i8]* @.str.222, i32 0, i32 0), i8* getelementptr inbounds ([6 x i8], [6 x i8]* @.str.223, i32 0, i32 0), i8* getelementptr inbounds ([6 x i8], [6 x i8]* @.str.224, i32 0, i32 0), i8* getelementptr inbounds ([4 x i8], [4 x i8]* @.str.225, i32 0, i32 0), i8* getelementptr inbounds ([6 x i8], [6 x i8]* @.str.226, i32 0, i32 0), i8* getelementptr inbounds ([4 x i8], [4 x i8]* @.str.227, i32 0, i32 0), i8* getelementptr inbounds ([4 x i8], [4 x i8]* @.str.150, i32 0, i32 0), i8* getelementptr inbounds ([6 x i8], [6 x i8]* @.str.228, i32 0, i32 0), i8* getelementptr inbounds ([4 x i8], [4 x i8]* @.str.229, i32 0, i32 0), i8* getelementptr inbounds ([4 x i8], [4 x i8]* @.str.48, i32 0, i32 0), i8* getelementptr inbounds ([6 x i8], [6 x i8]* @.str.40, i32 0, i32 0), i8* getelementptr inbounds ([5 x i8], [5 x i8]* @.str.41, i32 0, i32 0), i8* getelementptr inbounds ([7 x i8], [7 x i8]* @.str.43, i32 0, i32 0), i8* getelementptr inbounds ([5 x i8], [5 x i8]* @.str.230, i32 0, i32 0), i8* getelementptr inbounds ([6 x i8], [6 x i8]* @.str.17, i32 0, i32 0), i8* getelementptr inbounds ([5 x i8], [5 x i8]* @.str.19, i32 0, i32 0), i8* getelementptr inbounds ([5 x i8], [5 x i8]* @.str.231, i32 0, i32 0), i8* getelementptr inbounds ([9 x i8], [9 x i8]* @.str.232, i32 0, i32 0)], align 16
@.str.11 = private unnamed_addr constant [16 x i8] c"google.protobuf\00", align 1
@.str.12 = private unnamed_addr constant [4 x i8] c"GPB\00", align 1
@.str.14 = private unnamed_addr constant [1 x i8] zeroinitializer, align 1
@_ZL19kValidConstantNames = internal unnamed_addr constant [9 x i8*] [i8* getelementptr inbounds ([4 x i8], [4 x i8]* @.str.48, i32 0, i32 0), i8* getelementptr inbounds ([6 x i8], [6 x i8]* @.str.40, i32 0, i32 0), i8* getelementptr inbounds ([5 x i8], [5 x i8]* @.str.41, i32 0, i32 0), i8* getelementptr inbounds ([7 x i8], [7 x i8]* @.str.43, i32 0, i32 0), i8* getelementptr inbounds ([5 x i8], [5 x i8]* @.str.230, i32 0, i32 0), i8* getelementptr inbounds ([6 x i8], [6 x i8]* @.str.17, i32 0, i32 0), i8* getelementptr inbounds ([5 x i8], [5 x i8]* @.str.19, i32 0, i32 0), i8* getelementptr inbounds ([5 x i8], [5 x i8]* @.str.231, i32 0, i32 0), i8* getelementptr inbounds ([9 x i8], [9 x i8]* @.str.232, i32 0, i32 0)], align 16
@.str.16 = private unnamed_addr constant [4 x i8] c"0.0\00", align 1
@.str.17 = private unnamed_addr constant [6 x i8] c"false\00", align 1
@.str.19 = private unnamed_addr constant [5 x i8] c"null\00", align 1
@.str.20 = private unnamed_addr constant [2 x i8] c"/\00", align 1
@.str.22 = private unnamed_addr constant [2 x i8] c"\5C\00", align 1
@.str.23 = private unnamed_addr constant [13 x i8] c"GPBMetadata/\00", align 1
@.str.24 = private unnamed_addr constant [5 x i8] c".php\00", align 1
@.str.25 = private unnamed_addr constant [10 x i8] c"Interface\00", align 1
@.str.29 = private unnamed_addr constant [6 x i8] c"int32\00", align 1
@.str.30 = private unnamed_addr constant [6 x i8] c"int64\00", align 1
@.str.31 = private unnamed_addr constant [7 x i8] c"uint32\00", align 1
@.str.32 = private unnamed_addr constant [7 x i8] c"uint64\00", align 1
@.str.33 = private unnamed_addr constant [7 x i8] c"sint32\00", align 1
@.str.34 = private unnamed_addr constant [7 x i8] c"sint64\00", align 1
@.str.35 = private unnamed_addr constant [8 x i8] c"fixed32\00", align 1
@.str.36 = private unnamed_addr constant [8 x i8] c"fixed64\00", align 1
@.str.39 = private unnamed_addr constant [7 x i8] c"double\00", align 1
@.str.40 = private unnamed_addr constant [6 x i8] c"float\00", align 1
@.str.41 = private unnamed_addr constant [5 x i8] c"bool\00", align 1
@.str.43 = private unnamed_addr constant [7 x i8] c"string\00", align 1
@.str.44 = private unnamed_addr constant [6 x i8] c"bytes\00", align 1
@.str.45 = private unnamed_addr constant [8 x i8] c"message\00", align 1
@.str.46 = private unnamed_addr constant [6 x i8] c"group\00", align 1
@.str.47 = private unnamed_addr constant [41 x i8] c"array|\5CGoogle\5CProtobuf\5CInternal\5CMapField\00", align 1
@.str.48 = private unnamed_addr constant [4 x i8] c"int\00", align 1
@.str.49 = private unnamed_addr constant [11 x i8] c"int|string\00", align 1
@.str.51 = private unnamed_addr constant [4 x i8] c"[]|\00", align 1
@.str.52 = private unnamed_addr constant [43 x i8] c"[]|\5CGoogle\5CProtobuf\5CInternal\5CRepeatedField\00", align 1
@.str.53 = private unnamed_addr constant [35 x i8] c"\5CGoogle\5CProtobuf\5CInternal\5CMapField\00", align 1
@.str.54 = private unnamed_addr constant [40 x i8] c"\5CGoogle\5CProtobuf\5CInternal\5CRepeatedField\00", align 1
@.str.55 = private unnamed_addr constant [4 x i8] c", '\00", align 1
@.str.56 = private unnamed_addr constant [2 x i8] c"'\00", align 1
@_ZZN6google8protobuf8compiler3php11BinaryToHexERKNSt3__112basic_stringIcNS3_11char_traitsIcEENS3_9allocatorIcEEEEE6symbol = private unnamed_addr constant [16 x i8] c"0123456789abcdef", align 16
@.str.59 = private unnamed_addr constant [18 x i8] c"private $^name^;\0A\00", align 1
@.str.60 = private unnamed_addr constant [5 x i8] c"name\00", align 1
@.str.61 = private unnamed_addr constant [30 x i8] c"private $^name^ = ^default^;\0A\00", align 1
@.str.62 = private unnamed_addr constant [8 x i8] c"default\00", align 1
@.str.63 = private unnamed_addr constant [30 x i8] c"private $has_^name^ = false;\0A\00", align 1
@.str.64 = private unnamed_addr constant [20 x i8] c"protected $^name^;\0A\00", align 1
@.str.65 = private unnamed_addr constant [79 x i8] c"public function get^camel_name^()\0A{\0A    return $this->readOneof(^number^);\0A}\0A\0A\00", align 1
@.str.66 = private unnamed_addr constant [11 x i8] c"camel_name\00", align 1
@.str.67 = private unnamed_addr constant [7 x i8] c"number\00", align 1
@.str.68 = private unnamed_addr constant [66 x i8] c"public function get^camel_name^()\0A{\0A    return $this->^name^;\0A}\0A\0A\00", align 1
@.str.69 = private unnamed_addr constant [41 x i8] c"public function set^camel_name^($var)\0A{\0A\00", align 1
@.str.70 = private unnamed_addr constant [4 x i8] c"key\00", align 1
@.str.71 = private unnamed_addr constant [6 x i8] c"value\00", align 1
@.str.72 = private unnamed_addr constant [131 x i8] c"$arr = GPBUtil::checkMapField($var, \5CGoogle\5CProtobuf\5CInternal\5CGPBType::^key_type^, \5CGoogle\5CProtobuf\5CInternal\5CGPBType::^value_type^\00", align 1
@.str.73 = private unnamed_addr constant [9 x i8] c"key_type\00", align 1
@.str.74 = private unnamed_addr constant [11 x i8] c"value_type\00", align 1
@.str.75 = private unnamed_addr constant [19 x i8] c", \5C^class_name^);\0A\00", align 1
@.str.76 = private unnamed_addr constant [11 x i8] c"class_name\00", align 1
@.str.77 = private unnamed_addr constant [8 x i8] c"::class\00", align 1
@.str.78 = private unnamed_addr constant [4 x i8] c");\0A\00", align 1
@.str.79 = private unnamed_addr constant [83 x i8] c"$arr = GPBUtil::checkRepeatedField($var, \5CGoogle\5CProtobuf\5CInternal\5CGPBType::^type^\00", align 1
@.str.80 = private unnamed_addr constant [5 x i8] c"type\00", align 1
@.str.81 = private unnamed_addr constant [52 x i8] c"GPBUtil::checkMessage($var, \5C^class_name^::class);\0A\00", align 1
@.str.82 = private unnamed_addr constant [49 x i8] c"GPBUtil::checkEnum($var, \5C^class_name^::class);\0A\00", align 1
@.str.83 = private unnamed_addr constant [37 x i8] c"GPBUtil::checkString($var, ^utf8^);\0A\00", align 1
@.str.84 = private unnamed_addr constant [5 x i8] c"utf8\00", align 1
@.str.85 = private unnamed_addr constant [5 x i8] c"True\00", align 1
@.str.86 = private unnamed_addr constant [6 x i8] c"False\00", align 1
@.str.87 = private unnamed_addr constant [29 x i8] c"GPBUtil::check^type^($var);\0A\00", align 1
@.str.88 = private unnamed_addr constant [36 x i8] c"$this->writeOneof(^number^, $var);\0A\00", align 1
@.str.89 = private unnamed_addr constant [23 x i8] c"$this->^name^ = $arr;\0A\00", align 1
@.str.90 = private unnamed_addr constant [23 x i8] c"$this->^name^ = $var;\0A\00", align 1
@.str.91 = private unnamed_addr constant [33 x i8] c"$this->has_^field_name^ = true;\0A\00", align 1
@.str.92 = private unnamed_addr constant [11 x i8] c"field_name\00", align 1
@.str.93 = private unnamed_addr constant [16 x i8] c"\0Areturn $this;\0A\00", align 1
@.str.94 = private unnamed_addr constant [4 x i8] c"}\0A\0A\00", align 1
@.str.95 = private unnamed_addr constant [76 x i8] c"public function has^camel_name^()\0A{\0A    return $this->has_^field_name^;\0A}\0A\0A\00", align 1
@.str.96 = private unnamed_addr constant [73 x i8] c"$pool->addEnum('^name^', \5CGoogle\5CProtobuf\5CInternal\5C^class_name^::class)\0A\00", align 1
@.str.97 = private unnamed_addr constant [29 x i8] c"->value(\22^name^\22, ^number^)\0A\00", align 1
@.str.98 = private unnamed_addr constant [22 x i8] c"->finalizeToPool();\0A\0A\00", align 1
@.str.99 = private unnamed_addr constant [58 x i8] c"public function ^camel_name^(\5C^request_name^ $request);\0A\0A\00", align 1
@.str.100 = private unnamed_addr constant [13 x i8] c"request_name\00", align 1
@.str.101 = private unnamed_addr constant [79 x i8] c"$pool->addMessage('^message^', \5CGoogle\5CProtobuf\5CInternal\5C^class_name^::class)\0A\00", align 1
@.str.102 = private unnamed_addr constant [121 x i8] c"->map('^field^', \5CGoogle\5CProtobuf\5CInternal\5CGPBType::^key^, \5CGoogle\5CProtobuf\5CInternal\5CGPBType::^value^, ^number^^other^)\0A\00", align 1
@.str.103 = private unnamed_addr constant [6 x i8] c"field\00", align 1
@.str.104 = private unnamed_addr constant [6 x i8] c"other\00", align 1
@.str.105 = private unnamed_addr constant [82 x i8] c"->^label^('^field^', \5CGoogle\5CProtobuf\5CInternal\5CGPBType::^type^, ^number^^other^)\0A\00", align 1
@.str.106 = private unnamed_addr constant [6 x i8] c"label\00", align 1
@.str.107 = private unnamed_addr constant [17 x i8] c"->oneof(^name^)\0A\00", align 1
@.str.108 = private unnamed_addr constant [80 x i8] c"->value('^field^', \5CGoogle\5CProtobuf\5CInternal\5CGPBType::^type^, ^number^^other^)\0A\00", align 1
@.str.109 = private unnamed_addr constant [12 x i8] c"->finish()\0A\00", align 1
@.str.110 = private unnamed_addr constant [21 x i8] c"->finalizeToPool();\0A\00", align 1
@.str.111 = private unnamed_addr constant [2 x i8] c"\0A\00", align 1
@.str.112 = private unnamed_addr constant [77 x i8] c"public static $is_initialized = false;\0A\0Apublic static function initOnce() {\0A\00", align 1
@.str.113 = private unnamed_addr constant [123 x i8] c"$pool = \5CGoogle\5CProtobuf\5CInternal\5CDescriptorPool::getGeneratedPool();\0A\0Aif (static::$is_initialized == true) {\0A  return;\0A}\0A\00", align 1
@.str.114 = private unnamed_addr constant [18 x i8] c"$pool->finish();\0A\00", align 1
@.str.115 = private unnamed_addr constant [22 x i8] c"\5C^name^::initOnce();\0A\00", align 1
@.str.116 = private unnamed_addr constant [42 x i8] c"$pool->internalAddGeneratedFile(hex2bin(\0A\00", align 1
@.str.117 = private unnamed_addr constant [15 x i8] c"\22^data^\22^dot^\0A\00", align 1
@.str.118 = private unnamed_addr constant [5 x i8] c"data\00", align 1
@.str.119 = private unnamed_addr constant [4 x i8] c"dot\00", align 1
@.str.120 = private unnamed_addr constant [3 x i8] c" .\00", align 1
@.str.121 = private unnamed_addr constant [6 x i8] c"));\0A\0A\00", align 1
@.str.122 = private unnamed_addr constant [33 x i8] c"static::$is_initialized = true;\0A\00", align 1
@.str.123 = private unnamed_addr constant [3 x i8] c"}\0A\00", align 1
@.str.124 = private unnamed_addr constant [122 x i8] c"use Google\5CProtobuf\5CInternal\5CGPBType;\0Ause Google\5CProtobuf\5CInternal\5CRepeatedField;\0Ause Google\5CProtobuf\5CInternal\5CGPBUtil;\0A\0A\00", align 1
@.str.125 = private unnamed_addr constant [202 x i8] c"use Google\5CProtobuf\5CInternal\5CGPBType;\0Ause Google\5CProtobuf\5CInternal\5CGPBWire;\0Ause Google\5CProtobuf\5CInternal\5CRepeatedField;\0Ause Google\5CProtobuf\5CInternal\5CInputStream;\0Ause Google\5CProtobuf\5CInternal\5CGPBUtil;\0A\0A\00", align 1
@.str.126 = private unnamed_addr constant [88 x i8] c"<?php\0A# Generated by the protocol buffer compiler.  DO NOT EDIT!\0A# source: ^filename^\0A\0A\00", align 1
@.str.127 = private unnamed_addr constant [9 x i8] c"filename\00", align 1
@.str.128 = private unnamed_addr constant [20 x i8] c"namespace ^name^;\0A\0A\00", align 1
@.str.129 = private unnamed_addr constant [16 x i8] c"class ^name^\0A{\0A\00", align 1
@.str.130 = private unnamed_addr constant [26 x i8] c"const ^name^ = ^number^;\0A\00", align 1
@.str.131 = private unnamed_addr constant [83 x i8] c"// Adding a class alias for backwards compatibility with the previous class name.\0A\00", align 1
@.str.132 = private unnamed_addr constant [44 x i8] c"class_alias(^new^::class, \5C^old^::class);\0A\0A\00", align 1
@.str.133 = private unnamed_addr constant [4 x i8] c"new\00", align 1
@.str.134 = private unnamed_addr constant [4 x i8] c"old\00", align 1
@.str.135 = private unnamed_addr constant [58 x i8] c"class ^name^ extends \5CGoogle\5CProtobuf\5CInternal\5CMessage\0A{\0A\00", align 1
@.str.136 = private unnamed_addr constant [45 x i8] c"public function __construct($data = NULL) {\0A\00", align 1
@.str.137 = private unnamed_addr constant [54 x i8] c"\5C^fullname^::initOnce();\0Aparent::__construct($data);\0A\00", align 1
@.str.138 = private unnamed_addr constant [9 x i8] c"fullname\00", align 1
@.str.139 = private unnamed_addr constant [106 x i8] c"/**\0A * @return string\0A */\0Apublic function get^camel_name^()\0A{\0A    return $this->whichOneof(\22^name^\22);\0A}\0A\0A\00", align 1
@.str.140 = private unnamed_addr constant [20 x i8] c"interface ^name^\0A{\0A\00", align 1
@.str.141 = private unnamed_addr constant [5 x i8] c"/**\0A\00", align 1
@.str.142 = private unnamed_addr constant [67 x i8] c" * Generated from protobuf message <code>^messagename^</code>\0A */\0A\00", align 1
@.str.143 = private unnamed_addr constant [12 x i8] c"messagename\00", align 1
@.str.144 = private unnamed_addr constant [17 x i8] c" * Constructor.\0A\00", align 1
@.str.145 = private unnamed_addr constant [4 x i8] c" *\0A\00", align 1
@.str.146 = private unnamed_addr constant [25 x i8] c" * @param array $data {\0A\00", align 1
@.str.147 = private unnamed_addr constant [58 x i8] c" *     Optional. Data for populating the Message object.\0A\00", align 1
@.str.148 = private unnamed_addr constant [32 x i8] c" *     @type ^php_type^ $^var^\0A\00", align 1
@.str.149 = private unnamed_addr constant [9 x i8] c"php_type\00", align 1
@.str.150 = private unnamed_addr constant [4 x i8] c"var\00", align 1
@.str.151 = private unnamed_addr constant [6 x i8] c" * }\0A\00", align 1
@.str.152 = private unnamed_addr constant [5 x i8] c" */\0A\00", align 1
@.str.153 = private unnamed_addr constant [46 x i8] c" * Protobuf type <code>^fullname^</code>\0A */\0A\00", align 1
@.str.154 = private unnamed_addr constant [53 x i8] c" * Generated from protobuf field <code>^def^</code>\0A\00", align 1
@.str.155 = private unnamed_addr constant [4 x i8] c"def\00", align 1
@.str.156 = private unnamed_addr constant [27 x i8] c" * @param ^php_type^ $var\0A\00", align 1
@.str.157 = private unnamed_addr constant [18 x i8] c" * @return $this\0A\00", align 1
@.str.158 = private unnamed_addr constant [23 x i8] c" * @return ^php_type^\0A\00", align 1
@.str.159 = private unnamed_addr constant [56 x i8] c" * Generated from protobuf enum <code>^def^</code>\0A */\0A\00", align 1
@.str.160 = private unnamed_addr constant [41 x i8] c" * Method <code>^method_name^</code>\0A *\0A\00", align 1
@.str.161 = private unnamed_addr constant [12 x i8] c"method_name\00", align 1
@.str.162 = private unnamed_addr constant [34 x i8] c" * @param \5C^input_type^ $request\0A\00", align 1
@.str.163 = private unnamed_addr constant [11 x i8] c"input_type\00", align 1
@.str.164 = private unnamed_addr constant [31 x i8] c" * @return \5C^return_type^\0A */\0A\00", align 1
@.str.165 = private unnamed_addr constant [12 x i8] c"return_type\00", align 1
@.str.166 = private unnamed_addr constant [9 x i8] c"internal\00", align 1
@.str.167 = private unnamed_addr constant [66 x i8] c"Can only generate PHP code for google/protobuf/descriptor.proto.\0A\00", align 1
@.str.168 = private unnamed_addr constant [117 x i8] c"Can only generate PHP code for proto3 .proto files.\0APlease add 'syntax = \22proto3\22;' to the top of your .proto file.\0A\00", align 1
@_ZTVN6google8protobuf8compiler3php9GeneratorE = hidden unnamed_addr constant { [7 x i8*] } { [7 x i8*] [i8* null, i8* null, i8* bitcast (void (%"class.google::protobuf::compiler::CodeGenerator"*)* @_ZN6google8protobuf8compiler13CodeGeneratorD2Ev to i8*), i8* bitcast (void (%"class.google::protobuf::compiler::php::Generator"*)* @_ZN6google8protobuf8compiler3php9GeneratorD0Ev to i8*), i8* bitcast (i1 (%"class.google::protobuf::compiler::php::Generator"*, %"class.google::protobuf::FileDescriptor"*, %"class.std::__1::basic_string"*, %"class.google::protobuf::compiler::GeneratorContext"*, %"class.std::__1::basic_string"*)* @_ZNK6google8protobuf8compiler3php9Generator8GenerateEPKNS0_14FileDescriptorERKNSt3__112basic_stringIcNS7_11char_traitsIcEENS7_9allocatorIcEEEEPNS1_16GeneratorContextEPSD_ to i8*), i8* bitcast (i1 (%"class.google::protobuf::compiler::CodeGenerator"*, %"class.std::__1::vector.70"*, %"class.std::__1::basic_string"*, %"class.google::protobuf::compiler::GeneratorContext"*, %"class.std::__1::basic_string"*)* @_ZNK6google8protobuf8compiler13CodeGenerator11GenerateAllERKNSt3__16vectorIPKNS0_14FileDescriptorENS3_9allocatorIS7_EEEERKNS3_12basic_stringIcNS3_11char_traitsIcEENS8_IcEEEEPNS1_16GeneratorContextEPSH_ to i8*), i8* bitcast (i1 (%"class.google::protobuf::compiler::CodeGenerator"*)* @_ZNK6google8protobuf8compiler13CodeGenerator14HasGenerateAllEv to i8*)] }, align 8
@.str.169 = private unnamed_addr constant [9 x i8] c"abstract\00", align 1
@.str.170 = private unnamed_addr constant [4 x i8] c"and\00", align 1
@.str.171 = private unnamed_addr constant [6 x i8] c"array\00", align 1
@.str.172 = private unnamed_addr constant [3 x i8] c"as\00", align 1
@.str.173 = private unnamed_addr constant [6 x i8] c"break\00", align 1
@.str.174 = private unnamed_addr constant [9 x i8] c"callable\00", align 1
@.str.175 = private unnamed_addr constant [5 x i8] c"case\00", align 1
@.str.176 = private unnamed_addr constant [6 x i8] c"catch\00", align 1
@.str.177 = private unnamed_addr constant [6 x i8] c"class\00", align 1
@.str.178 = private unnamed_addr constant [6 x i8] c"clone\00", align 1
@.str.179 = private unnamed_addr constant [6 x i8] c"const\00", align 1
@.str.180 = private unnamed_addr constant [9 x i8] c"continue\00", align 1
@.str.181 = private unnamed_addr constant [8 x i8] c"declare\00", align 1
@.str.182 = private unnamed_addr constant [4 x i8] c"die\00", align 1
@.str.183 = private unnamed_addr constant [3 x i8] c"do\00", align 1
@.str.184 = private unnamed_addr constant [5 x i8] c"echo\00", align 1
@.str.185 = private unnamed_addr constant [5 x i8] c"else\00", align 1
@.str.186 = private unnamed_addr constant [7 x i8] c"elseif\00", align 1
@.str.187 = private unnamed_addr constant [6 x i8] c"empty\00", align 1
@.str.188 = private unnamed_addr constant [11 x i8] c"enddeclare\00", align 1
@.str.189 = private unnamed_addr constant [7 x i8] c"endfor\00", align 1
@.str.190 = private unnamed_addr constant [11 x i8] c"endforeach\00", align 1
@.str.191 = private unnamed_addr constant [6 x i8] c"endif\00", align 1
@.str.192 = private unnamed_addr constant [10 x i8] c"endswitch\00", align 1
@.str.193 = private unnamed_addr constant [9 x i8] c"endwhile\00", align 1
@.str.194 = private unnamed_addr constant [5 x i8] c"eval\00", align 1
@.str.195 = private unnamed_addr constant [5 x i8] c"exit\00", align 1
@.str.196 = private unnamed_addr constant [8 x i8] c"extends\00", align 1
@.str.197 = private unnamed_addr constant [6 x i8] c"final\00", align 1
@.str.198 = private unnamed_addr constant [4 x i8] c"for\00", align 1
@.str.199 = private unnamed_addr constant [8 x i8] c"foreach\00", align 1
@.str.200 = private unnamed_addr constant [9 x i8] c"function\00", align 1
@.str.201 = private unnamed_addr constant [7 x i8] c"global\00", align 1
@.str.202 = private unnamed_addr constant [5 x i8] c"goto\00", align 1
@.str.203 = private unnamed_addr constant [3 x i8] c"if\00", align 1
@.str.204 = private unnamed_addr constant [11 x i8] c"implements\00", align 1
@.str.205 = private unnamed_addr constant [8 x i8] c"include\00", align 1
@.str.206 = private unnamed_addr constant [13 x i8] c"include_once\00", align 1
@.str.207 = private unnamed_addr constant [11 x i8] c"instanceof\00", align 1
@.str.208 = private unnamed_addr constant [10 x i8] c"insteadof\00", align 1
@.str.209 = private unnamed_addr constant [10 x i8] c"interface\00", align 1
@.str.210 = private unnamed_addr constant [6 x i8] c"isset\00", align 1
@.str.211 = private unnamed_addr constant [5 x i8] c"list\00", align 1
@.str.212 = private unnamed_addr constant [10 x i8] c"namespace\00", align 1
@.str.213 = private unnamed_addr constant [3 x i8] c"or\00", align 1
@.str.214 = private unnamed_addr constant [6 x i8] c"print\00", align 1
@.str.215 = private unnamed_addr constant [8 x i8] c"private\00", align 1
@.str.216 = private unnamed_addr constant [10 x i8] c"protected\00", align 1
@.str.217 = private unnamed_addr constant [7 x i8] c"public\00", align 1
@.str.218 = private unnamed_addr constant [8 x i8] c"require\00", align 1
@.str.219 = private unnamed_addr constant [13 x i8] c"require_once\00", align 1
@.str.220 = private unnamed_addr constant [7 x i8] c"return\00", align 1
@.str.221 = private unnamed_addr constant [7 x i8] c"static\00", align 1
@.str.222 = private unnamed_addr constant [7 x i8] c"switch\00", align 1
@.str.223 = private unnamed_addr constant [6 x i8] c"throw\00", align 1
@.str.224 = private unnamed_addr constant [6 x i8] c"trait\00", align 1
@.str.225 = private unnamed_addr constant [4 x i8] c"try\00", align 1
@.str.226 = private unnamed_addr constant [6 x i8] c"unset\00", align 1
@.str.227 = private unnamed_addr constant [4 x i8] c"use\00", align 1
@.str.228 = private unnamed_addr constant [6 x i8] c"while\00", align 1
@.str.229 = private unnamed_addr constant [4 x i8] c"xor\00", align 1
@.str.230 = private unnamed_addr constant [5 x i8] c"true\00", align 1
@.str.231 = private unnamed_addr constant [5 x i8] c"void\00", align 1
@.str.232 = private unnamed_addr constant [9 x i8] c"iterable\00", align 1
@_ZTVNSt3__119basic_ostringstreamIcNS_11char_traitsIcEENS_9allocatorIcEEEE = linkonce_odr hidden unnamed_addr constant { [5 x i8*], [5 x i8*] } { [5 x i8*] [i8* inttoptr (i64 112 to i8*), i8* null, i8* null, i8* bitcast (void (%"class.std::__1::basic_ostringstream"*)* @_ZNSt3__119basic_ostringstreamIcNS_11char_traitsIcEENS_9allocatorIcEEED1Ev to i8*), i8* bitcast (void (%"class.std::__1::basic_ostringstream"*)* @_ZNSt3__119basic_ostringstreamIcNS_11char_traitsIcEENS_9allocatorIcEEED0Ev to i8*)], [5 x i8*] [i8* inttoptr (i64 -112 to i8*), i8* inttoptr (i64 -112 to i8*), i8* null, i8* bitcast (void (%"class.std::__1::basic_ostringstream"*)* @_ZTv0_n24_NSt3__119basic_ostringstreamIcNS_11char_traitsIcEENS_9allocatorIcEEED1Ev to i8*), i8* bitcast (void (%"class.std::__1::basic_ostringstream"*)* @_ZTv0_n24_NSt3__119basic_ostringstreamIcNS_11char_traitsIcEENS_9allocatorIcEEED0Ev to i8*)] }, comdat, align 8
@_ZTTNSt3__119basic_ostringstreamIcNS_11char_traitsIcEENS_9allocatorIcEEEE = linkonce_odr hidden unnamed_addr constant [4 x i8*] [i8* bitcast (i8** getelementptr inbounds ({ [5 x i8*], [5 x i8*] }, { [5 x i8*], [5 x i8*] }* @_ZTVNSt3__119basic_ostringstreamIcNS_11char_traitsIcEENS_9allocatorIcEEEE, i32 0, inrange i32 0, i32 3) to i8*), i8* bitcast (i8** getelementptr inbounds ({ [5 x i8*], [5 x i8*] }, { [5 x i8*], [5 x i8*] }* @_ZTCNSt3__119basic_ostringstreamIcNS_11char_traitsIcEENS_9allocatorIcEEEE0_NS_13basic_ostreamIcS2_EE, i32 0, inrange i32 0, i32 3) to i8*), i8* bitcast (i8** getelementptr inbounds ({ [5 x i8*], [5 x i8*] }, { [5 x i8*], [5 x i8*] }* @_ZTCNSt3__119basic_ostringstreamIcNS_11char_traitsIcEENS_9allocatorIcEEEE0_NS_13basic_ostreamIcS2_EE, i32 0, inrange i32 1, i32 3) to i8*), i8* bitcast (i8** getelementptr inbounds ({ [5 x i8*], [5 x i8*] }, { [5 x i8*], [5 x i8*] }* @_ZTVNSt3__119basic_ostringstreamIcNS_11char_traitsIcEENS_9allocatorIcEEEE, i32 0, inrange i32 1, i32 3) to i8*)], comdat
@_ZTCNSt3__119basic_ostringstreamIcNS_11char_traitsIcEENS_9allocatorIcEEEE0_NS_13basic_ostreamIcS2_EE = linkonce_odr unnamed_addr constant { [5 x i8*], [5 x i8*] } { [5 x i8*] [i8* inttoptr (i64 112 to i8*), i8* null, i8* null, i8* bitcast (void (%"class.std::__1::basic_ostream"*)* @_ZNSt3__113basic_ostreamIcNS_11char_traitsIcEEED1Ev to i8*), i8* bitcast (void (%"class.std::__1::basic_ostream"*)* @_ZNSt3__113basic_ostreamIcNS_11char_traitsIcEEED0Ev to i8*)], [5 x i8*] [i8* inttoptr (i64 -112 to i8*), i8* inttoptr (i64 -112 to i8*), i8* null, i8* bitcast (void (%"class.std::__1::basic_ostream"*)* @_ZTv0_n24_NSt3__113basic_ostreamIcNS_11char_traitsIcEEED1Ev to i8*), i8* bitcast (void (%"class.std::__1::basic_ostream"*)* @_ZTv0_n24_NSt3__113basic_ostreamIcNS_11char_traitsIcEEED0Ev to i8*)] }, comdat
@_ZTVNSt3__115basic_stringbufIcNS_11char_traitsIcEENS_9allocatorIcEEEE = linkonce_odr hidden unnamed_addr constant { [16 x i8*] } { [16 x i8*] [i8* null, i8* null, i8* bitcast (void (%"class.std::__1::basic_stringbuf"*)* @_ZNSt3__115basic_stringbufIcNS_11char_traitsIcEENS_9allocatorIcEEED2Ev to i8*), i8* bitcast (void (%"class.std::__1::basic_stringbuf"*)* @_ZNSt3__115basic_stringbufIcNS_11char_traitsIcEENS_9allocatorIcEEED0Ev to i8*), i8* bitcast (void (%"class.std::__1::basic_streambuf"*, %"class.std::__1::locale"*)* @_ZNSt3__115basic_streambufIcNS_11char_traitsIcEEE5imbueERKNS_6localeE to i8*), i8* bitcast (%"class.std::__1::basic_streambuf"* (%"class.std::__1::basic_streambuf"*, i8*, i64)* @_ZNSt3__115basic_streambufIcNS_11char_traitsIcEEE6setbufEPcl to i8*), i8* bitcast ({ i64, i64 } (%"class.std::__1::basic_stringbuf"*, i64, i32, i32)* @_ZNSt3__115basic_stringbufIcNS_11char_traitsIcEENS_9allocatorIcEEE7seekoffExNS_8ios_base7seekdirEj to i8*), i8* bitcast ({ i64, i64 } (%"class.std::__1::basic_stringbuf"*, i64, i64, i32)* @_ZNSt3__115basic_stringbufIcNS_11char_traitsIcEENS_9allocatorIcEEE7seekposENS_4fposI11__mbstate_tEEj to i8*), i8* bitcast (i32 (%"class.std::__1::basic_streambuf"*)* @_ZNSt3__115basic_streambufIcNS_11char_traitsIcEEE4syncEv to i8*), i8* bitcast (i64 (%"class.std::__1::basic_streambuf"*)* @_ZNSt3__115basic_streambufIcNS_11char_traitsIcEEE9showmanycEv to i8*), i8* bitcast (i64 (%"class.std::__1::basic_streambuf"*, i8*, i64)* @_ZNSt3__115basic_streambufIcNS_11char_traitsIcEEE6xsgetnEPcl to i8*), i8* bitcast (i32 (%"class.std::__1::basic_stringbuf"*)* @_ZNSt3__115basic_stringbufIcNS_11char_traitsIcEENS_9allocatorIcEEE9underflowEv to i8*), i8* bitcast (i32 (%"class.std::__1::basic_streambuf"*)* @_ZNSt3__115basic_streambufIcNS_11char_traitsIcEEE5uflowEv to i8*), i8* bitcast (i32 (%"class.std::__1::basic_stringbuf"*, i32)* @_ZNSt3__115basic_stringbufIcNS_11char_traitsIcEENS_9allocatorIcEEE9pbackfailEi to i8*), i8* bitcast (i64 (%"class.std::__1::basic_streambuf"*, i8*, i64)* @_ZNSt3__115basic_streambufIcNS_11char_traitsIcEEE6xsputnEPKcl to i8*), i8* bitcast (i32 (%"class.std::__1::basic_stringbuf"*, i32)* @_ZNSt3__115basic_stringbufIcNS_11char_traitsIcEENS_9allocatorIcEEE8overflowEi to i8*)] }, comdat, align 8
@_ZN6google8protobuf15FieldDescriptor17kTypeToCppTypeMapE = external local_unnamed_addr constant [19 x i32], align 16
@_ZN6google8protobuf15FieldDescriptor11kTypeToNameE = external local_unnamed_addr constant [19 x i8*], align 16
@_ZN6google8protobuf15FieldDescriptor14kCppTypeToNameE = external local_unnamed_addr constant [11 x i8*], align 16
@.str.235 = private unnamed_addr constant [6 x i8] c"&#42;\00", align 1
@.str.236 = private unnamed_addr constant [6 x i8] c"&#47;\00", align 1
@.str.237 = private unnamed_addr constant [6 x i8] c"&#64;\00", align 1
@.str.238 = private unnamed_addr constant [11 x i8] c" * ^line^\0A\00", align 1
@.str.239 = private unnamed_addr constant [5 x i8] c"line\00", align 1
@.str.240 = private unnamed_addr constant [15 x i8] c" *^ind^^line^\0A\00", align 1
@.str.241 = private unnamed_addr constant [4 x i8] c"ind\00", align 1
@.str.243 = private unnamed_addr constant [25 x i8] c"google.protobuf.internal\00", align 1
@.str.249 = private unnamed_addr constant [14 x i8] c"if (false) {\0A\00", align 1
@.str.250 = private unnamed_addr constant [49 x i8] c" * This class is deprecated. Use ^new^ instead.\0A\00", align 1
@.str.251 = private unnamed_addr constant [16 x i8] c" * @deprecated\0A\00", align 1
@.str.252 = private unnamed_addr constant [16 x i8] c"class ^old^ {}\0A\00", align 1
@.str.253 = private unnamed_addr constant [29 x i8] c"class_exists(^new^::class);\0A\00", align 1
@.str.254 = private unnamed_addr constant [130 x i8] c"@trigger_error('^old^ is deprecated and will be removed in the next major release. Use ^fullname^ instead', E_USER_DEPRECATED);\0A\0A\00", align 1
@llvm.global_ctors = appending global [1 x { i32, void ()*, i8* }] [{ i32, void ()*, i8* } { i32 65535, void ()* @_GLOBAL__sub_I_php_generator.cc, i8* null }]

; Function Attrs: inlinehint nounwind ssp uwtable
declare void @_ZNSt3__112basic_stringIcNS_11char_traitsIcEENS_9allocatorIcEEED2Ev(%"class.std::__1::basic_string"*) unnamed_addr #0 align 2

; Function Attrs: nounwind
declare i32 @__cxa_atexit(void (i8*)*, i8*, i8*) local_unnamed_addr #1

; Function Attrs: nounwind ssp uwtable
define hidden void @_ZN6google8protobuf8compiler3php18ReservedNamePrefixERKNSt3__112basic_stringIcNS3_11char_traitsIcEENS3_9allocatorIcEEEEPKNS0_14FileDescriptorE(%"class.std::__1::basic_string"* noalias sret, %"class.std::__1::basic_string"* dereferenceable(24), %"class.google::protobuf::FileDescriptor"* nocapture readonly) local_unnamed_addr #2 {
  %4 = alloca %"class.std::__1::basic_string", align 8
  %5 = bitcast %"class.std::__1::basic_string"* %4 to i8*
  call void @llvm.lifetime.start.p0i8(i64 24, i8* nonnull %5) #1
  call void @_ZNSt3__112basic_stringIcNS_11char_traitsIcEENS_9allocatorIcEEEC1ERKS5_(%"class.std::__1::basic_string"* nonnull %4, %"class.std::__1::basic_string"* nonnull dereferenceable(24) %1) #1
  %6 = bitcast %"class.std::__1::basic_string"* %4 to %"struct.std::__1::basic_string<char, std::__1::char_traits<char>, std::__1::allocator<char> >::__short"*
  %7 = getelementptr inbounds %"struct.std::__1::basic_string<char, std::__1::char_traits<char>, std::__1::allocator<char> >::__short", %"struct.std::__1::basic_string<char, std::__1::char_traits<char>, std::__1::allocator<char> >::__short"* %6, i64 0, i32 1, i32 0
  %8 = load i8, i8* %7, align 1
  %9 = icmp slt i8 %8, 0
  %10 = getelementptr inbounds %"class.std::__1::basic_string", %"class.std::__1::basic_string"* %4, i64 0, i32 0, i32 0, i32 0, i32 0, i32 0, i32 0
  %11 = load i8*, i8** %10, align 8
  %12 = getelementptr inbounds %"class.std::__1::basic_string", %"class.std::__1::basic_string"* %4, i64 0, i32 0, i32 0, i32 0, i32 0, i32 0, i32 1
  %13 = load i64, i64* %12, align 8
  %14 = getelementptr inbounds i8, i8* %11, i64 %13
  %15 = zext i8 %8 to i64
  %16 = getelementptr inbounds i8, i8* %5, i64 %15
  %17 = select i1 %9, i8* %14, i8* %16
  %18 = select i1 %9, i8* %11, i8* %5
  %19 = icmp eq i8* %18, %17
  br i1 %19, label %37, label %20

; <label>:20:                                     ; preds = %3, %32
  %21 = phi i8* [ %35, %32 ], [ %18, %3 ]
  %22 = load i8, i8* %21, align 1
  %23 = sext i8 %22 to i32
  %24 = add nsw i32 %23, 128
  %25 = icmp ult i32 %24, 384
  br i1 %25, label %26, label %32

; <label>:26:                                     ; preds = %20
  %27 = tail call i32** @__ctype_tolower_loc() #14
  %28 = load i32*, i32** %27, align 8
  %29 = sext i8 %22 to i64
  %30 = getelementptr inbounds i32, i32* %28, i64 %29
  %31 = load i32, i32* %30, align 4
  br label %32

; <label>:32:                                     ; preds = %20, %26
  %33 = phi i32 [ %31, %26 ], [ %23, %20 ]
  %34 = trunc i32 %33 to i8
  store i8 %34, i8* %21, align 1
  %35 = getelementptr inbounds i8, i8* %21, i64 1
  %36 = icmp eq i8* %35, %17
  br i1 %36, label %37, label %20

; <label>:37:                                     ; preds = %32, %3
  br label %38

; <label>:38:                                     ; preds = %37, %52
  %39 = phi i64 [ %53, %52 ], [ 0, %37 ]
  %40 = getelementptr inbounds [73 x i8*], [73 x i8*]* @_ZL14kReservedNames, i64 0, i64 %39
  %41 = load i8*, i8** %40, align 8
  %42 = call i64 @strlen(i8* %41) #1
  %43 = load i8, i8* %7, align 1
  %44 = icmp slt i8 %43, 0
  %45 = load i64, i64* %12, align 8
  %46 = zext i8 %43 to i64
  %47 = select i1 %44, i64 %45, i64 %46
  %48 = icmp eq i64 %42, %47
  br i1 %48, label %49, label %52

; <label>:49:                                     ; preds = %38
  %50 = call i32 @_ZNKSt3__112basic_stringIcNS_11char_traitsIcEENS_9allocatorIcEEE7compareEmmPKcm(%"class.std::__1::basic_string"* nonnull %4, i64 0, i64 -1, i8* %41, i64 %42) #1
  %51 = icmp eq i32 %50, 0
  br i1 %51, label %55, label %52

; <label>:52:                                     ; preds = %38, %49
  %53 = add nuw nsw i64 %39, 1
  %54 = icmp ult i64 %53, 73
  br i1 %54, label %38, label %81

; <label>:55:                                     ; preds = %49
  %56 = getelementptr inbounds %"class.google::protobuf::FileDescriptor", %"class.google::protobuf::FileDescriptor"* %2, i64 0, i32 1
  %57 = load %"class.std::__1::basic_string"*, %"class.std::__1::basic_string"** %56, align 8
  %58 = bitcast %"class.std::__1::basic_string"* %57 to %"struct.std::__1::basic_string<char, std::__1::char_traits<char>, std::__1::allocator<char> >::__short"*
  %59 = getelementptr inbounds %"struct.std::__1::basic_string<char, std::__1::char_traits<char>, std::__1::allocator<char> >::__short", %"struct.std::__1::basic_string<char, std::__1::char_traits<char>, std::__1::allocator<char> >::__short"* %58, i64 0, i32 1, i32 0
  %60 = load i8, i8* %59, align 1
  %61 = icmp slt i8 %60, 0
  %62 = getelementptr inbounds %"class.std::__1::basic_string", %"class.std::__1::basic_string"* %57, i64 0, i32 0, i32 0, i32 0, i32 0, i32 0, i32 1
  %63 = load i64, i64* %62, align 8
  %64 = zext i8 %60 to i64
  %65 = select i1 %61, i64 %63, i64 %64
  %66 = icmp eq i64 %65, 15
  br i1 %66, label %67, label %75

; <label>:67:                                     ; preds = %55
  %68 = call i32 @_ZNKSt3__112basic_stringIcNS_11char_traitsIcEENS_9allocatorIcEEE7compareEmmPKcm(%"class.std::__1::basic_string"* nonnull %57, i64 0, i64 -1, i8* getelementptr inbounds ([16 x i8], [16 x i8]* @.str.11, i64 0, i64 0), i64 15) #1
  %69 = icmp eq i32 %68, 0
  br i1 %69, label %70, label %75

; <label>:70:                                     ; preds = %67
  %71 = bitcast %"class.std::__1::basic_string"* %0 to i8*
  call void @llvm.memset.p0i8.i64(i8* align 8 %71, i8 0, i64 24, i1 false) #1
  %72 = bitcast %"class.std::__1::basic_string"* %0 to %"struct.std::__1::basic_string<char, std::__1::char_traits<char>, std::__1::allocator<char> >::__short"*
  %73 = getelementptr inbounds %"struct.std::__1::basic_string<char, std::__1::char_traits<char>, std::__1::allocator<char> >::__short", %"struct.std::__1::basic_string<char, std::__1::char_traits<char>, std::__1::allocator<char> >::__short"* %72, i64 0, i32 1, i32 0
  store i8 3, i8* %73, align 1
  call void @llvm.memcpy.p0i8.p0i8.i64(i8* nonnull align 8 %71, i8* align 1 getelementptr inbounds ([4 x i8], [4 x i8]* @.str.12, i64 0, i64 0), i64 3, i1 false) #1
  %74 = getelementptr inbounds i8, i8* %71, i64 3
  store i8 0, i8* %74, align 1
  br label %83

; <label>:75:                                     ; preds = %55, %67
  %76 = bitcast %"class.std::__1::basic_string"* %0 to i8*
  call void @llvm.memset.p0i8.i64(i8* align 8 %76, i8 0, i64 24, i1 false) #1
  %77 = bitcast %"class.std::__1::basic_string"* %0 to %"struct.std::__1::basic_string<char, std::__1::char_traits<char>, std::__1::allocator<char> >::__short"*
  %78 = getelementptr inbounds %"struct.std::__1::basic_string<char, std::__1::char_traits<char>, std::__1::allocator<char> >::__short", %"struct.std::__1::basic_string<char, std::__1::char_traits<char>, std::__1::allocator<char> >::__short"* %77, i64 0, i32 1, i32 0
  store i8 2, i8* %78, align 1
  %79 = bitcast %"class.std::__1::basic_string"* %0 to i16*
  store i16 16976, i16* %79, align 8
  %80 = getelementptr inbounds i8, i8* %76, i64 2
  store i8 0, i8* %80, align 2
  br label %83

; <label>:81:                                     ; preds = %52
  %82 = bitcast %"class.std::__1::basic_string"* %0 to i8*
  call void @llvm.memset.p0i8.i64(i8* align 8 %82, i8 0, i64 24, i1 false)
  br label %83

; <label>:83:                                     ; preds = %81, %75, %70
  %84 = load i8, i8* %7, align 1
  %85 = icmp slt i8 %84, 0
  br i1 %85, label %86, label %88

; <label>:86:                                     ; preds = %83
  %87 = load i8*, i8** %10, align 8
  call void @_ZdlPv(i8* %87) #15
  br label %88

; <label>:88:                                     ; preds = %83, %86
  call void @llvm.lifetime.end.p0i8(i64 24, i8* nonnull %5) #1
  ret void
}

; Function Attrs: argmemonly nounwind
declare void @llvm.lifetime.start.p0i8(i64, i8* nocapture) #3

declare void @_ZNSt3__112basic_stringIcNS_11char_traitsIcEENS_9allocatorIcEEEC1ERKS5_(%"class.std::__1::basic_string"*, %"class.std::__1::basic_string"* dereferenceable(24)) unnamed_addr #4

; Function Attrs: argmemonly nounwind
declare void @llvm.lifetime.end.p0i8(i64, i8* nocapture) #3

; Function Attrs: nounwind ssp uwtable
define hidden void @_ZN6google8protobuf8compiler3php22GeneratedClassNameImplEPKNS0_17ServiceDescriptorE(%"class.std::__1::basic_string"* noalias nocapture sret, %"class.google::protobuf::ServiceDescriptor"* nocapture readonly) local_unnamed_addr #2 {
  %3 = alloca %"class.std::__1::basic_string", align 8
  %4 = alloca %"class.std::__1::basic_string", align 8
  %5 = bitcast %"class.std::__1::basic_string"* %3 to i8*
  call void @llvm.lifetime.start.p0i8(i64 24, i8* nonnull %5) #1
  %6 = getelementptr inbounds %"class.google::protobuf::ServiceDescriptor", %"class.google::protobuf::ServiceDescriptor"* %1, i64 0, i32 0
  %7 = load %"class.std::__1::basic_string"*, %"class.std::__1::basic_string"** %6, align 8
  call void @_ZNSt3__112basic_stringIcNS_11char_traitsIcEENS_9allocatorIcEEEC1ERKS5_(%"class.std::__1::basic_string"* nonnull %3, %"class.std::__1::basic_string"* nonnull dereferenceable(24) %7) #1
  %8 = bitcast %"class.std::__1::basic_string"* %4 to i8*
  call void @llvm.lifetime.start.p0i8(i64 24, i8* nonnull %8) #1
  %9 = getelementptr inbounds %"class.google::protobuf::ServiceDescriptor", %"class.google::protobuf::ServiceDescriptor"* %1, i64 0, i32 2
  %10 = load %"class.google::protobuf::FileDescriptor"*, %"class.google::protobuf::FileDescriptor"** %9, align 8, !noalias !2
  %11 = getelementptr inbounds %"class.google::protobuf::FileDescriptor", %"class.google::protobuf::FileDescriptor"* %10, i64 0, i32 22
  %12 = load %"class.google::protobuf::FileOptions"*, %"class.google::protobuf::FileOptions"** %11, align 8, !noalias !2
  %13 = getelementptr inbounds %"class.google::protobuf::FileOptions", %"class.google::protobuf::FileOptions"* %12, i64 0, i32 12, i32 0
  %14 = load %"class.std::__1::basic_string"*, %"class.std::__1::basic_string"** %13, align 8, !noalias !2
  %15 = bitcast %"class.std::__1::basic_string"* %14 to %"struct.std::__1::basic_string<char, std::__1::char_traits<char>, std::__1::allocator<char> >::__short"*
  %16 = getelementptr inbounds %"struct.std::__1::basic_string<char, std::__1::char_traits<char>, std::__1::allocator<char> >::__short", %"struct.std::__1::basic_string<char, std::__1::char_traits<char>, std::__1::allocator<char> >::__short"* %15, i64 0, i32 1, i32 0
  %17 = load i8, i8* %16, align 1, !noalias !2
  %18 = icmp slt i8 %17, 0
  %19 = getelementptr inbounds %"class.std::__1::basic_string", %"class.std::__1::basic_string"* %14, i64 0, i32 0, i32 0, i32 0, i32 0, i32 0, i32 1
  %20 = load i64, i64* %19, align 8, !noalias !2
  %21 = zext i8 %17 to i64
  %22 = select i1 %18, i64 %20, i64 %21
  %23 = icmp eq i64 %22, 0
  br i1 %23, label %24, label %27

; <label>:24:                                     ; preds = %2
  %25 = call i32 @_ZNKSt3__112basic_stringIcNS_11char_traitsIcEENS_9allocatorIcEEE7compareEmmPKcm(%"class.std::__1::basic_string"* nonnull %14, i64 0, i64 -1, i8* getelementptr inbounds ([1 x i8], [1 x i8]* @.str.14, i64 0, i64 0), i64 0) #1
  %26 = icmp eq i32 %25, 0
  br i1 %26, label %28, label %27

; <label>:27:                                     ; preds = %24, %2
  call void @_ZNSt3__112basic_stringIcNS_11char_traitsIcEENS_9allocatorIcEEEC1ERKS5_(%"class.std::__1::basic_string"* nonnull %4, %"class.std::__1::basic_string"* nonnull dereferenceable(24) %14) #1
  br label %30

; <label>:28:                                     ; preds = %24
  %29 = load %"class.google::protobuf::FileDescriptor"*, %"class.google::protobuf::FileDescriptor"** %9, align 8, !noalias !2
  call void @_ZN6google8protobuf8compiler3php18ReservedNamePrefixERKNSt3__112basic_stringIcNS3_11char_traitsIcEENS3_9allocatorIcEEEEPKNS0_14FileDescriptorE(%"class.std::__1::basic_string"* nonnull sret %4, %"class.std::__1::basic_string"* nonnull dereferenceable(24) %3, %"class.google::protobuf::FileDescriptor"* %29) #1
  br label %30

; <label>:30:                                     ; preds = %27, %28
  %31 = bitcast %"class.std::__1::basic_string"* %3 to %"struct.std::__1::basic_string<char, std::__1::char_traits<char>, std::__1::allocator<char> >::__short"*
  %32 = getelementptr inbounds %"struct.std::__1::basic_string<char, std::__1::char_traits<char>, std::__1::allocator<char> >::__short", %"struct.std::__1::basic_string<char, std::__1::char_traits<char>, std::__1::allocator<char> >::__short"* %31, i64 0, i32 1, i32 0
  %33 = load i8, i8* %32, align 1, !noalias !5
  %34 = icmp slt i8 %33, 0
  %35 = getelementptr inbounds %"class.std::__1::basic_string", %"class.std::__1::basic_string"* %3, i64 0, i32 0, i32 0, i32 0, i32 0, i32 0, i32 0
  %36 = load i8*, i8** %35, align 8, !noalias !5
  %37 = getelementptr inbounds %"class.std::__1::basic_string", %"class.std::__1::basic_string"* %3, i64 0, i32 0, i32 0, i32 0, i32 0, i32 0, i32 1
  %38 = load i64, i64* %37, align 8, !noalias !5
  %39 = zext i8 %33 to i64
  %40 = select i1 %34, i8* %36, i8* %5
  %41 = select i1 %34, i64 %38, i64 %39
  %42 = call dereferenceable(24) %"class.std::__1::basic_string"* @_ZNSt3__112basic_stringIcNS_11char_traitsIcEENS_9allocatorIcEEE6appendEPKcm(%"class.std::__1::basic_string"* nonnull %4, i8* %40, i64 %41) #1, !noalias !5
  %43 = bitcast %"class.std::__1::basic_string"* %0 to i8*
  %44 = bitcast %"class.std::__1::basic_string"* %42 to i8*
  call void @llvm.memcpy.p0i8.p0i8.i64(i8* align 8 %43, i8* nonnull align 8 %44, i64 24, i1 false) #1
  call void @llvm.memset.p0i8.i64(i8* nonnull align 8 %44, i8 0, i64 24, i1 false) #1, !noalias !5
  %45 = bitcast %"class.std::__1::basic_string"* %4 to %"struct.std::__1::basic_string<char, std::__1::char_traits<char>, std::__1::allocator<char> >::__short"*
  %46 = getelementptr inbounds %"struct.std::__1::basic_string<char, std::__1::char_traits<char>, std::__1::allocator<char> >::__short", %"struct.std::__1::basic_string<char, std::__1::char_traits<char>, std::__1::allocator<char> >::__short"* %45, i64 0, i32 1, i32 0
  %47 = load i8, i8* %46, align 1
  %48 = icmp slt i8 %47, 0
  br i1 %48, label %49, label %52

; <label>:49:                                     ; preds = %30
  %50 = getelementptr inbounds %"class.std::__1::basic_string", %"class.std::__1::basic_string"* %4, i64 0, i32 0, i32 0, i32 0, i32 0, i32 0, i32 0
  %51 = load i8*, i8** %50, align 8
  call void @_ZdlPv(i8* %51) #15
  br label %52

; <label>:52:                                     ; preds = %30, %49
  call void @llvm.lifetime.end.p0i8(i64 24, i8* nonnull %8) #1
  %53 = load i8, i8* %32, align 1
  %54 = icmp slt i8 %53, 0
  br i1 %54, label %55, label %57

; <label>:55:                                     ; preds = %52
  %56 = load i8*, i8** %35, align 8
  call void @_ZdlPv(i8* %56) #15
  br label %57

; <label>:57:                                     ; preds = %52, %55
  call void @llvm.lifetime.end.p0i8(i64 24, i8* nonnull %5) #1
  ret void
}

; Function Attrs: nounwind ssp uwtable
define hidden void @_ZN6google8protobuf8compiler3php18GeneratedClassNameEPKNS0_10DescriptorE(%"class.std::__1::basic_string"* noalias sret, %"class.google::protobuf::Descriptor"*) local_unnamed_addr #2 {
  tail call void @_ZN6google8protobuf8compiler3php22GeneratedClassNameImplINS0_10DescriptorEEENSt3__112basic_stringIcNS5_11char_traitsIcEENS5_9allocatorIcEEEEPKT_(%"class.std::__1::basic_string"* sret %0, %"class.google::protobuf::Descriptor"* %1)
  ret void
}

; Function Attrs: nounwind ssp uwtable
define linkonce_odr hidden void @_ZN6google8protobuf8compiler3php22GeneratedClassNameImplINS0_10DescriptorEEENSt3__112basic_stringIcNS5_11char_traitsIcEENS5_9allocatorIcEEEEPKT_(%"class.std::__1::basic_string"* noalias sret, %"class.google::protobuf::Descriptor"*) local_unnamed_addr #2 comdat {
  %3 = alloca %"class.std::__1::basic_string", align 8
  %4 = alloca [15 x i8], align 8
  %5 = alloca %"class.std::__1::basic_string", align 8
  %6 = alloca %"class.std::__1::basic_string", align 8
  %7 = alloca %"class.std::__1::basic_string", align 8
  %8 = bitcast %"class.std::__1::basic_string"* %3 to i8*
  call void @llvm.lifetime.start.p0i8(i64 24, i8* nonnull %8) #1
  %9 = getelementptr inbounds %"class.google::protobuf::Descriptor", %"class.google::protobuf::Descriptor"* %1, i64 0, i32 0
  %10 = load %"class.std::__1::basic_string"*, %"class.std::__1::basic_string"** %9, align 8
  %11 = getelementptr inbounds %"class.google::protobuf::Descriptor", %"class.google::protobuf::Descriptor"* %1, i64 0, i32 2
  %12 = load %"class.google::protobuf::FileDescriptor"*, %"class.google::protobuf::FileDescriptor"** %11, align 8, !noalias !8
  %13 = getelementptr inbounds %"class.google::protobuf::FileDescriptor", %"class.google::protobuf::FileDescriptor"* %12, i64 0, i32 22
  %14 = load %"class.google::protobuf::FileOptions"*, %"class.google::protobuf::FileOptions"** %13, align 8, !noalias !8
  %15 = getelementptr inbounds %"class.google::protobuf::FileOptions", %"class.google::protobuf::FileOptions"* %14, i64 0, i32 12, i32 0
  %16 = load %"class.std::__1::basic_string"*, %"class.std::__1::basic_string"** %15, align 8, !noalias !8
  %17 = bitcast %"class.std::__1::basic_string"* %16 to %"struct.std::__1::basic_string<char, std::__1::char_traits<char>, std::__1::allocator<char> >::__short"*
  %18 = getelementptr inbounds %"struct.std::__1::basic_string<char, std::__1::char_traits<char>, std::__1::allocator<char> >::__short", %"struct.std::__1::basic_string<char, std::__1::char_traits<char>, std::__1::allocator<char> >::__short"* %17, i64 0, i32 1, i32 0
  %19 = load i8, i8* %18, align 1, !noalias !8
  %20 = icmp slt i8 %19, 0
  %21 = getelementptr inbounds %"class.std::__1::basic_string", %"class.std::__1::basic_string"* %16, i64 0, i32 0, i32 0, i32 0, i32 0, i32 0, i32 1
  %22 = load i64, i64* %21, align 8, !noalias !8
  %23 = zext i8 %19 to i64
  %24 = select i1 %20, i64 %22, i64 %23
  %25 = icmp eq i64 %24, 0
  br i1 %25, label %26, label %29

; <label>:26:                                     ; preds = %2
  %27 = tail call i32 @_ZNKSt3__112basic_stringIcNS_11char_traitsIcEENS_9allocatorIcEEE7compareEmmPKcm(%"class.std::__1::basic_string"* nonnull %16, i64 0, i64 -1, i8* getelementptr inbounds ([1 x i8], [1 x i8]* @.str.14, i64 0, i64 0), i64 0) #1
  %28 = icmp eq i32 %27, 0
  br i1 %28, label %30, label %29

; <label>:29:                                     ; preds = %26, %2
  call void @_ZNSt3__112basic_stringIcNS_11char_traitsIcEENS_9allocatorIcEEEC1ERKS5_(%"class.std::__1::basic_string"* nonnull %3, %"class.std::__1::basic_string"* nonnull dereferenceable(24) %16) #1
  br label %32

; <label>:30:                                     ; preds = %26
  %31 = load %"class.google::protobuf::FileDescriptor"*, %"class.google::protobuf::FileDescriptor"** %11, align 8, !noalias !8
  call void @_ZN6google8protobuf8compiler3php18ReservedNamePrefixERKNSt3__112basic_stringIcNS3_11char_traitsIcEENS3_9allocatorIcEEEEPKNS0_14FileDescriptorE(%"class.std::__1::basic_string"* nonnull sret %3, %"class.std::__1::basic_string"* nonnull dereferenceable(24) %10, %"class.google::protobuf::FileDescriptor"* %31) #1
  br label %32

; <label>:32:                                     ; preds = %29, %30
  %33 = load %"class.std::__1::basic_string"*, %"class.std::__1::basic_string"** %9, align 8
  %34 = bitcast %"class.std::__1::basic_string"* %33 to %"struct.std::__1::basic_string<char, std::__1::char_traits<char>, std::__1::allocator<char> >::__short"*
  %35 = getelementptr inbounds %"struct.std::__1::basic_string<char, std::__1::char_traits<char>, std::__1::allocator<char> >::__short", %"struct.std::__1::basic_string<char, std::__1::char_traits<char>, std::__1::allocator<char> >::__short"* %34, i64 0, i32 1, i32 0
  %36 = load i8, i8* %35, align 1, !noalias !11
  %37 = icmp slt i8 %36, 0
  %38 = getelementptr inbounds %"class.std::__1::basic_string", %"class.std::__1::basic_string"* %33, i64 0, i32 0, i32 0, i32 0, i32 0, i32 0, i32 0
  %39 = load i8*, i8** %38, align 8, !noalias !11
  %40 = getelementptr inbounds %"class.std::__1::basic_string", %"class.std::__1::basic_string"* %33, i64 0, i32 0, i32 0, i32 0, i32 0, i32 0, i32 1
  %41 = load i64, i64* %40, align 8, !noalias !11
  %42 = bitcast %"class.std::__1::basic_string"* %33 to i8*
  %43 = zext i8 %36 to i64
  %44 = select i1 %37, i8* %39, i8* %42
  %45 = select i1 %37, i64 %41, i64 %43
  %46 = call dereferenceable(24) %"class.std::__1::basic_string"* @_ZNSt3__112basic_stringIcNS_11char_traitsIcEENS_9allocatorIcEEE6appendEPKcm(%"class.std::__1::basic_string"* nonnull %3, i8* %44, i64 %45) #1, !noalias !11
  %47 = bitcast %"class.std::__1::basic_string"* %0 to i8*
  %48 = bitcast %"class.std::__1::basic_string"* %46 to i8*
  call void @llvm.memcpy.p0i8.p0i8.i64(i8* align 8 %47, i8* nonnull align 8 %48, i64 24, i1 false) #1
  call void @llvm.memset.p0i8.i64(i8* nonnull align 8 %48, i8 0, i64 24, i1 false) #1, !noalias !11
  %49 = bitcast %"class.std::__1::basic_string"* %3 to %"struct.std::__1::basic_string<char, std::__1::char_traits<char>, std::__1::allocator<char> >::__short"*
  %50 = getelementptr inbounds %"struct.std::__1::basic_string<char, std::__1::char_traits<char>, std::__1::allocator<char> >::__short", %"struct.std::__1::basic_string<char, std::__1::char_traits<char>, std::__1::allocator<char> >::__short"* %49, i64 0, i32 1, i32 0
  %51 = load i8, i8* %50, align 1
  %52 = icmp slt i8 %51, 0
  br i1 %52, label %53, label %56

; <label>:53:                                     ; preds = %32
  %54 = getelementptr inbounds %"class.std::__1::basic_string", %"class.std::__1::basic_string"* %3, i64 0, i32 0, i32 0, i32 0, i32 0, i32 0, i32 0
  %55 = load i8*, i8** %54, align 8
  call void @_ZdlPv(i8* %55) #15
  br label %56

; <label>:56:                                     ; preds = %32, %53
  call void @llvm.lifetime.end.p0i8(i64 24, i8* nonnull %8) #1
  %57 = getelementptr inbounds %"class.google::protobuf::Descriptor", %"class.google::protobuf::Descriptor"* %1, i64 0, i32 3
  %58 = load %"class.google::protobuf::Descriptor"*, %"class.google::protobuf::Descriptor"** %57, align 8
  %59 = icmp eq %"class.google::protobuf::Descriptor"* %58, null
  br i1 %59, label %165, label %60

; <label>:60:                                     ; preds = %56
  %61 = getelementptr inbounds [15 x i8], [15 x i8]* %4, i64 0, i64 0
  %62 = bitcast %"class.std::__1::basic_string"* %5 to i8*
  %63 = bitcast %"class.std::__1::basic_string"* %6 to i8*
  %64 = bitcast %"class.std::__1::basic_string"* %7 to i8*
  %65 = bitcast %"class.std::__1::basic_string"* %0 to %"struct.std::__1::basic_string<char, std::__1::char_traits<char>, std::__1::allocator<char> >::__short"*
  %66 = getelementptr inbounds %"struct.std::__1::basic_string<char, std::__1::char_traits<char>, std::__1::allocator<char> >::__short", %"struct.std::__1::basic_string<char, std::__1::char_traits<char>, std::__1::allocator<char> >::__short"* %65, i64 0, i32 1, i32 0
  %67 = getelementptr inbounds %"class.std::__1::basic_string", %"class.std::__1::basic_string"* %0, i64 0, i32 0, i32 0, i32 0, i32 0, i32 0, i32 0
  %68 = getelementptr inbounds %"class.std::__1::basic_string", %"class.std::__1::basic_string"* %0, i64 0, i32 0, i32 0, i32 0, i32 0, i32 0, i32 1
  %69 = bitcast %"class.std::__1::basic_string"* %0 to i64*
  %70 = bitcast i64* %68 to i8*
  %71 = getelementptr inbounds i8, i8* %47, i64 23
  %72 = bitcast %"class.std::__1::basic_string"* %5 to %"struct.std::__1::basic_string<char, std::__1::char_traits<char>, std::__1::allocator<char> >::__short"*
  %73 = getelementptr inbounds %"struct.std::__1::basic_string<char, std::__1::char_traits<char>, std::__1::allocator<char> >::__short", %"struct.std::__1::basic_string<char, std::__1::char_traits<char>, std::__1::allocator<char> >::__short"* %72, i64 0, i32 1, i32 0
  %74 = getelementptr inbounds %"class.std::__1::basic_string", %"class.std::__1::basic_string"* %0, i64 0, i32 0, i32 0, i32 0, i32 0, i32 0, i32 2
  %75 = getelementptr inbounds %"class.std::__1::basic_string", %"class.std::__1::basic_string"* %5, i64 0, i32 0, i32 0, i32 0, i32 0, i32 0, i32 0
  %76 = bitcast %"class.std::__1::basic_string"* %6 to %"struct.std::__1::basic_string<char, std::__1::char_traits<char>, std::__1::allocator<char> >::__short"*
  %77 = getelementptr inbounds %"struct.std::__1::basic_string<char, std::__1::char_traits<char>, std::__1::allocator<char> >::__short", %"struct.std::__1::basic_string<char, std::__1::char_traits<char>, std::__1::allocator<char> >::__short"* %76, i64 0, i32 1, i32 0
  %78 = getelementptr inbounds %"class.std::__1::basic_string", %"class.std::__1::basic_string"* %6, i64 0, i32 0, i32 0, i32 0, i32 0, i32 0, i32 0
  %79 = bitcast %"class.std::__1::basic_string"* %7 to %"struct.std::__1::basic_string<char, std::__1::char_traits<char>, std::__1::allocator<char> >::__short"*
  %80 = getelementptr inbounds %"struct.std::__1::basic_string<char, std::__1::char_traits<char>, std::__1::allocator<char> >::__short", %"struct.std::__1::basic_string<char, std::__1::char_traits<char>, std::__1::allocator<char> >::__short"* %79, i64 0, i32 1, i32 0
  %81 = getelementptr inbounds %"class.std::__1::basic_string", %"class.std::__1::basic_string"* %7, i64 0, i32 0, i32 0, i32 0, i32 0, i32 0, i32 0
  br label %82

; <label>:82:                                     ; preds = %60, %161
  %83 = phi %"class.google::protobuf::Descriptor"* [ %58, %60 ], [ %163, %161 ]
  call void @llvm.lifetime.start.p0i8(i64 15, i8* nonnull %61)
  call void @llvm.lifetime.start.p0i8(i64 24, i8* nonnull %62) #1
  call void @llvm.lifetime.start.p0i8(i64 24, i8* nonnull %63) #1
  call void @llvm.lifetime.start.p0i8(i64 24, i8* nonnull %64) #1
  %84 = getelementptr inbounds %"class.google::protobuf::Descriptor", %"class.google::protobuf::Descriptor"* %83, i64 0, i32 0
  %85 = load %"class.std::__1::basic_string"*, %"class.std::__1::basic_string"** %84, align 8
  %86 = load %"class.google::protobuf::FileDescriptor"*, %"class.google::protobuf::FileDescriptor"** %11, align 8, !noalias !14
  %87 = getelementptr inbounds %"class.google::protobuf::FileDescriptor", %"class.google::protobuf::FileDescriptor"* %86, i64 0, i32 22
  %88 = load %"class.google::protobuf::FileOptions"*, %"class.google::protobuf::FileOptions"** %87, align 8, !noalias !14
  %89 = getelementptr inbounds %"class.google::protobuf::FileOptions", %"class.google::protobuf::FileOptions"* %88, i64 0, i32 12, i32 0
  %90 = load %"class.std::__1::basic_string"*, %"class.std::__1::basic_string"** %89, align 8, !noalias !14
  %91 = bitcast %"class.std::__1::basic_string"* %90 to %"struct.std::__1::basic_string<char, std::__1::char_traits<char>, std::__1::allocator<char> >::__short"*
  %92 = getelementptr inbounds %"struct.std::__1::basic_string<char, std::__1::char_traits<char>, std::__1::allocator<char> >::__short", %"struct.std::__1::basic_string<char, std::__1::char_traits<char>, std::__1::allocator<char> >::__short"* %91, i64 0, i32 1, i32 0
  %93 = load i8, i8* %92, align 1, !noalias !14
  %94 = icmp slt i8 %93, 0
  %95 = getelementptr inbounds %"class.std::__1::basic_string", %"class.std::__1::basic_string"* %90, i64 0, i32 0, i32 0, i32 0, i32 0, i32 0, i32 1
  %96 = load i64, i64* %95, align 8, !noalias !14
  %97 = zext i8 %93 to i64
  %98 = select i1 %94, i64 %96, i64 %97
  %99 = icmp eq i64 %98, 0
  br i1 %99, label %100, label %103

; <label>:100:                                    ; preds = %82
  %101 = call i32 @_ZNKSt3__112basic_stringIcNS_11char_traitsIcEENS_9allocatorIcEEE7compareEmmPKcm(%"class.std::__1::basic_string"* nonnull %90, i64 0, i64 -1, i8* getelementptr inbounds ([1 x i8], [1 x i8]* @.str.14, i64 0, i64 0), i64 0) #1
  %102 = icmp eq i32 %101, 0
  br i1 %102, label %104, label %103

; <label>:103:                                    ; preds = %100, %82
  call void @_ZNSt3__112basic_stringIcNS_11char_traitsIcEENS_9allocatorIcEEEC1ERKS5_(%"class.std::__1::basic_string"* nonnull %7, %"class.std::__1::basic_string"* nonnull dereferenceable(24) %90) #1
  br label %106

; <label>:104:                                    ; preds = %100
  %105 = load %"class.google::protobuf::FileDescriptor"*, %"class.google::protobuf::FileDescriptor"** %11, align 8, !noalias !14
  call void @_ZN6google8protobuf8compiler3php18ReservedNamePrefixERKNSt3__112basic_stringIcNS3_11char_traitsIcEENS3_9allocatorIcEEEEPKNS0_14FileDescriptorE(%"class.std::__1::basic_string"* nonnull sret %7, %"class.std::__1::basic_string"* nonnull dereferenceable(24) %85, %"class.google::protobuf::FileDescriptor"* %105) #1
  br label %106

; <label>:106:                                    ; preds = %103, %104
  %107 = load %"class.std::__1::basic_string"*, %"class.std::__1::basic_string"** %84, align 8
  %108 = bitcast %"class.std::__1::basic_string"* %107 to %"struct.std::__1::basic_string<char, std::__1::char_traits<char>, std::__1::allocator<char> >::__short"*
  %109 = getelementptr inbounds %"struct.std::__1::basic_string<char, std::__1::char_traits<char>, std::__1::allocator<char> >::__short", %"struct.std::__1::basic_string<char, std::__1::char_traits<char>, std::__1::allocator<char> >::__short"* %108, i64 0, i32 1, i32 0
  %110 = load i8, i8* %109, align 1, !noalias !17
  %111 = icmp slt i8 %110, 0
  %112 = getelementptr inbounds %"class.std::__1::basic_string", %"class.std::__1::basic_string"* %107, i64 0, i32 0, i32 0, i32 0, i32 0, i32 0, i32 0
  %113 = load i8*, i8** %112, align 8, !noalias !17
  %114 = getelementptr inbounds %"class.std::__1::basic_string", %"class.std::__1::basic_string"* %107, i64 0, i32 0, i32 0, i32 0, i32 0, i32 0, i32 1
  %115 = load i64, i64* %114, align 8, !noalias !17
  %116 = bitcast %"class.std::__1::basic_string"* %107 to i8*
  %117 = zext i8 %110 to i64
  %118 = select i1 %111, i8* %113, i8* %116
  %119 = select i1 %111, i64 %115, i64 %117
  %120 = call dereferenceable(24) %"class.std::__1::basic_string"* @_ZNSt3__112basic_stringIcNS_11char_traitsIcEENS_9allocatorIcEEE6appendEPKcm(%"class.std::__1::basic_string"* nonnull %7, i8* %118, i64 %119) #1, !noalias !17
  %121 = bitcast %"class.std::__1::basic_string"* %120 to i8*
  call void @llvm.memcpy.p0i8.p0i8.i64(i8* nonnull align 8 %63, i8* nonnull align 8 %121, i64 24, i1 false) #1
  call void @llvm.memset.p0i8.i64(i8* nonnull align 8 %121, i8 0, i64 24, i1 false) #1, !noalias !17
  call void @_ZNSt3__112basic_stringIcNS_11char_traitsIcEENS_9allocatorIcEEE9push_backEc(%"class.std::__1::basic_string"* nonnull %6, i8 signext 92) #1, !noalias !20
  call void @llvm.memcpy.p0i8.p0i8.i64(i8* nonnull align 8 %62, i8* nonnull align 8 %63, i64 24, i1 false) #1
  call void @llvm.memset.p0i8.i64(i8* nonnull align 8 %63, i8 0, i64 24, i1 false) #1, !noalias !20
  %122 = load i8, i8* %66, align 1, !noalias !23
  %123 = icmp slt i8 %122, 0
  %124 = load i8*, i8** %67, align 8, !noalias !23
  %125 = load i64, i64* %68, align 8, !noalias !23
  %126 = zext i8 %122 to i64
  %127 = select i1 %123, i8* %124, i8* %47
  %128 = select i1 %123, i64 %125, i64 %126
  %129 = call dereferenceable(24) %"class.std::__1::basic_string"* @_ZNSt3__112basic_stringIcNS_11char_traitsIcEENS_9allocatorIcEEE6appendEPKcm(%"class.std::__1::basic_string"* nonnull %5, i8* %127, i64 %128) #1, !noalias !23
  %130 = bitcast %"class.std::__1::basic_string"* %129 to i8*
  %131 = bitcast %"class.std::__1::basic_string"* %129 to i64*
  %132 = load i64, i64* %131, align 8
  %133 = getelementptr inbounds %"class.std::__1::basic_string", %"class.std::__1::basic_string"* %129, i64 0, i32 0, i32 0, i32 0, i32 0, i32 0, i32 1
  %134 = bitcast i64* %133 to i8*
  call void @llvm.memcpy.p0i8.p0i8.i64(i8* nonnull align 8 %61, i8* nonnull align 8 %134, i64 15, i1 false)
  %135 = getelementptr inbounds i8, i8* %130, i64 23
  %136 = load i8, i8* %135, align 1
  call void @llvm.memset.p0i8.i64(i8* nonnull align 8 %130, i8 0, i64 24, i1 false) #1, !noalias !23
  %137 = load i8, i8* %66, align 1
  %138 = icmp slt i8 %137, 0
  br i1 %138, label %140, label %139

; <label>:139:                                    ; preds = %106
  store i8 0, i8* %47, align 8
  store i8 0, i8* %66, align 1
  br label %146

; <label>:140:                                    ; preds = %106
  %141 = load i8*, i8** %67, align 8
  store i8 0, i8* %141, align 1
  store i64 0, i64* %68, align 8
  %142 = load i8, i8* %66, align 1
  %143 = icmp slt i8 %142, 0
  br i1 %143, label %144, label %146

; <label>:144:                                    ; preds = %140
  %145 = load i8*, i8** %67, align 8
  call void @_ZdlPv(i8* %145) #15
  store i64 0, i64* %74, align 8
  br label %146

; <label>:146:                                    ; preds = %144, %140, %139
  store i64 %132, i64* %69, align 8
  call void @llvm.memcpy.p0i8.p0i8.i64(i8* nonnull align 8 %70, i8* nonnull align 8 %61, i64 15, i1 false)
  store i8 %136, i8* %71, align 1
  call void @llvm.memset.p0i8.i64(i8* nonnull align 8 %61, i8 0, i64 15, i1 false)
  %147 = load i8, i8* %73, align 1
  %148 = icmp slt i8 %147, 0
  br i1 %148, label %149, label %151

; <label>:149:                                    ; preds = %146
  %150 = load i8*, i8** %75, align 8
  call void @_ZdlPv(i8* %150) #15
  br label %151

; <label>:151:                                    ; preds = %146, %149
  %152 = load i8, i8* %77, align 1
  %153 = icmp slt i8 %152, 0
  br i1 %153, label %154, label %156

; <label>:154:                                    ; preds = %151
  %155 = load i8*, i8** %78, align 8
  call void @_ZdlPv(i8* %155) #15
  br label %156

; <label>:156:                                    ; preds = %151, %154
  %157 = load i8, i8* %80, align 1
  %158 = icmp slt i8 %157, 0
  br i1 %158, label %159, label %161

; <label>:159:                                    ; preds = %156
  %160 = load i8*, i8** %81, align 8
  call void @_ZdlPv(i8* %160) #15
  br label %161

; <label>:161:                                    ; preds = %156, %159
  call void @llvm.lifetime.end.p0i8(i64 24, i8* nonnull %64) #1
  call void @llvm.lifetime.end.p0i8(i64 24, i8* nonnull %63) #1
  call void @llvm.lifetime.end.p0i8(i64 24, i8* nonnull %62) #1
  call void @llvm.lifetime.end.p0i8(i64 15, i8* nonnull %61)
  %162 = getelementptr inbounds %"class.google::protobuf::Descriptor", %"class.google::protobuf::Descriptor"* %83, i64 0, i32 3
  %163 = load %"class.google::protobuf::Descriptor"*, %"class.google::protobuf::Descriptor"** %162, align 8
  %164 = icmp eq %"class.google::protobuf::Descriptor"* %163, null
  br i1 %164, label %165, label %82

; <label>:165:                                    ; preds = %161, %56
  ret void
}

; Function Attrs: nounwind ssp uwtable
define hidden void @_ZN6google8protobuf8compiler3php18GeneratedClassNameEPKNS0_14EnumDescriptorE(%"class.std::__1::basic_string"* noalias sret, %"class.google::protobuf::EnumDescriptor"*) local_unnamed_addr #2 {
  tail call void @_ZN6google8protobuf8compiler3php22GeneratedClassNameImplINS0_14EnumDescriptorEEENSt3__112basic_stringIcNS5_11char_traitsIcEENS5_9allocatorIcEEEEPKT_(%"class.std::__1::basic_string"* sret %0, %"class.google::protobuf::EnumDescriptor"* %1)
  ret void
}

; Function Attrs: nounwind ssp uwtable
define linkonce_odr hidden void @_ZN6google8protobuf8compiler3php22GeneratedClassNameImplINS0_14EnumDescriptorEEENSt3__112basic_stringIcNS5_11char_traitsIcEENS5_9allocatorIcEEEEPKT_(%"class.std::__1::basic_string"* noalias sret, %"class.google::protobuf::EnumDescriptor"*) local_unnamed_addr #2 comdat {
  %3 = alloca %"class.std::__1::basic_string", align 8
  %4 = alloca [15 x i8], align 8
  %5 = alloca %"class.std::__1::basic_string", align 8
  %6 = alloca %"class.std::__1::basic_string", align 8
  %7 = alloca %"class.std::__1::basic_string", align 8
  %8 = bitcast %"class.std::__1::basic_string"* %3 to i8*
  call void @llvm.lifetime.start.p0i8(i64 24, i8* nonnull %8) #1
  %9 = getelementptr inbounds %"class.google::protobuf::EnumDescriptor", %"class.google::protobuf::EnumDescriptor"* %1, i64 0, i32 0
  %10 = load %"class.std::__1::basic_string"*, %"class.std::__1::basic_string"** %9, align 8
  %11 = getelementptr inbounds %"class.google::protobuf::EnumDescriptor", %"class.google::protobuf::EnumDescriptor"* %1, i64 0, i32 2
  %12 = load %"class.google::protobuf::FileDescriptor"*, %"class.google::protobuf::FileDescriptor"** %11, align 8, !noalias !26
  %13 = getelementptr inbounds %"class.google::protobuf::FileDescriptor", %"class.google::protobuf::FileDescriptor"* %12, i64 0, i32 22
  %14 = load %"class.google::protobuf::FileOptions"*, %"class.google::protobuf::FileOptions"** %13, align 8, !noalias !26
  %15 = getelementptr inbounds %"class.google::protobuf::FileOptions", %"class.google::protobuf::FileOptions"* %14, i64 0, i32 12, i32 0
  %16 = load %"class.std::__1::basic_string"*, %"class.std::__1::basic_string"** %15, align 8, !noalias !26
  %17 = bitcast %"class.std::__1::basic_string"* %16 to %"struct.std::__1::basic_string<char, std::__1::char_traits<char>, std::__1::allocator<char> >::__short"*
  %18 = getelementptr inbounds %"struct.std::__1::basic_string<char, std::__1::char_traits<char>, std::__1::allocator<char> >::__short", %"struct.std::__1::basic_string<char, std::__1::char_traits<char>, std::__1::allocator<char> >::__short"* %17, i64 0, i32 1, i32 0
  %19 = load i8, i8* %18, align 1, !noalias !26
  %20 = icmp slt i8 %19, 0
  %21 = getelementptr inbounds %"class.std::__1::basic_string", %"class.std::__1::basic_string"* %16, i64 0, i32 0, i32 0, i32 0, i32 0, i32 0, i32 1
  %22 = load i64, i64* %21, align 8, !noalias !26
  %23 = zext i8 %19 to i64
  %24 = select i1 %20, i64 %22, i64 %23
  %25 = icmp eq i64 %24, 0
  br i1 %25, label %26, label %29

; <label>:26:                                     ; preds = %2
  %27 = tail call i32 @_ZNKSt3__112basic_stringIcNS_11char_traitsIcEENS_9allocatorIcEEE7compareEmmPKcm(%"class.std::__1::basic_string"* nonnull %16, i64 0, i64 -1, i8* getelementptr inbounds ([1 x i8], [1 x i8]* @.str.14, i64 0, i64 0), i64 0) #1
  %28 = icmp eq i32 %27, 0
  br i1 %28, label %30, label %29

; <label>:29:                                     ; preds = %26, %2
  call void @_ZNSt3__112basic_stringIcNS_11char_traitsIcEENS_9allocatorIcEEEC1ERKS5_(%"class.std::__1::basic_string"* nonnull %3, %"class.std::__1::basic_string"* nonnull dereferenceable(24) %16) #1
  br label %32

; <label>:30:                                     ; preds = %26
  %31 = load %"class.google::protobuf::FileDescriptor"*, %"class.google::protobuf::FileDescriptor"** %11, align 8, !noalias !26
  call void @_ZN6google8protobuf8compiler3php18ReservedNamePrefixERKNSt3__112basic_stringIcNS3_11char_traitsIcEENS3_9allocatorIcEEEEPKNS0_14FileDescriptorE(%"class.std::__1::basic_string"* nonnull sret %3, %"class.std::__1::basic_string"* nonnull dereferenceable(24) %10, %"class.google::protobuf::FileDescriptor"* %31) #1
  br label %32

; <label>:32:                                     ; preds = %29, %30
  %33 = load %"class.std::__1::basic_string"*, %"class.std::__1::basic_string"** %9, align 8
  %34 = bitcast %"class.std::__1::basic_string"* %33 to %"struct.std::__1::basic_string<char, std::__1::char_traits<char>, std::__1::allocator<char> >::__short"*
  %35 = getelementptr inbounds %"struct.std::__1::basic_string<char, std::__1::char_traits<char>, std::__1::allocator<char> >::__short", %"struct.std::__1::basic_string<char, std::__1::char_traits<char>, std::__1::allocator<char> >::__short"* %34, i64 0, i32 1, i32 0
  %36 = load i8, i8* %35, align 1, !noalias !29
  %37 = icmp slt i8 %36, 0
  %38 = getelementptr inbounds %"class.std::__1::basic_string", %"class.std::__1::basic_string"* %33, i64 0, i32 0, i32 0, i32 0, i32 0, i32 0, i32 0
  %39 = load i8*, i8** %38, align 8, !noalias !29
  %40 = getelementptr inbounds %"class.std::__1::basic_string", %"class.std::__1::basic_string"* %33, i64 0, i32 0, i32 0, i32 0, i32 0, i32 0, i32 1
  %41 = load i64, i64* %40, align 8, !noalias !29
  %42 = bitcast %"class.std::__1::basic_string"* %33 to i8*
  %43 = zext i8 %36 to i64
  %44 = select i1 %37, i8* %39, i8* %42
  %45 = select i1 %37, i64 %41, i64 %43
  %46 = call dereferenceable(24) %"class.std::__1::basic_string"* @_ZNSt3__112basic_stringIcNS_11char_traitsIcEENS_9allocatorIcEEE6appendEPKcm(%"class.std::__1::basic_string"* nonnull %3, i8* %44, i64 %45) #1, !noalias !29
  %47 = bitcast %"class.std::__1::basic_string"* %0 to i8*
  %48 = bitcast %"class.std::__1::basic_string"* %46 to i8*
  call void @llvm.memcpy.p0i8.p0i8.i64(i8* align 8 %47, i8* nonnull align 8 %48, i64 24, i1 false) #1
  call void @llvm.memset.p0i8.i64(i8* nonnull align 8 %48, i8 0, i64 24, i1 false) #1, !noalias !29
  %49 = bitcast %"class.std::__1::basic_string"* %3 to %"struct.std::__1::basic_string<char, std::__1::char_traits<char>, std::__1::allocator<char> >::__short"*
  %50 = getelementptr inbounds %"struct.std::__1::basic_string<char, std::__1::char_traits<char>, std::__1::allocator<char> >::__short", %"struct.std::__1::basic_string<char, std::__1::char_traits<char>, std::__1::allocator<char> >::__short"* %49, i64 0, i32 1, i32 0
  %51 = load i8, i8* %50, align 1
  %52 = icmp slt i8 %51, 0
  br i1 %52, label %53, label %56

; <label>:53:                                     ; preds = %32
  %54 = getelementptr inbounds %"class.std::__1::basic_string", %"class.std::__1::basic_string"* %3, i64 0, i32 0, i32 0, i32 0, i32 0, i32 0, i32 0
  %55 = load i8*, i8** %54, align 8
  call void @_ZdlPv(i8* %55) #15
  br label %56

; <label>:56:                                     ; preds = %32, %53
  call void @llvm.lifetime.end.p0i8(i64 24, i8* nonnull %8) #1
  %57 = getelementptr inbounds %"class.google::protobuf::EnumDescriptor", %"class.google::protobuf::EnumDescriptor"* %1, i64 0, i32 3
  %58 = load %"class.google::protobuf::Descriptor"*, %"class.google::protobuf::Descriptor"** %57, align 8
  %59 = icmp eq %"class.google::protobuf::Descriptor"* %58, null
  br i1 %59, label %165, label %60

; <label>:60:                                     ; preds = %56
  %61 = getelementptr inbounds [15 x i8], [15 x i8]* %4, i64 0, i64 0
  %62 = bitcast %"class.std::__1::basic_string"* %5 to i8*
  %63 = bitcast %"class.std::__1::basic_string"* %6 to i8*
  %64 = bitcast %"class.std::__1::basic_string"* %7 to i8*
  %65 = bitcast %"class.std::__1::basic_string"* %0 to %"struct.std::__1::basic_string<char, std::__1::char_traits<char>, std::__1::allocator<char> >::__short"*
  %66 = getelementptr inbounds %"struct.std::__1::basic_string<char, std::__1::char_traits<char>, std::__1::allocator<char> >::__short", %"struct.std::__1::basic_string<char, std::__1::char_traits<char>, std::__1::allocator<char> >::__short"* %65, i64 0, i32 1, i32 0
  %67 = getelementptr inbounds %"class.std::__1::basic_string", %"class.std::__1::basic_string"* %0, i64 0, i32 0, i32 0, i32 0, i32 0, i32 0, i32 0
  %68 = getelementptr inbounds %"class.std::__1::basic_string", %"class.std::__1::basic_string"* %0, i64 0, i32 0, i32 0, i32 0, i32 0, i32 0, i32 1
  %69 = bitcast %"class.std::__1::basic_string"* %0 to i64*
  %70 = bitcast i64* %68 to i8*
  %71 = getelementptr inbounds i8, i8* %47, i64 23
  %72 = bitcast %"class.std::__1::basic_string"* %5 to %"struct.std::__1::basic_string<char, std::__1::char_traits<char>, std::__1::allocator<char> >::__short"*
  %73 = getelementptr inbounds %"struct.std::__1::basic_string<char, std::__1::char_traits<char>, std::__1::allocator<char> >::__short", %"struct.std::__1::basic_string<char, std::__1::char_traits<char>, std::__1::allocator<char> >::__short"* %72, i64 0, i32 1, i32 0
  %74 = getelementptr inbounds %"class.std::__1::basic_string", %"class.std::__1::basic_string"* %0, i64 0, i32 0, i32 0, i32 0, i32 0, i32 0, i32 2
  %75 = getelementptr inbounds %"class.std::__1::basic_string", %"class.std::__1::basic_string"* %5, i64 0, i32 0, i32 0, i32 0, i32 0, i32 0, i32 0
  %76 = bitcast %"class.std::__1::basic_string"* %6 to %"struct.std::__1::basic_string<char, std::__1::char_traits<char>, std::__1::allocator<char> >::__short"*
  %77 = getelementptr inbounds %"struct.std::__1::basic_string<char, std::__1::char_traits<char>, std::__1::allocator<char> >::__short", %"struct.std::__1::basic_string<char, std::__1::char_traits<char>, std::__1::allocator<char> >::__short"* %76, i64 0, i32 1, i32 0
  %78 = getelementptr inbounds %"class.std::__1::basic_string", %"class.std::__1::basic_string"* %6, i64 0, i32 0, i32 0, i32 0, i32 0, i32 0, i32 0
  %79 = bitcast %"class.std::__1::basic_string"* %7 to %"struct.std::__1::basic_string<char, std::__1::char_traits<char>, std::__1::allocator<char> >::__short"*
  %80 = getelementptr inbounds %"struct.std::__1::basic_string<char, std::__1::char_traits<char>, std::__1::allocator<char> >::__short", %"struct.std::__1::basic_string<char, std::__1::char_traits<char>, std::__1::allocator<char> >::__short"* %79, i64 0, i32 1, i32 0
  %81 = getelementptr inbounds %"class.std::__1::basic_string", %"class.std::__1::basic_string"* %7, i64 0, i32 0, i32 0, i32 0, i32 0, i32 0, i32 0
  br label %82

; <label>:82:                                     ; preds = %60, %161
  %83 = phi %"class.google::protobuf::Descriptor"* [ %58, %60 ], [ %163, %161 ]
  call void @llvm.lifetime.start.p0i8(i64 15, i8* nonnull %61)
  call void @llvm.lifetime.start.p0i8(i64 24, i8* nonnull %62) #1
  call void @llvm.lifetime.start.p0i8(i64 24, i8* nonnull %63) #1
  call void @llvm.lifetime.start.p0i8(i64 24, i8* nonnull %64) #1
  %84 = getelementptr inbounds %"class.google::protobuf::Descriptor", %"class.google::protobuf::Descriptor"* %83, i64 0, i32 0
  %85 = load %"class.std::__1::basic_string"*, %"class.std::__1::basic_string"** %84, align 8
  %86 = load %"class.google::protobuf::FileDescriptor"*, %"class.google::protobuf::FileDescriptor"** %11, align 8, !noalias !32
  %87 = getelementptr inbounds %"class.google::protobuf::FileDescriptor", %"class.google::protobuf::FileDescriptor"* %86, i64 0, i32 22
  %88 = load %"class.google::protobuf::FileOptions"*, %"class.google::protobuf::FileOptions"** %87, align 8, !noalias !32
  %89 = getelementptr inbounds %"class.google::protobuf::FileOptions", %"class.google::protobuf::FileOptions"* %88, i64 0, i32 12, i32 0
  %90 = load %"class.std::__1::basic_string"*, %"class.std::__1::basic_string"** %89, align 8, !noalias !32
  %91 = bitcast %"class.std::__1::basic_string"* %90 to %"struct.std::__1::basic_string<char, std::__1::char_traits<char>, std::__1::allocator<char> >::__short"*
  %92 = getelementptr inbounds %"struct.std::__1::basic_string<char, std::__1::char_traits<char>, std::__1::allocator<char> >::__short", %"struct.std::__1::basic_string<char, std::__1::char_traits<char>, std::__1::allocator<char> >::__short"* %91, i64 0, i32 1, i32 0
  %93 = load i8, i8* %92, align 1, !noalias !32
  %94 = icmp slt i8 %93, 0
  %95 = getelementptr inbounds %"class.std::__1::basic_string", %"class.std::__1::basic_string"* %90, i64 0, i32 0, i32 0, i32 0, i32 0, i32 0, i32 1
  %96 = load i64, i64* %95, align 8, !noalias !32
  %97 = zext i8 %93 to i64
  %98 = select i1 %94, i64 %96, i64 %97
  %99 = icmp eq i64 %98, 0
  br i1 %99, label %100, label %103

; <label>:100:                                    ; preds = %82
  %101 = call i32 @_ZNKSt3__112basic_stringIcNS_11char_traitsIcEENS_9allocatorIcEEE7compareEmmPKcm(%"class.std::__1::basic_string"* nonnull %90, i64 0, i64 -1, i8* getelementptr inbounds ([1 x i8], [1 x i8]* @.str.14, i64 0, i64 0), i64 0) #1
  %102 = icmp eq i32 %101, 0
  br i1 %102, label %104, label %103

; <label>:103:                                    ; preds = %100, %82
  call void @_ZNSt3__112basic_stringIcNS_11char_traitsIcEENS_9allocatorIcEEEC1ERKS5_(%"class.std::__1::basic_string"* nonnull %7, %"class.std::__1::basic_string"* nonnull dereferenceable(24) %90) #1
  br label %106

; <label>:104:                                    ; preds = %100
  %105 = load %"class.google::protobuf::FileDescriptor"*, %"class.google::protobuf::FileDescriptor"** %11, align 8, !noalias !32
  call void @_ZN6google8protobuf8compiler3php18ReservedNamePrefixERKNSt3__112basic_stringIcNS3_11char_traitsIcEENS3_9allocatorIcEEEEPKNS0_14FileDescriptorE(%"class.std::__1::basic_string"* nonnull sret %7, %"class.std::__1::basic_string"* nonnull dereferenceable(24) %85, %"class.google::protobuf::FileDescriptor"* %105) #1
  br label %106

; <label>:106:                                    ; preds = %103, %104
  %107 = load %"class.std::__1::basic_string"*, %"class.std::__1::basic_string"** %84, align 8
  %108 = bitcast %"class.std::__1::basic_string"* %107 to %"struct.std::__1::basic_string<char, std::__1::char_traits<char>, std::__1::allocator<char> >::__short"*
  %109 = getelementptr inbounds %"struct.std::__1::basic_string<char, std::__1::char_traits<char>, std::__1::allocator<char> >::__short", %"struct.std::__1::basic_string<char, std::__1::char_traits<char>, std::__1::allocator<char> >::__short"* %108, i64 0, i32 1, i32 0
  %110 = load i8, i8* %109, align 1, !noalias !35
  %111 = icmp slt i8 %110, 0
  %112 = getelementptr inbounds %"class.std::__1::basic_string", %"class.std::__1::basic_string"* %107, i64 0, i32 0, i32 0, i32 0, i32 0, i32 0, i32 0
  %113 = load i8*, i8** %112, align 8, !noalias !35
  %114 = getelementptr inbounds %"class.std::__1::basic_string", %"class.std::__1::basic_string"* %107, i64 0, i32 0, i32 0, i32 0, i32 0, i32 0, i32 1
  %115 = load i64, i64* %114, align 8, !noalias !35
  %116 = bitcast %"class.std::__1::basic_string"* %107 to i8*
  %117 = zext i8 %110 to i64
  %118 = select i1 %111, i8* %113, i8* %116
  %119 = select i1 %111, i64 %115, i64 %117
  %120 = call dereferenceable(24) %"class.std::__1::basic_string"* @_ZNSt3__112basic_stringIcNS_11char_traitsIcEENS_9allocatorIcEEE6appendEPKcm(%"class.std::__1::basic_string"* nonnull %7, i8* %118, i64 %119) #1, !noalias !35
  %121 = bitcast %"class.std::__1::basic_string"* %120 to i8*
  call void @llvm.memcpy.p0i8.p0i8.i64(i8* nonnull align 8 %63, i8* nonnull align 8 %121, i64 24, i1 false) #1
  call void @llvm.memset.p0i8.i64(i8* nonnull align 8 %121, i8 0, i64 24, i1 false) #1, !noalias !35
  call void @_ZNSt3__112basic_stringIcNS_11char_traitsIcEENS_9allocatorIcEEE9push_backEc(%"class.std::__1::basic_string"* nonnull %6, i8 signext 92) #1, !noalias !38
  call void @llvm.memcpy.p0i8.p0i8.i64(i8* nonnull align 8 %62, i8* nonnull align 8 %63, i64 24, i1 false) #1
  call void @llvm.memset.p0i8.i64(i8* nonnull align 8 %63, i8 0, i64 24, i1 false) #1, !noalias !38
  %122 = load i8, i8* %66, align 1, !noalias !41
  %123 = icmp slt i8 %122, 0
  %124 = load i8*, i8** %67, align 8, !noalias !41
  %125 = load i64, i64* %68, align 8, !noalias !41
  %126 = zext i8 %122 to i64
  %127 = select i1 %123, i8* %124, i8* %47
  %128 = select i1 %123, i64 %125, i64 %126
  %129 = call dereferenceable(24) %"class.std::__1::basic_string"* @_ZNSt3__112basic_stringIcNS_11char_traitsIcEENS_9allocatorIcEEE6appendEPKcm(%"class.std::__1::basic_string"* nonnull %5, i8* %127, i64 %128) #1, !noalias !41
  %130 = bitcast %"class.std::__1::basic_string"* %129 to i8*
  %131 = bitcast %"class.std::__1::basic_string"* %129 to i64*
  %132 = load i64, i64* %131, align 8
  %133 = getelementptr inbounds %"class.std::__1::basic_string", %"class.std::__1::basic_string"* %129, i64 0, i32 0, i32 0, i32 0, i32 0, i32 0, i32 1
  %134 = bitcast i64* %133 to i8*
  call void @llvm.memcpy.p0i8.p0i8.i64(i8* nonnull align 8 %61, i8* nonnull align 8 %134, i64 15, i1 false)
  %135 = getelementptr inbounds i8, i8* %130, i64 23
  %136 = load i8, i8* %135, align 1
  call void @llvm.memset.p0i8.i64(i8* nonnull align 8 %130, i8 0, i64 24, i1 false) #1, !noalias !41
  %137 = load i8, i8* %66, align 1
  %138 = icmp slt i8 %137, 0
  br i1 %138, label %140, label %139

; <label>:139:                                    ; preds = %106
  store i8 0, i8* %47, align 8
  store i8 0, i8* %66, align 1
  br label %146

; <label>:140:                                    ; preds = %106
  %141 = load i8*, i8** %67, align 8
  store i8 0, i8* %141, align 1
  store i64 0, i64* %68, align 8
  %142 = load i8, i8* %66, align 1
  %143 = icmp slt i8 %142, 0
  br i1 %143, label %144, label %146

; <label>:144:                                    ; preds = %140
  %145 = load i8*, i8** %67, align 8
  call void @_ZdlPv(i8* %145) #15
  store i64 0, i64* %74, align 8
  br label %146

; <label>:146:                                    ; preds = %144, %140, %139
  store i64 %132, i64* %69, align 8
  call void @llvm.memcpy.p0i8.p0i8.i64(i8* nonnull align 8 %70, i8* nonnull align 8 %61, i64 15, i1 false)
  store i8 %136, i8* %71, align 1
  call void @llvm.memset.p0i8.i64(i8* nonnull align 8 %61, i8 0, i64 15, i1 false)
  %147 = load i8, i8* %73, align 1
  %148 = icmp slt i8 %147, 0
  br i1 %148, label %149, label %151

; <label>:149:                                    ; preds = %146
  %150 = load i8*, i8** %75, align 8
  call void @_ZdlPv(i8* %150) #15
  br label %151

; <label>:151:                                    ; preds = %146, %149
  %152 = load i8, i8* %77, align 1
  %153 = icmp slt i8 %152, 0
  br i1 %153, label %154, label %156

; <label>:154:                                    ; preds = %151
  %155 = load i8*, i8** %78, align 8
  call void @_ZdlPv(i8* %155) #15
  br label %156

; <label>:156:                                    ; preds = %151, %154
  %157 = load i8, i8* %80, align 1
  %158 = icmp slt i8 %157, 0
  br i1 %158, label %159, label %161

; <label>:159:                                    ; preds = %156
  %160 = load i8*, i8** %81, align 8
  call void @_ZdlPv(i8* %160) #15
  br label %161

; <label>:161:                                    ; preds = %156, %159
  call void @llvm.lifetime.end.p0i8(i64 24, i8* nonnull %64) #1
  call void @llvm.lifetime.end.p0i8(i64 24, i8* nonnull %63) #1
  call void @llvm.lifetime.end.p0i8(i64 24, i8* nonnull %62) #1
  call void @llvm.lifetime.end.p0i8(i64 15, i8* nonnull %61)
  %162 = getelementptr inbounds %"class.google::protobuf::Descriptor", %"class.google::protobuf::Descriptor"* %83, i64 0, i32 3
  %163 = load %"class.google::protobuf::Descriptor"*, %"class.google::protobuf::Descriptor"** %162, align 8
  %164 = icmp eq %"class.google::protobuf::Descriptor"* %163, null
  br i1 %164, label %165, label %82

; <label>:165:                                    ; preds = %161, %56
  ret void
}

; Function Attrs: nounwind ssp uwtable
define hidden void @_ZN6google8protobuf8compiler3php18GeneratedClassNameEPKNS0_17ServiceDescriptorE(%"class.std::__1::basic_string"* noalias nocapture sret, %"class.google::protobuf::ServiceDescriptor"* nocapture readonly) local_unnamed_addr #2 {
  tail call void @_ZN6google8protobuf8compiler3php22GeneratedClassNameImplEPKNS0_17ServiceDescriptorE(%"class.std::__1::basic_string"* sret %0, %"class.google::protobuf::ServiceDescriptor"* %1)
  ret void
}

; Function Attrs: nounwind ssp uwtable
define hidden void @_ZN6google8protobuf8compiler3php15ClassNamePrefixERKNSt3__112basic_stringIcNS3_11char_traitsIcEENS3_9allocatorIcEEEE(%"class.std::__1::basic_string"* noalias sret, %"class.std::__1::basic_string"* dereferenceable(24)) local_unnamed_addr #2 {
  %3 = alloca %"class.std::__1::basic_string", align 8
  %4 = bitcast %"class.std::__1::basic_string"* %3 to i8*
  call void @llvm.lifetime.start.p0i8(i64 24, i8* nonnull %4) #1
  call void @_ZNSt3__112basic_stringIcNS_11char_traitsIcEENS_9allocatorIcEEEC1ERKS5_(%"class.std::__1::basic_string"* nonnull %3, %"class.std::__1::basic_string"* nonnull dereferenceable(24) %1) #1
  %5 = bitcast %"class.std::__1::basic_string"* %3 to %"struct.std::__1::basic_string<char, std::__1::char_traits<char>, std::__1::allocator<char> >::__short"*
  %6 = getelementptr inbounds %"struct.std::__1::basic_string<char, std::__1::char_traits<char>, std::__1::allocator<char> >::__short", %"struct.std::__1::basic_string<char, std::__1::char_traits<char>, std::__1::allocator<char> >::__short"* %5, i64 0, i32 1, i32 0
  %7 = load i8, i8* %6, align 1
  %8 = icmp slt i8 %7, 0
  %9 = getelementptr inbounds %"class.std::__1::basic_string", %"class.std::__1::basic_string"* %3, i64 0, i32 0, i32 0, i32 0, i32 0, i32 0, i32 0
  %10 = load i8*, i8** %9, align 8
  %11 = getelementptr inbounds %"class.std::__1::basic_string", %"class.std::__1::basic_string"* %3, i64 0, i32 0, i32 0, i32 0, i32 0, i32 0, i32 1
  %12 = load i64, i64* %11, align 8
  %13 = getelementptr inbounds i8, i8* %10, i64 %12
  %14 = zext i8 %7 to i64
  %15 = getelementptr inbounds i8, i8* %4, i64 %14
  %16 = select i1 %8, i8* %13, i8* %15
  %17 = select i1 %8, i8* %10, i8* %4
  %18 = icmp eq i8* %17, %16
  br i1 %18, label %36, label %19

; <label>:19:                                     ; preds = %2, %31
  %20 = phi i8* [ %34, %31 ], [ %17, %2 ]
  %21 = load i8, i8* %20, align 1
  %22 = sext i8 %21 to i32
  %23 = add nsw i32 %22, 128
  %24 = icmp ult i32 %23, 384
  br i1 %24, label %25, label %31

; <label>:25:                                     ; preds = %19
  %26 = tail call i32** @__ctype_tolower_loc() #14
  %27 = load i32*, i32** %26, align 8
  %28 = sext i8 %21 to i64
  %29 = getelementptr inbounds i32, i32* %27, i64 %28
  %30 = load i32, i32* %29, align 4
  br label %31

; <label>:31:                                     ; preds = %19, %25
  %32 = phi i32 [ %30, %25 ], [ %22, %19 ]
  %33 = trunc i32 %32 to i8
  store i8 %33, i8* %20, align 1
  %34 = getelementptr inbounds i8, i8* %20, i64 1
  %35 = icmp eq i8* %34, %16
  br i1 %35, label %36, label %19

; <label>:36:                                     ; preds = %31, %2
  br label %37

; <label>:37:                                     ; preds = %36, %57
  %38 = phi i64 [ %58, %57 ], [ 0, %36 ]
  %39 = getelementptr inbounds [73 x i8*], [73 x i8*]* @_ZL14kReservedNames, i64 0, i64 %38
  %40 = load i8*, i8** %39, align 8
  %41 = call i64 @strlen(i8* %40) #1
  %42 = load i8, i8* %6, align 1
  %43 = icmp slt i8 %42, 0
  %44 = load i64, i64* %11, align 8
  %45 = zext i8 %42 to i64
  %46 = select i1 %43, i64 %44, i64 %45
  %47 = icmp eq i64 %41, %46
  br i1 %47, label %48, label %57

; <label>:48:                                     ; preds = %37
  %49 = call i32 @_ZNKSt3__112basic_stringIcNS_11char_traitsIcEENS_9allocatorIcEEE7compareEmmPKcm(%"class.std::__1::basic_string"* nonnull %3, i64 0, i64 -1, i8* %40, i64 %41) #1
  %50 = icmp eq i32 %49, 0
  br i1 %50, label %51, label %57

; <label>:51:                                     ; preds = %48
  %52 = bitcast %"class.std::__1::basic_string"* %0 to i8*
  call void @llvm.memset.p0i8.i64(i8* align 8 %52, i8 0, i64 24, i1 false) #1
  %53 = bitcast %"class.std::__1::basic_string"* %0 to %"struct.std::__1::basic_string<char, std::__1::char_traits<char>, std::__1::allocator<char> >::__short"*
  %54 = getelementptr inbounds %"struct.std::__1::basic_string<char, std::__1::char_traits<char>, std::__1::allocator<char> >::__short", %"struct.std::__1::basic_string<char, std::__1::char_traits<char>, std::__1::allocator<char> >::__short"* %53, i64 0, i32 1, i32 0
  store i8 2, i8* %54, align 1
  %55 = bitcast %"class.std::__1::basic_string"* %0 to i16*
  store i16 16976, i16* %55, align 8
  %56 = getelementptr inbounds i8, i8* %52, i64 2
  store i8 0, i8* %56, align 2
  br label %62

; <label>:57:                                     ; preds = %37, %48
  %58 = add nuw nsw i64 %38, 1
  %59 = icmp ult i64 %58, 73
  br i1 %59, label %37, label %60

; <label>:60:                                     ; preds = %57
  %61 = bitcast %"class.std::__1::basic_string"* %0 to i8*
  call void @llvm.memset.p0i8.i64(i8* align 8 %61, i8 0, i64 24, i1 false)
  br label %62

; <label>:62:                                     ; preds = %51, %60
  %63 = load i8, i8* %6, align 1
  %64 = icmp slt i8 %63, 0
  br i1 %64, label %65, label %67

; <label>:65:                                     ; preds = %62
  %66 = load i8*, i8** %9, align 8
  call void @_ZdlPv(i8* %66) #15
  br label %67

; <label>:67:                                     ; preds = %62, %65
  call void @llvm.lifetime.end.p0i8(i64 24, i8* nonnull %4) #1
  ret void
}

; Function Attrs: nounwind ssp uwtable
define hidden void @_ZN6google8protobuf8compiler3php18ConstantNamePrefixERKNSt3__112basic_stringIcNS3_11char_traitsIcEENS3_9allocatorIcEEEE(%"class.std::__1::basic_string"* noalias sret, %"class.std::__1::basic_string"* dereferenceable(24)) local_unnamed_addr #2 {
  %3 = alloca %"class.std::__1::basic_string", align 8
  %4 = bitcast %"class.std::__1::basic_string"* %3 to i8*
  call void @llvm.lifetime.start.p0i8(i64 24, i8* nonnull %4) #1
  call void @_ZNSt3__112basic_stringIcNS_11char_traitsIcEENS_9allocatorIcEEEC1ERKS5_(%"class.std::__1::basic_string"* nonnull %3, %"class.std::__1::basic_string"* nonnull dereferenceable(24) %1) #1
  %5 = bitcast %"class.std::__1::basic_string"* %3 to %"struct.std::__1::basic_string<char, std::__1::char_traits<char>, std::__1::allocator<char> >::__short"*
  %6 = getelementptr inbounds %"struct.std::__1::basic_string<char, std::__1::char_traits<char>, std::__1::allocator<char> >::__short", %"struct.std::__1::basic_string<char, std::__1::char_traits<char>, std::__1::allocator<char> >::__short"* %5, i64 0, i32 1, i32 0
  %7 = load i8, i8* %6, align 1
  %8 = icmp slt i8 %7, 0
  %9 = getelementptr inbounds %"class.std::__1::basic_string", %"class.std::__1::basic_string"* %3, i64 0, i32 0, i32 0, i32 0, i32 0, i32 0, i32 0
  %10 = load i8*, i8** %9, align 8
  %11 = getelementptr inbounds %"class.std::__1::basic_string", %"class.std::__1::basic_string"* %3, i64 0, i32 0, i32 0, i32 0, i32 0, i32 0, i32 1
  %12 = load i64, i64* %11, align 8
  %13 = getelementptr inbounds i8, i8* %10, i64 %12
  %14 = zext i8 %7 to i64
  %15 = getelementptr inbounds i8, i8* %4, i64 %14
  %16 = select i1 %8, i8* %13, i8* %15
  %17 = select i1 %8, i8* %10, i8* %4
  %18 = icmp eq i8* %17, %16
  br i1 %18, label %36, label %19

; <label>:19:                                     ; preds = %2, %31
  %20 = phi i8* [ %34, %31 ], [ %17, %2 ]
  %21 = load i8, i8* %20, align 1
  %22 = sext i8 %21 to i32
  %23 = add nsw i32 %22, 128
  %24 = icmp ult i32 %23, 384
  br i1 %24, label %25, label %31

; <label>:25:                                     ; preds = %19
  %26 = tail call i32** @__ctype_tolower_loc() #14
  %27 = load i32*, i32** %26, align 8
  %28 = sext i8 %21 to i64
  %29 = getelementptr inbounds i32, i32* %27, i64 %28
  %30 = load i32, i32* %29, align 4
  br label %31

; <label>:31:                                     ; preds = %19, %25
  %32 = phi i32 [ %30, %25 ], [ %22, %19 ]
  %33 = trunc i32 %32 to i8
  store i8 %33, i8* %20, align 1
  %34 = getelementptr inbounds i8, i8* %20, i64 1
  %35 = icmp eq i8* %34, %16
  br i1 %35, label %36, label %19

; <label>:36:                                     ; preds = %31, %2
  br label %37

; <label>:37:                                     ; preds = %36, %51
  %38 = phi i64 [ %52, %51 ], [ 0, %36 ]
  %39 = getelementptr inbounds [73 x i8*], [73 x i8*]* @_ZL14kReservedNames, i64 0, i64 %38
  %40 = load i8*, i8** %39, align 8
  %41 = call i64 @strlen(i8* %40) #1
  %42 = load i8, i8* %6, align 1
  %43 = icmp slt i8 %42, 0
  %44 = load i64, i64* %11, align 8
  %45 = zext i8 %42 to i64
  %46 = select i1 %43, i64 %44, i64 %45
  %47 = icmp eq i64 %41, %46
  br i1 %47, label %48, label %51

; <label>:48:                                     ; preds = %37
  %49 = call i32 @_ZNKSt3__112basic_stringIcNS_11char_traitsIcEENS_9allocatorIcEEE7compareEmmPKcm(%"class.std::__1::basic_string"* nonnull %3, i64 0, i64 -1, i8* %40, i64 %41) #1
  %50 = icmp eq i32 %49, 0
  br i1 %50, label %54, label %51

; <label>:51:                                     ; preds = %37, %48
  %52 = add nuw nsw i64 %38, 1
  %53 = icmp ult i64 %52, 73
  br i1 %53, label %37, label %54

; <label>:54:                                     ; preds = %48, %51
  %55 = phi i1 [ false, %51 ], [ true, %48 ]
  br label %56

; <label>:56:                                     ; preds = %54, %70
  %57 = phi i64 [ 0, %54 ], [ %71, %70 ]
  %58 = getelementptr inbounds [9 x i8*], [9 x i8*]* @_ZL19kValidConstantNames, i64 0, i64 %57
  %59 = load i8*, i8** %58, align 8
  %60 = call i64 @strlen(i8* %59) #1
  %61 = load i8, i8* %6, align 1
  %62 = icmp slt i8 %61, 0
  %63 = load i64, i64* %11, align 8
  %64 = zext i8 %61 to i64
  %65 = select i1 %62, i64 %63, i64 %64
  %66 = icmp eq i64 %60, %65
  br i1 %66, label %67, label %70

; <label>:67:                                     ; preds = %56
  %68 = call i32 @_ZNKSt3__112basic_stringIcNS_11char_traitsIcEENS_9allocatorIcEEE7compareEmmPKcm(%"class.std::__1::basic_string"* nonnull %3, i64 0, i64 -1, i8* %59, i64 %60) #1
  %69 = icmp eq i32 %68, 0
  br i1 %69, label %80, label %70

; <label>:70:                                     ; preds = %56, %67
  %71 = add nuw nsw i64 %57, 1
  %72 = icmp ult i64 %71, 9
  br i1 %72, label %56, label %73

; <label>:73:                                     ; preds = %70
  br i1 %55, label %74, label %80

; <label>:74:                                     ; preds = %73
  %75 = bitcast %"class.std::__1::basic_string"* %0 to i8*
  call void @llvm.memset.p0i8.i64(i8* align 8 %75, i8 0, i64 24, i1 false) #1
  %76 = bitcast %"class.std::__1::basic_string"* %0 to %"struct.std::__1::basic_string<char, std::__1::char_traits<char>, std::__1::allocator<char> >::__short"*
  %77 = getelementptr inbounds %"struct.std::__1::basic_string<char, std::__1::char_traits<char>, std::__1::allocator<char> >::__short", %"struct.std::__1::basic_string<char, std::__1::char_traits<char>, std::__1::allocator<char> >::__short"* %76, i64 0, i32 1, i32 0
  store i8 2, i8* %77, align 1
  %78 = bitcast %"class.std::__1::basic_string"* %0 to i16*
  store i16 16976, i16* %78, align 8
  %79 = getelementptr inbounds i8, i8* %75, i64 2
  store i8 0, i8* %79, align 2
  br label %82

; <label>:80:                                     ; preds = %67, %73
  %81 = bitcast %"class.std::__1::basic_string"* %0 to i8*
  call void @llvm.memset.p0i8.i64(i8* align 8 %81, i8 0, i64 24, i1 false)
  br label %82

; <label>:82:                                     ; preds = %80, %74
  %83 = load i8, i8* %6, align 1
  %84 = icmp slt i8 %83, 0
  br i1 %84, label %85, label %87

; <label>:85:                                     ; preds = %82
  %86 = load i8*, i8** %9, align 8
  call void @_ZdlPv(i8* %86) #15
  br label %87

; <label>:87:                                     ; preds = %82, %85
  call void @llvm.lifetime.end.p0i8(i64 24, i8* nonnull %4) #1
  ret void
}

; Function Attrs: nounwind ssp uwtable
define hidden void @_ZN6google8protobuf8compiler3php7PhpNameERKNSt3__112basic_stringIcNS3_11char_traitsIcEENS3_9allocatorIcEEEEb(%"class.std::__1::basic_string"* noalias sret, %"class.std::__1::basic_string"* nocapture readonly dereferenceable(24), i1 zeroext) local_unnamed_addr #2 {
  %4 = alloca %"class.std::__1::basic_string", align 8
  %5 = alloca %"class.std::__1::basic_string", align 8
  %6 = alloca %"class.std::__1::basic_string", align 8
  %7 = alloca %"class.std::__1::basic_string", align 8
  %8 = alloca %"class.std::__1::basic_string", align 8
  %9 = alloca %"class.std::__1::basic_string", align 8
  %10 = alloca %"class.std::__1::basic_string", align 8
  br i1 %2, label %11, label %12

; <label>:11:                                     ; preds = %3
  tail call void @_ZNSt3__112basic_stringIcNS_11char_traitsIcEENS_9allocatorIcEEEC1ERKS5_(%"class.std::__1::basic_string"* %0, %"class.std::__1::basic_string"* nonnull dereferenceable(24) @_ZL22kDescriptorPackageName) #1
  br label %156

; <label>:12:                                     ; preds = %3
  %13 = bitcast %"class.std::__1::basic_string"* %4 to i8*
  call void @llvm.lifetime.start.p0i8(i64 24, i8* nonnull %13) #1
  call void @llvm.memset.p0i8.i64(i8* nonnull align 8 %13, i8 0, i64 24, i1 false) #1
  %14 = bitcast %"class.std::__1::basic_string"* %5 to i8*
  call void @llvm.lifetime.start.p0i8(i64 24, i8* nonnull %14) #1
  call void @llvm.memset.p0i8.i64(i8* nonnull align 8 %14, i8 0, i64 24, i1 false) #1
  %15 = bitcast %"class.std::__1::basic_string"* %1 to %"struct.std::__1::basic_string<char, std::__1::char_traits<char>, std::__1::allocator<char> >::__short"*
  %16 = getelementptr inbounds %"struct.std::__1::basic_string<char, std::__1::char_traits<char>, std::__1::allocator<char> >::__short", %"struct.std::__1::basic_string<char, std::__1::char_traits<char>, std::__1::allocator<char> >::__short"* %15, i64 0, i32 1, i32 0
  %17 = load i8, i8* %16, align 1
  %18 = icmp slt i8 %17, 0
  %19 = getelementptr inbounds %"class.std::__1::basic_string", %"class.std::__1::basic_string"* %1, i64 0, i32 0, i32 0, i32 0, i32 0, i32 0, i32 1
  %20 = load i64, i64* %19, align 8
  %21 = zext i8 %17 to i64
  %22 = select i1 %18, i64 %20, i64 %21
  %23 = icmp eq i64 %22, 0
  br i1 %23, label %24, label %29

; <label>:24:                                     ; preds = %12
  %25 = bitcast %"class.std::__1::basic_string"* %4 to %"struct.std::__1::basic_string<char, std::__1::char_traits<char>, std::__1::allocator<char> >::__short"*
  %26 = getelementptr inbounds %"struct.std::__1::basic_string<char, std::__1::char_traits<char>, std::__1::allocator<char> >::__short", %"struct.std::__1::basic_string<char, std::__1::char_traits<char>, std::__1::allocator<char> >::__short"* %25, i64 0, i32 1, i32 0
  %27 = getelementptr inbounds %"class.std::__1::basic_string", %"class.std::__1::basic_string"* %4, i64 0, i32 0, i32 0, i32 0, i32 0, i32 0, i32 0
  %28 = getelementptr inbounds %"class.std::__1::basic_string", %"class.std::__1::basic_string"* %4, i64 0, i32 0, i32 0, i32 0, i32 0, i32 0, i32 1
  br label %49

; <label>:29:                                     ; preds = %12
  %30 = getelementptr inbounds %"class.std::__1::basic_string", %"class.std::__1::basic_string"* %1, i64 0, i32 0, i32 0, i32 0, i32 0, i32 0, i32 0
  %31 = bitcast %"class.std::__1::basic_string"* %1 to i8*
  %32 = bitcast %"class.std::__1::basic_string"* %6 to i8*
  %33 = bitcast %"class.std::__1::basic_string"* %7 to i8*
  %34 = bitcast %"class.std::__1::basic_string"* %8 to i8*
  %35 = bitcast %"class.std::__1::basic_string"* %4 to %"struct.std::__1::basic_string<char, std::__1::char_traits<char>, std::__1::allocator<char> >::__short"*
  %36 = getelementptr inbounds %"struct.std::__1::basic_string<char, std::__1::char_traits<char>, std::__1::allocator<char> >::__short", %"struct.std::__1::basic_string<char, std::__1::char_traits<char>, std::__1::allocator<char> >::__short"* %35, i64 0, i32 1, i32 0
  %37 = getelementptr inbounds %"class.std::__1::basic_string", %"class.std::__1::basic_string"* %4, i64 0, i32 0, i32 0, i32 0, i32 0, i32 0, i32 0
  %38 = getelementptr inbounds %"class.std::__1::basic_string", %"class.std::__1::basic_string"* %4, i64 0, i32 0, i32 0, i32 0, i32 0, i32 0, i32 1
  %39 = bitcast %"class.std::__1::basic_string"* %6 to %"struct.std::__1::basic_string<char, std::__1::char_traits<char>, std::__1::allocator<char> >::__short"*
  %40 = getelementptr inbounds %"struct.std::__1::basic_string<char, std::__1::char_traits<char>, std::__1::allocator<char> >::__short", %"struct.std::__1::basic_string<char, std::__1::char_traits<char>, std::__1::allocator<char> >::__short"* %39, i64 0, i32 1, i32 0
  %41 = getelementptr inbounds %"class.std::__1::basic_string", %"class.std::__1::basic_string"* %6, i64 0, i32 0, i32 0, i32 0, i32 0, i32 0, i32 0
  %42 = getelementptr inbounds %"class.std::__1::basic_string", %"class.std::__1::basic_string"* %6, i64 0, i32 0, i32 0, i32 0, i32 0, i32 0, i32 1
  %43 = bitcast %"class.std::__1::basic_string"* %7 to %"struct.std::__1::basic_string<char, std::__1::char_traits<char>, std::__1::allocator<char> >::__short"*
  %44 = getelementptr inbounds %"struct.std::__1::basic_string<char, std::__1::char_traits<char>, std::__1::allocator<char> >::__short", %"struct.std::__1::basic_string<char, std::__1::char_traits<char>, std::__1::allocator<char> >::__short"* %43, i64 0, i32 1, i32 0
  %45 = getelementptr inbounds %"class.std::__1::basic_string", %"class.std::__1::basic_string"* %7, i64 0, i32 0, i32 0, i32 0, i32 0, i32 0, i32 0
  %46 = bitcast %"class.std::__1::basic_string"* %8 to %"struct.std::__1::basic_string<char, std::__1::char_traits<char>, std::__1::allocator<char> >::__short"*
  %47 = getelementptr inbounds %"struct.std::__1::basic_string<char, std::__1::char_traits<char>, std::__1::allocator<char> >::__short", %"struct.std::__1::basic_string<char, std::__1::char_traits<char>, std::__1::allocator<char> >::__short"* %46, i64 0, i32 1, i32 0
  %48 = getelementptr inbounds %"class.std::__1::basic_string", %"class.std::__1::basic_string"* %8, i64 0, i32 0, i32 0, i32 0, i32 0, i32 0, i32 0
  br label %95

; <label>:49:                                     ; preds = %147, %24
  %50 = phi i64* [ %28, %24 ], [ %38, %147 ]
  %51 = phi i8** [ %27, %24 ], [ %37, %147 ]
  %52 = phi i8* [ %26, %24 ], [ %36, %147 ]
  %53 = bitcast %"class.std::__1::basic_string"* %9 to i8*
  call void @llvm.lifetime.start.p0i8(i64 24, i8* nonnull %53) #1
  %54 = bitcast %"class.std::__1::basic_string"* %10 to i8*
  call void @llvm.lifetime.start.p0i8(i64 24, i8* nonnull %54) #1
  call void @_ZN6google8protobuf8compiler3php15ClassNamePrefixERKNSt3__112basic_stringIcNS3_11char_traitsIcEENS3_9allocatorIcEEEE(%"class.std::__1::basic_string"* nonnull sret %10, %"class.std::__1::basic_string"* nonnull dereferenceable(24) %4)
  %55 = load i8, i8* %52, align 1, !noalias !44
  %56 = icmp slt i8 %55, 0
  %57 = load i8*, i8** %51, align 8, !noalias !44
  %58 = load i64, i64* %50, align 8, !noalias !44
  %59 = zext i8 %55 to i64
  %60 = select i1 %56, i8* %57, i8* %13
  %61 = select i1 %56, i64 %58, i64 %59
  %62 = call dereferenceable(24) %"class.std::__1::basic_string"* @_ZNSt3__112basic_stringIcNS_11char_traitsIcEENS_9allocatorIcEEE6appendEPKcm(%"class.std::__1::basic_string"* nonnull %10, i8* %60, i64 %61) #1, !noalias !44
  %63 = bitcast %"class.std::__1::basic_string"* %62 to i8*
  call void @llvm.memcpy.p0i8.p0i8.i64(i8* nonnull align 8 %53, i8* nonnull align 8 %63, i64 24, i1 false) #1
  call void @llvm.memset.p0i8.i64(i8* nonnull align 8 %63, i8 0, i64 24, i1 false) #1, !noalias !44
  %64 = bitcast %"class.std::__1::basic_string"* %9 to %"struct.std::__1::basic_string<char, std::__1::char_traits<char>, std::__1::allocator<char> >::__short"*
  %65 = getelementptr inbounds %"struct.std::__1::basic_string<char, std::__1::char_traits<char>, std::__1::allocator<char> >::__short", %"struct.std::__1::basic_string<char, std::__1::char_traits<char>, std::__1::allocator<char> >::__short"* %64, i64 0, i32 1, i32 0
  %66 = load i8, i8* %65, align 1
  %67 = icmp slt i8 %66, 0
  %68 = getelementptr inbounds %"class.std::__1::basic_string", %"class.std::__1::basic_string"* %9, i64 0, i32 0, i32 0, i32 0, i32 0, i32 0, i32 0
  %69 = load i8*, i8** %68, align 8
  %70 = getelementptr inbounds %"class.std::__1::basic_string", %"class.std::__1::basic_string"* %9, i64 0, i32 0, i32 0, i32 0, i32 0, i32 0, i32 1
  %71 = load i64, i64* %70, align 8
  %72 = zext i8 %66 to i64
  %73 = select i1 %67, i8* %69, i8* %53
  %74 = select i1 %67, i64 %71, i64 %72
  %75 = call dereferenceable(24) %"class.std::__1::basic_string"* @_ZNSt3__112basic_stringIcNS_11char_traitsIcEENS_9allocatorIcEEE6appendEPKcm(%"class.std::__1::basic_string"* nonnull %5, i8* %73, i64 %74) #1
  %76 = load i8, i8* %65, align 1
  %77 = icmp slt i8 %76, 0
  br i1 %77, label %78, label %80

; <label>:78:                                     ; preds = %49
  %79 = load i8*, i8** %68, align 8
  call void @_ZdlPv(i8* %79) #15
  br label %80

; <label>:80:                                     ; preds = %49, %78
  %81 = bitcast %"class.std::__1::basic_string"* %10 to %"struct.std::__1::basic_string<char, std::__1::char_traits<char>, std::__1::allocator<char> >::__short"*
  %82 = getelementptr inbounds %"struct.std::__1::basic_string<char, std::__1::char_traits<char>, std::__1::allocator<char> >::__short", %"struct.std::__1::basic_string<char, std::__1::char_traits<char>, std::__1::allocator<char> >::__short"* %81, i64 0, i32 1, i32 0
  %83 = load i8, i8* %82, align 1
  %84 = icmp slt i8 %83, 0
  br i1 %84, label %85, label %88

; <label>:85:                                     ; preds = %80
  %86 = getelementptr inbounds %"class.std::__1::basic_string", %"class.std::__1::basic_string"* %10, i64 0, i32 0, i32 0, i32 0, i32 0, i32 0, i32 0
  %87 = load i8*, i8** %86, align 8
  call void @_ZdlPv(i8* %87) #15
  br label %88

; <label>:88:                                     ; preds = %80, %85
  call void @llvm.lifetime.end.p0i8(i64 24, i8* nonnull %54) #1
  call void @llvm.lifetime.end.p0i8(i64 24, i8* nonnull %53) #1
  %89 = bitcast %"class.std::__1::basic_string"* %0 to i8*
  call void @llvm.memcpy.p0i8.p0i8.i64(i8* align 8 %89, i8* nonnull align 8 %14, i64 24, i1 false) #1
  %90 = load i8, i8* %52, align 1
  %91 = icmp slt i8 %90, 0
  call void @llvm.lifetime.end.p0i8(i64 24, i8* nonnull %14) #1
  br i1 %91, label %92, label %94

; <label>:92:                                     ; preds = %88
  %93 = load i8*, i8** %51, align 8
  call void @_ZdlPv(i8* %93) #15
  br label %94

; <label>:94:                                     ; preds = %88, %92
  call void @llvm.lifetime.end.p0i8(i64 24, i8* nonnull %13) #1
  br label %156

; <label>:95:                                     ; preds = %29, %147
  %96 = phi i64 [ 0, %29 ], [ %149, %147 ]
  %97 = phi i1 [ %18, %29 ], [ %151, %147 ]
  %98 = phi i1 [ true, %29 ], [ %148, %147 ]
  %99 = load i8*, i8** %30, align 8
  %100 = select i1 %97, i8* %99, i8* %31
  %101 = getelementptr inbounds i8, i8* %100, i64 %96
  %102 = load i8, i8* %101, align 1
  %103 = icmp sgt i8 %102, 96
  br i1 %103, label %104, label %110

; <label>:104:                                    ; preds = %95
  %105 = icmp sgt i8 %102, 122
  %106 = xor i1 %98, true
  %107 = or i1 %105, %106
  br i1 %107, label %146, label %108

; <label>:108:                                    ; preds = %104
  %109 = add i8 %102, -32
  call void @_ZNSt3__112basic_stringIcNS_11char_traitsIcEENS_9allocatorIcEEE9push_backEc(%"class.std::__1::basic_string"* nonnull %4, i8 signext %109) #1
  br label %147

; <label>:110:                                    ; preds = %95
  %111 = icmp eq i8 %102, 46
  br i1 %111, label %112, label %146

; <label>:112:                                    ; preds = %110
  call void @llvm.lifetime.start.p0i8(i64 24, i8* nonnull %32) #1
  call void @llvm.lifetime.start.p0i8(i64 24, i8* nonnull %33) #1
  call void @llvm.lifetime.start.p0i8(i64 24, i8* nonnull %34) #1
  call void @_ZN6google8protobuf8compiler3php15ClassNamePrefixERKNSt3__112basic_stringIcNS3_11char_traitsIcEENS3_9allocatorIcEEEE(%"class.std::__1::basic_string"* nonnull sret %8, %"class.std::__1::basic_string"* nonnull dereferenceable(24) %4)
  %113 = load i8, i8* %36, align 1, !noalias !47
  %114 = icmp slt i8 %113, 0
  %115 = load i8*, i8** %37, align 8, !noalias !47
  %116 = load i64, i64* %38, align 8, !noalias !47
  %117 = zext i8 %113 to i64
  %118 = select i1 %114, i8* %115, i8* %13
  %119 = select i1 %114, i64 %116, i64 %117
  %120 = call dereferenceable(24) %"class.std::__1::basic_string"* @_ZNSt3__112basic_stringIcNS_11char_traitsIcEENS_9allocatorIcEEE6appendEPKcm(%"class.std::__1::basic_string"* nonnull %8, i8* %118, i64 %119) #1, !noalias !47
  %121 = bitcast %"class.std::__1::basic_string"* %120 to i8*
  call void @llvm.memcpy.p0i8.p0i8.i64(i8* nonnull align 8 %33, i8* nonnull align 8 %121, i64 24, i1 false) #1
  call void @llvm.memset.p0i8.i64(i8* nonnull align 8 %121, i8 0, i64 24, i1 false) #1, !noalias !47
  call void @_ZNSt3__112basic_stringIcNS_11char_traitsIcEENS_9allocatorIcEEE9push_backEc(%"class.std::__1::basic_string"* nonnull %7, i8 signext 92) #1, !noalias !50
  call void @llvm.memcpy.p0i8.p0i8.i64(i8* nonnull align 8 %32, i8* nonnull align 8 %33, i64 24, i1 false) #1
  call void @llvm.memset.p0i8.i64(i8* nonnull align 8 %33, i8 0, i64 24, i1 false) #1, !noalias !50
  %122 = load i8, i8* %40, align 1
  %123 = icmp slt i8 %122, 0
  %124 = load i8*, i8** %41, align 8
  %125 = load i64, i64* %42, align 8
  %126 = zext i8 %122 to i64
  %127 = select i1 %123, i8* %124, i8* %32
  %128 = select i1 %123, i64 %125, i64 %126
  %129 = call dereferenceable(24) %"class.std::__1::basic_string"* @_ZNSt3__112basic_stringIcNS_11char_traitsIcEENS_9allocatorIcEEE6appendEPKcm(%"class.std::__1::basic_string"* nonnull %5, i8* %127, i64 %128) #1
  %130 = load i8, i8* %40, align 1
  %131 = icmp slt i8 %130, 0
  br i1 %131, label %132, label %134

; <label>:132:                                    ; preds = %112
  %133 = load i8*, i8** %41, align 8
  call void @_ZdlPv(i8* %133) #15
  br label %134

; <label>:134:                                    ; preds = %112, %132
  %135 = load i8, i8* %44, align 1
  %136 = icmp slt i8 %135, 0
  br i1 %136, label %137, label %139

; <label>:137:                                    ; preds = %134
  %138 = load i8*, i8** %45, align 8
  call void @_ZdlPv(i8* %138) #15
  br label %139

; <label>:139:                                    ; preds = %134, %137
  %140 = load i8, i8* %47, align 1
  %141 = icmp slt i8 %140, 0
  br i1 %141, label %142, label %144

; <label>:142:                                    ; preds = %139
  %143 = load i8*, i8** %48, align 8
  call void @_ZdlPv(i8* %143) #15
  br label %144

; <label>:144:                                    ; preds = %139, %142
  call void @llvm.lifetime.end.p0i8(i64 24, i8* nonnull %34) #1
  call void @llvm.lifetime.end.p0i8(i64 24, i8* nonnull %33) #1
  call void @llvm.lifetime.end.p0i8(i64 24, i8* nonnull %32) #1
  %145 = call dereferenceable(24) %"class.std::__1::basic_string"* @_ZNSt3__112basic_stringIcNS_11char_traitsIcEENS_9allocatorIcEEE6assignEPKc(%"class.std::__1::basic_string"* nonnull %4, i8* getelementptr inbounds ([1 x i8], [1 x i8]* @.str.14, i64 0, i64 0)) #1
  br label %147

; <label>:146:                                    ; preds = %104, %110
  call void @_ZNSt3__112basic_stringIcNS_11char_traitsIcEENS_9allocatorIcEEE9push_backEc(%"class.std::__1::basic_string"* nonnull %4, i8 signext %102) #1
  br label %147

; <label>:147:                                    ; preds = %108, %146, %144
  %148 = phi i1 [ false, %108 ], [ true, %144 ], [ false, %146 ]
  %149 = add nuw i64 %96, 1
  %150 = load i8, i8* %16, align 1
  %151 = icmp slt i8 %150, 0
  %152 = load i64, i64* %19, align 8
  %153 = zext i8 %150 to i64
  %154 = select i1 %151, i64 %152, i64 %153
  %155 = icmp ugt i64 %154, %149
  br i1 %155, label %95, label %49

; <label>:156:                                    ; preds = %94, %11
  ret void
}

; Function Attrs: nounwind ssp uwtable
define hidden void @_ZN6google8protobuf8compiler3php15DefaultForFieldEPKNS0_15FieldDescriptorE(%"class.std::__1::basic_string"* noalias sret, %"class.google::protobuf::FieldDescriptor"*) local_unnamed_addr #2 {
  %3 = alloca %"class.std::__1::tuple", align 8
  %4 = alloca %"class.std::__1::__call_once_param", align 8
  %5 = alloca void (%"class.google::protobuf::FieldDescriptor"*)*, align 8
  %6 = alloca %"class.google::protobuf::FieldDescriptor"*, align 8
  %7 = getelementptr inbounds %"class.google::protobuf::FieldDescriptor", %"class.google::protobuf::FieldDescriptor"* %1, i64 0, i32 6
  %8 = load %"class.google::protobuf::GoogleOnceDynamic"*, %"class.google::protobuf::GoogleOnceDynamic"** %7, align 8
  %9 = icmp eq %"class.google::protobuf::GoogleOnceDynamic"* %8, null
  br i1 %9, label %23, label %10

; <label>:10:                                     ; preds = %2
  %11 = bitcast void (%"class.google::protobuf::FieldDescriptor"*)** %5 to i8*
  call void @llvm.lifetime.start.p0i8(i64 8, i8* nonnull %11) #1
  %12 = bitcast %"class.google::protobuf::FieldDescriptor"** %6 to i8*
  call void @llvm.lifetime.start.p0i8(i64 8, i8* nonnull %12) #1
  store void (%"class.google::protobuf::FieldDescriptor"*)* @_ZN6google8protobuf15FieldDescriptor12TypeOnceInitEPKS1_, void (%"class.google::protobuf::FieldDescriptor"*)** %5, align 8
  store %"class.google::protobuf::FieldDescriptor"* %1, %"class.google::protobuf::FieldDescriptor"** %6, align 8
  %13 = getelementptr inbounds %"class.google::protobuf::GoogleOnceDynamic", %"class.google::protobuf::GoogleOnceDynamic"* %8, i64 0, i32 0, i32 0
  %14 = load atomic i64, i64* %13 acquire, align 8
  %15 = icmp eq i64 %14, -1
  br i1 %15, label %22, label %16

; <label>:16:                                     ; preds = %10
  %17 = bitcast %"class.std::__1::tuple"* %3 to i8*
  call void @llvm.lifetime.start.p0i8(i64 16, i8* nonnull %17) #1
  %18 = getelementptr inbounds %"class.std::__1::tuple", %"class.std::__1::tuple"* %3, i64 0, i32 0, i32 0, i32 0
  store void (%"class.google::protobuf::FieldDescriptor"*)** %5, void (%"class.google::protobuf::FieldDescriptor"*)*** %18, align 8
  %19 = getelementptr inbounds %"class.std::__1::tuple", %"class.std::__1::tuple"* %3, i64 0, i32 0, i32 1, i32 0
  store %"class.google::protobuf::FieldDescriptor"** %6, %"class.google::protobuf::FieldDescriptor"*** %19, align 8
  %20 = bitcast %"class.std::__1::__call_once_param"* %4 to i8*
  call void @llvm.lifetime.start.p0i8(i64 8, i8* nonnull %20) #1
  %21 = getelementptr inbounds %"class.std::__1::__call_once_param", %"class.std::__1::__call_once_param"* %4, i64 0, i32 0
  store %"class.std::__1::tuple"* %3, %"class.std::__1::tuple"** %21, align 8
  call void @_ZNSt3__111__call_onceERVmPvPFvS2_E(i64* nonnull dereferenceable(8) %13, i8* nonnull %20, void (i8*)* nonnull @_ZNSt3__117__call_once_proxyINS_5tupleIJRPFvPKN6google8protobuf15FieldDescriptorEERS6_EEEEEvPv) #1
  call void @llvm.lifetime.end.p0i8(i64 8, i8* nonnull %20) #1
  call void @llvm.lifetime.end.p0i8(i64 16, i8* nonnull %17) #1
  br label %22

; <label>:22:                                     ; preds = %16, %10
  call void @llvm.lifetime.end.p0i8(i64 8, i8* nonnull %11) #1
  call void @llvm.lifetime.end.p0i8(i64 8, i8* nonnull %12) #1
  br label %23

; <label>:23:                                     ; preds = %2, %22
  %24 = getelementptr inbounds %"class.google::protobuf::FieldDescriptor", %"class.google::protobuf::FieldDescriptor"* %1, i64 0, i32 7
  %25 = load i32, i32* %24, align 8
  switch i32 %25, label %53 [
    i32 5, label %26
    i32 3, label %26
    i32 13, label %26
    i32 4, label %26
    i32 17, label %26
    i32 18, label %26
    i32 7, label %26
    i32 6, label %26
    i32 15, label %26
    i32 16, label %26
    i32 14, label %26
    i32 1, label %31
    i32 2, label %31
    i32 8, label %36
    i32 9, label %41
    i32 12, label %41
    i32 11, label %47
    i32 10, label %47
  ]

; <label>:26:                                     ; preds = %23, %23, %23, %23, %23, %23, %23, %23, %23, %23, %23
  %27 = bitcast %"class.std::__1::basic_string"* %0 to i8*
  call void @llvm.memset.p0i8.i64(i8* align 8 %27, i8 0, i64 24, i1 false) #1
  %28 = bitcast %"class.std::__1::basic_string"* %0 to %"struct.std::__1::basic_string<char, std::__1::char_traits<char>, std::__1::allocator<char> >::__short"*
  %29 = getelementptr inbounds %"struct.std::__1::basic_string<char, std::__1::char_traits<char>, std::__1::allocator<char> >::__short", %"struct.std::__1::basic_string<char, std::__1::char_traits<char>, std::__1::allocator<char> >::__short"* %28, i64 0, i32 1, i32 0
  store i8 1, i8* %29, align 1
  store i8 48, i8* %27, align 8
  %30 = getelementptr inbounds i8, i8* %27, i64 1
  store i8 0, i8* %30, align 1
  br label %55

; <label>:31:                                     ; preds = %23, %23
  %32 = bitcast %"class.std::__1::basic_string"* %0 to i8*
  call void @llvm.memset.p0i8.i64(i8* align 8 %32, i8 0, i64 24, i1 false) #1
  %33 = bitcast %"class.std::__1::basic_string"* %0 to %"struct.std::__1::basic_string<char, std::__1::char_traits<char>, std::__1::allocator<char> >::__short"*
  %34 = getelementptr inbounds %"struct.std::__1::basic_string<char, std::__1::char_traits<char>, std::__1::allocator<char> >::__short", %"struct.std::__1::basic_string<char, std::__1::char_traits<char>, std::__1::allocator<char> >::__short"* %33, i64 0, i32 1, i32 0
  store i8 3, i8* %34, align 1
  call void @llvm.memcpy.p0i8.p0i8.i64(i8* nonnull align 8 %32, i8* align 1 getelementptr inbounds ([4 x i8], [4 x i8]* @.str.16, i64 0, i64 0), i64 3, i1 false) #1
  %35 = getelementptr inbounds i8, i8* %32, i64 3
  store i8 0, i8* %35, align 1
  br label %55

; <label>:36:                                     ; preds = %23
  %37 = bitcast %"class.std::__1::basic_string"* %0 to i8*
  call void @llvm.memset.p0i8.i64(i8* align 8 %37, i8 0, i64 24, i1 false) #1
  %38 = bitcast %"class.std::__1::basic_string"* %0 to %"struct.std::__1::basic_string<char, std::__1::char_traits<char>, std::__1::allocator<char> >::__short"*
  %39 = getelementptr inbounds %"struct.std::__1::basic_string<char, std::__1::char_traits<char>, std::__1::allocator<char> >::__short", %"struct.std::__1::basic_string<char, std::__1::char_traits<char>, std::__1::allocator<char> >::__short"* %38, i64 0, i32 1, i32 0
  store i8 5, i8* %39, align 1
  call void @llvm.memcpy.p0i8.p0i8.i64(i8* nonnull align 8 %37, i8* align 1 getelementptr inbounds ([6 x i8], [6 x i8]* @.str.17, i64 0, i64 0), i64 5, i1 false) #1
  %40 = getelementptr inbounds i8, i8* %37, i64 5
  store i8 0, i8* %40, align 1
  br label %55

; <label>:41:                                     ; preds = %23, %23
  %42 = bitcast %"class.std::__1::basic_string"* %0 to i8*
  call void @llvm.memset.p0i8.i64(i8* align 8 %42, i8 0, i64 24, i1 false) #1
  %43 = bitcast %"class.std::__1::basic_string"* %0 to %"struct.std::__1::basic_string<char, std::__1::char_traits<char>, std::__1::allocator<char> >::__short"*
  %44 = getelementptr inbounds %"struct.std::__1::basic_string<char, std::__1::char_traits<char>, std::__1::allocator<char> >::__short", %"struct.std::__1::basic_string<char, std::__1::char_traits<char>, std::__1::allocator<char> >::__short"* %43, i64 0, i32 1, i32 0
  store i8 2, i8* %44, align 1
  %45 = bitcast %"class.std::__1::basic_string"* %0 to i16*
  store i16 10023, i16* %45, align 8
  %46 = getelementptr inbounds i8, i8* %42, i64 2
  store i8 0, i8* %46, align 2
  br label %55

; <label>:47:                                     ; preds = %23, %23
  %48 = bitcast %"class.std::__1::basic_string"* %0 to i8*
  call void @llvm.memset.p0i8.i64(i8* align 8 %48, i8 0, i64 24, i1 false) #1
  %49 = bitcast %"class.std::__1::basic_string"* %0 to %"struct.std::__1::basic_string<char, std::__1::char_traits<char>, std::__1::allocator<char> >::__short"*
  %50 = getelementptr inbounds %"struct.std::__1::basic_string<char, std::__1::char_traits<char>, std::__1::allocator<char> >::__short", %"struct.std::__1::basic_string<char, std::__1::char_traits<char>, std::__1::allocator<char> >::__short"* %49, i64 0, i32 1, i32 0
  store i8 4, i8* %50, align 1
  %51 = bitcast %"class.std::__1::basic_string"* %0 to i32*
  store i32 1819047278, i32* %51, align 8
  %52 = getelementptr inbounds i8, i8* %48, i64 4
  store i8 0, i8* %52, align 4
  br label %55

; <label>:53:                                     ; preds = %23
  %54 = bitcast %"class.std::__1::basic_string"* %0 to i8*
  call void @llvm.memset.p0i8.i64(i8* align 8 %54, i8 0, i64 24, i1 false)
  br label %55

; <label>:55:                                     ; preds = %53, %47, %41, %36, %31, %26
  ret void
}

; Function Attrs: nounwind ssp uwtable
define hidden void @_ZN6google8protobuf8compiler3php25GeneratedMetadataFileNameEPKNS0_14FileDescriptorEb(%"class.std::__1::basic_string"* noalias sret, %"class.google::protobuf::FileDescriptor"* nocapture readonly, i1 zeroext) local_unnamed_addr #2 {
  %4 = alloca %"class.std::__1::basic_string", align 8
  %5 = alloca %"class.std::__1::basic_string", align 8
  %6 = alloca %"class.std::__1::basic_string", align 8
  %7 = alloca %"class.std::__1::basic_string", align 8
  %8 = alloca %"class.std::__1::basic_string", align 8
  %9 = alloca %"class.std::__1::basic_string", align 8
  %10 = alloca %"class.std::__1::basic_string", align 8
  %11 = alloca %"class.std::__1::basic_string", align 8
  %12 = alloca %"class.std::__1::basic_string", align 8
  %13 = alloca %"class.std::__1::basic_string", align 8
  %14 = alloca %"class.std::__1::basic_string", align 8
  %15 = alloca %"class.std::__1::basic_string", align 8
  %16 = alloca %"class.std::__1::basic_string", align 8
  %17 = alloca %"class.std::__1::basic_string", align 8
  %18 = getelementptr inbounds %"class.google::protobuf::FileDescriptor", %"class.google::protobuf::FileDescriptor"* %1, i64 0, i32 0
  %19 = load %"class.std::__1::basic_string"*, %"class.std::__1::basic_string"** %18, align 8
  %20 = bitcast %"class.std::__1::basic_string"* %19 to %"struct.std::__1::basic_string<char, std::__1::char_traits<char>, std::__1::allocator<char> >::__short"*
  %21 = getelementptr inbounds %"struct.std::__1::basic_string<char, std::__1::char_traits<char>, std::__1::allocator<char> >::__short", %"struct.std::__1::basic_string<char, std::__1::char_traits<char>, std::__1::allocator<char> >::__short"* %20, i64 0, i32 1, i32 0
  %22 = load i8, i8* %21, align 1
  %23 = icmp slt i8 %22, 0
  br i1 %23, label %24, label %29

; <label>:24:                                     ; preds = %3
  %25 = getelementptr inbounds %"class.std::__1::basic_string", %"class.std::__1::basic_string"* %19, i64 0, i32 0, i32 0, i32 0, i32 0, i32 0, i32 0
  %26 = load i8*, i8** %25, align 8
  %27 = getelementptr inbounds %"class.std::__1::basic_string", %"class.std::__1::basic_string"* %19, i64 0, i32 0, i32 0, i32 0, i32 0, i32 0, i32 1
  %28 = load i64, i64* %27, align 8
  br label %32

; <label>:29:                                     ; preds = %3
  %30 = bitcast %"class.std::__1::basic_string"* %19 to i8*
  %31 = zext i8 %22 to i64
  br label %32

; <label>:32:                                     ; preds = %29, %24
  %33 = phi i8* [ %26, %24 ], [ %30, %29 ]
  %34 = phi i64 [ %28, %24 ], [ %31, %29 ]
  %35 = icmp eq i64 %34, 0
  br i1 %35, label %52, label %36

; <label>:36:                                     ; preds = %32
  %37 = getelementptr inbounds i8, i8* %33, i64 %34
  br label %38

; <label>:38:                                     ; preds = %42, %36
  %39 = phi i8* [ %33, %36 ], [ %43, %42 ]
  %40 = load i8, i8* %39, align 1
  %41 = icmp eq i8 %40, 47
  br i1 %41, label %45, label %42

; <label>:42:                                     ; preds = %38
  %43 = getelementptr inbounds i8, i8* %39, i64 1
  %44 = icmp eq i8* %43, %37
  br i1 %44, label %45, label %38

; <label>:45:                                     ; preds = %42, %38
  %46 = phi i8* [ %39, %38 ], [ %37, %42 ]
  %47 = icmp eq i8* %46, %37
  %48 = ptrtoint i8* %46 to i64
  %49 = ptrtoint i8* %33 to i64
  %50 = sub i64 %48, %49
  %51 = select i1 %47, i64 -1, i64 %50
  br label %52

; <label>:52:                                     ; preds = %32, %45
  %53 = phi i64 [ -1, %32 ], [ %51, %45 ]
  %54 = trunc i64 %53 to i32
  %55 = bitcast %"class.std::__1::basic_string"* %4 to i8*
  call void @llvm.lifetime.start.p0i8(i64 24, i8* nonnull %55) #1
  %56 = bitcast %"class.std::__1::basic_string"* %4 to %"struct.std::__1::basic_string<char, std::__1::char_traits<char>, std::__1::allocator<char> >::__short"*
  %57 = getelementptr inbounds %"struct.std::__1::basic_string<char, std::__1::char_traits<char>, std::__1::allocator<char> >::__short", %"struct.std::__1::basic_string<char, std::__1::char_traits<char>, std::__1::allocator<char> >::__short"* %56, i64 0, i32 1, i32 0
  %58 = bitcast %"class.std::__1::basic_string"* %5 to i8*
  call void @llvm.memset.p0i8.i64(i8* nonnull align 8 %55, i8 0, i64 24, i1 false)
  call void @llvm.lifetime.start.p0i8(i64 24, i8* nonnull %58) #1
  %59 = bitcast %"class.std::__1::basic_string"* %5 to %"struct.std::__1::basic_string<char, std::__1::char_traits<char>, std::__1::allocator<char> >::__short"*
  %60 = getelementptr inbounds %"struct.std::__1::basic_string<char, std::__1::char_traits<char>, std::__1::allocator<char> >::__short", %"struct.std::__1::basic_string<char, std::__1::char_traits<char>, std::__1::allocator<char> >::__short"* %59, i64 0, i32 1, i32 0
  call void @llvm.memset.p0i8.i64(i8* nonnull align 8 %58, i8 0, i64 24, i1 false)
  %61 = load i8, i8* %21, align 1
  %62 = icmp slt i8 %61, 0
  %63 = getelementptr inbounds %"class.std::__1::basic_string", %"class.std::__1::basic_string"* %19, i64 0, i32 0, i32 0, i32 0, i32 0, i32 0, i32 1
  %64 = load i64, i64* %63, align 8
  %65 = zext i8 %61 to i64
  %66 = select i1 %62, i64 %64, i64 %65
  %67 = load i8, i8* getelementptr (%"struct.std::__1::basic_string<char, std::__1::char_traits<char>, std::__1::allocator<char> >::__short", %"struct.std::__1::basic_string<char, std::__1::char_traits<char>, std::__1::allocator<char> >::__short"* bitcast (%"class.std::__1::basic_string"* @_ZL10kEmptyFile to %"struct.std::__1::basic_string<char, std::__1::char_traits<char>, std::__1::allocator<char> >::__short"*), i64 0, i32 1, i32 0), align 1
  %68 = icmp slt i8 %67, 0
  %69 = load i64, i64* getelementptr inbounds (%"class.std::__1::basic_string", %"class.std::__1::basic_string"* @_ZL10kEmptyFile, i64 0, i32 0, i32 0, i32 0, i32 0, i32 0, i32 1), align 8
  %70 = zext i8 %67 to i64
  %71 = select i1 %68, i64 %69, i64 %70
  %72 = icmp eq i64 %66, %71
  br i1 %72, label %73, label %104

; <label>:73:                                     ; preds = %52
  %74 = getelementptr inbounds %"class.std::__1::basic_string", %"class.std::__1::basic_string"* %19, i64 0, i32 0, i32 0, i32 0, i32 0, i32 0, i32 0
  %75 = load i8*, i8** %74, align 8
  %76 = bitcast %"class.std::__1::basic_string"* %19 to i8*
  %77 = select i1 %62, i8* %75, i8* %76
  %78 = load i8*, i8** getelementptr inbounds (%"class.std::__1::basic_string", %"class.std::__1::basic_string"* @_ZL10kEmptyFile, i64 0, i32 0, i32 0, i32 0, i32 0, i32 0, i32 0), align 8
  %79 = select i1 %68, i8* %78, i8* bitcast (%"class.std::__1::basic_string"* @_ZL10kEmptyFile to i8*)
  %80 = icmp eq i64 %66, 0
  br i1 %62, label %87, label %81

; <label>:81:                                     ; preds = %73
  br i1 %80, label %103, label %82

; <label>:82:                                     ; preds = %81
  %83 = ptrtoint i8* %75 to i64
  %84 = trunc i64 %83 to i8
  %85 = load i8, i8* %79, align 1
  %86 = icmp eq i8 %85, %84
  br i1 %86, label %88, label %104

; <label>:87:                                     ; preds = %73
  br i1 %80, label %103, label %100

; <label>:88:                                     ; preds = %82, %95
  %89 = phi i64 [ %92, %95 ], [ %65, %82 ]
  %90 = phi i8* [ %93, %95 ], [ %76, %82 ]
  %91 = phi i8* [ %96, %95 ], [ %79, %82 ]
  %92 = add i64 %89, -1
  %93 = getelementptr inbounds i8, i8* %90, i64 1
  %94 = icmp eq i64 %92, 0
  br i1 %94, label %103, label %95

; <label>:95:                                     ; preds = %88
  %96 = getelementptr inbounds i8, i8* %91, i64 1
  %97 = load i8, i8* %93, align 1
  %98 = load i8, i8* %96, align 1
  %99 = icmp eq i8 %97, %98
  br i1 %99, label %88, label %104

; <label>:100:                                    ; preds = %87
  %101 = tail call i32 @memcmp(i8* %77, i8* %79, i64 %66) #1
  %102 = icmp eq i32 %101, 0
  br i1 %102, label %103, label %104

; <label>:103:                                    ; preds = %88, %81, %87, %100
  tail call void @_ZNSt3__112basic_stringIcNS_11char_traitsIcEENS_9allocatorIcEEEC1ERKS5_(%"class.std::__1::basic_string"* %0, %"class.std::__1::basic_string"* nonnull dereferenceable(24) @_ZL18kEmptyMetadataFile) #1
  br label %601

; <label>:104:                                    ; preds = %95, %82, %52, %100
  br i1 %2, label %105, label %106

; <label>:105:                                    ; preds = %104
  tail call void @_ZNSt3__112basic_stringIcNS_11char_traitsIcEENS_9allocatorIcEEEC1ERKS5_(%"class.std::__1::basic_string"* %0, %"class.std::__1::basic_string"* nonnull dereferenceable(24) @_ZL23kDescriptorMetadataFile) #1
  br label %601

; <label>:106:                                    ; preds = %104
  %107 = bitcast %"class.std::__1::basic_string"* %6 to i8*
  call void @llvm.lifetime.start.p0i8(i64 24, i8* nonnull %107) #1
  call void @llvm.memset.p0i8.i64(i8* nonnull align 8 %107, i8 0, i64 24, i1 false) #1
  %108 = load i8, i8* %21, align 1
  %109 = icmp slt i8 %108, 0
  br i1 %109, label %110, label %114

; <label>:110:                                    ; preds = %106
  %111 = getelementptr inbounds %"class.std::__1::basic_string", %"class.std::__1::basic_string"* %19, i64 0, i32 0, i32 0, i32 0, i32 0, i32 0, i32 0
  %112 = load i8*, i8** %111, align 8
  %113 = load i64, i64* %63, align 8
  br label %117

; <label>:114:                                    ; preds = %106
  %115 = bitcast %"class.std::__1::basic_string"* %19 to i8*
  %116 = zext i8 %108 to i64
  br label %117

; <label>:117:                                    ; preds = %110, %114
  %118 = phi i8* [ %112, %110 ], [ %115, %114 ]
  %119 = phi i64 [ %113, %110 ], [ %116, %114 ]
  %120 = getelementptr inbounds i8, i8* %118, i64 %119
  br label %121

; <label>:121:                                    ; preds = %124, %117
  %122 = phi i8* [ %120, %117 ], [ %125, %124 ]
  %123 = icmp eq i8* %122, %118
  br i1 %123, label %132, label %124

; <label>:124:                                    ; preds = %121
  %125 = getelementptr inbounds i8, i8* %122, i64 -1
  %126 = load i8, i8* %125, align 1
  %127 = icmp eq i8 %126, 46
  br i1 %127, label %128, label %121

; <label>:128:                                    ; preds = %124
  %129 = ptrtoint i8* %125 to i64
  %130 = ptrtoint i8* %118 to i64
  %131 = sub i64 %129, %130
  br label %132

; <label>:132:                                    ; preds = %121, %128
  %133 = phi i64 [ %131, %128 ], [ -1, %121 ]
  %134 = load i64, i64* %63, align 8
  %135 = zext i8 %108 to i64
  %136 = select i1 %109, i64 %134, i64 %135
  %137 = icmp eq i64 %136, %71
  br i1 %137, label %138, label %169

; <label>:138:                                    ; preds = %132
  %139 = getelementptr inbounds %"class.std::__1::basic_string", %"class.std::__1::basic_string"* %19, i64 0, i32 0, i32 0, i32 0, i32 0, i32 0, i32 0
  %140 = load i8*, i8** %139, align 8
  %141 = bitcast %"class.std::__1::basic_string"* %19 to i8*
  %142 = select i1 %109, i8* %140, i8* %141
  %143 = load i8*, i8** getelementptr inbounds (%"class.std::__1::basic_string", %"class.std::__1::basic_string"* @_ZL10kEmptyFile, i64 0, i32 0, i32 0, i32 0, i32 0, i32 0, i32 0), align 8
  %144 = select i1 %68, i8* %143, i8* bitcast (%"class.std::__1::basic_string"* @_ZL10kEmptyFile to i8*)
  %145 = icmp eq i64 %71, 0
  br i1 %109, label %152, label %146

; <label>:146:                                    ; preds = %138
  br i1 %145, label %168, label %147

; <label>:147:                                    ; preds = %146
  %148 = ptrtoint i8* %140 to i64
  %149 = trunc i64 %148 to i8
  %150 = load i8, i8* %144, align 1
  %151 = icmp eq i8 %150, %149
  br i1 %151, label %153, label %169

; <label>:152:                                    ; preds = %138
  br i1 %145, label %168, label %165

; <label>:153:                                    ; preds = %147, %160
  %154 = phi i64 [ %157, %160 ], [ %135, %147 ]
  %155 = phi i8* [ %158, %160 ], [ %141, %147 ]
  %156 = phi i8* [ %161, %160 ], [ %144, %147 ]
  %157 = add i64 %154, -1
  %158 = getelementptr inbounds i8, i8* %155, i64 1
  %159 = icmp eq i64 %157, 0
  br i1 %159, label %168, label %160

; <label>:160:                                    ; preds = %153
  %161 = getelementptr inbounds i8, i8* %156, i64 1
  %162 = load i8, i8* %158, align 1
  %163 = load i8, i8* %161, align 1
  %164 = icmp eq i8 %162, %163
  br i1 %164, label %153, label %169

; <label>:165:                                    ; preds = %152
  %166 = tail call i32 @memcmp(i8* %142, i8* %144, i64 %71) #1
  %167 = icmp eq i32 %166, 0
  br i1 %167, label %168, label %169

; <label>:168:                                    ; preds = %153, %165, %152, %146
  tail call void @_ZNSt3__112basic_stringIcNS_11char_traitsIcEENS_9allocatorIcEEEC1ERKS5_(%"class.std::__1::basic_string"* %0, %"class.std::__1::basic_string"* nonnull dereferenceable(24) @_ZL18kEmptyMetadataFile) #1
  br label %595

; <label>:169:                                    ; preds = %160, %147, %132, %165
  %170 = bitcast %"class.std::__1::basic_string"* %7 to i8*
  call void @llvm.lifetime.start.p0i8(i64 24, i8* nonnull %170) #1
  %171 = shl i64 %133, 32
  %172 = ashr exact i64 %171, 32
  %173 = bitcast %"class.std::__1::basic_string"* %19 to %"class.std::__1::allocator"*
  call void @_ZNSt3__112basic_stringIcNS_11char_traitsIcEENS_9allocatorIcEEEC1ERKS5_mmRKS4_(%"class.std::__1::basic_string"* nonnull %7, %"class.std::__1::basic_string"* dereferenceable(24) %19, i64 0, i64 %172, %"class.std::__1::allocator"* nonnull dereferenceable(1) %173) #1
  %174 = bitcast %"class.std::__1::basic_string"* %6 to %"struct.std::__1::basic_string<char, std::__1::char_traits<char>, std::__1::allocator<char> >::__short"*
  %175 = getelementptr inbounds %"struct.std::__1::basic_string<char, std::__1::char_traits<char>, std::__1::allocator<char> >::__short", %"struct.std::__1::basic_string<char, std::__1::char_traits<char>, std::__1::allocator<char> >::__short"* %174, i64 0, i32 1, i32 0
  %176 = load i8, i8* %175, align 1
  %177 = icmp slt i8 %176, 0
  br i1 %177, label %179, label %178

; <label>:178:                                    ; preds = %169
  store i8 0, i8* %107, align 8
  store i8 0, i8* %175, align 1
  br label %188

; <label>:179:                                    ; preds = %169
  %180 = getelementptr inbounds %"class.std::__1::basic_string", %"class.std::__1::basic_string"* %6, i64 0, i32 0, i32 0, i32 0, i32 0, i32 0, i32 0
  %181 = load i8*, i8** %180, align 8
  store i8 0, i8* %181, align 1
  %182 = getelementptr inbounds %"class.std::__1::basic_string", %"class.std::__1::basic_string"* %6, i64 0, i32 0, i32 0, i32 0, i32 0, i32 0, i32 1
  store i64 0, i64* %182, align 8
  %183 = load i8, i8* %175, align 1
  %184 = icmp slt i8 %183, 0
  br i1 %184, label %185, label %188

; <label>:185:                                    ; preds = %179
  %186 = load i8*, i8** %180, align 8
  call void @_ZdlPv(i8* %186) #15
  %187 = getelementptr inbounds %"class.std::__1::basic_string", %"class.std::__1::basic_string"* %6, i64 0, i32 0, i32 0, i32 0, i32 0, i32 0, i32 2
  store i64 0, i64* %187, align 8
  br label %188

; <label>:188:                                    ; preds = %178, %179, %185
  call void @llvm.memcpy.p0i8.p0i8.i64(i8* nonnull align 8 %107, i8* nonnull align 8 %170, i64 24, i1 false) #1
  %189 = getelementptr inbounds %"class.google::protobuf::FileDescriptor", %"class.google::protobuf::FileDescriptor"* %1, i64 0, i32 22
  %190 = load %"class.google::protobuf::FileOptions"*, %"class.google::protobuf::FileOptions"** %189, align 8
  %191 = getelementptr inbounds %"class.google::protobuf::FileOptions", %"class.google::protobuf::FileOptions"* %190, i64 0, i32 3, i32 0, i64 0
  %192 = load i32, i32* %191, align 4
  call void @llvm.lifetime.end.p0i8(i64 24, i8* nonnull %170) #1
  %193 = and i32 %192, 256
  %194 = icmp eq i32 %193, 0
  br i1 %194, label %369, label %195

; <label>:195:                                    ; preds = %188
  %196 = getelementptr inbounds %"class.google::protobuf::FileOptions", %"class.google::protobuf::FileOptions"* %190, i64 0, i32 14, i32 0
  %197 = load %"class.std::__1::basic_string"*, %"class.std::__1::basic_string"** %196, align 8
  %198 = bitcast %"class.std::__1::basic_string"* %197 to %"struct.std::__1::basic_string<char, std::__1::char_traits<char>, std::__1::allocator<char> >::__short"*
  %199 = getelementptr inbounds %"struct.std::__1::basic_string<char, std::__1::char_traits<char>, std::__1::allocator<char> >::__short", %"struct.std::__1::basic_string<char, std::__1::char_traits<char>, std::__1::allocator<char> >::__short"* %198, i64 0, i32 1, i32 0
  %200 = load i8, i8* %199, align 1
  %201 = icmp slt i8 %200, 0
  %202 = getelementptr inbounds %"class.std::__1::basic_string", %"class.std::__1::basic_string"* %197, i64 0, i32 0, i32 0, i32 0, i32 0, i32 0, i32 1
  %203 = load i64, i64* %202, align 8
  %204 = zext i8 %200 to i64
  %205 = select i1 %201, i64 %203, i64 %204
  %206 = icmp eq i64 %205, 0
  br i1 %206, label %207, label %214

; <label>:207:                                    ; preds = %195
  %208 = call i32 @_ZNKSt3__112basic_stringIcNS_11char_traitsIcEENS_9allocatorIcEEE7compareEmmPKcm(%"class.std::__1::basic_string"* nonnull %197, i64 0, i64 -1, i8* getelementptr inbounds ([1 x i8], [1 x i8]* @.str.14, i64 0, i64 0), i64 0) #1
  %209 = icmp eq i32 %208, 0
  br i1 %209, label %481, label %210

; <label>:210:                                    ; preds = %207
  %211 = load i8, i8* %199, align 1
  %212 = load i64, i64* %202, align 8
  %213 = zext i8 %211 to i64
  br label %214

; <label>:214:                                    ; preds = %210, %195
  %215 = phi i64 [ %213, %210 ], [ %204, %195 ]
  %216 = phi i64 [ %212, %210 ], [ %203, %195 ]
  %217 = phi i8 [ %211, %210 ], [ %200, %195 ]
  %218 = icmp slt i8 %217, 0
  %219 = select i1 %218, i64 %216, i64 %215
  %220 = icmp eq i64 %219, 1
  br i1 %220, label %221, label %228

; <label>:221:                                    ; preds = %214
  %222 = call i32 @_ZNKSt3__112basic_stringIcNS_11char_traitsIcEENS_9allocatorIcEEE7compareEmmPKcm(%"class.std::__1::basic_string"* nonnull %197, i64 0, i64 -1, i8* getelementptr inbounds ([2 x i8], [2 x i8]* @.str.22, i64 0, i64 0), i64 1) #1
  %223 = icmp eq i32 %222, 0
  br i1 %223, label %481, label %224

; <label>:224:                                    ; preds = %221
  %225 = load i8, i8* %199, align 1
  %226 = load i64, i64* %202, align 8
  %227 = zext i8 %225 to i64
  br label %228

; <label>:228:                                    ; preds = %224, %214
  %229 = phi i64 [ %227, %224 ], [ %215, %214 ]
  %230 = phi i64 [ %226, %224 ], [ %216, %214 ]
  %231 = phi i8 [ %225, %224 ], [ %217, %214 ]
  %232 = icmp slt i8 %231, 0
  %233 = getelementptr inbounds %"class.std::__1::basic_string", %"class.std::__1::basic_string"* %197, i64 0, i32 0, i32 0, i32 0, i32 0, i32 0, i32 0
  %234 = load i8*, i8** %233, align 8
  %235 = bitcast %"class.std::__1::basic_string"* %197 to i8*
  %236 = select i1 %232, i8* %234, i8* %235
  %237 = select i1 %232, i64 %230, i64 %229
  %238 = call dereferenceable(24) %"class.std::__1::basic_string"* @_ZNSt3__112basic_stringIcNS_11char_traitsIcEENS_9allocatorIcEEE6appendEPKcm(%"class.std::__1::basic_string"* nonnull %4, i8* %236, i64 %237) #1
  %239 = load i8, i8* %57, align 1
  %240 = icmp slt i8 %239, 0
  %241 = getelementptr inbounds %"class.std::__1::basic_string", %"class.std::__1::basic_string"* %4, i64 0, i32 0, i32 0, i32 0, i32 0, i32 0, i32 0
  %242 = load i8*, i8** %241, align 8
  %243 = getelementptr inbounds %"class.std::__1::basic_string", %"class.std::__1::basic_string"* %4, i64 0, i32 0, i32 0, i32 0, i32 0, i32 0, i32 1
  %244 = load i64, i64* %243, align 8
  %245 = zext i8 %239 to i64
  %246 = select i1 %240, i8* %242, i8* %55
  %247 = select i1 %240, i64 %244, i64 %245
  %248 = getelementptr inbounds i8, i8* %246, i64 %247
  %249 = icmp eq i64 %247, 0
  br i1 %249, label %357, label %250

; <label>:250:                                    ; preds = %228
  %251 = icmp ult i64 %247, 16
  br i1 %251, label %343, label %252

; <label>:252:                                    ; preds = %250
  %253 = and i64 %247, -16
  %254 = getelementptr i8, i8* %246, i64 %253
  br label %255

; <label>:255:                                    ; preds = %338, %252
  %256 = phi i64 [ 0, %252 ], [ %339, %338 ]
  %257 = getelementptr i8, i8* %246, i64 %256
  %258 = bitcast i8* %257 to <16 x i8>*
  %259 = load <16 x i8>, <16 x i8>* %258, align 1
  %260 = icmp eq <16 x i8> %259, <i8 92, i8 92, i8 92, i8 92, i8 92, i8 92, i8 92, i8 92, i8 92, i8 92, i8 92, i8 92, i8 92, i8 92, i8 92, i8 92>
  %261 = extractelement <16 x i1> %260, i32 0
  br i1 %261, label %262, label %263

; <label>:262:                                    ; preds = %255
  store i8 47, i8* %257, align 1
  br label %263

; <label>:263:                                    ; preds = %262, %255
  %264 = extractelement <16 x i1> %260, i32 1
  br i1 %264, label %265, label %268

; <label>:265:                                    ; preds = %263
  %266 = or i64 %256, 1
  %267 = getelementptr i8, i8* %246, i64 %266
  store i8 47, i8* %267, align 1
  br label %268

; <label>:268:                                    ; preds = %265, %263
  %269 = extractelement <16 x i1> %260, i32 2
  br i1 %269, label %270, label %273

; <label>:270:                                    ; preds = %268
  %271 = or i64 %256, 2
  %272 = getelementptr i8, i8* %246, i64 %271
  store i8 47, i8* %272, align 1
  br label %273

; <label>:273:                                    ; preds = %270, %268
  %274 = extractelement <16 x i1> %260, i32 3
  br i1 %274, label %275, label %278

; <label>:275:                                    ; preds = %273
  %276 = or i64 %256, 3
  %277 = getelementptr i8, i8* %246, i64 %276
  store i8 47, i8* %277, align 1
  br label %278

; <label>:278:                                    ; preds = %275, %273
  %279 = extractelement <16 x i1> %260, i32 4
  br i1 %279, label %280, label %283

; <label>:280:                                    ; preds = %278
  %281 = or i64 %256, 4
  %282 = getelementptr i8, i8* %246, i64 %281
  store i8 47, i8* %282, align 1
  br label %283

; <label>:283:                                    ; preds = %280, %278
  %284 = extractelement <16 x i1> %260, i32 5
  br i1 %284, label %285, label %288

; <label>:285:                                    ; preds = %283
  %286 = or i64 %256, 5
  %287 = getelementptr i8, i8* %246, i64 %286
  store i8 47, i8* %287, align 1
  br label %288

; <label>:288:                                    ; preds = %285, %283
  %289 = extractelement <16 x i1> %260, i32 6
  br i1 %289, label %290, label %293

; <label>:290:                                    ; preds = %288
  %291 = or i64 %256, 6
  %292 = getelementptr i8, i8* %246, i64 %291
  store i8 47, i8* %292, align 1
  br label %293

; <label>:293:                                    ; preds = %290, %288
  %294 = extractelement <16 x i1> %260, i32 7
  br i1 %294, label %295, label %298

; <label>:295:                                    ; preds = %293
  %296 = or i64 %256, 7
  %297 = getelementptr i8, i8* %246, i64 %296
  store i8 47, i8* %297, align 1
  br label %298

; <label>:298:                                    ; preds = %295, %293
  %299 = extractelement <16 x i1> %260, i32 8
  br i1 %299, label %300, label %303

; <label>:300:                                    ; preds = %298
  %301 = or i64 %256, 8
  %302 = getelementptr i8, i8* %246, i64 %301
  store i8 47, i8* %302, align 1
  br label %303

; <label>:303:                                    ; preds = %300, %298
  %304 = extractelement <16 x i1> %260, i32 9
  br i1 %304, label %305, label %308

; <label>:305:                                    ; preds = %303
  %306 = or i64 %256, 9
  %307 = getelementptr i8, i8* %246, i64 %306
  store i8 47, i8* %307, align 1
  br label %308

; <label>:308:                                    ; preds = %305, %303
  %309 = extractelement <16 x i1> %260, i32 10
  br i1 %309, label %310, label %313

; <label>:310:                                    ; preds = %308
  %311 = or i64 %256, 10
  %312 = getelementptr i8, i8* %246, i64 %311
  store i8 47, i8* %312, align 1
  br label %313

; <label>:313:                                    ; preds = %310, %308
  %314 = extractelement <16 x i1> %260, i32 11
  br i1 %314, label %315, label %318

; <label>:315:                                    ; preds = %313
  %316 = or i64 %256, 11
  %317 = getelementptr i8, i8* %246, i64 %316
  store i8 47, i8* %317, align 1
  br label %318

; <label>:318:                                    ; preds = %315, %313
  %319 = extractelement <16 x i1> %260, i32 12
  br i1 %319, label %320, label %323

; <label>:320:                                    ; preds = %318
  %321 = or i64 %256, 12
  %322 = getelementptr i8, i8* %246, i64 %321
  store i8 47, i8* %322, align 1
  br label %323

; <label>:323:                                    ; preds = %320, %318
  %324 = extractelement <16 x i1> %260, i32 13
  br i1 %324, label %325, label %328

; <label>:325:                                    ; preds = %323
  %326 = or i64 %256, 13
  %327 = getelementptr i8, i8* %246, i64 %326
  store i8 47, i8* %327, align 1
  br label %328

; <label>:328:                                    ; preds = %325, %323
  %329 = extractelement <16 x i1> %260, i32 14
  br i1 %329, label %330, label %333

; <label>:330:                                    ; preds = %328
  %331 = or i64 %256, 14
  %332 = getelementptr i8, i8* %246, i64 %331
  store i8 47, i8* %332, align 1
  br label %333

; <label>:333:                                    ; preds = %330, %328
  %334 = extractelement <16 x i1> %260, i32 15
  br i1 %334, label %335, label %338

; <label>:335:                                    ; preds = %333
  %336 = or i64 %256, 15
  %337 = getelementptr i8, i8* %246, i64 %336
  store i8 47, i8* %337, align 1
  br label %338

; <label>:338:                                    ; preds = %335, %333
  %339 = add i64 %256, 16
  %340 = icmp eq i64 %339, %253
  br i1 %340, label %341, label %255, !llvm.loop !53

; <label>:341:                                    ; preds = %338
  %342 = icmp eq i64 %247, %253
  br i1 %342, label %353, label %343

; <label>:343:                                    ; preds = %341, %250
  %344 = phi i8* [ %246, %250 ], [ %254, %341 ]
  br label %345

; <label>:345:                                    ; preds = %343, %350
  %346 = phi i8* [ %351, %350 ], [ %344, %343 ]
  %347 = load i8, i8* %346, align 1
  %348 = icmp eq i8 %347, 92
  br i1 %348, label %349, label %350

; <label>:349:                                    ; preds = %345
  store i8 47, i8* %346, align 1
  br label %350

; <label>:350:                                    ; preds = %349, %345
  %351 = getelementptr inbounds i8, i8* %346, i64 1
  %352 = icmp eq i8* %351, %248
  br i1 %352, label %353, label %345, !llvm.loop !55

; <label>:353:                                    ; preds = %350, %341
  %354 = load i8, i8* %57, align 1
  %355 = load i64, i64* %243, align 8
  %356 = zext i8 %354 to i64
  br label %357

; <label>:357:                                    ; preds = %353, %228
  %358 = phi i64 [ %356, %353 ], [ %245, %228 ]
  %359 = phi i64 [ %355, %353 ], [ %244, %228 ]
  %360 = phi i8 [ %354, %353 ], [ %239, %228 ]
  %361 = icmp slt i8 %360, 0
  %362 = select i1 %361, i64 %359, i64 %358
  %363 = add i64 %362, -1
  %364 = call dereferenceable(1) i8* @_ZNSt3__112basic_stringIcNS_11char_traitsIcEENS_9allocatorIcEEE2atEm(%"class.std::__1::basic_string"* nonnull %4, i64 %363) #1
  %365 = load i8, i8* %364, align 1
  %366 = icmp eq i8 %365, 47
  br i1 %366, label %481, label %367

; <label>:367:                                    ; preds = %357
  %368 = call dereferenceable(24) %"class.std::__1::basic_string"* @_ZNSt3__112basic_stringIcNS_11char_traitsIcEENS_9allocatorIcEEE6appendEPKc(%"class.std::__1::basic_string"* nonnull %4, i8* getelementptr inbounds ([2 x i8], [2 x i8]* @.str.20, i64 0, i64 0)) #1
  br label %481

; <label>:369:                                    ; preds = %188
  %370 = call dereferenceable(24) %"class.std::__1::basic_string"* @_ZNSt3__112basic_stringIcNS_11char_traitsIcEENS_9allocatorIcEEE6appendEPKc(%"class.std::__1::basic_string"* nonnull %4, i8* getelementptr inbounds ([13 x i8], [13 x i8]* @.str.23, i64 0, i64 0)) #1
  %371 = icmp eq i32 %54, -1
  br i1 %371, label %481, label %372

; <label>:372:                                    ; preds = %369
  %373 = bitcast %"class.std::__1::basic_string"* %8 to i8*
  %374 = bitcast %"class.std::__1::basic_string"* %9 to i8*
  %375 = bitcast %"class.std::__1::basic_string"* %6 to %"class.std::__1::allocator"*
  %376 = getelementptr inbounds %"class.std::__1::basic_string", %"class.std::__1::basic_string"* %5, i64 0, i32 0, i32 0, i32 0, i32 0, i32 0, i32 0
  %377 = getelementptr inbounds %"class.std::__1::basic_string", %"class.std::__1::basic_string"* %5, i64 0, i32 0, i32 0, i32 0, i32 0, i32 0, i32 1
  %378 = getelementptr inbounds %"class.std::__1::basic_string", %"class.std::__1::basic_string"* %5, i64 0, i32 0, i32 0, i32 0, i32 0, i32 0, i32 2
  %379 = bitcast %"class.std::__1::basic_string"* %9 to %"struct.std::__1::basic_string<char, std::__1::char_traits<char>, std::__1::allocator<char> >::__short"*
  %380 = getelementptr inbounds %"struct.std::__1::basic_string<char, std::__1::char_traits<char>, std::__1::allocator<char> >::__short", %"struct.std::__1::basic_string<char, std::__1::char_traits<char>, std::__1::allocator<char> >::__short"* %379, i64 0, i32 1, i32 0
  %381 = getelementptr inbounds %"class.std::__1::basic_string", %"class.std::__1::basic_string"* %9, i64 0, i32 0, i32 0, i32 0, i32 0, i32 0, i32 0
  %382 = bitcast %"class.std::__1::basic_string"* %10 to i8*
  %383 = bitcast %"class.std::__1::basic_string"* %11 to i8*
  %384 = bitcast %"class.std::__1::basic_string"* %12 to i8*
  %385 = bitcast %"class.std::__1::basic_string"* %10 to %"struct.std::__1::basic_string<char, std::__1::char_traits<char>, std::__1::allocator<char> >::__short"*
  %386 = getelementptr inbounds %"struct.std::__1::basic_string<char, std::__1::char_traits<char>, std::__1::allocator<char> >::__short", %"struct.std::__1::basic_string<char, std::__1::char_traits<char>, std::__1::allocator<char> >::__short"* %385, i64 0, i32 1, i32 0
  %387 = getelementptr inbounds %"class.std::__1::basic_string", %"class.std::__1::basic_string"* %10, i64 0, i32 0, i32 0, i32 0, i32 0, i32 0, i32 0
  %388 = getelementptr inbounds %"class.std::__1::basic_string", %"class.std::__1::basic_string"* %10, i64 0, i32 0, i32 0, i32 0, i32 0, i32 0, i32 1
  %389 = bitcast %"class.std::__1::basic_string"* %11 to %"struct.std::__1::basic_string<char, std::__1::char_traits<char>, std::__1::allocator<char> >::__short"*
  %390 = getelementptr inbounds %"struct.std::__1::basic_string<char, std::__1::char_traits<char>, std::__1::allocator<char> >::__short", %"struct.std::__1::basic_string<char, std::__1::char_traits<char>, std::__1::allocator<char> >::__short"* %389, i64 0, i32 1, i32 0
  %391 = getelementptr inbounds %"class.std::__1::basic_string", %"class.std::__1::basic_string"* %11, i64 0, i32 0, i32 0, i32 0, i32 0, i32 0, i32 0
  %392 = bitcast %"class.std::__1::basic_string"* %12 to %"struct.std::__1::basic_string<char, std::__1::char_traits<char>, std::__1::allocator<char> >::__short"*
  %393 = getelementptr inbounds %"struct.std::__1::basic_string<char, std::__1::char_traits<char>, std::__1::allocator<char> >::__short", %"struct.std::__1::basic_string<char, std::__1::char_traits<char>, std::__1::allocator<char> >::__short"* %392, i64 0, i32 1, i32 0
  %394 = getelementptr inbounds %"class.std::__1::basic_string", %"class.std::__1::basic_string"* %12, i64 0, i32 0, i32 0, i32 0, i32 0, i32 0, i32 0
  %395 = getelementptr inbounds %"class.std::__1::basic_string", %"class.std::__1::basic_string"* %6, i64 0, i32 0, i32 0, i32 0, i32 0, i32 0, i32 0
  %396 = getelementptr inbounds %"class.std::__1::basic_string", %"class.std::__1::basic_string"* %6, i64 0, i32 0, i32 0, i32 0, i32 0, i32 0, i32 1
  br label %397

; <label>:397:                                    ; preds = %372, %472
  %398 = phi i32 [ 0, %372 ], [ %452, %472 ]
  %399 = phi i32 [ %54, %372 ], [ %479, %472 ]
  call void @llvm.lifetime.start.p0i8(i64 24, i8* nonnull %373) #1
  call void @llvm.lifetime.start.p0i8(i64 24, i8* nonnull %374) #1
  %400 = sext i32 %398 to i64
  %401 = sub nsw i32 %399, %398
  %402 = sext i32 %401 to i64
  call void @_ZNSt3__112basic_stringIcNS_11char_traitsIcEENS_9allocatorIcEEEC1ERKS5_mmRKS4_(%"class.std::__1::basic_string"* nonnull %9, %"class.std::__1::basic_string"* nonnull dereferenceable(24) %6, i64 %400, i64 %402, %"class.std::__1::allocator"* nonnull dereferenceable(1) %375) #1
  call void @_ZN6google8protobuf8compiler3php22UnderscoresToCamelCaseERKNSt3__112basic_stringIcNS3_11char_traitsIcEENS3_9allocatorIcEEEEb(%"class.std::__1::basic_string"* nonnull sret %8, %"class.std::__1::basic_string"* nonnull dereferenceable(24) %9, i1 zeroext true)
  %403 = load i8, i8* %60, align 1
  %404 = icmp slt i8 %403, 0
  br i1 %404, label %406, label %405

; <label>:405:                                    ; preds = %397
  store i8 0, i8* %58, align 8
  store i8 0, i8* %60, align 1
  br label %412

; <label>:406:                                    ; preds = %397
  %407 = load i8*, i8** %376, align 8
  store i8 0, i8* %407, align 1
  store i64 0, i64* %377, align 8
  %408 = load i8, i8* %60, align 1
  %409 = icmp slt i8 %408, 0
  br i1 %409, label %410, label %412

; <label>:410:                                    ; preds = %406
  %411 = load i8*, i8** %376, align 8
  call void @_ZdlPv(i8* %411) #15
  store i64 0, i64* %378, align 8
  br label %412

; <label>:412:                                    ; preds = %405, %406, %410
  call void @llvm.memcpy.p0i8.p0i8.i64(i8* nonnull align 8 %58, i8* nonnull align 8 %373, i64 24, i1 false) #1
  call void @llvm.memset.p0i8.i64(i8* nonnull align 8 %373, i8 0, i64 24, i1 false) #1
  %413 = load i8, i8* %380, align 1
  %414 = icmp slt i8 %413, 0
  br i1 %414, label %415, label %417

; <label>:415:                                    ; preds = %412
  %416 = load i8*, i8** %381, align 8
  call void @_ZdlPv(i8* %416) #15
  br label %417

; <label>:417:                                    ; preds = %412, %415
  call void @llvm.lifetime.end.p0i8(i64 24, i8* nonnull %374) #1
  call void @llvm.lifetime.end.p0i8(i64 24, i8* nonnull %373) #1
  call void @llvm.lifetime.start.p0i8(i64 24, i8* nonnull %382) #1
  call void @llvm.lifetime.start.p0i8(i64 24, i8* nonnull %383) #1
  call void @llvm.lifetime.start.p0i8(i64 24, i8* nonnull %384) #1
  call void @_ZN6google8protobuf8compiler3php18ReservedNamePrefixERKNSt3__112basic_stringIcNS3_11char_traitsIcEENS3_9allocatorIcEEEEPKNS0_14FileDescriptorE(%"class.std::__1::basic_string"* nonnull sret %12, %"class.std::__1::basic_string"* nonnull dereferenceable(24) %5, %"class.google::protobuf::FileDescriptor"* %1)
  %418 = load i8, i8* %60, align 1, !noalias !57
  %419 = icmp slt i8 %418, 0
  %420 = load i8*, i8** %376, align 8, !noalias !57
  %421 = load i64, i64* %377, align 8, !noalias !57
  %422 = zext i8 %418 to i64
  %423 = select i1 %419, i8* %420, i8* %58
  %424 = select i1 %419, i64 %421, i64 %422
  %425 = call dereferenceable(24) %"class.std::__1::basic_string"* @_ZNSt3__112basic_stringIcNS_11char_traitsIcEENS_9allocatorIcEEE6appendEPKcm(%"class.std::__1::basic_string"* nonnull %12, i8* %423, i64 %424) #1, !noalias !57
  %426 = bitcast %"class.std::__1::basic_string"* %425 to i8*
  call void @llvm.memcpy.p0i8.p0i8.i64(i8* nonnull align 8 %383, i8* nonnull align 8 %426, i64 24, i1 false) #1
  call void @llvm.memset.p0i8.i64(i8* nonnull align 8 %426, i8 0, i64 24, i1 false) #1, !noalias !57
  %427 = call dereferenceable(24) %"class.std::__1::basic_string"* @_ZNSt3__112basic_stringIcNS_11char_traitsIcEENS_9allocatorIcEEE6appendEPKc(%"class.std::__1::basic_string"* nonnull %11, i8* getelementptr inbounds ([2 x i8], [2 x i8]* @.str.20, i64 0, i64 0)) #1, !noalias !60
  %428 = bitcast %"class.std::__1::basic_string"* %427 to i8*
  call void @llvm.memcpy.p0i8.p0i8.i64(i8* nonnull align 8 %382, i8* nonnull align 8 %428, i64 24, i1 false) #1
  call void @llvm.memset.p0i8.i64(i8* nonnull align 8 %428, i8 0, i64 24, i1 false) #1, !noalias !60
  %429 = load i8, i8* %386, align 1
  %430 = icmp slt i8 %429, 0
  %431 = load i8*, i8** %387, align 8
  %432 = load i64, i64* %388, align 8
  %433 = zext i8 %429 to i64
  %434 = select i1 %430, i8* %431, i8* %382
  %435 = select i1 %430, i64 %432, i64 %433
  %436 = call dereferenceable(24) %"class.std::__1::basic_string"* @_ZNSt3__112basic_stringIcNS_11char_traitsIcEENS_9allocatorIcEEE6appendEPKcm(%"class.std::__1::basic_string"* nonnull %4, i8* %434, i64 %435) #1
  %437 = load i8, i8* %386, align 1
  %438 = icmp slt i8 %437, 0
  br i1 %438, label %439, label %441

; <label>:439:                                    ; preds = %417
  %440 = load i8*, i8** %387, align 8
  call void @_ZdlPv(i8* %440) #15
  br label %441

; <label>:441:                                    ; preds = %417, %439
  %442 = load i8, i8* %390, align 1
  %443 = icmp slt i8 %442, 0
  br i1 %443, label %444, label %446

; <label>:444:                                    ; preds = %441
  %445 = load i8*, i8** %391, align 8
  call void @_ZdlPv(i8* %445) #15
  br label %446

; <label>:446:                                    ; preds = %441, %444
  %447 = load i8, i8* %393, align 1
  %448 = icmp slt i8 %447, 0
  br i1 %448, label %449, label %451

; <label>:449:                                    ; preds = %446
  %450 = load i8*, i8** %394, align 8
  call void @_ZdlPv(i8* %450) #15
  br label %451

; <label>:451:                                    ; preds = %446, %449
  call void @llvm.lifetime.end.p0i8(i64 24, i8* nonnull %384) #1
  call void @llvm.lifetime.end.p0i8(i64 24, i8* nonnull %383) #1
  call void @llvm.lifetime.end.p0i8(i64 24, i8* nonnull %382) #1
  %452 = add nsw i32 %399, 1
  %453 = sext i32 %452 to i64
  %454 = load i8, i8* %175, align 1
  %455 = icmp slt i8 %454, 0
  %456 = load i8*, i8** %395, align 8
  %457 = load i64, i64* %396, align 8
  %458 = zext i8 %454 to i64
  %459 = select i1 %455, i8* %456, i8* %107
  %460 = select i1 %455, i64 %457, i64 %458
  %461 = icmp ugt i64 %460, %453
  br i1 %461, label %462, label %481

; <label>:462:                                    ; preds = %451
  %463 = getelementptr inbounds i8, i8* %459, i64 %453
  %464 = getelementptr inbounds i8, i8* %459, i64 %460
  br label %465

; <label>:465:                                    ; preds = %469, %462
  %466 = phi i8* [ %463, %462 ], [ %470, %469 ]
  %467 = load i8, i8* %466, align 1
  %468 = icmp eq i8 %467, 47
  br i1 %468, label %472, label %469

; <label>:469:                                    ; preds = %465
  %470 = getelementptr inbounds i8, i8* %466, i64 1
  %471 = icmp eq i8* %470, %464
  br i1 %471, label %472, label %465

; <label>:472:                                    ; preds = %465, %469
  %473 = phi i8* [ %466, %465 ], [ %464, %469 ]
  %474 = icmp eq i8* %473, %464
  %475 = ptrtoint i8* %473 to i64
  %476 = ptrtoint i8* %459 to i64
  %477 = sub i64 %475, %476
  %478 = trunc i64 %477 to i32
  %479 = select i1 %474, i32 -1, i32 %478
  %480 = icmp eq i32 %479, -1
  br i1 %480, label %481, label %397

; <label>:481:                                    ; preds = %451, %472, %369, %207, %221, %367, %357
  %482 = phi i32 [ %54, %357 ], [ %54, %367 ], [ %54, %221 ], [ %54, %207 ], [ -1, %369 ], [ -1, %472 ], [ -1, %451 ]
  %483 = load i8, i8* %175, align 1
  %484 = icmp slt i8 %483, 0
  %485 = getelementptr inbounds %"class.std::__1::basic_string", %"class.std::__1::basic_string"* %6, i64 0, i32 0, i32 0, i32 0, i32 0, i32 0, i32 0
  %486 = load i8*, i8** %485, align 8
  %487 = select i1 %484, i8* %486, i8* %107
  %488 = getelementptr inbounds %"class.std::__1::basic_string", %"class.std::__1::basic_string"* %6, i64 0, i32 0, i32 0, i32 0, i32 0, i32 0, i32 1
  %489 = load i64, i64* %488, align 8
  %490 = zext i8 %483 to i64
  %491 = select i1 %484, i64 %489, i64 %490
  %492 = getelementptr inbounds i8, i8* %487, i64 %491
  br label %493

; <label>:493:                                    ; preds = %496, %481
  %494 = phi i8* [ %492, %481 ], [ %497, %496 ]
  %495 = icmp eq i8* %494, %487
  br i1 %495, label %504, label %496

; <label>:496:                                    ; preds = %493
  %497 = getelementptr inbounds i8, i8* %494, i64 -1
  %498 = load i8, i8* %497, align 1
  %499 = icmp eq i8 %498, 47
  br i1 %499, label %500, label %493

; <label>:500:                                    ; preds = %496
  %501 = ptrtoint i8* %497 to i64
  %502 = ptrtoint i8* %487 to i64
  %503 = sub i64 %501, %502
  br label %504

; <label>:504:                                    ; preds = %493, %500
  %505 = phi i64 [ %503, %500 ], [ -1, %493 ]
  %506 = and i64 %505, 4294967295
  %507 = icmp eq i64 %506, 4294967295
  %508 = trunc i64 %505 to i32
  %509 = add nsw i32 %508, 1
  %510 = select i1 %507, i32 0, i32 %509
  %511 = bitcast %"class.std::__1::basic_string"* %13 to i8*
  call void @llvm.lifetime.start.p0i8(i64 24, i8* nonnull %511) #1
  %512 = bitcast %"class.std::__1::basic_string"* %14 to i8*
  call void @llvm.lifetime.start.p0i8(i64 24, i8* nonnull %512) #1
  %513 = sext i32 %510 to i64
  %514 = sub nsw i32 %482, %510
  %515 = sext i32 %514 to i64
  %516 = bitcast %"class.std::__1::basic_string"* %6 to %"class.std::__1::allocator"*
  call void @_ZNSt3__112basic_stringIcNS_11char_traitsIcEENS_9allocatorIcEEEC1ERKS5_mmRKS4_(%"class.std::__1::basic_string"* nonnull %14, %"class.std::__1::basic_string"* nonnull dereferenceable(24) %6, i64 %513, i64 %515, %"class.std::__1::allocator"* nonnull dereferenceable(1) %516) #1
  call void @_ZN6google8protobuf8compiler3php22UnderscoresToCamelCaseERKNSt3__112basic_stringIcNS3_11char_traitsIcEENS3_9allocatorIcEEEEb(%"class.std::__1::basic_string"* nonnull sret %13, %"class.std::__1::basic_string"* nonnull dereferenceable(24) %14, i1 zeroext true)
  %517 = load i8, i8* %60, align 1
  %518 = icmp slt i8 %517, 0
  br i1 %518, label %520, label %519

; <label>:519:                                    ; preds = %504
  store i8 0, i8* %58, align 8
  store i8 0, i8* %60, align 1
  br label %529

; <label>:520:                                    ; preds = %504
  %521 = getelementptr inbounds %"class.std::__1::basic_string", %"class.std::__1::basic_string"* %5, i64 0, i32 0, i32 0, i32 0, i32 0, i32 0, i32 0
  %522 = load i8*, i8** %521, align 8
  store i8 0, i8* %522, align 1
  %523 = getelementptr inbounds %"class.std::__1::basic_string", %"class.std::__1::basic_string"* %5, i64 0, i32 0, i32 0, i32 0, i32 0, i32 0, i32 1
  store i64 0, i64* %523, align 8
  %524 = load i8, i8* %60, align 1
  %525 = icmp slt i8 %524, 0
  br i1 %525, label %526, label %529

; <label>:526:                                    ; preds = %520
  %527 = load i8*, i8** %521, align 8
  call void @_ZdlPv(i8* %527) #15
  %528 = getelementptr inbounds %"class.std::__1::basic_string", %"class.std::__1::basic_string"* %5, i64 0, i32 0, i32 0, i32 0, i32 0, i32 0, i32 2
  store i64 0, i64* %528, align 8
  br label %529

; <label>:529:                                    ; preds = %519, %520, %526
  call void @llvm.memcpy.p0i8.p0i8.i64(i8* nonnull align 8 %58, i8* nonnull align 8 %511, i64 24, i1 false) #1
  call void @llvm.memset.p0i8.i64(i8* nonnull align 8 %511, i8 0, i64 24, i1 false) #1
  %530 = bitcast %"class.std::__1::basic_string"* %14 to %"struct.std::__1::basic_string<char, std::__1::char_traits<char>, std::__1::allocator<char> >::__short"*
  %531 = getelementptr inbounds %"struct.std::__1::basic_string<char, std::__1::char_traits<char>, std::__1::allocator<char> >::__short", %"struct.std::__1::basic_string<char, std::__1::char_traits<char>, std::__1::allocator<char> >::__short"* %530, i64 0, i32 1, i32 0
  %532 = load i8, i8* %531, align 1
  %533 = icmp slt i8 %532, 0
  br i1 %533, label %534, label %537

; <label>:534:                                    ; preds = %529
  %535 = getelementptr inbounds %"class.std::__1::basic_string", %"class.std::__1::basic_string"* %14, i64 0, i32 0, i32 0, i32 0, i32 0, i32 0, i32 0
  %536 = load i8*, i8** %535, align 8
  call void @_ZdlPv(i8* %536) #15
  br label %537

; <label>:537:                                    ; preds = %529, %534
  call void @llvm.lifetime.end.p0i8(i64 24, i8* nonnull %512) #1
  call void @llvm.lifetime.end.p0i8(i64 24, i8* nonnull %511) #1
  %538 = bitcast %"class.std::__1::basic_string"* %15 to i8*
  call void @llvm.lifetime.start.p0i8(i64 24, i8* nonnull %538) #1
  %539 = bitcast %"class.std::__1::basic_string"* %16 to i8*
  call void @llvm.lifetime.start.p0i8(i64 24, i8* nonnull %539) #1
  %540 = bitcast %"class.std::__1::basic_string"* %17 to i8*
  call void @llvm.lifetime.start.p0i8(i64 24, i8* nonnull %540) #1
  call void @_ZN6google8protobuf8compiler3php18ReservedNamePrefixERKNSt3__112basic_stringIcNS3_11char_traitsIcEENS3_9allocatorIcEEEEPKNS0_14FileDescriptorE(%"class.std::__1::basic_string"* nonnull sret %17, %"class.std::__1::basic_string"* nonnull dereferenceable(24) %5, %"class.google::protobuf::FileDescriptor"* %1)
  %541 = load i8, i8* %57, align 1, !noalias !63
  %542 = icmp slt i8 %541, 0
  %543 = getelementptr inbounds %"class.std::__1::basic_string", %"class.std::__1::basic_string"* %4, i64 0, i32 0, i32 0, i32 0, i32 0, i32 0, i32 0
  %544 = load i8*, i8** %543, align 8, !noalias !63
  %545 = getelementptr inbounds %"class.std::__1::basic_string", %"class.std::__1::basic_string"* %4, i64 0, i32 0, i32 0, i32 0, i32 0, i32 0, i32 1
  %546 = load i64, i64* %545, align 8, !noalias !63
  %547 = zext i8 %541 to i64
  %548 = select i1 %542, i8* %544, i8* %55
  %549 = select i1 %542, i64 %546, i64 %547
  %550 = call dereferenceable(24) %"class.std::__1::basic_string"* @_ZNSt3__112basic_stringIcNS_11char_traitsIcEENS_9allocatorIcEEE6insertEmPKcm(%"class.std::__1::basic_string"* nonnull %17, i64 0, i8* %548, i64 %549) #1, !noalias !63
  %551 = bitcast %"class.std::__1::basic_string"* %550 to i8*
  call void @llvm.memcpy.p0i8.p0i8.i64(i8* nonnull align 8 %539, i8* nonnull align 8 %551, i64 24, i1 false) #1
  call void @llvm.memset.p0i8.i64(i8* nonnull align 8 %551, i8 0, i64 24, i1 false) #1, !noalias !63
  %552 = load i8, i8* %60, align 1, !noalias !66
  %553 = icmp slt i8 %552, 0
  %554 = getelementptr inbounds %"class.std::__1::basic_string", %"class.std::__1::basic_string"* %5, i64 0, i32 0, i32 0, i32 0, i32 0, i32 0, i32 0
  %555 = load i8*, i8** %554, align 8, !noalias !66
  %556 = getelementptr inbounds %"class.std::__1::basic_string", %"class.std::__1::basic_string"* %5, i64 0, i32 0, i32 0, i32 0, i32 0, i32 0, i32 1
  %557 = load i64, i64* %556, align 8, !noalias !66
  %558 = zext i8 %552 to i64
  %559 = select i1 %553, i8* %555, i8* %58
  %560 = select i1 %553, i64 %557, i64 %558
  %561 = call dereferenceable(24) %"class.std::__1::basic_string"* @_ZNSt3__112basic_stringIcNS_11char_traitsIcEENS_9allocatorIcEEE6appendEPKcm(%"class.std::__1::basic_string"* nonnull %16, i8* %559, i64 %560) #1, !noalias !66
  %562 = bitcast %"class.std::__1::basic_string"* %561 to i8*
  call void @llvm.memcpy.p0i8.p0i8.i64(i8* nonnull align 8 %538, i8* nonnull align 8 %562, i64 24, i1 false) #1
  call void @llvm.memset.p0i8.i64(i8* nonnull align 8 %562, i8 0, i64 24, i1 false) #1, !noalias !66
  %563 = call dereferenceable(24) %"class.std::__1::basic_string"* @_ZNSt3__112basic_stringIcNS_11char_traitsIcEENS_9allocatorIcEEE6appendEPKc(%"class.std::__1::basic_string"* nonnull %15, i8* getelementptr inbounds ([5 x i8], [5 x i8]* @.str.24, i64 0, i64 0)) #1, !noalias !69
  %564 = bitcast %"class.std::__1::basic_string"* %0 to i8*
  %565 = bitcast %"class.std::__1::basic_string"* %563 to i8*
  call void @llvm.memcpy.p0i8.p0i8.i64(i8* align 8 %564, i8* nonnull align 8 %565, i64 24, i1 false) #1
  call void @llvm.memset.p0i8.i64(i8* nonnull align 8 %565, i8 0, i64 24, i1 false) #1, !noalias !69
  %566 = bitcast %"class.std::__1::basic_string"* %15 to %"struct.std::__1::basic_string<char, std::__1::char_traits<char>, std::__1::allocator<char> >::__short"*
  %567 = getelementptr inbounds %"struct.std::__1::basic_string<char, std::__1::char_traits<char>, std::__1::allocator<char> >::__short", %"struct.std::__1::basic_string<char, std::__1::char_traits<char>, std::__1::allocator<char> >::__short"* %566, i64 0, i32 1, i32 0
  %568 = load i8, i8* %567, align 1
  %569 = icmp slt i8 %568, 0
  br i1 %569, label %570, label %573

; <label>:570:                                    ; preds = %537
  %571 = getelementptr inbounds %"class.std::__1::basic_string", %"class.std::__1::basic_string"* %15, i64 0, i32 0, i32 0, i32 0, i32 0, i32 0, i32 0
  %572 = load i8*, i8** %571, align 8
  call void @_ZdlPv(i8* %572) #15
  br label %573

; <label>:573:                                    ; preds = %537, %570
  %574 = bitcast %"class.std::__1::basic_string"* %16 to %"struct.std::__1::basic_string<char, std::__1::char_traits<char>, std::__1::allocator<char> >::__short"*
  %575 = getelementptr inbounds %"struct.std::__1::basic_string<char, std::__1::char_traits<char>, std::__1::allocator<char> >::__short", %"struct.std::__1::basic_string<char, std::__1::char_traits<char>, std::__1::allocator<char> >::__short"* %574, i64 0, i32 1, i32 0
  %576 = load i8, i8* %575, align 1
  %577 = icmp slt i8 %576, 0
  br i1 %577, label %578, label %581

; <label>:578:                                    ; preds = %573
  %579 = getelementptr inbounds %"class.std::__1::basic_string", %"class.std::__1::basic_string"* %16, i64 0, i32 0, i32 0, i32 0, i32 0, i32 0, i32 0
  %580 = load i8*, i8** %579, align 8
  call void @_ZdlPv(i8* %580) #15
  br label %581

; <label>:581:                                    ; preds = %573, %578
  %582 = bitcast %"class.std::__1::basic_string"* %17 to %"struct.std::__1::basic_string<char, std::__1::char_traits<char>, std::__1::allocator<char> >::__short"*
  %583 = getelementptr inbounds %"struct.std::__1::basic_string<char, std::__1::char_traits<char>, std::__1::allocator<char> >::__short", %"struct.std::__1::basic_string<char, std::__1::char_traits<char>, std::__1::allocator<char> >::__short"* %582, i64 0, i32 1, i32 0
  %584 = load i8, i8* %583, align 1
  %585 = icmp slt i8 %584, 0
  br i1 %585, label %586, label %589

; <label>:586:                                    ; preds = %581
  %587 = getelementptr inbounds %"class.std::__1::basic_string", %"class.std::__1::basic_string"* %17, i64 0, i32 0, i32 0, i32 0, i32 0, i32 0, i32 0
  %588 = load i8*, i8** %587, align 8
  call void @_ZdlPv(i8* %588) #15
  br label %589

; <label>:589:                                    ; preds = %586, %581
  call void @llvm.lifetime.end.p0i8(i64 24, i8* nonnull %540) #1
  call void @llvm.lifetime.end.p0i8(i64 24, i8* nonnull %539) #1
  call void @llvm.lifetime.end.p0i8(i64 24, i8* nonnull %538) #1
  %590 = load i8, i8* %175, align 1
  %591 = icmp slt i8 %590, 0
  br i1 %591, label %592, label %595

; <label>:592:                                    ; preds = %589
  %593 = getelementptr inbounds %"class.std::__1::basic_string", %"class.std::__1::basic_string"* %6, i64 0, i32 0, i32 0, i32 0, i32 0, i32 0, i32 0
  %594 = load i8*, i8** %593, align 8
  call void @_ZdlPv(i8* %594) #15
  br label %595

; <label>:595:                                    ; preds = %592, %589, %168
  call void @llvm.lifetime.end.p0i8(i64 24, i8* nonnull %107) #1
  %596 = load i8, i8* %60, align 1
  %597 = icmp slt i8 %596, 0
  br i1 %597, label %598, label %601

; <label>:598:                                    ; preds = %595
  %599 = getelementptr inbounds %"class.std::__1::basic_string", %"class.std::__1::basic_string"* %5, i64 0, i32 0, i32 0, i32 0, i32 0, i32 0, i32 0
  %600 = load i8*, i8** %599, align 8
  call void @_ZdlPv(i8* %600) #15
  br label %601

; <label>:601:                                    ; preds = %103, %105, %595, %598
  call void @llvm.lifetime.end.p0i8(i64 24, i8* nonnull %58) #1
  %602 = load i8, i8* %57, align 1
  %603 = icmp slt i8 %602, 0
  br i1 %603, label %604, label %607

; <label>:604:                                    ; preds = %601
  %605 = getelementptr inbounds %"class.std::__1::basic_string", %"class.std::__1::basic_string"* %4, i64 0, i32 0, i32 0, i32 0, i32 0, i32 0, i32 0
  %606 = load i8*, i8** %605, align 8
  call void @_ZdlPv(i8* %606) #15
  br label %607

; <label>:607:                                    ; preds = %601, %604
  call void @llvm.lifetime.end.p0i8(i64 24, i8* nonnull %55) #1
  ret void
}

declare dereferenceable(1) i8* @_ZNSt3__112basic_stringIcNS_11char_traitsIcEENS_9allocatorIcEEE2atEm(%"class.std::__1::basic_string"*, i64) local_unnamed_addr #4

; Function Attrs: nounwind ssp uwtable
define hidden void @_ZN6google8protobuf8compiler3php22UnderscoresToCamelCaseERKNSt3__112basic_stringIcNS3_11char_traitsIcEENS3_9allocatorIcEEEEb(%"class.std::__1::basic_string"* noalias sret, %"class.std::__1::basic_string"* readonly dereferenceable(24), i1 zeroext) local_unnamed_addr #2 {
  %4 = bitcast %"class.std::__1::basic_string"* %0 to i8*
  tail call void @llvm.memset.p0i8.i64(i8* align 8 %4, i8 0, i64 24, i1 false) #1
  %5 = bitcast %"class.std::__1::basic_string"* %1 to %"struct.std::__1::basic_string<char, std::__1::char_traits<char>, std::__1::allocator<char> >::__short"*
  %6 = getelementptr inbounds %"struct.std::__1::basic_string<char, std::__1::char_traits<char>, std::__1::allocator<char> >::__short", %"struct.std::__1::basic_string<char, std::__1::char_traits<char>, std::__1::allocator<char> >::__short"* %5, i64 0, i32 1, i32 0
  %7 = load i8, i8* %6, align 1
  %8 = icmp slt i8 %7, 0
  %9 = getelementptr inbounds %"class.std::__1::basic_string", %"class.std::__1::basic_string"* %1, i64 0, i32 0, i32 0, i32 0, i32 0, i32 0, i32 1
  %10 = load i64, i64* %9, align 8
  %11 = zext i8 %7 to i64
  %12 = select i1 %8, i64 %10, i64 %11
  %13 = icmp eq i64 %12, 0
  br i1 %13, label %14, label %17

; <label>:14:                                     ; preds = %3
  %15 = getelementptr inbounds %"class.std::__1::basic_string", %"class.std::__1::basic_string"* %1, i64 0, i32 0, i32 0, i32 0, i32 0, i32 0, i32 0
  %16 = bitcast %"class.std::__1::basic_string"* %1 to i8*
  br label %23

; <label>:17:                                     ; preds = %3
  %18 = zext i1 %2 to i8
  %19 = getelementptr inbounds %"class.std::__1::basic_string", %"class.std::__1::basic_string"* %1, i64 0, i32 0, i32 0, i32 0, i32 0, i32 0, i32 0
  %20 = bitcast %"class.std::__1::basic_string"* %1 to i8*
  br label %33

; <label>:21:                                     ; preds = %64
  %22 = add i64 %71, -1
  br label %23

; <label>:23:                                     ; preds = %21, %14
  %24 = phi i8* [ %16, %14 ], [ %20, %21 ]
  %25 = phi i8** [ %15, %14 ], [ %19, %21 ]
  %26 = phi i64 [ -1, %14 ], [ %22, %21 ]
  %27 = phi i1 [ %8, %14 ], [ %68, %21 ]
  %28 = load i8*, i8** %25, align 8
  %29 = select i1 %27, i8* %28, i8* %24
  %30 = getelementptr inbounds i8, i8* %29, i64 %26
  %31 = load i8, i8* %30, align 1
  %32 = icmp eq i8 %31, 35
  br i1 %32, label %73, label %74

; <label>:33:                                     ; preds = %17, %64
  %34 = phi i64 [ 0, %17 ], [ %66, %64 ]
  %35 = phi i1 [ %8, %17 ], [ %68, %64 ]
  %36 = phi i8 [ %18, %17 ], [ %65, %64 ]
  %37 = load i8*, i8** %19, align 8
  %38 = select i1 %35, i8* %37, i8* %20
  %39 = getelementptr inbounds i8, i8* %38, i64 %34
  %40 = load i8, i8* %39, align 1
  %41 = icmp sgt i8 %40, 96
  br i1 %41, label %42, label %49

; <label>:42:                                     ; preds = %33
  %43 = icmp slt i8 %40, 123
  br i1 %43, label %44, label %64

; <label>:44:                                     ; preds = %42
  %45 = icmp eq i8 %36, 0
  br i1 %45, label %48, label %46

; <label>:46:                                     ; preds = %44
  %47 = add i8 %40, -32
  tail call void @_ZNSt3__112basic_stringIcNS_11char_traitsIcEENS_9allocatorIcEEE9push_backEc(%"class.std::__1::basic_string"* %0, i8 signext %47) #1
  br label %64

; <label>:48:                                     ; preds = %44
  tail call void @_ZNSt3__112basic_stringIcNS_11char_traitsIcEENS_9allocatorIcEEE9push_backEc(%"class.std::__1::basic_string"* %0, i8 signext %40) #1
  br label %64

; <label>:49:                                     ; preds = %33
  %50 = icmp sgt i8 %40, 64
  br i1 %50, label %51, label %60

; <label>:51:                                     ; preds = %49
  %52 = icmp slt i8 %40, 91
  br i1 %52, label %53, label %64

; <label>:53:                                     ; preds = %51
  %54 = icmp eq i64 %34, 0
  %55 = icmp eq i8 %36, 0
  %56 = and i1 %54, %55
  br i1 %56, label %57, label %59

; <label>:57:                                     ; preds = %53
  %58 = add i8 %40, 32
  tail call void @_ZNSt3__112basic_stringIcNS_11char_traitsIcEENS_9allocatorIcEEE9push_backEc(%"class.std::__1::basic_string"* %0, i8 signext %58) #1
  br label %64

; <label>:59:                                     ; preds = %53
  tail call void @_ZNSt3__112basic_stringIcNS_11char_traitsIcEENS_9allocatorIcEEE9push_backEc(%"class.std::__1::basic_string"* %0, i8 signext %40) #1
  br label %64

; <label>:60:                                     ; preds = %49
  %61 = add i8 %40, -48
  %62 = icmp ult i8 %61, 10
  br i1 %62, label %63, label %64

; <label>:63:                                     ; preds = %60
  tail call void @_ZNSt3__112basic_stringIcNS_11char_traitsIcEENS_9allocatorIcEEE9push_backEc(%"class.std::__1::basic_string"* %0, i8 signext %40) #1
  br label %64

; <label>:64:                                     ; preds = %51, %42, %60, %57, %59, %46, %48, %63
  %65 = phi i8 [ 1, %63 ], [ 0, %48 ], [ 0, %46 ], [ 0, %59 ], [ 0, %57 ], [ 1, %60 ], [ 1, %42 ], [ 1, %51 ]
  %66 = add nuw i64 %34, 1
  %67 = load i8, i8* %6, align 1
  %68 = icmp slt i8 %67, 0
  %69 = load i64, i64* %9, align 8
  %70 = zext i8 %67 to i64
  %71 = select i1 %68, i64 %69, i64 %70
  %72 = icmp ugt i64 %71, %66
  br i1 %72, label %33, label %21

; <label>:73:                                     ; preds = %23
  tail call void @_ZNSt3__112basic_stringIcNS_11char_traitsIcEENS_9allocatorIcEEE9push_backEc(%"class.std::__1::basic_string"* %0, i8 signext 95) #1
  br label %74

; <label>:74:                                     ; preds = %23, %73
  ret void
}

; Function Attrs: nounwind ssp uwtable
define hidden void @_ZN6google8protobuf8compiler3php24GeneratedServiceFileNameEPKNS0_17ServiceDescriptorEb(%"class.std::__1::basic_string"* noalias sret, %"class.google::protobuf::ServiceDescriptor"*, i1 zeroext) local_unnamed_addr #2 {
  %4 = alloca %"class.std::__1::basic_string", align 8
  %5 = alloca %"class.std::__1::basic_string", align 8
  %6 = bitcast %"class.std::__1::basic_string"* %4 to i8*
  call void @llvm.lifetime.start.p0i8(i64 24, i8* nonnull %6) #1
  %7 = bitcast %"class.std::__1::basic_string"* %5 to i8*
  call void @llvm.lifetime.start.p0i8(i64 24, i8* nonnull %7) #1
  call void @_ZN6google8protobuf8compiler3php13FullClassNameINS0_17ServiceDescriptorEEENSt3__112basic_stringIcNS5_11char_traitsIcEENS5_9allocatorIcEEEEPKT_b(%"class.std::__1::basic_string"* nonnull sret %5, %"class.google::protobuf::ServiceDescriptor"* %1, i1 zeroext %2)
  %8 = call dereferenceable(24) %"class.std::__1::basic_string"* @_ZNSt3__112basic_stringIcNS_11char_traitsIcEENS_9allocatorIcEEE6appendEPKc(%"class.std::__1::basic_string"* nonnull %5, i8* getelementptr inbounds ([10 x i8], [10 x i8]* @.str.25, i64 0, i64 0)) #1, !noalias !72
  %9 = bitcast %"class.std::__1::basic_string"* %8 to i8*
  call void @llvm.memcpy.p0i8.p0i8.i64(i8* nonnull align 8 %6, i8* nonnull align 8 %9, i64 24, i1 false) #1
  call void @llvm.memset.p0i8.i64(i8* nonnull align 8 %9, i8 0, i64 24, i1 false) #1, !noalias !72
  %10 = bitcast %"class.std::__1::basic_string"* %5 to %"struct.std::__1::basic_string<char, std::__1::char_traits<char>, std::__1::allocator<char> >::__short"*
  %11 = getelementptr inbounds %"struct.std::__1::basic_string<char, std::__1::char_traits<char>, std::__1::allocator<char> >::__short", %"struct.std::__1::basic_string<char, std::__1::char_traits<char>, std::__1::allocator<char> >::__short"* %10, i64 0, i32 1, i32 0
  %12 = load i8, i8* %11, align 1
  %13 = icmp slt i8 %12, 0
  br i1 %13, label %14, label %17

; <label>:14:                                     ; preds = %3
  %15 = getelementptr inbounds %"class.std::__1::basic_string", %"class.std::__1::basic_string"* %5, i64 0, i32 0, i32 0, i32 0, i32 0, i32 0, i32 0
  %16 = load i8*, i8** %15, align 8
  call void @_ZdlPv(i8* %16) #15
  br label %17

; <label>:17:                                     ; preds = %3, %14
  call void @llvm.lifetime.end.p0i8(i64 24, i8* nonnull %7) #1
  %18 = bitcast %"class.std::__1::basic_string"* %4 to %"struct.std::__1::basic_string<char, std::__1::char_traits<char>, std::__1::allocator<char> >::__short"*
  %19 = getelementptr inbounds %"struct.std::__1::basic_string<char, std::__1::char_traits<char>, std::__1::allocator<char> >::__short", %"struct.std::__1::basic_string<char, std::__1::char_traits<char>, std::__1::allocator<char> >::__short"* %18, i64 0, i32 1, i32 0
  %20 = load i8, i8* %19, align 1
  %21 = icmp slt i8 %20, 0
  %22 = getelementptr inbounds %"class.std::__1::basic_string", %"class.std::__1::basic_string"* %4, i64 0, i32 0, i32 0, i32 0, i32 0, i32 0, i32 1
  %23 = load i64, i64* %22, align 8
  %24 = zext i8 %20 to i64
  %25 = select i1 %21, i64 %23, i64 %24
  %26 = icmp eq i64 %25, 0
  %27 = getelementptr inbounds %"class.std::__1::basic_string", %"class.std::__1::basic_string"* %4, i64 0, i32 0, i32 0, i32 0, i32 0, i32 0, i32 0
  br i1 %26, label %28, label %73

; <label>:28:                                     ; preds = %17
  %29 = bitcast %"class.std::__1::basic_string"* %0 to i8*
  call void @llvm.memset.p0i8.i64(i8* align 8 %29, i8 0, i64 24, i1 false) #1, !alias.scope !75
  %30 = load i8*, i8** %27, align 8
  %31 = select i1 %21, i8* %30, i8* %6
  br label %42

; <label>:32:                                     ; preds = %86
  %33 = bitcast %"class.std::__1::basic_string"* %0 to i8*
  call void @llvm.memset.p0i8.i64(i8* align 8 %33, i8 0, i64 24, i1 false) #1, !alias.scope !75
  %34 = load i8*, i8** %27, align 8
  %35 = select i1 %90, i8* %34, i8* %6
  %36 = add i64 %92, 4
  %37 = icmp ugt i64 %36, -17
  br i1 %37, label %38, label %40

; <label>:38:                                     ; preds = %32
  %39 = bitcast %"class.std::__1::basic_string"* %0 to %"class.std::__1::__basic_string_common"*
  call void @_ZNKSt3__121__basic_string_commonILb1EE20__throw_length_errorEv(%"class.std::__1::__basic_string_common"* %39) #16
  unreachable

; <label>:40:                                     ; preds = %32
  %41 = icmp ult i64 %36, 23
  br i1 %41, label %42, label %51

; <label>:42:                                     ; preds = %28, %40
  %43 = phi i64 [ 0, %28 ], [ %92, %40 ]
  %44 = phi i1 [ %21, %28 ], [ %90, %40 ]
  %45 = phi i8* [ %29, %28 ], [ %33, %40 ]
  %46 = phi i8* [ %30, %28 ], [ %34, %40 ]
  %47 = phi i8* [ %31, %28 ], [ %35, %40 ]
  %48 = trunc i64 %43 to i8
  %49 = bitcast %"class.std::__1::basic_string"* %0 to %"struct.std::__1::basic_string<char, std::__1::char_traits<char>, std::__1::allocator<char> >::__short"*
  %50 = getelementptr inbounds %"struct.std::__1::basic_string<char, std::__1::char_traits<char>, std::__1::allocator<char> >::__short", %"struct.std::__1::basic_string<char, std::__1::char_traits<char>, std::__1::allocator<char> >::__short"* %49, i64 0, i32 1, i32 0
  store i8 %48, i8* %50, align 1, !alias.scope !75
  br label %59

; <label>:51:                                     ; preds = %40
  %52 = add i64 %92, 20
  %53 = and i64 %52, -16
  %54 = call i8* @_Znwm(i64 %53) #15
  %55 = getelementptr inbounds %"class.std::__1::basic_string", %"class.std::__1::basic_string"* %0, i64 0, i32 0, i32 0, i32 0, i32 0, i32 0, i32 0
  store i8* %54, i8** %55, align 8, !alias.scope !75
  %56 = or i64 %53, -9223372036854775808
  %57 = getelementptr inbounds %"class.std::__1::basic_string", %"class.std::__1::basic_string"* %0, i64 0, i32 0, i32 0, i32 0, i32 0, i32 0, i32 2
  store i64 %56, i64* %57, align 8, !alias.scope !75
  %58 = getelementptr inbounds %"class.std::__1::basic_string", %"class.std::__1::basic_string"* %0, i64 0, i32 0, i32 0, i32 0, i32 0, i32 0, i32 1
  store i64 %92, i64* %58, align 8, !alias.scope !75
  br label %59

; <label>:59:                                     ; preds = %51, %42
  %60 = phi i1 [ %44, %42 ], [ %90, %51 ]
  %61 = phi i8* [ %46, %42 ], [ %34, %51 ]
  %62 = phi i8* [ %47, %42 ], [ %35, %51 ]
  %63 = phi i64 [ %43, %42 ], [ %92, %51 ]
  %64 = phi i8* [ %45, %42 ], [ %54, %51 ]
  %65 = icmp eq i64 %63, 0
  br i1 %65, label %67, label %66

; <label>:66:                                     ; preds = %59
  call void @llvm.memcpy.p0i8.p0i8.i64(i8* nonnull align 1 %64, i8* align 1 %62, i64 %63, i1 false) #1
  br label %67

; <label>:67:                                     ; preds = %59, %66
  %68 = phi i64 [ 0, %59 ], [ %63, %66 ]
  %69 = getelementptr inbounds i8, i8* %64, i64 %68
  store i8 0, i8* %69, align 1
  %70 = call dereferenceable(24) %"class.std::__1::basic_string"* @_ZNSt3__112basic_stringIcNS_11char_traitsIcEENS_9allocatorIcEEE6appendEPKcm(%"class.std::__1::basic_string"* nonnull %0, i8* getelementptr inbounds ([5 x i8], [5 x i8]* @.str.24, i64 0, i64 0), i64 4) #1
  br i1 %60, label %71, label %72

; <label>:71:                                     ; preds = %67
  call void @_ZdlPv(i8* %61) #15
  br label %72

; <label>:72:                                     ; preds = %67, %71
  call void @llvm.lifetime.end.p0i8(i64 24, i8* nonnull %6) #1
  ret void

; <label>:73:                                     ; preds = %17, %86
  %74 = phi i64 [ %87, %86 ], [ %23, %17 ]
  %75 = phi i8 [ %88, %86 ], [ %20, %17 ]
  %76 = phi i64 [ %89, %86 ], [ 0, %17 ]
  %77 = phi i1 [ %90, %86 ], [ %21, %17 ]
  %78 = load i8*, i8** %27, align 8
  %79 = select i1 %77, i8* %78, i8* %6
  %80 = getelementptr inbounds i8, i8* %79, i64 %76
  %81 = load i8, i8* %80, align 1
  %82 = icmp eq i8 %81, 92
  br i1 %82, label %83, label %86

; <label>:83:                                     ; preds = %73
  store i8 47, i8* %80, align 1
  %84 = load i8, i8* %19, align 1
  %85 = load i64, i64* %22, align 8
  br label %86

; <label>:86:                                     ; preds = %73, %83
  %87 = phi i64 [ %74, %73 ], [ %85, %83 ]
  %88 = phi i8 [ %75, %73 ], [ %84, %83 ]
  %89 = add nuw i64 %76, 1
  %90 = icmp slt i8 %88, 0
  %91 = zext i8 %88 to i64
  %92 = select i1 %90, i64 %87, i64 %91
  %93 = icmp ugt i64 %92, %89
  br i1 %93, label %73, label %32
}

; Function Attrs: nounwind ssp uwtable
define linkonce_odr hidden void @_ZN6google8protobuf8compiler3php13FullClassNameINS0_17ServiceDescriptorEEENSt3__112basic_stringIcNS5_11char_traitsIcEENS5_9allocatorIcEEEEPKT_b(%"class.std::__1::basic_string"* noalias sret, %"class.google::protobuf::ServiceDescriptor"*, i1 zeroext) local_unnamed_addr #2 comdat {
  %4 = alloca %"class.std::__1::basic_string", align 8
  %5 = alloca %"class.std::__1::basic_string", align 8
  %6 = alloca %"class.std::__1::basic_string", align 8
  %7 = bitcast %"class.std::__1::basic_string"* %4 to i8*
  call void @llvm.lifetime.start.p0i8(i64 24, i8* nonnull %7) #1
  call void @_ZN6google8protobuf8compiler3php22GeneratedClassNameImplEPKNS0_17ServiceDescriptorE(%"class.std::__1::basic_string"* nonnull sret %4, %"class.google::protobuf::ServiceDescriptor"* %1)
  %8 = bitcast %"class.std::__1::basic_string"* %5 to i8*
  call void @llvm.lifetime.start.p0i8(i64 24, i8* nonnull %8) #1
  call void @_ZN6google8protobuf8compiler3php16RootPhpNamespaceINS0_17ServiceDescriptorEEENSt3__112basic_stringIcNS5_11char_traitsIcEENS5_9allocatorIcEEEEPKT_b(%"class.std::__1::basic_string"* nonnull sret %5, %"class.google::protobuf::ServiceDescriptor"* %1, i1 zeroext %2)
  %9 = bitcast %"class.std::__1::basic_string"* %5 to %"struct.std::__1::basic_string<char, std::__1::char_traits<char>, std::__1::allocator<char> >::__short"*
  %10 = getelementptr inbounds %"struct.std::__1::basic_string<char, std::__1::char_traits<char>, std::__1::allocator<char> >::__short", %"struct.std::__1::basic_string<char, std::__1::char_traits<char>, std::__1::allocator<char> >::__short"* %9, i64 0, i32 1, i32 0
  %11 = load i8, i8* %10, align 1
  %12 = icmp slt i8 %11, 0
  %13 = getelementptr inbounds %"class.std::__1::basic_string", %"class.std::__1::basic_string"* %5, i64 0, i32 0, i32 0, i32 0, i32 0, i32 0, i32 1
  %14 = load i64, i64* %13, align 8
  %15 = zext i8 %11 to i64
  %16 = select i1 %12, i64 %14, i64 %15
  %17 = icmp eq i64 %16, 0
  br i1 %17, label %18, label %25

; <label>:18:                                     ; preds = %3
  %19 = call i32 @_ZNKSt3__112basic_stringIcNS_11char_traitsIcEENS_9allocatorIcEEE7compareEmmPKcm(%"class.std::__1::basic_string"* nonnull %5, i64 0, i64 -1, i8* getelementptr inbounds ([1 x i8], [1 x i8]* @.str.14, i64 0, i64 0), i64 0) #1
  %20 = icmp eq i32 %19, 0
  br i1 %20, label %82, label %21

; <label>:21:                                     ; preds = %18
  %22 = load i8, i8* %10, align 1, !noalias !78
  %23 = load i64, i64* %13, align 8
  %24 = zext i8 %22 to i64
  br label %25

; <label>:25:                                     ; preds = %21, %3
  %26 = phi i64 [ %24, %21 ], [ %15, %3 ]
  %27 = phi i64 [ %23, %21 ], [ %14, %3 ]
  %28 = phi i8 [ %22, %21 ], [ %11, %3 ]
  %29 = bitcast %"class.std::__1::basic_string"* %6 to i8*
  call void @llvm.lifetime.start.p0i8(i64 24, i8* nonnull %29) #1
  call void @llvm.memset.p0i8.i64(i8* nonnull align 8 %29, i8 0, i64 24, i1 false) #1, !alias.scope !78
  %30 = icmp slt i8 %28, 0
  %31 = getelementptr inbounds %"class.std::__1::basic_string", %"class.std::__1::basic_string"* %5, i64 0, i32 0, i32 0, i32 0, i32 0, i32 0, i32 0
  %32 = load i8*, i8** %31, align 8
  %33 = select i1 %30, i64 %27, i64 %26
  %34 = select i1 %30, i8* %32, i8* %8
  %35 = add i64 %33, 1
  %36 = icmp ugt i64 %35, -17
  br i1 %36, label %37, label %39

; <label>:37:                                     ; preds = %25
  %38 = bitcast %"class.std::__1::basic_string"* %6 to %"class.std::__1::__basic_string_common"*
  call void @_ZNKSt3__121__basic_string_commonILb1EE20__throw_length_errorEv(%"class.std::__1::__basic_string_common"* nonnull %38) #16
  unreachable

; <label>:39:                                     ; preds = %25
  %40 = icmp ult i64 %35, 23
  br i1 %40, label %49, label %41

; <label>:41:                                     ; preds = %39
  %42 = add i64 %33, 17
  %43 = and i64 %42, -16
  %44 = call i8* @_Znwm(i64 %43) #15
  %45 = getelementptr inbounds %"class.std::__1::basic_string", %"class.std::__1::basic_string"* %6, i64 0, i32 0, i32 0, i32 0, i32 0, i32 0, i32 0
  store i8* %44, i8** %45, align 8, !alias.scope !78
  %46 = or i64 %43, -9223372036854775808
  %47 = getelementptr inbounds %"class.std::__1::basic_string", %"class.std::__1::basic_string"* %6, i64 0, i32 0, i32 0, i32 0, i32 0, i32 0, i32 2
  store i64 %46, i64* %47, align 8, !alias.scope !78
  %48 = getelementptr inbounds %"class.std::__1::basic_string", %"class.std::__1::basic_string"* %6, i64 0, i32 0, i32 0, i32 0, i32 0, i32 0, i32 1
  store i64 %33, i64* %48, align 8, !alias.scope !78
  br label %54

; <label>:49:                                     ; preds = %39
  %50 = trunc i64 %33 to i8
  %51 = bitcast %"class.std::__1::basic_string"* %6 to %"struct.std::__1::basic_string<char, std::__1::char_traits<char>, std::__1::allocator<char> >::__short"*
  %52 = getelementptr inbounds %"struct.std::__1::basic_string<char, std::__1::char_traits<char>, std::__1::allocator<char> >::__short", %"struct.std::__1::basic_string<char, std::__1::char_traits<char>, std::__1::allocator<char> >::__short"* %51, i64 0, i32 1, i32 0
  store i8 %50, i8* %52, align 1, !alias.scope !78
  %53 = icmp eq i64 %33, 0
  br i1 %53, label %56, label %54

; <label>:54:                                     ; preds = %41, %49
  %55 = phi i8* [ %44, %41 ], [ %29, %49 ]
  call void @llvm.memcpy.p0i8.p0i8.i64(i8* nonnull align 1 %55, i8* align 1 %34, i64 %33, i1 false) #1
  br label %56

; <label>:56:                                     ; preds = %49, %54
  %57 = phi i8* [ %29, %49 ], [ %55, %54 ]
  %58 = getelementptr inbounds i8, i8* %57, i64 %33
  store i8 0, i8* %58, align 1
  %59 = call dereferenceable(24) %"class.std::__1::basic_string"* @_ZNSt3__112basic_stringIcNS_11char_traitsIcEENS_9allocatorIcEEE6appendEPKcm(%"class.std::__1::basic_string"* nonnull %6, i8* getelementptr inbounds ([2 x i8], [2 x i8]* @.str.22, i64 0, i64 0), i64 1) #1
  %60 = bitcast %"class.std::__1::basic_string"* %4 to %"struct.std::__1::basic_string<char, std::__1::char_traits<char>, std::__1::allocator<char> >::__short"*
  %61 = getelementptr inbounds %"struct.std::__1::basic_string<char, std::__1::char_traits<char>, std::__1::allocator<char> >::__short", %"struct.std::__1::basic_string<char, std::__1::char_traits<char>, std::__1::allocator<char> >::__short"* %60, i64 0, i32 1, i32 0
  %62 = load i8, i8* %61, align 1, !noalias !81
  %63 = icmp slt i8 %62, 0
  %64 = getelementptr inbounds %"class.std::__1::basic_string", %"class.std::__1::basic_string"* %4, i64 0, i32 0, i32 0, i32 0, i32 0, i32 0, i32 0
  %65 = load i8*, i8** %64, align 8, !noalias !81
  %66 = getelementptr inbounds %"class.std::__1::basic_string", %"class.std::__1::basic_string"* %4, i64 0, i32 0, i32 0, i32 0, i32 0, i32 0, i32 1
  %67 = load i64, i64* %66, align 8, !noalias !81
  %68 = zext i8 %62 to i64
  %69 = select i1 %63, i8* %65, i8* %7
  %70 = select i1 %63, i64 %67, i64 %68
  %71 = call dereferenceable(24) %"class.std::__1::basic_string"* @_ZNSt3__112basic_stringIcNS_11char_traitsIcEENS_9allocatorIcEEE6appendEPKcm(%"class.std::__1::basic_string"* nonnull %6, i8* %69, i64 %70) #1, !noalias !81
  %72 = bitcast %"class.std::__1::basic_string"* %0 to i8*
  %73 = bitcast %"class.std::__1::basic_string"* %71 to i8*
  call void @llvm.memcpy.p0i8.p0i8.i64(i8* align 8 %72, i8* nonnull align 8 %73, i64 24, i1 false) #1
  call void @llvm.memset.p0i8.i64(i8* nonnull align 8 %73, i8 0, i64 24, i1 false) #1, !noalias !81
  %74 = bitcast %"class.std::__1::basic_string"* %6 to %"struct.std::__1::basic_string<char, std::__1::char_traits<char>, std::__1::allocator<char> >::__short"*
  %75 = getelementptr inbounds %"struct.std::__1::basic_string<char, std::__1::char_traits<char>, std::__1::allocator<char> >::__short", %"struct.std::__1::basic_string<char, std::__1::char_traits<char>, std::__1::allocator<char> >::__short"* %74, i64 0, i32 1, i32 0
  %76 = load i8, i8* %75, align 1
  %77 = icmp slt i8 %76, 0
  br i1 %77, label %78, label %81

; <label>:78:                                     ; preds = %56
  %79 = getelementptr inbounds %"class.std::__1::basic_string", %"class.std::__1::basic_string"* %6, i64 0, i32 0, i32 0, i32 0, i32 0, i32 0, i32 0
  %80 = load i8*, i8** %79, align 8
  call void @_ZdlPv(i8* %80) #15
  br label %81

; <label>:81:                                     ; preds = %56, %78
  call void @llvm.lifetime.end.p0i8(i64 24, i8* nonnull %29) #1
  br label %84

; <label>:82:                                     ; preds = %18
  %83 = bitcast %"class.std::__1::basic_string"* %0 to i8*
  call void @llvm.memcpy.p0i8.p0i8.i64(i8* align 8 %83, i8* nonnull align 8 %7, i64 24, i1 false) #1
  call void @llvm.memset.p0i8.i64(i8* nonnull align 8 %7, i8 0, i64 24, i1 false) #1
  br label %84

; <label>:84:                                     ; preds = %82, %81
  %85 = load i8, i8* %10, align 1
  %86 = icmp slt i8 %85, 0
  br i1 %86, label %87, label %90

; <label>:87:                                     ; preds = %84
  %88 = getelementptr inbounds %"class.std::__1::basic_string", %"class.std::__1::basic_string"* %5, i64 0, i32 0, i32 0, i32 0, i32 0, i32 0, i32 0
  %89 = load i8*, i8** %88, align 8
  call void @_ZdlPv(i8* %89) #15
  br label %90

; <label>:90:                                     ; preds = %84, %87
  call void @llvm.lifetime.end.p0i8(i64 24, i8* nonnull %8) #1
  %91 = bitcast %"class.std::__1::basic_string"* %4 to %"struct.std::__1::basic_string<char, std::__1::char_traits<char>, std::__1::allocator<char> >::__short"*
  %92 = getelementptr inbounds %"struct.std::__1::basic_string<char, std::__1::char_traits<char>, std::__1::allocator<char> >::__short", %"struct.std::__1::basic_string<char, std::__1::char_traits<char>, std::__1::allocator<char> >::__short"* %91, i64 0, i32 1, i32 0
  %93 = load i8, i8* %92, align 1
  %94 = icmp slt i8 %93, 0
  br i1 %94, label %95, label %98

; <label>:95:                                     ; preds = %90
  %96 = getelementptr inbounds %"class.std::__1::basic_string", %"class.std::__1::basic_string"* %4, i64 0, i32 0, i32 0, i32 0, i32 0, i32 0, i32 0
  %97 = load i8*, i8** %96, align 8
  call void @_ZdlPv(i8* %97) #15
  br label %98

; <label>:98:                                     ; preds = %90, %95
  call void @llvm.lifetime.end.p0i8(i64 24, i8* nonnull %7) #1
  ret void
}

; Function Attrs: nounwind ssp uwtable
define hidden void @_ZN6google8protobuf8compiler3php11IntToStringEi(%"class.std::__1::basic_string"* noalias sret, i32) local_unnamed_addr #2 {
  %3 = alloca %"class.std::__1::basic_ostringstream", align 8
  %4 = bitcast %"class.std::__1::basic_ostringstream"* %3 to i8*
  call void @llvm.lifetime.start.p0i8(i64 264, i8* nonnull %4) #1
  %5 = getelementptr inbounds %"class.std::__1::basic_ostringstream", %"class.std::__1::basic_ostringstream"* %3, i64 0, i32 2
  %6 = getelementptr inbounds %"class.std::__1::basic_ios.base", %"class.std::__1::basic_ios.base"* %5, i64 0, i32 0, i32 0
  %7 = getelementptr inbounds %"class.std::__1::basic_ostringstream", %"class.std::__1::basic_ostringstream"* %3, i64 0, i32 0, i32 0
  %8 = getelementptr inbounds %"class.std::__1::basic_ostringstream", %"class.std::__1::basic_ostringstream"* %3, i64 0, i32 1
  %9 = getelementptr inbounds %"class.std::__1::basic_stringbuf", %"class.std::__1::basic_stringbuf"* %8, i64 0, i32 0
  %10 = bitcast %"class.std::__1::basic_ostringstream"* %3 to i64*
  store i64 ptrtoint (i8** getelementptr inbounds ({ [5 x i8*], [5 x i8*] }, { [5 x i8*], [5 x i8*] }* @_ZTCNSt3__119basic_ostringstreamIcNS_11char_traitsIcEENS_9allocatorIcEEEE0_NS_13basic_ostreamIcS2_EE, i64 0, inrange i32 0, i64 3) to i64), i64* %10, align 8
  %11 = bitcast %"class.std::__1::basic_ios.base"* %5 to i64*
  store i64 ptrtoint (i8** getelementptr inbounds ({ [5 x i8*], [5 x i8*] }, { [5 x i8*], [5 x i8*] }* @_ZTCNSt3__119basic_ostringstreamIcNS_11char_traitsIcEENS_9allocatorIcEEEE0_NS_13basic_ostreamIcS2_EE, i64 0, inrange i32 1, i64 3) to i64), i64* %11, align 8
  %12 = getelementptr inbounds %"class.std::__1::basic_ostringstream", %"class.std::__1::basic_ostringstream"* %3, i64 0, i32 2, i32 0
  %13 = bitcast %"class.std::__1::basic_stringbuf"* %8 to i8*
  call void @_ZNSt3__18ios_base4initEPv(%"class.std::__1::ios_base"* nonnull %12, i8* nonnull %13) #1
  %14 = getelementptr inbounds %"class.std::__1::basic_ostringstream", %"class.std::__1::basic_ostringstream"* %3, i64 0, i32 2, i32 1
  store %"class.std::__1::basic_ostream"* null, %"class.std::__1::basic_ostream"** %14, align 8
  %15 = getelementptr inbounds %"class.std::__1::basic_ostringstream", %"class.std::__1::basic_ostringstream"* %3, i64 0, i32 2, i32 2
  store i32 -1, i32* %15, align 8
  store i32 (...)** bitcast (i8** getelementptr inbounds ({ [5 x i8*], [5 x i8*] }, { [5 x i8*], [5 x i8*] }* @_ZTVNSt3__119basic_ostringstreamIcNS_11char_traitsIcEENS_9allocatorIcEEEE, i64 0, inrange i32 0, i64 3) to i32 (...)**), i32 (...)*** %7, align 8
  store i32 (...)** bitcast (i8** getelementptr inbounds ({ [5 x i8*], [5 x i8*] }, { [5 x i8*], [5 x i8*] }* @_ZTVNSt3__119basic_ostringstreamIcNS_11char_traitsIcEENS_9allocatorIcEEEE, i64 0, inrange i32 1, i64 3) to i32 (...)**), i32 (...)*** %6, align 8
  call void @_ZNSt3__115basic_streambufIcNS_11char_traitsIcEEEC2Ev(%"class.std::__1::basic_streambuf"* nonnull %9) #1
  %16 = getelementptr inbounds %"class.std::__1::basic_stringbuf", %"class.std::__1::basic_stringbuf"* %8, i64 0, i32 0, i32 0
  store i32 (...)** bitcast (i8** getelementptr inbounds ({ [16 x i8*] }, { [16 x i8*] }* @_ZTVNSt3__115basic_stringbufIcNS_11char_traitsIcEENS_9allocatorIcEEEE, i64 0, inrange i32 0, i64 2) to i32 (...)**), i32 (...)*** %16, align 8
  %17 = getelementptr inbounds %"class.std::__1::basic_ostringstream", %"class.std::__1::basic_ostringstream"* %3, i64 0, i32 1, i32 1
  %18 = getelementptr inbounds %"class.std::__1::basic_ostringstream", %"class.std::__1::basic_ostringstream"* %3, i64 0, i32 1, i32 3
  %19 = bitcast %"class.std::__1::basic_string"* %17 to i8*
  call void @llvm.memset.p0i8.i64(i8* nonnull align 8 %19, i8 0, i64 32, i1 false) #1
  store i32 16, i32* %18, align 8
  %20 = bitcast %"class.std::__1::basic_ostringstream"* %3 to %"class.std::__1::basic_ostream"*
  %21 = call dereferenceable(160) %"class.std::__1::basic_ostream"* @_ZNSt3__113basic_ostreamIcNS_11char_traitsIcEEElsEi(%"class.std::__1::basic_ostream"* nonnull %20, i32 %1) #1
  call void @_ZNKSt3__115basic_stringbufIcNS_11char_traitsIcEENS_9allocatorIcEEE3strEv(%"class.std::__1::basic_string"* sret %0, %"class.std::__1::basic_stringbuf"* nonnull %8) #1
  store i64 ptrtoint (i8** getelementptr inbounds ({ [5 x i8*], [5 x i8*] }, { [5 x i8*], [5 x i8*] }* @_ZTVNSt3__119basic_ostringstreamIcNS_11char_traitsIcEENS_9allocatorIcEEEE, i64 0, inrange i32 0, i64 3) to i64), i64* %10, align 8
  store i64 ptrtoint (i8** getelementptr inbounds ({ [5 x i8*], [5 x i8*] }, { [5 x i8*], [5 x i8*] }* @_ZTVNSt3__119basic_ostringstreamIcNS_11char_traitsIcEENS_9allocatorIcEEEE, i64 0, inrange i32 1, i64 3) to i64), i64* %11, align 8
  store i32 (...)** bitcast (i8** getelementptr inbounds ({ [16 x i8*] }, { [16 x i8*] }* @_ZTVNSt3__115basic_stringbufIcNS_11char_traitsIcEENS_9allocatorIcEEEE, i64 0, inrange i32 0, i64 2) to i32 (...)**), i32 (...)*** %16, align 8
  %22 = bitcast %"class.std::__1::basic_string"* %17 to %"struct.std::__1::basic_string<char, std::__1::char_traits<char>, std::__1::allocator<char> >::__short"*
  %23 = getelementptr inbounds %"struct.std::__1::basic_string<char, std::__1::char_traits<char>, std::__1::allocator<char> >::__short", %"struct.std::__1::basic_string<char, std::__1::char_traits<char>, std::__1::allocator<char> >::__short"* %22, i64 0, i32 1, i32 0
  %24 = load i8, i8* %23, align 1
  %25 = icmp slt i8 %24, 0
  br i1 %25, label %26, label %29

; <label>:26:                                     ; preds = %2
  %27 = getelementptr inbounds %"class.std::__1::basic_string", %"class.std::__1::basic_string"* %17, i64 0, i32 0, i32 0, i32 0, i32 0, i32 0, i32 0
  %28 = load i8*, i8** %27, align 8
  call void @_ZdlPv(i8* %28) #15
  br label %29

; <label>:29:                                     ; preds = %2, %26
  call void @_ZNSt3__115basic_streambufIcNS_11char_traitsIcEEED2Ev(%"class.std::__1::basic_streambuf"* nonnull %9) #1
  call void @_ZNSt3__113basic_ostreamIcNS_11char_traitsIcEEED2Ev(%"class.std::__1::basic_ostream"* nonnull %20, i8** nonnull getelementptr inbounds ([4 x i8*], [4 x i8*]* @_ZTTNSt3__119basic_ostringstreamIcNS_11char_traitsIcEENS_9allocatorIcEEEE, i64 0, i64 1)) #1
  %30 = bitcast %"class.std::__1::basic_ios.base"* %5 to %"class.std::__1::basic_ios"*
  call void @_ZNSt3__19basic_iosIcNS_11char_traitsIcEEED2Ev(%"class.std::__1::basic_ios"* nonnull %30) #1
  call void @llvm.lifetime.end.p0i8(i64 264, i8* nonnull %4) #1
  ret void
}

declare dereferenceable(160) %"class.std::__1::basic_ostream"* @_ZNSt3__113basic_ostreamIcNS_11char_traitsIcEEElsEi(%"class.std::__1::basic_ostream"*, i32) local_unnamed_addr #4

; Function Attrs: inlinehint nounwind ssp uwtable
define linkonce_odr hidden void @_ZNSt3__119basic_ostringstreamIcNS_11char_traitsIcEENS_9allocatorIcEEED1Ev(%"class.std::__1::basic_ostringstream"*) unnamed_addr #0 comdat align 2 {
  %2 = bitcast %"class.std::__1::basic_ostringstream"* %0 to i64*
  store i64 ptrtoint (i8** getelementptr inbounds ({ [5 x i8*], [5 x i8*] }, { [5 x i8*], [5 x i8*] }* @_ZTVNSt3__119basic_ostringstreamIcNS_11char_traitsIcEENS_9allocatorIcEEEE, i64 0, inrange i32 0, i64 3) to i64), i64* %2, align 8
  %3 = getelementptr inbounds %"class.std::__1::basic_ostringstream", %"class.std::__1::basic_ostringstream"* %0, i64 0, i32 2
  %4 = bitcast %"class.std::__1::basic_ios.base"* %3 to i64*
  store i64 ptrtoint (i8** getelementptr inbounds ({ [5 x i8*], [5 x i8*] }, { [5 x i8*], [5 x i8*] }* @_ZTVNSt3__119basic_ostringstreamIcNS_11char_traitsIcEENS_9allocatorIcEEEE, i64 0, inrange i32 1, i64 3) to i64), i64* %4, align 8
  %5 = getelementptr inbounds %"class.std::__1::basic_ostringstream", %"class.std::__1::basic_ostringstream"* %0, i64 0, i32 1
  %6 = getelementptr inbounds %"class.std::__1::basic_stringbuf", %"class.std::__1::basic_stringbuf"* %5, i64 0, i32 0, i32 0
  store i32 (...)** bitcast (i8** getelementptr inbounds ({ [16 x i8*] }, { [16 x i8*] }* @_ZTVNSt3__115basic_stringbufIcNS_11char_traitsIcEENS_9allocatorIcEEEE, i64 0, inrange i32 0, i64 2) to i32 (...)**), i32 (...)*** %6, align 8
  %7 = getelementptr inbounds %"class.std::__1::basic_ostringstream", %"class.std::__1::basic_ostringstream"* %0, i64 0, i32 1, i32 1
  %8 = bitcast %"class.std::__1::basic_string"* %7 to %"struct.std::__1::basic_string<char, std::__1::char_traits<char>, std::__1::allocator<char> >::__short"*
  %9 = getelementptr inbounds %"struct.std::__1::basic_string<char, std::__1::char_traits<char>, std::__1::allocator<char> >::__short", %"struct.std::__1::basic_string<char, std::__1::char_traits<char>, std::__1::allocator<char> >::__short"* %8, i64 0, i32 1, i32 0
  %10 = load i8, i8* %9, align 1
  %11 = icmp slt i8 %10, 0
  br i1 %11, label %12, label %15

; <label>:12:                                     ; preds = %1
  %13 = getelementptr inbounds %"class.std::__1::basic_string", %"class.std::__1::basic_string"* %7, i64 0, i32 0, i32 0, i32 0, i32 0, i32 0, i32 0
  %14 = load i8*, i8** %13, align 8
  tail call void @_ZdlPv(i8* %14) #15
  br label %15

; <label>:15:                                     ; preds = %1, %12
  %16 = getelementptr inbounds %"class.std::__1::basic_stringbuf", %"class.std::__1::basic_stringbuf"* %5, i64 0, i32 0
  tail call void @_ZNSt3__115basic_streambufIcNS_11char_traitsIcEEED2Ev(%"class.std::__1::basic_streambuf"* nonnull %16) #1
  %17 = bitcast %"class.std::__1::basic_ostringstream"* %0 to %"class.std::__1::basic_ostream"*
  tail call void @_ZNSt3__113basic_ostreamIcNS_11char_traitsIcEEED2Ev(%"class.std::__1::basic_ostream"* %17, i8** nonnull getelementptr inbounds ([4 x i8*], [4 x i8*]* @_ZTTNSt3__119basic_ostringstreamIcNS_11char_traitsIcEENS_9allocatorIcEEEE, i64 0, i64 1)) #1
  %18 = bitcast %"class.std::__1::basic_ios.base"* %3 to %"class.std::__1::basic_ios"*
  tail call void @_ZNSt3__19basic_iosIcNS_11char_traitsIcEEED2Ev(%"class.std::__1::basic_ios"* nonnull %18) #1
  ret void
}

; Function Attrs: nounwind ssp uwtable
define hidden void @_ZN6google8protobuf8compiler3php13LabelForFieldEPKNS0_15FieldDescriptorE(%"class.std::__1::basic_string"* noalias sret, %"class.google::protobuf::FieldDescriptor"* nocapture readonly) local_unnamed_addr #2 {
  %3 = getelementptr inbounds %"class.google::protobuf::FieldDescriptor", %"class.google::protobuf::FieldDescriptor"* %1, i64 0, i32 8
  %4 = load i32, i32* %3, align 4
  switch i32 %4, label %26 [
    i32 1, label %5
    i32 2, label %12
    i32 3, label %19
  ]

; <label>:5:                                      ; preds = %2
  %6 = bitcast %"class.std::__1::basic_string"* %0 to i8*
  tail call void @llvm.memset.p0i8.i64(i8* align 8 %6, i8 0, i64 24, i1 false) #1
  %7 = bitcast %"class.std::__1::basic_string"* %0 to %"struct.std::__1::basic_string<char, std::__1::char_traits<char>, std::__1::allocator<char> >::__short"*
  %8 = getelementptr inbounds %"struct.std::__1::basic_string<char, std::__1::char_traits<char>, std::__1::allocator<char> >::__short", %"struct.std::__1::basic_string<char, std::__1::char_traits<char>, std::__1::allocator<char> >::__short"* %7, i64 0, i32 1, i32 0
  store i8 8, i8* %8, align 1
  %9 = bitcast %"class.std::__1::basic_string"* %0 to i64*
  store i64 7809644653626814575, i64* %9, align 8
  %10 = getelementptr inbounds %"class.std::__1::basic_string", %"class.std::__1::basic_string"* %0, i64 0, i32 0, i32 0, i32 0, i32 0, i32 0, i32 1
  %11 = bitcast i64* %10 to i8*
  store i8 0, i8* %11, align 8
  br label %28

; <label>:12:                                     ; preds = %2
  %13 = bitcast %"class.std::__1::basic_string"* %0 to i8*
  tail call void @llvm.memset.p0i8.i64(i8* align 8 %13, i8 0, i64 24, i1 false) #1
  %14 = bitcast %"class.std::__1::basic_string"* %0 to %"struct.std::__1::basic_string<char, std::__1::char_traits<char>, std::__1::allocator<char> >::__short"*
  %15 = getelementptr inbounds %"struct.std::__1::basic_string<char, std::__1::char_traits<char>, std::__1::allocator<char> >::__short", %"struct.std::__1::basic_string<char, std::__1::char_traits<char>, std::__1::allocator<char> >::__short"* %14, i64 0, i32 1, i32 0
  store i8 8, i8* %15, align 1
  %16 = bitcast %"class.std::__1::basic_string"* %0 to i64*
  store i64 7234314173708068210, i64* %16, align 8
  %17 = getelementptr inbounds %"class.std::__1::basic_string", %"class.std::__1::basic_string"* %0, i64 0, i32 0, i32 0, i32 0, i32 0, i32 0, i32 1
  %18 = bitcast i64* %17 to i8*
  store i8 0, i8* %18, align 8
  br label %28

; <label>:19:                                     ; preds = %2
  %20 = bitcast %"class.std::__1::basic_string"* %0 to i8*
  tail call void @llvm.memset.p0i8.i64(i8* align 8 %20, i8 0, i64 24, i1 false) #1
  %21 = bitcast %"class.std::__1::basic_string"* %0 to %"struct.std::__1::basic_string<char, std::__1::char_traits<char>, std::__1::allocator<char> >::__short"*
  %22 = getelementptr inbounds %"struct.std::__1::basic_string<char, std::__1::char_traits<char>, std::__1::allocator<char> >::__short", %"struct.std::__1::basic_string<char, std::__1::char_traits<char>, std::__1::allocator<char> >::__short"* %21, i64 0, i32 1, i32 0
  store i8 8, i8* %22, align 1
  %23 = bitcast %"class.std::__1::basic_string"* %0 to i64*
  store i64 7234316338103084402, i64* %23, align 8
  %24 = getelementptr inbounds %"class.std::__1::basic_string", %"class.std::__1::basic_string"* %0, i64 0, i32 0, i32 0, i32 0, i32 0, i32 0, i32 1
  %25 = bitcast i64* %24 to i8*
  store i8 0, i8* %25, align 8
  br label %28

; <label>:26:                                     ; preds = %2
  %27 = bitcast %"class.std::__1::basic_string"* %0 to i8*
  call void @llvm.memset.p0i8.i64(i8* align 8 %27, i8 0, i64 24, i1 false)
  br label %28

; <label>:28:                                     ; preds = %26, %19, %12, %5
  ret void
}

; Function Attrs: nounwind ssp uwtable
define hidden void @_ZN6google8protobuf8compiler3php8TypeNameEPKNS0_15FieldDescriptorE(%"class.std::__1::basic_string"* noalias sret, %"class.google::protobuf::FieldDescriptor"*) local_unnamed_addr #2 {
  %3 = alloca %"class.std::__1::tuple", align 8
  %4 = alloca %"class.std::__1::__call_once_param", align 8
  %5 = alloca void (%"class.google::protobuf::FieldDescriptor"*)*, align 8
  %6 = alloca %"class.google::protobuf::FieldDescriptor"*, align 8
  %7 = getelementptr inbounds %"class.google::protobuf::FieldDescriptor", %"class.google::protobuf::FieldDescriptor"* %1, i64 0, i32 6
  %8 = load %"class.google::protobuf::GoogleOnceDynamic"*, %"class.google::protobuf::GoogleOnceDynamic"** %7, align 8
  %9 = icmp eq %"class.google::protobuf::GoogleOnceDynamic"* %8, null
  br i1 %9, label %23, label %10

; <label>:10:                                     ; preds = %2
  %11 = bitcast void (%"class.google::protobuf::FieldDescriptor"*)** %5 to i8*
  call void @llvm.lifetime.start.p0i8(i64 8, i8* nonnull %11) #1
  %12 = bitcast %"class.google::protobuf::FieldDescriptor"** %6 to i8*
  call void @llvm.lifetime.start.p0i8(i64 8, i8* nonnull %12) #1
  store void (%"class.google::protobuf::FieldDescriptor"*)* @_ZN6google8protobuf15FieldDescriptor12TypeOnceInitEPKS1_, void (%"class.google::protobuf::FieldDescriptor"*)** %5, align 8
  store %"class.google::protobuf::FieldDescriptor"* %1, %"class.google::protobuf::FieldDescriptor"** %6, align 8
  %13 = getelementptr inbounds %"class.google::protobuf::GoogleOnceDynamic", %"class.google::protobuf::GoogleOnceDynamic"* %8, i64 0, i32 0, i32 0
  %14 = load atomic i64, i64* %13 acquire, align 8
  %15 = icmp eq i64 %14, -1
  br i1 %15, label %22, label %16

; <label>:16:                                     ; preds = %10
  %17 = bitcast %"class.std::__1::tuple"* %3 to i8*
  call void @llvm.lifetime.start.p0i8(i64 16, i8* nonnull %17) #1
  %18 = getelementptr inbounds %"class.std::__1::tuple", %"class.std::__1::tuple"* %3, i64 0, i32 0, i32 0, i32 0
  store void (%"class.google::protobuf::FieldDescriptor"*)** %5, void (%"class.google::protobuf::FieldDescriptor"*)*** %18, align 8
  %19 = getelementptr inbounds %"class.std::__1::tuple", %"class.std::__1::tuple"* %3, i64 0, i32 0, i32 1, i32 0
  store %"class.google::protobuf::FieldDescriptor"** %6, %"class.google::protobuf::FieldDescriptor"*** %19, align 8
  %20 = bitcast %"class.std::__1::__call_once_param"* %4 to i8*
  call void @llvm.lifetime.start.p0i8(i64 8, i8* nonnull %20) #1
  %21 = getelementptr inbounds %"class.std::__1::__call_once_param", %"class.std::__1::__call_once_param"* %4, i64 0, i32 0
  store %"class.std::__1::tuple"* %3, %"class.std::__1::tuple"** %21, align 8
  call void @_ZNSt3__111__call_onceERVmPvPFvS2_E(i64* nonnull dereferenceable(8) %13, i8* nonnull %20, void (i8*)* nonnull @_ZNSt3__117__call_once_proxyINS_5tupleIJRPFvPKN6google8protobuf15FieldDescriptorEERS6_EEEEEvPv) #1
  call void @llvm.lifetime.end.p0i8(i64 8, i8* nonnull %20) #1
  call void @llvm.lifetime.end.p0i8(i64 16, i8* nonnull %17) #1
  br label %22

; <label>:22:                                     ; preds = %16, %10
  call void @llvm.lifetime.end.p0i8(i64 8, i8* nonnull %11) #1
  call void @llvm.lifetime.end.p0i8(i64 8, i8* nonnull %12) #1
  br label %23

; <label>:23:                                     ; preds = %2, %22
  %24 = getelementptr inbounds %"class.google::protobuf::FieldDescriptor", %"class.google::protobuf::FieldDescriptor"* %1, i64 0, i32 7
  %25 = load i32, i32* %24, align 8
  switch i32 %25, label %128 [
    i32 5, label %26
    i32 3, label %31
    i32 13, label %36
    i32 4, label %41
    i32 17, label %46
    i32 18, label %51
    i32 7, label %56
    i32 6, label %63
    i32 15, label %70
    i32 16, label %77
    i32 1, label %84
    i32 2, label %89
    i32 8, label %94
    i32 14, label %100
    i32 9, label %106
    i32 12, label %111
    i32 11, label %116
    i32 10, label %123
  ]

; <label>:26:                                     ; preds = %23
  %27 = bitcast %"class.std::__1::basic_string"* %0 to i8*
  call void @llvm.memset.p0i8.i64(i8* align 8 %27, i8 0, i64 24, i1 false) #1
  %28 = bitcast %"class.std::__1::basic_string"* %0 to %"struct.std::__1::basic_string<char, std::__1::char_traits<char>, std::__1::allocator<char> >::__short"*
  %29 = getelementptr inbounds %"struct.std::__1::basic_string<char, std::__1::char_traits<char>, std::__1::allocator<char> >::__short", %"struct.std::__1::basic_string<char, std::__1::char_traits<char>, std::__1::allocator<char> >::__short"* %28, i64 0, i32 1, i32 0
  store i8 5, i8* %29, align 1
