; ModuleID = '../../media/muxers/webm_muxer.cc'
source_filename = "../../media/muxers/webm_muxer.cc"
target datalayout = "e-m:e-i64:64-f80:128-n8:16:32:64-S128"
target triple = "x86_64-pc-linux-gnu"

module asm ".symver exp2f, exp2f@GLIBC_2.2.5"
module asm ".symver expf, expf@GLIBC_2.2.5"
module asm ".symver lgamma, lgamma@GLIBC_2.2.5"
module asm ".symver lgammaf, lgammaf@GLIBC_2.2.5"
module asm ".symver lgammal, lgammal@GLIBC_2.2.5"
module asm ".symver log2f, log2f@GLIBC_2.2.5"
module asm ".symver logf, logf@GLIBC_2.2.5"
module asm ".symver powf, powf@GLIBC_2.2.5"

%"class.std::__1::locale::id" = type <{ %"struct.std::__1::once_flag", i32, [4 x i8] }>
%"struct.std::__1::once_flag" = type { i64 }
%"struct.media::WebmMuxer::VideoParameters" = type { %"class.gfx::Size", double }
%"class.gfx::Size" = type { i32, i32 }
%class.scoped_refptr = type { %"class.media::VideoFrame"* }
%"class.media::VideoFrame" = type { i32 (...)**, %"class.base::RefCountedThreadSafe", %"class.media::VideoFrameLayout", i32, %"class.gfx::Rect", %"class.gfx::Size", [4 x i8*], [4 x %"struct.gpu::MailboxHolder"], %"class.base::OnceCallback", %"class.base::ReadOnlySharedMemoryRegion"*, %"class.base::UnsafeSharedMemoryRegion"*, %"class.base::SharedMemoryHandle", i64, %"class.std::__1::vector.11", %"class.std::__1::vector.18", %"class.base::TimeDelta", %"class.base::Lock", %"struct.gpu::SyncToken", %"class.media::VideoFrameMetadata", i32, %"class.gfx::ColorSpace" }
%"class.base::RefCountedThreadSafe" = type { %"class.base::subtle::RefCountedThreadSafeBase" }
%"class.base::subtle::RefCountedThreadSafeBase" = type { %"class.base::AtomicRefCount" }
%"class.base::AtomicRefCount" = type { %"struct.std::__1::atomic" }
%"struct.std::__1::atomic" = type { %"struct.std::__1::__atomic_base" }
%"struct.std::__1::__atomic_base" = type { %"struct.std::__1::__atomic_base.0" }
%"struct.std::__1::__atomic_base.0" = type { i32 }
%"class.media::VideoFrameLayout" = type { i32, %"class.gfx::Size", %"class.std::__1::vector", %"class.std::__1::vector.2", i64 }
%"class.std::__1::vector" = type { %"class.std::__1::__vector_base" }
%"class.std::__1::__vector_base" = type { %"struct.media::VideoFrameLayout::Plane"*, %"struct.media::VideoFrameLayout::Plane"*, %"class.std::__1::__compressed_pair" }
%"struct.media::VideoFrameLayout::Plane" = type { i32, i64, i64 }
%"class.std::__1::__compressed_pair" = type { %"struct.std::__1::__compressed_pair_elem" }
%"struct.std::__1::__compressed_pair_elem" = type { %"struct.media::VideoFrameLayout::Plane"* }
%"class.std::__1::vector.2" = type { %"class.std::__1::__vector_base.3" }
%"class.std::__1::__vector_base.3" = type { i64*, i64*, %"class.std::__1::__compressed_pair.4" }
%"class.std::__1::__compressed_pair.4" = type { %"struct.std::__1::__compressed_pair_elem.5" }
%"struct.std::__1::__compressed_pair_elem.5" = type { i64* }
%"class.gfx::Rect" = type { %"class.gfx::Point", %"class.gfx::Size" }
%"class.gfx::Point" = type { i32, i32 }
%"struct.gpu::MailboxHolder" = type <{ %"struct.gpu::Mailbox", %"struct.gpu::SyncToken", i32, [4 x i8] }>
%"struct.gpu::Mailbox" = type { [16 x i8] }
%"class.base::OnceCallback" = type { %"class.base::internal::CallbackBase" }
%"class.base::internal::CallbackBase" = type { %class.scoped_refptr.9 }
%class.scoped_refptr.9 = type { %"class.base::internal::BindStateBase"* }
%"class.base::internal::BindStateBase" = type { %"class.base::RefCountedThreadSafe.10", void ()*, void (%"class.base::internal::BindStateBase"*)*, i1 (%"class.base::internal::BindStateBase"*, i32)* }
%"class.base::RefCountedThreadSafe.10" = type { %"class.base::subtle::RefCountedThreadSafeBase" }
%"class.base::ReadOnlySharedMemoryRegion" = type { %"class.base::subtle::PlatformSharedMemoryRegion" }
%"class.base::subtle::PlatformSharedMemoryRegion" = type { %"struct.base::subtle::ScopedFDPair", i32, i64, %"class.base::UnguessableToken" }
%"struct.base::subtle::ScopedFDPair" = type { %"class.base::ScopedGeneric", %"class.base::ScopedGeneric" }
%"class.base::ScopedGeneric" = type <{ %"struct.base::ScopedGeneric<int, base::internal::ScopedFDCloseTraits>::Data", i8, [3 x i8] }>
%"struct.base::ScopedGeneric<int, base::internal::ScopedFDCloseTraits>::Data" = type { i32 }
%"class.base::UnguessableToken" = type { %"class.base::Token" }
%"class.base::Token" = type { i64, i64 }
%"class.base::UnsafeSharedMemoryRegion" = type { %"class.base::subtle::PlatformSharedMemoryRegion" }
%"class.base::SharedMemoryHandle" = type { %"struct.base::FileDescriptor", %"class.base::UnguessableToken", i64 }
%"struct.base::FileDescriptor" = type <{ i32, i8, [3 x i8] }>
%"class.std::__1::vector.11" = type { %"class.std::__1::__vector_base.12" }
%"class.std::__1::__vector_base.12" = type { %"class.base::ScopedGeneric"*, %"class.base::ScopedGeneric"*, %"class.std::__1::__compressed_pair.13" }
%"class.std::__1::__compressed_pair.13" = type { %"struct.std::__1::__compressed_pair_elem.14" }
%"struct.std::__1::__compressed_pair_elem.14" = type { %"class.base::ScopedGeneric"* }
%"class.std::__1::vector.18" = type { %"class.std::__1::__vector_base.19" }
%"class.std::__1::__vector_base.19" = type { %"class.base::OnceCallback.20"*, %"class.base::OnceCallback.20"*, %"class.std::__1::__compressed_pair.21" }
%"class.base::OnceCallback.20" = type opaque
%"class.std::__1::__compressed_pair.21" = type { %"struct.std::__1::__compressed_pair_elem.22" }
%"struct.std::__1::__compressed_pair_elem.22" = type { %"class.base::OnceCallback.20"* }
%"class.base::TimeDelta" = type { i64 }
%"class.base::Lock" = type { %"class.base::internal::LockImpl" }
%"class.base::internal::LockImpl" = type { %union.pthread_mutex_t }
%union.pthread_mutex_t = type { %struct.__pthread_mutex_s }
%struct.__pthread_mutex_s = type { i32, i32, i32, i32, i32, i16, i16, %struct.__pthread_internal_list }
%struct.__pthread_internal_list = type { %struct.__pthread_internal_list*, %struct.__pthread_internal_list* }
%"struct.gpu::SyncToken" = type { i8, i8, %"class.gpu::IdType", i64 }
%"class.gpu::IdType" = type { i64 }
%"class.media::VideoFrameMetadata" = type { %"class.base::DictionaryValue" }
%"class.base::DictionaryValue" = type { %"class.base::Value.base", [4 x i8] }
%"class.base::Value.base" = type <{ i32, [4 x i8], %union.anon, i32 }>
%union.anon = type { %"class.std::__1::basic_string" }
%"class.std::__1::basic_string" = type { %"class.std::__1::__compressed_pair.26" }
%"class.std::__1::__compressed_pair.26" = type { %"struct.std::__1::__compressed_pair_elem.27" }
%"struct.std::__1::__compressed_pair_elem.27" = type { %"struct.std::__1::basic_string<char, std::__1::char_traits<char>, std::__1::allocator<char> >::__rep" }
%"struct.std::__1::basic_string<char, std::__1::char_traits<char>, std::__1::allocator<char> >::__rep" = type { %union.anon.28 }
%union.anon.28 = type { %"struct.std::__1::basic_string<char, std::__1::char_traits<char>, std::__1::allocator<char> >::__long" }
%"struct.std::__1::basic_string<char, std::__1::char_traits<char>, std::__1::allocator<char> >::__long" = type { i8*, i64, i64 }
%"class.gfx::ColorSpace" = type { i8, i8, i8, i8, [9 x float], [7 x float], i64 }
%"class.media::WebmMuxer" = type { %"class.mkvmuxer::IMkvWriter", %"class.base::ThreadChecker", i32, i32, i8, i8, %"class.base::TimeTicks", %"class.base::TimeTicks", %"class.base::TimeDelta", %"class.std::__1::unique_ptr.55", %"class.base::TimeDelta", i8, i8, %"class.base::RepeatingCallback", %"class.base::internal::CheckedNumeric", %"class.mkvmuxer::Segment", i8, %"class.base::circular_deque" }
%"class.mkvmuxer::IMkvWriter" = type { i32 (...)** }
%"class.base::ThreadChecker" = type { i8 }
%"class.base::TimeTicks" = type { %"class.base::time_internal::TimeBase" }
%"class.base::time_internal::TimeBase" = type { i64 }
%"class.std::__1::unique_ptr.55" = type { %"class.std::__1::__compressed_pair.56" }
%"class.std::__1::__compressed_pair.56" = type { %"struct.std::__1::__compressed_pair_elem.57" }
%"struct.std::__1::__compressed_pair_elem.57" = type { %"class.base::ElapsedTimer"* }
%"class.base::ElapsedTimer" = type { %"class.base::TimeTicks" }
%"class.base::RepeatingCallback" = type { %"class.base::internal::CallbackBaseCopyable" }
%"class.base::internal::CallbackBaseCopyable" = type { %"class.base::internal::CallbackBase" }
%"class.base::internal::CheckedNumeric" = type { %"class.base::internal::CheckedNumericState" }
%"class.base::internal::CheckedNumericState" = type { i8, i64 }
%"class.mkvmuxer::Segment" = type { i32, [4 x i8], %"class.mkvmuxer::Cues", %"class.mkvmuxer::SeekHead", %"class.mkvmuxer::SegmentInfo", %"class.mkvmuxer::Tracks", %"class.mkvmuxer::Chapters", %"class.mkvmuxer::Tags", i32, i8*, %"class.mkvmuxer::MkvWriter"*, %"class.mkvmuxer::MkvWriter"*, %"class.mkvmuxer::MkvWriter"*, i8, i8*, i64, %"class.mkvmuxer::Cluster"**, i32, i32, i32, i64, i8, %"class.mkvmuxer::Frame"**, i32, i32, i8, i8, i64, i64, [126 x i64], [126 x i64], i64, i64, i32, i8, i8, i8, i8, i8, i32, i64, i64, i32, i32, double, %"class.mkvmuxer::IMkvWriter"*, %"class.mkvmuxer::IMkvWriter"*, %"class.mkvmuxer::IMkvWriter"* }
%"class.mkvmuxer::Cues" = type <{ i32, i32, %"class.mkvmuxer::CuePoint"**, i8, [7 x i8] }>
%"class.mkvmuxer::CuePoint" = type <{ i64, i64, i64, i64, i8, [7 x i8] }>
%"class.mkvmuxer::SeekHead" = type { [5 x i32], [5 x i64], i64 }
%"class.mkvmuxer::SegmentInfo" = type { double, i8*, i64, i8*, i64, i64 }
%"class.mkvmuxer::Tracks" = type <{ %"class.mkvmuxer::Track"**, i32, i8, [3 x i8] }>
%"class.mkvmuxer::Track" = type <{ i32 (...)**, i8*, i8*, i8*, i64, i8*, i64, i64, i64, i64, i64, i64, i64, %"class.mkvmuxer::ContentEncoding"**, i32, [4 x i8] }>
%"class.mkvmuxer::ContentEncoding" = type { i64, i8*, i64, i64, i64, %"class.mkvmuxer::ContentEncAESSettings", i64 }
%"class.mkvmuxer::ContentEncAESSettings" = type { i64 }
%"class.mkvmuxer::Chapters" = type { i32, i32, %"class.mkvmuxer::Chapter"* }
%"class.mkvmuxer::Chapter" = type { i8*, i64, i64, i64, %"class.mkvmuxer::Chapter::Display"*, i32, i32 }
%"class.mkvmuxer::Chapter::Display" = type { i8*, i8*, i8* }
%"class.mkvmuxer::Tags" = type { i32, i32, %"class.mkvmuxer::Tag"* }
%"class.mkvmuxer::Tag" = type { %"class.mkvmuxer::Tag::SimpleTag"*, i32, i32 }
%"class.mkvmuxer::Tag::SimpleTag" = type { i8*, i8* }
%"class.mkvmuxer::MkvWriter" = type opaque
%"class.mkvmuxer::Cluster" = type { i32, i8, i8, i8, i64, i64, i64, i64, i64, i8, %"class.std::__1::map", %"class.std::__1::map.70", %"class.mkvmuxer::IMkvWriter"* }
%"class.std::__1::map" = type { %"class.std::__1::__tree" }
%"class.std::__1::__tree" = type { %"class.std::__1::__tree_end_node"*, %"class.std::__1::__compressed_pair.61", %"class.std::__1::__compressed_pair.66" }
%"class.std::__1::__tree_end_node" = type { %"class.std::__1::__tree_node_base"* }
%"class.std::__1::__tree_node_base" = type opaque
%"class.std::__1::__compressed_pair.61" = type { %"struct.std::__1::__compressed_pair_elem.62" }
%"struct.std::__1::__compressed_pair_elem.62" = type { %"class.std::__1::__tree_end_node" }
%"class.std::__1::__compressed_pair.66" = type { %"struct.std::__1::__compressed_pair_elem.67" }
%"struct.std::__1::__compressed_pair_elem.67" = type { i64 }
%"class.std::__1::map.70" = type { %"class.std::__1::__tree.71" }
%"class.std::__1::__tree.71" = type { %"class.std::__1::__tree_end_node"*, %"class.std::__1::__compressed_pair.72", %"class.std::__1::__compressed_pair.76" }
%"class.std::__1::__compressed_pair.72" = type { %"struct.std::__1::__compressed_pair_elem.62" }
%"class.std::__1::__compressed_pair.76" = type { %"struct.std::__1::__compressed_pair_elem.67" }
%"class.mkvmuxer::Frame" = type <{ i64, i8*, i64, i64, i8, [7 x i8], i8*, i8, [7 x i8], i64, i64, i64, i64, i64, i8, [7 x i8] }>
%"class.base::circular_deque" = type { %"class.base::internal::VectorBuffer", i64, i64 }
%"class.base::internal::VectorBuffer" = type { %"class.std::__1::unique_ptr.79"*, i64 }
%"class.std::__1::unique_ptr.79" = type { %"class.std::__1::__compressed_pair.80" }
%"class.std::__1::__compressed_pair.80" = type { %"struct.std::__1::__compressed_pair_elem.81" }
%"struct.std::__1::__compressed_pair_elem.81" = type { %"struct.media::WebmMuxer::EncodedVideoFrame"* }
%"struct.media::WebmMuxer::EncodedVideoFrame" = type <{ %"class.std::__1::unique_ptr.82", %"class.std::__1::unique_ptr.82", %"class.base::TimeTicks", i8, [7 x i8] }>
%"class.std::__1::unique_ptr.82" = type { %"class.std::__1::__compressed_pair.83" }
%"class.std::__1::__compressed_pair.83" = type { %"struct.std::__1::__compressed_pair_elem.84" }
%"struct.std::__1::__compressed_pair_elem.84" = type { %"class.std::__1::basic_string"* }
%"struct.std::__1::basic_string<char, std::__1::char_traits<char>, std::__1::allocator<char> >::__short" = type { [23 x i8], %struct.anon }
%struct.anon = type { i8 }
%"class.mkvmuxer::VideoTrack" = type { %"class.mkvmuxer::Track.base", i64, i64, i64, i64, i64, i64, i64, i64, double, i64, i64, i64, i64, i8*, %"class.mkvmuxer::Colour"*, %"class.mkvmuxer::Projection"* }
%"class.mkvmuxer::Track.base" = type <{ i32 (...)**, i8*, i8*, i8*, i64, i8*, i64, i64, i64, i64, i64, i64, i64, %"class.mkvmuxer::ContentEncoding"**, i32 }>
%"class.mkvmuxer::Colour" = type { i64, i64, i64, i64, i64, i64, i64, i64, i64, i64, i64, i64, i64, %"class.mkvmuxer::MasteringMetadata"* }
%"class.mkvmuxer::MasteringMetadata" = type { float, float, %"class.mkvmuxer::PrimaryChromaticity"*, %"class.mkvmuxer::PrimaryChromaticity"*, %"class.mkvmuxer::PrimaryChromaticity"*, %"class.mkvmuxer::PrimaryChromaticity"* }
%"class.mkvmuxer::PrimaryChromaticity" = type { float, float }
%"class.mkvmuxer::Projection" = type { i32, float, float, float, i8*, i64 }
%"class.media::AudioParameters" = type { i32, i32, i32, i32, i32, i32, %"class.std::__1::vector.91", i32, %"class.base::Optional" }
%"class.std::__1::vector.91" = type { %"class.std::__1::__vector_base.92" }
%"class.std::__1::__vector_base.92" = type { %"class.gfx::Point3F"*, %"class.gfx::Point3F"*, %"class.std::__1::__compressed_pair.93" }
%"class.gfx::Point3F" = type { float, float, float }
%"class.std::__1::__compressed_pair.93" = type { %"struct.std::__1::__compressed_pair_elem.94" }
%"struct.std::__1::__compressed_pair_elem.94" = type { %"class.gfx::Point3F"* }
%"class.base::Optional" = type { %"class.base::internal::OptionalBase" }
%"class.base::internal::OptionalBase" = type { %"struct.base::internal::OptionalStorage" }
%"struct.base::internal::OptionalStorage" = type { %"struct.base::internal::OptionalStorageBase" }
%"struct.base::internal::OptionalStorageBase" = type { i8, %union.anon.98 }
%union.anon.98 = type { %"struct.media::AudioParameters::HardwareCapabilities" }
%"struct.media::AudioParameters::HardwareCapabilities" = type { i32, i32 }
%"class.logging::LogMessage" = type { i32, %"class.std::__1::basic_ostringstream", i64, i8*, i32, %"class.base::internal::ScopedClearLastErrorBase" }
%"class.std::__1::basic_ostringstream" = type { %"class.std::__1::basic_ostream.base", %"class.std::__1::basic_stringbuf", %"class.std::__1::basic_ios.base" }
%"class.std::__1::basic_ostream.base" = type { i32 (...)** }
%"class.std::__1::basic_stringbuf" = type <{ %"class.std::__1::basic_streambuf", %"class.std::__1::basic_string", i8*, i32, [4 x i8] }>
%"class.std::__1::basic_streambuf" = type { i32 (...)**, %"class.std::__1::locale", i8*, i8*, i8*, i8*, i8*, i8* }
%"class.std::__1::locale" = type { %"class.std::__1::locale::__imp"* }
%"class.std::__1::locale::__imp" = type opaque
%"class.std::__1::basic_ios.base" = type <{ %"class.std::__1::ios_base", %"class.std::__1::basic_ostream"*, i32 }>
%"class.std::__1::ios_base" = type { i32 (...)**, i32, i64, i64, i32, i32, i8*, i8*, void (i32, %"class.std::__1::ios_base"*, i32)**, i32*, i64, i64, i64*, i64, i64, i8**, i64, i64 }
%"class.std::__1::basic_ostream" = type { i32 (...)**, %"class.std::__1::basic_ios.base" }
%"class.base::internal::ScopedClearLastErrorBase" = type { i32 }
%"class.base::BasicStringPiece" = type { i8*, i64 }
%"class.std::__1::__basic_string_common" = type { i8 }
%"class.std::__1::basic_ostream<char, std::__1::char_traits<char> >::sentry" = type { i8, %"class.std::__1::basic_ostream"* }
%"class.std::__1::locale::facet" = type { %"class.std::__1::__shared_count" }
%"class.std::__1::__shared_count" = type { i32 (...)**, i64 }
%"class.std::__1::ctype" = type <{ %"class.std::__1::locale::facet", i16*, i8, [7 x i8] }>
%"class.std::__1::basic_ios" = type <{ %"class.std::__1::ios_base", %"class.std::__1::basic_ostream"*, i32, [4 x i8] }>

$_ZN4base14circular_dequeINSt3__110unique_ptrIN5media9WebmMuxer17EncodedVideoFrameENS1_14default_deleteIS5_EEEEE9pop_frontEv = comdat any

$_ZNSt3__124__put_character_sequenceIcNS_11char_traitsIcEEEERNS_13basic_ostreamIT_T0_EES7_PKS4_m = comdat any

$_ZNSt3__116__pad_and_outputIcNS_11char_traitsIcEEEENS_19ostreambuf_iteratorIT_T0_EES6_PKS4_S8_S8_RNS_8ios_baseES4_ = comdat any

$_ZN4base14circular_dequeINSt3__110unique_ptrIN5media9WebmMuxer17EncodedVideoFrameENS1_14default_deleteIS5_EEEEE13DestructRangeEmm = comdat any

$_ZN4base8internal12VectorBufferINSt3__110unique_ptrIN5media9WebmMuxer17EncodedVideoFrameENS2_14default_deleteIS6_EEEEE13DestructRangeIS9_Li0EEEvPS9_SC_ = comdat any

$_ZN7logging17MakeCheckOpStringIPNSt3__110unique_ptrIN5media9WebmMuxer17EncodedVideoFrameENS1_14default_deleteIS5_EEEES9_EEPNS1_12basic_stringIcNS1_11char_traitsIcEENS1_9allocatorIcEEEERKT_RKT0_PKc = comdat any

$_ZNSt3__119basic_ostringstreamIcNS_11char_traitsIcEENS_9allocatorIcEEED1Ev = comdat any

$_ZNSt3__119basic_ostringstreamIcNS_11char_traitsIcEENS_9allocatorIcEEED0Ev = comdat any

$_ZTv0_n24_NSt3__119basic_ostringstreamIcNS_11char_traitsIcEENS_9allocatorIcEEED1Ev = comdat any

$_ZTv0_n24_NSt3__119basic_ostringstreamIcNS_11char_traitsIcEENS_9allocatorIcEEED0Ev = comdat any

$_ZNSt3__115basic_stringbufIcNS_11char_traitsIcEENS_9allocatorIcEEED2Ev = comdat any

$_ZNSt3__115basic_stringbufIcNS_11char_traitsIcEENS_9allocatorIcEEED0Ev = comdat any

$_ZNSt3__115basic_stringbufIcNS_11char_traitsIcEENS_9allocatorIcEEE7seekoffExNS_8ios_base7seekdirEj = comdat any

$_ZNSt3__115basic_stringbufIcNS_11char_traitsIcEENS_9allocatorIcEEE7seekposENS_4fposI11__mbstate_tEEj = comdat any

$_ZNSt3__115basic_stringbufIcNS_11char_traitsIcEENS_9allocatorIcEEE9underflowEv = comdat any

$_ZNSt3__115basic_stringbufIcNS_11char_traitsIcEENS_9allocatorIcEEE9pbackfailEi = comdat any

$_ZNSt3__115basic_stringbufIcNS_11char_traitsIcEENS_9allocatorIcEEE8overflowEi = comdat any

$_ZNKSt3__115basic_stringbufIcNS_11char_traitsIcEENS_9allocatorIcEEE3strEv = comdat any

$_ZN4base14circular_dequeINSt3__110unique_ptrIN5media9WebmMuxer17EncodedVideoFrameENS1_14default_deleteIS5_EEEEE12emplace_backIJS8_EEERS8_DpOT_ = comdat any

$_ZN4base14circular_dequeINSt3__110unique_ptrIN5media9WebmMuxer17EncodedVideoFrameENS1_14default_deleteIS5_EEEEE25ExpandCapacityIfNecessaryEm = comdat any

$_ZN4base14circular_dequeINSt3__110unique_ptrIN5media9WebmMuxer17EncodedVideoFrameENS1_14default_deleteIS5_EEEEE10MoveBufferERNS_8internal12VectorBufferIS8_EEmmPSC_PmSF_ = comdat any

$_ZN4base8internal12VectorBufferINSt3__110unique_ptrIN5media9WebmMuxer17EncodedVideoFrameENS2_14default_deleteIS6_EEEEE9MoveRangeIS9_Li0EEEvPS9_SC_SC_ = comdat any

$_ZN4base14circular_dequeINSt3__110unique_ptrIN5media9WebmMuxer17EncodedVideoFrameENS1_14default_deleteIS5_EEEEE25ShrinkCapacityIfNecessaryEv = comdat any

$_ZTVNSt3__119basic_ostringstreamIcNS_11char_traitsIcEENS_9allocatorIcEEEE = comdat any

$_ZTTNSt3__119basic_ostringstreamIcNS_11char_traitsIcEENS_9allocatorIcEEEE = comdat any

$_ZTCNSt3__119basic_ostringstreamIcNS_11char_traitsIcEENS_9allocatorIcEEEE0_NS_13basic_ostreamIcS2_EE = comdat any

$_ZTVNSt3__115basic_stringbufIcNS_11char_traitsIcEENS_9allocatorIcEEEE = comdat any

@_ZTVN5media9WebmMuxerE = hidden unnamed_addr constant { [9 x i8*] } { [9 x i8*] [i8* null, i8* null, i8* bitcast (i32 (%"class.media::WebmMuxer"*, i8*, i32)* @_ZN5media9WebmMuxer5WriteEPKvj to i8*), i8* bitcast (i64 (%"class.media::WebmMuxer"*)* @_ZNK5media9WebmMuxer8PositionEv to i8*), i8* bitcast (i32 (%"class.media::WebmMuxer"*, i64)* @_ZN5media9WebmMuxer8PositionEx to i8*), i8* bitcast (i1 (%"class.media::WebmMuxer"*)* @_ZNK5media9WebmMuxer8SeekableEv to i8*), i8* bitcast (void (%"class.media::WebmMuxer"*, i64, i64)* @_ZN5media9WebmMuxer18ElementStartNotifyEyx to i8*), i8* bitcast (void (%"class.media::WebmMuxer"*)* @_ZN5media9WebmMuxerD2Ev to i8*), i8* bitcast (void (%"class.media::WebmMuxer"*)* @_ZN5media9WebmMuxerD0Ev to i8*)] }, align 8
@.str = private unnamed_addr constant [7 x i8] c"Chrome\00", align 1
@_ZN8mkvmuxer6Tracks12kOpusCodecIdE = external constant [0 x i8], align 1
@.str.1 = private unnamed_addr constant [33 x i8] c"../../media/muxers/webm_muxer.cc\00", align 1
@__func__._ZN5media9WebmMuxer13AddAudioTrackERKNS_15AudioParametersE = private unnamed_addr constant [14 x i8] c"AddAudioTrack\00", align 1
@.str.2 = private unnamed_addr constant [29 x i8] c": failed to set opus header.\00", align 1
@_ZN5media12_GLOBAL__N_111kPcmCodecIdE = internal constant [17 x i8] c"A_PCM/FLOAT/IEEE\00", align 16
@_ZN8mkvmuxer6Tracks11kVp8CodecIdE = external constant [0 x i8], align 1
@_ZN8mkvmuxer6Tracks11kVp9CodecIdE = external constant [0 x i8], align 1
@_ZN5media12_GLOBAL__N_112kH264CodecIdE = internal constant [16 x i8] c"V_MPEG4/ISO/AVC\00", align 16
@.str.3 = private unnamed_addr constant [1 x i8] zeroinitializer, align 1
@_ZN5media21kOpusVorbisChannelMapE = external local_unnamed_addr constant [8 x [8 x i8]], align 16
@_ZNSt3__15ctypeIcE2idE = external global %"class.std::__1::locale::id", align 8
@.str.6 = private unnamed_addr constant [13 x i8] c"begin <= end\00", align 1
@.str.7 = private unnamed_addr constant [38 x i8] c"../../base/containers/vector_buffer.h\00", align 1
@.str.8 = private unnamed_addr constant [3 x i8] c" (\00", align 1
@.str.9 = private unnamed_addr constant [6 x i8] c" vs. \00", align 1
@.str.10 = private unnamed_addr constant [2 x i8] c")\00", align 1
@_ZTVNSt3__119basic_ostringstreamIcNS_11char_traitsIcEENS_9allocatorIcEEEE = linkonce_odr hidden unnamed_addr constant { [5 x i8*], [5 x i8*] } { [5 x i8*] [i8* inttoptr (i64 112 to i8*), i8* null, i8* null, i8* bitcast (void (%"class.std::__1::basic_ostringstream"*)* @_ZNSt3__119basic_ostringstreamIcNS_11char_traitsIcEENS_9allocatorIcEEED1Ev to i8*), i8* bitcast (void (%"class.std::__1::basic_ostringstream"*)* @_ZNSt3__119basic_ostringstreamIcNS_11char_traitsIcEENS_9allocatorIcEEED0Ev to i8*)], [5 x i8*] [i8* inttoptr (i64 -112 to i8*), i8* inttoptr (i64 -112 to i8*), i8* null, i8* bitcast (void (%"class.std::__1::basic_ostringstream"*)* @_ZTv0_n24_NSt3__119basic_ostringstreamIcNS_11char_traitsIcEENS_9allocatorIcEEED1Ev to i8*), i8* bitcast (void (%"class.std::__1::basic_ostringstream"*)* @_ZTv0_n24_NSt3__119basic_ostringstreamIcNS_11char_traitsIcEENS_9allocatorIcEEED0Ev to i8*)] }, comdat, align 8
@_ZTTNSt3__119basic_ostringstreamIcNS_11char_traitsIcEENS_9allocatorIcEEEE = linkonce_odr hidden unnamed_addr constant [4 x i8*] [i8* bitcast (i8** getelementptr inbounds ({ [5 x i8*], [5 x i8*] }, { [5 x i8*], [5 x i8*] }* @_ZTVNSt3__119basic_ostringstreamIcNS_11char_traitsIcEENS_9allocatorIcEEEE, i32 0, inrange i32 0, i32 3) to i8*), i8* bitcast (i8** getelementptr inbounds ({ [5 x i8*], [5 x i8*] }, { [5 x i8*], [5 x i8*] }* @_ZTCNSt3__119basic_ostringstreamIcNS_11char_traitsIcEENS_9allocatorIcEEEE0_NS_13basic_ostreamIcS2_EE, i32 0, inrange i32 0, i32 3) to i8*), i8* bitcast (i8** getelementptr inbounds ({ [5 x i8*], [5 x i8*] }, { [5 x i8*], [5 x i8*] }* @_ZTCNSt3__119basic_ostringstreamIcNS_11char_traitsIcEENS_9allocatorIcEEEE0_NS_13basic_ostreamIcS2_EE, i32 0, inrange i32 1, i32 3) to i8*), i8* bitcast (i8** getelementptr inbounds ({ [5 x i8*], [5 x i8*] }, { [5 x i8*], [5 x i8*] }* @_ZTVNSt3__119basic_ostringstreamIcNS_11char_traitsIcEENS_9allocatorIcEEEE, i32 0, inrange i32 1, i32 3) to i8*)], comdat
@_ZTCNSt3__119basic_ostringstreamIcNS_11char_traitsIcEENS_9allocatorIcEEEE0_NS_13basic_ostreamIcS2_EE = linkonce_odr unnamed_addr constant { [5 x i8*], [5 x i8*] } { [5 x i8*] [i8* inttoptr (i64 112 to i8*), i8* null, i8* null, i8* bitcast (void (%"class.std::__1::basic_ostream"*)* @_ZNSt3__113basic_ostreamIcNS_11char_traitsIcEEED1Ev to i8*), i8* bitcast (void (%"class.std::__1::basic_ostream"*)* @_ZNSt3__113basic_ostreamIcNS_11char_traitsIcEEED0Ev to i8*)], [5 x i8*] [i8* inttoptr (i64 -112 to i8*), i8* inttoptr (i64 -112 to i8*), i8* null, i8* bitcast (void (%"class.std::__1::basic_ostream"*)* @_ZTv0_n24_NSt3__113basic_ostreamIcNS_11char_traitsIcEEED1Ev to i8*), i8* bitcast (void (%"class.std::__1::basic_ostream"*)* @_ZTv0_n24_NSt3__113basic_ostreamIcNS_11char_traitsIcEEED0Ev to i8*)] }, comdat
@_ZTVNSt3__115basic_stringbufIcNS_11char_traitsIcEENS_9allocatorIcEEEE = linkonce_odr hidden unnamed_addr constant { [16 x i8*] } { [16 x i8*] [i8* null, i8* null, i8* bitcast (void (%"class.std::__1::basic_stringbuf"*)* @_ZNSt3__115basic_stringbufIcNS_11char_traitsIcEENS_9allocatorIcEEED2Ev to i8*), i8* bitcast (void (%"class.std::__1::basic_stringbuf"*)* @_ZNSt3__115basic_stringbufIcNS_11char_traitsIcEENS_9allocatorIcEEED0Ev to i8*), i8* bitcast (void (%"class.std::__1::basic_streambuf"*, %"class.std::__1::locale"*)* @_ZNSt3__115basic_streambufIcNS_11char_traitsIcEEE5imbueERKNS_6localeE to i8*), i8* bitcast (%"class.std::__1::basic_streambuf"* (%"class.std::__1::basic_streambuf"*, i8*, i64)* @_ZNSt3__115basic_streambufIcNS_11char_traitsIcEEE6setbufEPcl to i8*), i8* bitcast ({ i64, i64 } (%"class.std::__1::basic_stringbuf"*, i64, i32, i32)* @_ZNSt3__115basic_stringbufIcNS_11char_traitsIcEENS_9allocatorIcEEE7seekoffExNS_8ios_base7seekdirEj to i8*), i8* bitcast ({ i64, i64 } (%"class.std::__1::basic_stringbuf"*, i64, i64, i32)* @_ZNSt3__115basic_stringbufIcNS_11char_traitsIcEENS_9allocatorIcEEE7seekposENS_4fposI11__mbstate_tEEj to i8*), i8* bitcast (i32 (%"class.std::__1::basic_streambuf"*)* @_ZNSt3__115basic_streambufIcNS_11char_traitsIcEEE4syncEv to i8*), i8* bitcast (i64 (%"class.std::__1::basic_streambuf"*)* @_ZNSt3__115basic_streambufIcNS_11char_traitsIcEEE9showmanycEv to i8*), i8* bitcast (i64 (%"class.std::__1::basic_streambuf"*, i8*, i64)* @_ZNSt3__115basic_streambufIcNS_11char_traitsIcEEE6xsgetnEPcl to i8*), i8* bitcast (i32 (%"class.std::__1::basic_stringbuf"*)* @_ZNSt3__115basic_stringbufIcNS_11char_traitsIcEENS_9allocatorIcEEE9underflowEv to i8*), i8* bitcast (i32 (%"class.std::__1::basic_streambuf"*)* @_ZNSt3__115basic_streambufIcNS_11char_traitsIcEEE5uflowEv to i8*), i8* bitcast (i32 (%"class.std::__1::basic_stringbuf"*, i32)* @_ZNSt3__115basic_stringbufIcNS_11char_traitsIcEENS_9allocatorIcEEE9pbackfailEi to i8*), i8* bitcast (i64 (%"class.std::__1::basic_streambuf"*, i8*, i64)* @_ZNSt3__115basic_streambufIcNS_11char_traitsIcEEE6xsputnEPKcl to i8*), i8* bitcast (i32 (%"class.std::__1::basic_stringbuf"*, i32)* @_ZNSt3__115basic_stringbufIcNS_11char_traitsIcEENS_9allocatorIcEEE8overflowEi to i8*)] }, comdat, align 8
@.str.11 = private unnamed_addr constant [15 x i8] c"i <= capacity_\00", align 1
@.str.12 = private unnamed_addr constant [41 x i8] c"!RangesOverlap(from_begin, from_end, to)\00", align 1

@_ZN5media9WebmMuxer15VideoParametersC1E13scoped_refptrINS_10VideoFrameEE = hidden unnamed_addr alias void (%"struct.media::WebmMuxer::VideoParameters"*, %class.scoped_refptr*), void (%"struct.media::WebmMuxer::VideoParameters"*, %class.scoped_refptr*)* @_ZN5media9WebmMuxer15VideoParametersC2E13scoped_refptrINS_10VideoFrameEE
@_ZN5media9WebmMuxer15VideoParametersD1Ev = hidden unnamed_addr alias void (%"struct.media::WebmMuxer::VideoParameters"*), void (%"struct.media::WebmMuxer::VideoParameters"*)* @_ZN5media9WebmMuxer15VideoParametersD2Ev
@_ZN5media9WebmMuxerC1ENS_10VideoCodecENS_10AudioCodecEbbRKN4base17RepeatingCallbackIFvNS3_16BasicStringPieceINSt3__112basic_stringIcNS6_11char_traitsIcEENS6_9allocatorIcEEEEEEEEE = hidden unnamed_addr alias void (%"class.media::WebmMuxer"*, i32, i32, i1, i1, %"class.base::RepeatingCallback"*), void (%"class.media::WebmMuxer"*, i32, i32, i1, i1, %"class.base::RepeatingCallback"*)* @_ZN5media9WebmMuxerC2ENS_10VideoCodecENS_10AudioCodecEbbRKN4base17RepeatingCallbackIFvNS3_16BasicStringPieceINSt3__112basic_stringIcNS6_11char_traitsIcEENS6_9allocatorIcEEEEEEEEE
@_ZN5media9WebmMuxerD1Ev = hidden unnamed_addr alias void (%"class.media::WebmMuxer"*), void (%"class.media::WebmMuxer"*)* @_ZN5media9WebmMuxerD2Ev
@_ZN5media9WebmMuxer17EncodedVideoFrameC1ENSt3__110unique_ptrINS2_12basic_stringIcNS2_11char_traitsIcEENS2_9allocatorIcEEEENS2_14default_deleteIS9_EEEESC_N4base9TimeTicksEb = hidden unnamed_addr alias void (%"struct.media::WebmMuxer::EncodedVideoFrame"*, %"class.std::__1::unique_ptr.82"*, %"class.std::__1::unique_ptr.82"*, i64, i1), void (%"struct.media::WebmMuxer::EncodedVideoFrame"*, %"class.std::__1::unique_ptr.82"*, %"class.std::__1::unique_ptr.82"*, i64, i1)* @_ZN5media9WebmMuxer17EncodedVideoFrameC2ENSt3__110unique_ptrINS2_12basic_stringIcNS2_11char_traitsIcEENS2_9allocatorIcEEEENS2_14default_deleteIS9_EEEESC_N4base9TimeTicksEb
@_ZN5media9WebmMuxer17EncodedVideoFrameD1Ev = hidden unnamed_addr alias void (%"struct.media::WebmMuxer::EncodedVideoFrame"*), void (%"struct.media::WebmMuxer::EncodedVideoFrame"*)* @_ZN5media9WebmMuxer17EncodedVideoFrameD2Ev

; Function Attrs: nounwind ssp uwtable
define hidden void @_ZN5media9WebmMuxer15VideoParametersC2E13scoped_refptrINS_10VideoFrameEE(%"struct.media::WebmMuxer::VideoParameters"*, %class.scoped_refptr* nocapture readonly) unnamed_addr #0 align 2 {
  %3 = getelementptr inbounds %"struct.media::WebmMuxer::VideoParameters", %"struct.media::WebmMuxer::VideoParameters"* %0, i64 0, i32 0, i32 0
  store i32 0, i32* %3, align 4
  %4 = getelementptr inbounds %"struct.media::WebmMuxer::VideoParameters", %"struct.media::WebmMuxer::VideoParameters"* %0, i64 0, i32 0, i32 1
  store i32 0, i32* %4, align 4
  %5 = getelementptr inbounds %class.scoped_refptr, %class.scoped_refptr* %1, i64 0, i32 0
  %6 = load %"class.media::VideoFrame"*, %"class.media::VideoFrame"** %5, align 8
  %7 = getelementptr inbounds %"class.media::VideoFrame", %"class.media::VideoFrame"* %6, i64 0, i32 4, i32 1
  %8 = bitcast %"class.gfx::Size"* %7 to i64*
  %9 = bitcast %"struct.media::WebmMuxer::VideoParameters"* %0 to i64*
  %10 = load i64, i64* %8, align 4
  store i64 %10, i64* %9, align 8
  %11 = getelementptr inbounds %"struct.media::WebmMuxer::VideoParameters", %"struct.media::WebmMuxer::VideoParameters"* %0, i64 0, i32 1
  store double 0.000000e+00, double* %11, align 8
  %12 = load %"class.media::VideoFrame"*, %"class.media::VideoFrame"** %5, align 8
  %13 = getelementptr inbounds %"class.media::VideoFrame", %"class.media::VideoFrame"* %12, i64 0, i32 18
  %14 = tail call zeroext i1 @_ZNK5media18VideoFrameMetadata9GetDoubleENS0_3KeyEPd(%"class.media::VideoFrameMetadata"* nonnull %13, i32 6, double* nonnull %11) #14
  ret void
}

; Function Attrs: argmemonly nounwind
declare void @llvm.memcpy.p0i8.p0i8.i64(i8* nocapture writeonly, i8* nocapture readonly, i64, i1) #1

; Function Attrs: argmemonly nounwind
declare void @llvm.lifetime.start.p0i8(i64, i8* nocapture) #1

declare zeroext i1 @_ZNK5media18VideoFrameMetadata9GetDoubleENS0_3KeyEPd(%"class.media::VideoFrameMetadata"*, i32, double*) local_unnamed_addr #2

; Function Attrs: argmemonly nounwind
declare void @llvm.lifetime.end.p0i8(i64, i8* nocapture) #1

; Function Attrs: norecurse nounwind readnone ssp uwtable
define hidden void @_ZN5media9WebmMuxer15VideoParametersD2Ev(%"struct.media::WebmMuxer::VideoParameters"* nocapture) unnamed_addr #3 align 2 {
  ret void
}

; Function Attrs: nounwind ssp uwtable
define hidden void @_ZN5media9WebmMuxerC2ENS_10VideoCodecENS_10AudioCodecEbbRKN4base17RepeatingCallbackIFvNS3_16BasicStringPieceINSt3__112basic_stringIcNS6_11char_traitsIcEENS6_9allocatorIcEEEEEEEEE(%"class.media::WebmMuxer"*, i32, i32, i1 zeroext, i1 zeroext, %"class.base::RepeatingCallback"* dereferenceable(8)) unnamed_addr #0 align 2 {
  %7 = zext i1 %3 to i8
  %8 = zext i1 %4 to i8
  %9 = getelementptr inbounds %"class.media::WebmMuxer", %"class.media::WebmMuxer"* %0, i64 0, i32 0
  tail call void @_ZN8mkvmuxer10IMkvWriterC2Ev(%"class.mkvmuxer::IMkvWriter"* %9) #14
  %10 = getelementptr inbounds %"class.media::WebmMuxer", %"class.media::WebmMuxer"* %0, i64 0, i32 0, i32 0
  store i32 (...)** bitcast (i8** getelementptr inbounds ({ [9 x i8*] }, { [9 x i8*] }* @_ZTVN5media9WebmMuxerE, i64 0, inrange i32 0, i64 2) to i32 (...)**), i32 (...)*** %10, align 8
  %11 = getelementptr inbounds %"class.media::WebmMuxer", %"class.media::WebmMuxer"* %0, i64 0, i32 2
  store i32 %1, i32* %11, align 4
  %12 = getelementptr inbounds %"class.media::WebmMuxer", %"class.media::WebmMuxer"* %0, i64 0, i32 3
  store i32 %2, i32* %12, align 8
  %13 = getelementptr inbounds %"class.media::WebmMuxer", %"class.media::WebmMuxer"* %0, i64 0, i32 4
  store i8 0, i8* %13, align 4
  %14 = getelementptr inbounds %"class.media::WebmMuxer", %"class.media::WebmMuxer"* %0, i64 0, i32 5
  store i8 0, i8* %14, align 1
  %15 = getelementptr inbounds %"class.media::WebmMuxer", %"class.media::WebmMuxer"* %0, i64 0, i32 6, i32 0, i32 0
  %16 = getelementptr inbounds %"class.media::WebmMuxer", %"class.media::WebmMuxer"* %0, i64 0, i32 11
  %17 = bitcast i64* %15 to i8*
  call void @llvm.memset.p0i8.i64(i8* nonnull align 8 %17, i8 0, i64 40, i1 false)
  store i8 %7, i8* %16, align 8
  %18 = getelementptr inbounds %"class.media::WebmMuxer", %"class.media::WebmMuxer"* %0, i64 0, i32 12
  store i8 %8, i8* %18, align 1
  %19 = getelementptr inbounds %"class.media::WebmMuxer", %"class.media::WebmMuxer"* %0, i64 0, i32 13, i32 0
  %20 = getelementptr inbounds %"class.base::RepeatingCallback", %"class.base::RepeatingCallback"* %5, i64 0, i32 0
  tail call void @_ZN4base8internal20CallbackBaseCopyableC2ERKS1_(%"class.base::internal::CallbackBaseCopyable"* nonnull %19, %"class.base::internal::CallbackBaseCopyable"* nonnull dereferenceable(8) %20) #14
  %21 = getelementptr inbounds %"class.media::WebmMuxer", %"class.media::WebmMuxer"* %0, i64 0, i32 14, i32 0, i32 0
  store i8 1, i8* %21, align 8
  %22 = getelementptr inbounds %"class.media::WebmMuxer", %"class.media::WebmMuxer"* %0, i64 0, i32 14, i32 0, i32 1
  store i64 0, i64* %22, align 8
  %23 = getelementptr inbounds %"class.media::WebmMuxer", %"class.media::WebmMuxer"* %0, i64 0, i32 15
  tail call void @_ZN8mkvmuxer7SegmentC1Ev(%"class.mkvmuxer::Segment"* nonnull %23) #14
  %24 = getelementptr inbounds %"class.media::WebmMuxer", %"class.media::WebmMuxer"* %0, i64 0, i32 16
  store i8 0, i8* %24, align 8
  %25 = getelementptr inbounds %"class.media::WebmMuxer", %"class.media::WebmMuxer"* %0, i64 0, i32 17
  %26 = bitcast %"class.base::circular_deque"* %25 to i8*
  tail call void @llvm.memset.p0i8.i64(i8* nonnull align 8 %26, i8 0, i64 32, i1 false) #14
  %27 = tail call zeroext i1 @_ZN8mkvmuxer7Segment4InitEPNS_10IMkvWriterE(%"class.mkvmuxer::Segment"* nonnull %23, %"class.mkvmuxer::IMkvWriter"* %9) #14
  %28 = getelementptr inbounds %"class.media::WebmMuxer", %"class.media::WebmMuxer"* %0, i64 0, i32 15, i32 33
  store i32 1, i32* %28, align 8
  tail call void @_ZN8mkvmuxer7Segment10OutputCuesEb(%"class.mkvmuxer::Segment"* nonnull %23, i1 zeroext false) #14
  %29 = getelementptr inbounds %"class.media::WebmMuxer", %"class.media::WebmMuxer"* %0, i64 0, i32 15, i32 4
  tail call void @_ZN8mkvmuxer11SegmentInfo15set_writing_appEPKc(%"class.mkvmuxer::SegmentInfo"* nonnull %29, i8* getelementptr inbounds ([7 x i8], [7 x i8]* @.str, i64 0, i64 0)) #14
  tail call void @_ZN8mkvmuxer11SegmentInfo14set_muxing_appEPKc(%"class.mkvmuxer::SegmentInfo"* nonnull %29, i8* getelementptr inbounds ([7 x i8], [7 x i8]* @.str, i64 0, i64 0)) #14
  ret void
}

declare void @_ZN8mkvmuxer10IMkvWriterC2Ev(%"class.mkvmuxer::IMkvWriter"*) unnamed_addr #2

declare void @_ZN8mkvmuxer7SegmentC1Ev(%"class.mkvmuxer::Segment"*) unnamed_addr #2

declare zeroext i1 @_ZN8mkvmuxer7Segment4InitEPNS_10IMkvWriterE(%"class.mkvmuxer::Segment"*, %"class.mkvmuxer::IMkvWriter"*) local_unnamed_addr #2

declare void @_ZN8mkvmuxer7Segment10OutputCuesEb(%"class.mkvmuxer::Segment"*, i1 zeroext) local_unnamed_addr #2

declare void @_ZN8mkvmuxer11SegmentInfo15set_writing_appEPKc(%"class.mkvmuxer::SegmentInfo"*, i8*) local_unnamed_addr #2

declare void @_ZN8mkvmuxer11SegmentInfo14set_muxing_appEPKc(%"class.mkvmuxer::SegmentInfo"*, i8*) local_unnamed_addr #2

; Function Attrs: nounwind ssp uwtable
define hidden void @_ZN5media9WebmMuxerD2Ev(%"class.media::WebmMuxer"*) unnamed_addr #0 align 2 {
  %2 = getelementptr inbounds %"class.media::WebmMuxer", %"class.media::WebmMuxer"* %0, i64 0, i32 0, i32 0
  store i32 (...)** bitcast (i8** getelementptr inbounds ({ [9 x i8*] }, { [9 x i8*] }* @_ZTVN5media9WebmMuxerE, i64 0, inrange i32 0, i64 2) to i32 (...)**), i32 (...)*** %2, align 8
  %3 = getelementptr inbounds %"class.media::WebmMuxer", %"class.media::WebmMuxer"* %0, i64 0, i32 15
  %4 = tail call zeroext i1 @_ZN8mkvmuxer7Segment8FinalizeEv(%"class.mkvmuxer::Segment"* nonnull %3) #14
  %5 = getelementptr inbounds %"class.media::WebmMuxer", %"class.media::WebmMuxer"* %0, i64 0, i32 17
  %6 = getelementptr inbounds %"class.media::WebmMuxer", %"class.media::WebmMuxer"* %0, i64 0, i32 17, i32 1
  %7 = load i64, i64* %6, align 8
  %8 = getelementptr inbounds %"class.media::WebmMuxer", %"class.media::WebmMuxer"* %0, i64 0, i32 17, i32 2
  %9 = load i64, i64* %8, align 8
  tail call void @_ZN4base14circular_dequeINSt3__110unique_ptrIN5media9WebmMuxer17EncodedVideoFrameENS1_14default_deleteIS5_EEEEE13DestructRangeEmm(%"class.base::circular_deque"* nonnull %5, i64 %7, i64 %9) #14
  %10 = bitcast %"class.base::circular_deque"* %5 to i8**
  %11 = load i8*, i8** %10, align 8
  tail call void @free(i8* %11) #14
  tail call void @_ZN8mkvmuxer7SegmentD1Ev(%"class.mkvmuxer::Segment"* nonnull %3) #14
  %12 = getelementptr inbounds %"class.media::WebmMuxer", %"class.media::WebmMuxer"* %0, i64 0, i32 13, i32 0, i32 0
  tail call void @_ZN4base8internal12CallbackBaseD2Ev(%"class.base::internal::CallbackBase"* nonnull %12) #14
  %13 = getelementptr inbounds %"class.media::WebmMuxer", %"class.media::WebmMuxer"* %0, i64 0, i32 9, i32 0, i32 0, i32 0
  %14 = load %"class.base::ElapsedTimer"*, %"class.base::ElapsedTimer"** %13, align 8
  store %"class.base::ElapsedTimer"* null, %"class.base::ElapsedTimer"** %13, align 8
  %15 = icmp eq %"class.base::ElapsedTimer"* %14, null
  br i1 %15, label %18, label %16

; <label>:16:                                     ; preds = %1
  %17 = bitcast %"class.base::ElapsedTimer"* %14 to i8*
  tail call void @_ZdlPv(i8* %17) #15
  br label %18

; <label>:18:                                     ; preds = %1, %16
  %19 = getelementptr inbounds %"class.media::WebmMuxer", %"class.media::WebmMuxer"* %0, i64 0, i32 0
  tail call void @_ZN8mkvmuxer10IMkvWriterD2Ev(%"class.mkvmuxer::IMkvWriter"* %19) #14
  ret void
}

declare zeroext i1 @_ZN8mkvmuxer7Segment8FinalizeEv(%"class.mkvmuxer::Segment"*) local_unnamed_addr #2

; Function Attrs: nounwind
declare void @_ZN8mkvmuxer7SegmentD1Ev(%"class.mkvmuxer::Segment"*) unnamed_addr #4

; Function Attrs: nounwind
declare void @_ZN4base8internal12CallbackBaseD2Ev(%"class.base::internal::CallbackBase"*) unnamed_addr #4

; Function Attrs: nounwind
declare void @_ZN8mkvmuxer10IMkvWriterD2Ev(%"class.mkvmuxer::IMkvWriter"*) unnamed_addr #4

; Function Attrs: nounwind ssp uwtable
define hidden void @_ZN5media9WebmMuxerD0Ev(%"class.media::WebmMuxer"*) unnamed_addr #0 align 2 {
  tail call void @_ZN5media9WebmMuxerD2Ev(%"class.media::WebmMuxer"* %0) #14
  %2 = bitcast %"class.media::WebmMuxer"* %0 to i8*
  tail call void @_ZdlPv(i8* %2) #15
  ret void
}

; Function Attrs: nobuiltin nounwind
declare void @_ZdlPv(i8*) local_unnamed_addr #5

; Function Attrs: nounwind ssp uwtable
define hidden zeroext i1 @_ZN5media9WebmMuxer14OnEncodedVideoERKNS0_15VideoParametersENSt3__110unique_ptrINS4_12basic_stringIcNS4_11char_traitsIcEENS4_9allocatorIcEEEENS4_14default_deleteISB_EEEESE_N4base9TimeTicksEb(%"class.media::WebmMuxer"*, %"struct.media::WebmMuxer::VideoParameters"* nocapture readonly dereferenceable(16), %"class.std::__1::unique_ptr.82"* nocapture, %"class.std::__1::unique_ptr.82"* nocapture, i64, i1 zeroext) local_unnamed_addr #0 align 2 {
  %7 = alloca %"class.std::__1::unique_ptr.79", align 8
  %8 = alloca %"class.std::__1::unique_ptr.82", align 8
  %9 = alloca %"class.std::__1::unique_ptr.82", align 8
  %10 = zext i1 %5 to i8
  %11 = getelementptr inbounds %"class.std::__1::unique_ptr.82", %"class.std::__1::unique_ptr.82"* %2, i64 0, i32 0, i32 0, i32 0
  %12 = load %"class.std::__1::basic_string"*, %"class.std::__1::basic_string"** %11, align 8
  %13 = bitcast %"class.std::__1::basic_string"* %12 to %"struct.std::__1::basic_string<char, std::__1::char_traits<char>, std::__1::allocator<char> >::__short"*
  %14 = getelementptr inbounds %"struct.std::__1::basic_string<char, std::__1::char_traits<char>, std::__1::allocator<char> >::__short", %"struct.std::__1::basic_string<char, std::__1::char_traits<char>, std::__1::allocator<char> >::__short"* %13, i64 0, i32 1, i32 0
  %15 = load i8, i8* %14, align 1
  %16 = icmp slt i8 %15, 0
  br i1 %16, label %17, label %20

; <label>:17:                                     ; preds = %6
  %18 = getelementptr inbounds %"class.std::__1::basic_string", %"class.std::__1::basic_string"* %12, i64 0, i32 0, i32 0, i32 0, i32 0, i32 0, i32 1
  %19 = load i64, i64* %18, align 8
  br label %22

; <label>:20:                                     ; preds = %6
  %21 = zext i8 %15 to i64
  br label %22

; <label>:22:                                     ; preds = %17, %20
  %23 = phi i64 [ %19, %17 ], [ %21, %20 ]
  %24 = icmp eq i64 %23, 0
  br i1 %24, label %169, label %25

; <label>:25:                                     ; preds = %22
  %26 = getelementptr inbounds %"class.media::WebmMuxer", %"class.media::WebmMuxer"* %0, i64 0, i32 4
  %27 = load i8, i8* %26, align 4
  %28 = icmp eq i8 %27, 0
  br i1 %28, label %29, label %59

; <label>:29:                                     ; preds = %25
  %30 = getelementptr inbounds %"class.media::WebmMuxer", %"class.media::WebmMuxer"* %0, i64 0, i32 15
  %31 = getelementptr inbounds %"struct.media::WebmMuxer::VideoParameters", %"struct.media::WebmMuxer::VideoParameters"* %1, i64 0, i32 0, i32 0
  %32 = load i32, i32* %31, align 4
  %33 = getelementptr inbounds %"struct.media::WebmMuxer::VideoParameters", %"struct.media::WebmMuxer::VideoParameters"* %1, i64 0, i32 0, i32 1
  %34 = load i32, i32* %33, align 4
  %35 = tail call i64 @_ZN8mkvmuxer7Segment13AddVideoTrackEiii(%"class.mkvmuxer::Segment"* nonnull %30, i32 %32, i32 %34, i32 0) #14
  %36 = trunc i64 %35 to i8
  store i8 %36, i8* %26, align 4
  %37 = and i64 %35, 255
  %38 = icmp eq i64 %37, 0
  br i1 %38, label %54, label %39

; <label>:39:                                     ; preds = %29
  %40 = tail call %"class.mkvmuxer::Track"* @_ZNK8mkvmuxer7Segment16GetTrackByNumberEm(%"class.mkvmuxer::Segment"* nonnull %30, i64 %37) #14
  %41 = getelementptr inbounds %"class.media::WebmMuxer", %"class.media::WebmMuxer"* %0, i64 0, i32 2
  %42 = load i32, i32* %41, align 4
  switch i32 %42, label %45 [
    i32 6, label %46
    i32 7, label %43
    i32 1, label %44
  ]

; <label>:43:                                     ; preds = %39
  br label %46

; <label>:44:                                     ; preds = %39
  br label %46

; <label>:45:                                     ; preds = %39
  br label %46

; <label>:46:                                     ; preds = %45, %44, %43, %39
  %47 = phi i8* [ getelementptr inbounds ([1 x i8], [1 x i8]* @.str.3, i64 0, i64 0), %45 ], [ getelementptr inbounds ([16 x i8], [16 x i8]* @_ZN5media12_GLOBAL__N_112kH264CodecIdE, i64 0, i64 0), %44 ], [ getelementptr inbounds ([0 x i8], [0 x i8]* @_ZN8mkvmuxer6Tracks11kVp9CodecIdE, i64 0, i64 0), %43 ], [ getelementptr inbounds ([0 x i8], [0 x i8]* @_ZN8mkvmuxer6Tracks11kVp8CodecIdE, i64 0, i64 0), %39 ]
  tail call void @_ZN8mkvmuxer5Track12set_codec_idEPKc(%"class.mkvmuxer::Track"* %40, i8* nonnull %47) #14
  %48 = load i32, i32* %41, align 4
  %49 = icmp eq i32 %48, 1
  br i1 %49, label %54, label %50

; <label>:50:                                     ; preds = %46
  %51 = bitcast %"class.mkvmuxer::Track"* %40 to %"class.mkvmuxer::VideoTrack"*
  %52 = tail call zeroext i1 @_ZN8mkvmuxer10VideoTrack12SetAlphaModeEm(%"class.mkvmuxer::VideoTrack"* %51, i64 1) #14
  %53 = getelementptr inbounds %"class.mkvmuxer::Track", %"class.mkvmuxer::Track"* %40, i64 0, i32 4
  store i64 1, i64* %53, align 8
  br label %54

; <label>:54:                                     ; preds = %29, %46, %50
  %55 = getelementptr inbounds %"class.media::WebmMuxer", %"class.media::WebmMuxer"* %0, i64 0, i32 6, i32 0, i32 0
  %56 = load i64, i64* %55, align 8
  %57 = icmp eq i64 %56, 0
  br i1 %57, label %58, label %59

; <label>:58:                                     ; preds = %54
  store i64 %4, i64* %55, align 8
  br label %59

; <label>:59:                                     ; preds = %25, %54, %58
  %60 = getelementptr inbounds %"class.media::WebmMuxer", %"class.media::WebmMuxer"* %0, i64 0, i32 12
  %61 = load i8, i8* %60, align 1, !range !2
  %62 = icmp eq i8 %61, 0
  br i1 %62, label %129, label %63

; <label>:63:                                     ; preds = %59
  %64 = getelementptr inbounds %"class.media::WebmMuxer", %"class.media::WebmMuxer"* %0, i64 0, i32 5
  %65 = load i8, i8* %64, align 1
  %66 = icmp eq i8 %65, 0
  br i1 %66, label %67, label %129

; <label>:67:                                     ; preds = %63
  %68 = getelementptr inbounds %"class.media::WebmMuxer", %"class.media::WebmMuxer"* %0, i64 0, i32 17
  br i1 %5, label %69, label %78

; <label>:69:                                     ; preds = %67
  %70 = getelementptr inbounds %"class.media::WebmMuxer", %"class.media::WebmMuxer"* %0, i64 0, i32 17, i32 1
  %71 = load i64, i64* %70, align 8
  %72 = getelementptr inbounds %"class.media::WebmMuxer", %"class.media::WebmMuxer"* %0, i64 0, i32 17, i32 2
  %73 = load i64, i64* %72, align 8
  tail call void @_ZN4base14circular_dequeINSt3__110unique_ptrIN5media9WebmMuxer17EncodedVideoFrameENS1_14default_deleteIS5_EEEEE13DestructRangeEmm(%"class.base::circular_deque"* nonnull %68, i64 %71, i64 %73) #14
  %74 = bitcast i64* %70 to i8*
  tail call void @llvm.memset.p0i8.i64(i8* nonnull align 8 %74, i8 0, i64 16, i1 false) #14
  %75 = bitcast %"class.base::circular_deque"* %68 to i8**
  %76 = load i8*, i8** %75, align 8
  tail call void @free(i8* %76) #14
  %77 = bitcast %"class.base::circular_deque"* %68 to i8*
  tail call void @llvm.memset.p0i8.i64(i8* nonnull align 8 %77, i8 0, i64 16, i1 false) #14
  br label %78

; <label>:78:                                     ; preds = %67, %69
  %79 = bitcast %"class.std::__1::unique_ptr.79"* %7 to i8*
  call void @llvm.lifetime.start.p0i8(i64 8, i8* nonnull %79) #14
  %80 = tail call i8* @_Znwm(i64 32) #15, !noalias !3
  %81 = bitcast %"class.std::__1::unique_ptr.82"* %2 to i64*
  %82 = load i64, i64* %81, align 8, !noalias !3
  store %"class.std::__1::basic_string"* null, %"class.std::__1::basic_string"** %11, align 8, !noalias !3
  %83 = getelementptr inbounds %"class.std::__1::unique_ptr.82", %"class.std::__1::unique_ptr.82"* %3, i64 0, i32 0, i32 0, i32 0
  %84 = bitcast %"class.std::__1::unique_ptr.82"* %3 to i64*
  %85 = load i64, i64* %84, align 8, !noalias !3
  store %"class.std::__1::basic_string"* null, %"class.std::__1::basic_string"** %83, align 8, !noalias !3
  %86 = bitcast i8* %80 to i64*
  store i64 %82, i64* %86, align 8, !noalias !3
  %87 = getelementptr inbounds i8, i8* %80, i64 8
  %88 = bitcast i8* %87 to i64*
  store i64 %85, i64* %88, align 8, !noalias !3
  %89 = getelementptr inbounds i8, i8* %80, i64 16
  %90 = bitcast i8* %89 to i64*
  store i64 %4, i64* %90, align 8, !noalias !3
  %91 = getelementptr inbounds i8, i8* %80, i64 24
  store i8 %10, i8* %91, align 8, !noalias !3
  %92 = ptrtoint i8* %80 to i64
  %93 = bitcast %"class.std::__1::unique_ptr.79"* %7 to i64*
  store i64 %92, i64* %93, align 8, !alias.scope !3
  %94 = call dereferenceable(8) %"class.std::__1::unique_ptr.79"* @_ZN4base14circular_dequeINSt3__110unique_ptrIN5media9WebmMuxer17EncodedVideoFrameENS1_14default_deleteIS5_EEEEE12emplace_backIJS8_EEERS8_DpOT_(%"class.base::circular_deque"* nonnull %68, %"class.std::__1::unique_ptr.79"* nonnull dereferenceable(8) %7) #14
  %95 = getelementptr inbounds %"class.std::__1::unique_ptr.79", %"class.std::__1::unique_ptr.79"* %7, i64 0, i32 0, i32 0, i32 0
  %96 = load %"struct.media::WebmMuxer::EncodedVideoFrame"*, %"struct.media::WebmMuxer::EncodedVideoFrame"** %95, align 8
  store %"struct.media::WebmMuxer::EncodedVideoFrame"* null, %"struct.media::WebmMuxer::EncodedVideoFrame"** %95, align 8
  %97 = icmp eq %"struct.media::WebmMuxer::EncodedVideoFrame"* %96, null
  br i1 %97, label %128, label %98

; <label>:98:                                     ; preds = %78
  %99 = getelementptr inbounds %"struct.media::WebmMuxer::EncodedVideoFrame", %"struct.media::WebmMuxer::EncodedVideoFrame"* %96, i64 0, i32 1, i32 0, i32 0, i32 0
  %100 = load %"class.std::__1::basic_string"*, %"class.std::__1::basic_string"** %99, align 8
  store %"class.std::__1::basic_string"* null, %"class.std::__1::basic_string"** %99, align 8
  %101 = icmp eq %"class.std::__1::basic_string"* %100, null
  br i1 %101, label %112, label %102

; <label>:102:                                    ; preds = %98
  %103 = bitcast %"class.std::__1::basic_string"* %100 to %"struct.std::__1::basic_string<char, std::__1::char_traits<char>, std::__1::allocator<char> >::__short"*
  %104 = getelementptr inbounds %"struct.std::__1::basic_string<char, std::__1::char_traits<char>, std::__1::allocator<char> >::__short", %"struct.std::__1::basic_string<char, std::__1::char_traits<char>, std::__1::allocator<char> >::__short"* %103, i64 0, i32 1, i32 0
  %105 = load i8, i8* %104, align 1
  %106 = icmp slt i8 %105, 0
  br i1 %106, label %107, label %110

; <label>:107:                                    ; preds = %102
  %108 = getelementptr inbounds %"class.std::__1::basic_string", %"class.std::__1::basic_string"* %100, i64 0, i32 0, i32 0, i32 0, i32 0, i32 0, i32 0
  %109 = load i8*, i8** %108, align 8
  call void @_ZdlPv(i8* %109) #15
  br label %110

; <label>:110:                                    ; preds = %107, %102
  %111 = bitcast %"class.std::__1::basic_string"* %100 to i8*
  call void @_ZdlPv(i8* %111) #15
  br label %112

; <label>:112:                                    ; preds = %110, %98
  %113 = getelementptr inbounds %"struct.media::WebmMuxer::EncodedVideoFrame", %"struct.media::WebmMuxer::EncodedVideoFrame"* %96, i64 0, i32 0, i32 0, i32 0, i32 0
  %114 = load %"class.std::__1::basic_string"*, %"class.std::__1::basic_string"** %113, align 8
  store %"class.std::__1::basic_string"* null, %"class.std::__1::basic_string"** %113, align 8
  %115 = icmp eq %"class.std::__1::basic_string"* %114, null
  br i1 %115, label %126, label %116

; <label>:116:                                    ; preds = %112
  %117 = bitcast %"class.std::__1::basic_string"* %114 to %"struct.std::__1::basic_string<char, std::__1::char_traits<char>, std::__1::allocator<char> >::__short"*
  %118 = getelementptr inbounds %"struct.std::__1::basic_string<char, std::__1::char_traits<char>, std::__1::allocator<char> >::__short", %"struct.std::__1::basic_string<char, std::__1::char_traits<char>, std::__1::allocator<char> >::__short"* %117, i64 0, i32 1, i32 0
  %119 = load i8, i8* %118, align 1
  %120 = icmp slt i8 %119, 0
  br i1 %120, label %121, label %124

; <label>:121:                                    ; preds = %116
  %122 = getelementptr inbounds %"class.std::__1::basic_string", %"class.std::__1::basic_string"* %114, i64 0, i32 0, i32 0, i32 0, i32 0, i32 0, i32 0
  %123 = load i8*, i8** %122, align 8
  call void @_ZdlPv(i8* %123) #15
  br label %124

; <label>:124:                                    ; preds = %121, %116
  %125 = bitcast %"class.std::__1::basic_string"* %114 to i8*
  call void @_ZdlPv(i8* %125) #15
  br label %126

; <label>:126:                                    ; preds = %124, %112
  %127 = bitcast %"struct.media::WebmMuxer::EncodedVideoFrame"* %96 to i8*
  call void @_ZdlPv(i8* %127) #15
  br label %128

; <label>:128:                                    ; preds = %78, %126
  call void @llvm.lifetime.end.p0i8(i64 8, i8* nonnull %79) #14
  br label %169

; <label>:129:                                    ; preds = %63, %59
  %130 = bitcast %"class.std::__1::unique_ptr.82"* %2 to i64*
  %131 = load i64, i64* %130, align 8
  store %"class.std::__1::basic_string"* null, %"class.std::__1::basic_string"** %11, align 8
  %132 = bitcast %"class.std::__1::unique_ptr.82"* %8 to i64*
  store i64 %131, i64* %132, align 8
  %133 = getelementptr inbounds %"class.std::__1::unique_ptr.82", %"class.std::__1::unique_ptr.82"* %3, i64 0, i32 0, i32 0, i32 0
  %134 = bitcast %"class.std::__1::unique_ptr.82"* %3 to i64*
  %135 = load i64, i64* %134, align 8
  store %"class.std::__1::basic_string"* null, %"class.std::__1::basic_string"** %133, align 8
  %136 = bitcast %"class.std::__1::unique_ptr.82"* %9 to i64*
  store i64 %135, i64* %136, align 8
  %137 = load i8, i8* %26, align 4
  %138 = getelementptr inbounds %"class.media::WebmMuxer", %"class.media::WebmMuxer"* %0, i64 0, i32 6, i32 0, i32 0
  %139 = load i64, i64* %138, align 8
  %140 = sub nsw i64 %4, %139
  %141 = call zeroext i1 @_ZN5media9WebmMuxer8AddFrameENSt3__110unique_ptrINS1_12basic_stringIcNS1_11char_traitsIcEENS1_9allocatorIcEEEENS1_14default_deleteIS8_EEEESB_hN4base9TimeDeltaEb(%"class.media::WebmMuxer"* nonnull %0, %"class.std::__1::unique_ptr.82"* nonnull %8, %"class.std::__1::unique_ptr.82"* nonnull %9, i8 zeroext %137, i64 %140, i1 zeroext %5)
  %142 = getelementptr inbounds %"class.std::__1::unique_ptr.82", %"class.std::__1::unique_ptr.82"* %9, i64 0, i32 0, i32 0, i32 0
  %143 = inttoptr i64 %135 to %"class.std::__1::basic_string"*
  store %"class.std::__1::basic_string"* null, %"class.std::__1::basic_string"** %142, align 8
  %144 = icmp eq i64 %135, 0
  %145 = inttoptr i64 %131 to %"class.std::__1::basic_string"*
  br i1 %144, label %156, label %146

; <label>:146:                                    ; preds = %129
  %147 = inttoptr i64 %135 to %"struct.std::__1::basic_string<char, std::__1::char_traits<char>, std::__1::allocator<char> >::__short"*
  %148 = getelementptr inbounds %"struct.std::__1::basic_string<char, std::__1::char_traits<char>, std::__1::allocator<char> >::__short", %"struct.std::__1::basic_string<char, std::__1::char_traits<char>, std::__1::allocator<char> >::__short"* %147, i64 0, i32 1, i32 0
  %149 = load i8, i8* %148, align 1
  %150 = icmp slt i8 %149, 0
  br i1 %150, label %151, label %154

; <label>:151:                                    ; preds = %146
  %152 = getelementptr inbounds %"class.std::__1::basic_string", %"class.std::__1::basic_string"* %143, i64 0, i32 0, i32 0, i32 0, i32 0, i32 0, i32 0
  %153 = load i8*, i8** %152, align 8
  tail call void @_ZdlPv(i8* %153) #15
  br label %154

; <label>:154:                                    ; preds = %151, %146
  %155 = inttoptr i64 %135 to i8*
  tail call void @_ZdlPv(i8* %155) #15
  br label %156

; <label>:156:                                    ; preds = %129, %154
  %157 = getelementptr inbounds %"class.std::__1::unique_ptr.82", %"class.std::__1::unique_ptr.82"* %8, i64 0, i32 0, i32 0, i32 0
  store %"class.std::__1::basic_string"* null, %"class.std::__1::basic_string"** %157, align 8
  %158 = icmp eq i64 %131, 0
  br i1 %158, label %169, label %159

; <label>:159:                                    ; preds = %156
  %160 = inttoptr i64 %131 to %"struct.std::__1::basic_string<char, std::__1::char_traits<char>, std::__1::allocator<char> >::__short"*
  %161 = getelementptr inbounds %"struct.std::__1::basic_string<char, std::__1::char_traits<char>, std::__1::allocator<char> >::__short", %"struct.std::__1::basic_string<char, std::__1::char_traits<char>, std::__1::allocator<char> >::__short"* %160, i64 0, i32 1, i32 0
  %162 = load i8, i8* %161, align 1
  %163 = icmp slt i8 %162, 0
  br i1 %163, label %164, label %167

; <label>:164:                                    ; preds = %159
  %165 = getelementptr inbounds %"class.std::__1::basic_string", %"class.std::__1::basic_string"* %145, i64 0, i32 0, i32 0, i32 0, i32 0, i32 0, i32 0
  %166 = load i8*, i8** %165, align 8
  tail call void @_ZdlPv(i8* %166) #15
  br label %167

; <label>:167:                                    ; preds = %164, %159
  %168 = inttoptr i64 %131 to i8*
  tail call void @_ZdlPv(i8* %168) #15
  br label %169

; <label>:169:                                    ; preds = %167, %156, %22, %128
  %170 = phi i1 [ true, %128 ], [ true, %22 ], [ %141, %156 ], [ %141, %167 ]
  ret i1 %170
}

; Function Attrs: nounwind ssp uwtable
define hidden void @_ZN5media9WebmMuxer13AddVideoTrackERKN3gfx4SizeEd(%"class.media::WebmMuxer"*, %"class.gfx::Size"* nocapture readonly dereferenceable(8), double) local_unnamed_addr #0 align 2 {
  %4 = getelementptr inbounds %"class.media::WebmMuxer", %"class.media::WebmMuxer"* %0, i64 0, i32 15
  %5 = getelementptr inbounds %"class.gfx::Size", %"class.gfx::Size"* %1, i64 0, i32 0
  %6 = load i32, i32* %5, align 4
  %7 = getelementptr inbounds %"class.gfx::Size", %"class.gfx::Size"* %1, i64 0, i32 1
  %8 = load i32, i32* %7, align 4
  %9 = tail call i64 @_ZN8mkvmuxer7Segment13AddVideoTrackEiii(%"class.mkvmuxer::Segment"* nonnull %4, i32 %6, i32 %8, i32 0) #14
  %10 = trunc i64 %9 to i8
  %11 = getelementptr inbounds %"class.media::WebmMuxer", %"class.media::WebmMuxer"* %0, i64 0, i32 4
  store i8 %10, i8* %11, align 4
  %12 = and i64 %9, 255
  %13 = icmp eq i64 %12, 0
  br i1 %13, label %29, label %14

; <label>:14:                                     ; preds = %3
  %15 = tail call %"class.mkvmuxer::Track"* @_ZNK8mkvmuxer7Segment16GetTrackByNumberEm(%"class.mkvmuxer::Segment"* nonnull %4, i64 %12) #14
  %16 = getelementptr inbounds %"class.media::WebmMuxer", %"class.media::WebmMuxer"* %0, i64 0, i32 2
  %17 = load i32, i32* %16, align 4
  switch i32 %17, label %20 [
    i32 6, label %21
    i32 7, label %18
    i32 1, label %19
  ]

; <label>:18:                                     ; preds = %14
  br label %21

; <label>:19:                                     ; preds = %14
  br label %21

; <label>:20:                                     ; preds = %14
  br label %21

; <label>:21:                                     ; preds = %14, %18, %19, %20
  %22 = phi i8* [ getelementptr inbounds ([1 x i8], [1 x i8]* @.str.3, i64 0, i64 0), %20 ], [ getelementptr inbounds ([16 x i8], [16 x i8]* @_ZN5media12_GLOBAL__N_112kH264CodecIdE, i64 0, i64 0), %19 ], [ getelementptr inbounds ([0 x i8], [0 x i8]* @_ZN8mkvmuxer6Tracks11kVp9CodecIdE, i64 0, i64 0), %18 ], [ getelementptr inbounds ([0 x i8], [0 x i8]* @_ZN8mkvmuxer6Tracks11kVp8CodecIdE, i64 0, i64 0), %14 ]
  tail call void @_ZN8mkvmuxer5Track12set_codec_idEPKc(%"class.mkvmuxer::Track"* %15, i8* nonnull %22) #14
  %23 = load i32, i32* %16, align 4
  %24 = icmp eq i32 %23, 1
  br i1 %24, label %29, label %25

; <label>:25:                                     ; preds = %21
  %26 = bitcast %"class.mkvmuxer::Track"* %15 to %"class.mkvmuxer::VideoTrack"*
  %27 = tail call zeroext i1 @_ZN8mkvmuxer10VideoTrack12SetAlphaModeEm(%"class.mkvmuxer::VideoTrack"* %26, i64 1) #14
  %28 = getelementptr inbounds %"class.mkvmuxer::Track", %"class.mkvmuxer::Track"* %15, i64 0, i32 4
  store i64 1, i64* %28, align 8
  br label %29

; <label>:29:                                     ; preds = %25, %21, %3
  ret void
}

; Function Attrs: nounwind ssp uwtable
define hidden zeroext i1 @_ZN5media9WebmMuxer8AddFrameENSt3__110unique_ptrINS1_12basic_stringIcNS1_11char_traitsIcEENS1_9allocatorIcEEEENS1_14default_deleteIS8_EEEESB_hN4base9TimeDeltaEb(%"class.media::WebmMuxer"*, %"class.std::__1::unique_ptr.82"* nocapture readonly, %"class.std::__1::unique_ptr.82"* nocapture readonly, i8 zeroext, i64, i1 zeroext) local_unnamed_addr #0 align 2 {
  %7 = alloca i64, align 8
  %8 = getelementptr inbounds %"class.media::WebmMuxer", %"class.media::WebmMuxer"* %0, i64 0, i32 8
  %9 = bitcast i64* %7 to i8*
  call void @llvm.lifetime.start.p0i8(i64 8, i8* nonnull %9)
  %10 = getelementptr inbounds %"class.media::WebmMuxer", %"class.media::WebmMuxer"* %0, i64 0, i32 10, i32 0
  %11 = load i64, i64* %10, align 8
  %12 = tail call i64 @_ZN4base13time_internal12SaturatedSubENS_9TimeDeltaEl(i64 %4, i64 %11) #14
  store i64 %12, i64* %7, align 8
  %13 = getelementptr inbounds %"class.base::TimeDelta", %"class.base::TimeDelta"* %8, i64 0, i32 0
  %14 = load i64, i64* %13, align 8
  %15 = icmp slt i64 %14, %12
  %16 = bitcast i64* %7 to %"class.base::TimeDelta"*
  %17 = select i1 %15, %"class.base::TimeDelta"* %16, %"class.base::TimeDelta"* %8
  %18 = getelementptr inbounds %"class.base::TimeDelta", %"class.base::TimeDelta"* %17, i64 0, i32 0
  %19 = load i64, i64* %18, align 8
  store i64 %19, i64* %13, align 8
  call void @llvm.lifetime.end.p0i8(i64 8, i8* nonnull %9)
  %20 = getelementptr inbounds %"class.media::WebmMuxer", %"class.media::WebmMuxer"* %0, i64 0, i32 16
  %21 = load i8, i8* %20, align 8, !range !2
  %22 = icmp eq i8 %21, 0
  br i1 %22, label %24, label %23

; <label>:23:                                     ; preds = %6
  store i8 0, i8* %20, align 8
  br label %96

; <label>:24:                                     ; preds = %6
  %25 = getelementptr inbounds %"class.std::__1::unique_ptr.82", %"class.std::__1::unique_ptr.82"* %2, i64 0, i32 0, i32 0, i32 0
  %26 = load %"class.std::__1::basic_string"*, %"class.std::__1::basic_string"** %25, align 8
  %27 = icmp eq %"class.std::__1::basic_string"* %26, null
  br i1 %27, label %41, label %28

; <label>:28:                                     ; preds = %24
  %29 = bitcast %"class.std::__1::basic_string"* %26 to %"struct.std::__1::basic_string<char, std::__1::char_traits<char>, std::__1::allocator<char> >::__short"*
  %30 = getelementptr inbounds %"struct.std::__1::basic_string<char, std::__1::char_traits<char>, std::__1::allocator<char> >::__short", %"struct.std::__1::basic_string<char, std::__1::char_traits<char>, std::__1::allocator<char> >::__short"* %29, i64 0, i32 1, i32 0
  %31 = load i8, i8* %30, align 1
  %32 = icmp slt i8 %31, 0
  br i1 %32, label %33, label %36

; <label>:33:                                     ; preds = %28
  %34 = getelementptr inbounds %"class.std::__1::basic_string", %"class.std::__1::basic_string"* %26, i64 0, i32 0, i32 0, i32 0, i32 0, i32 0, i32 1
  %35 = load i64, i64* %34, align 8
  br label %38

; <label>:36:                                     ; preds = %28
  %37 = zext i8 %31 to i64
  br label %38

; <label>:38:                                     ; preds = %33, %36
  %39 = phi i64 [ %35, %33 ], [ %37, %36 ]
  %40 = icmp eq i64 %39, 0
  br i1 %40, label %41, label %63

; <label>:41:                                     ; preds = %24, %38
  %42 = getelementptr inbounds %"class.media::WebmMuxer", %"class.media::WebmMuxer"* %0, i64 0, i32 15
  %43 = getelementptr inbounds %"class.std::__1::unique_ptr.82", %"class.std::__1::unique_ptr.82"* %1, i64 0, i32 0, i32 0, i32 0
  %44 = load %"class.std::__1::basic_string"*, %"class.std::__1::basic_string"** %43, align 8
  %45 = bitcast %"class.std::__1::basic_string"* %44 to %"struct.std::__1::basic_string<char, std::__1::char_traits<char>, std::__1::allocator<char> >::__short"*
  %46 = getelementptr inbounds %"struct.std::__1::basic_string<char, std::__1::char_traits<char>, std::__1::allocator<char> >::__short", %"struct.std::__1::basic_string<char, std::__1::char_traits<char>, std::__1::allocator<char> >::__short"* %45, i64 0, i32 1, i32 0
  %47 = load i8, i8* %46, align 1
  %48 = icmp slt i8 %47, 0
  br i1 %48, label %49, label %54

; <label>:49:                                     ; preds = %41
  %50 = getelementptr inbounds %"class.std::__1::basic_string", %"class.std::__1::basic_string"* %44, i64 0, i32 0, i32 0, i32 0, i32 0, i32 0, i32 0
  %51 = load i8*, i8** %50, align 8
  %52 = getelementptr inbounds %"class.std::__1::basic_string", %"class.std::__1::basic_string"* %44, i64 0, i32 0, i32 0, i32 0, i32 0, i32 0, i32 1
  %53 = load i64, i64* %52, align 8
  br label %57

; <label>:54:                                     ; preds = %41
  %55 = bitcast %"class.std::__1::basic_string"* %44 to i8*
  %56 = zext i8 %47 to i64
  br label %57

; <label>:57:                                     ; preds = %49, %54
  %58 = phi i8* [ %51, %49 ], [ %55, %54 ]
  %59 = phi i64 [ %53, %49 ], [ %56, %54 ]
  %60 = zext i8 %3 to i64
  %61 = mul nsw i64 %19, 1000
  %62 = tail call zeroext i1 @_ZN8mkvmuxer7Segment8AddFrameEPKhmmmb(%"class.mkvmuxer::Segment"* nonnull %42, i8* %58, i64 %59, i64 %60, i64 %61, i1 zeroext %5) #14
  br label %96

; <label>:63:                                     ; preds = %38
  %64 = getelementptr inbounds %"class.media::WebmMuxer", %"class.media::WebmMuxer"* %0, i64 0, i32 15
  %65 = getelementptr inbounds %"class.std::__1::unique_ptr.82", %"class.std::__1::unique_ptr.82"* %1, i64 0, i32 0, i32 0, i32 0
  %66 = load %"class.std::__1::basic_string"*, %"class.std::__1::basic_string"** %65, align 8
  %67 = bitcast %"class.std::__1::basic_string"* %66 to %"struct.std::__1::basic_string<char, std::__1::char_traits<char>, std::__1::allocator<char> >::__short"*
  %68 = getelementptr inbounds %"struct.std::__1::basic_string<char, std::__1::char_traits<char>, std::__1::allocator<char> >::__short", %"struct.std::__1::basic_string<char, std::__1::char_traits<char>, std::__1::allocator<char> >::__short"* %67, i64 0, i32 1, i32 0
  %69 = load i8, i8* %68, align 1
  %70 = icmp slt i8 %69, 0
  br i1 %70, label %71, label %76

; <label>:71:                                     ; preds = %63
  %72 = getelementptr inbounds %"class.std::__1::basic_string", %"class.std::__1::basic_string"* %66, i64 0, i32 0, i32 0, i32 0, i32 0, i32 0, i32 0
  %73 = load i8*, i8** %72, align 8
  %74 = getelementptr inbounds %"class.std::__1::basic_string", %"class.std::__1::basic_string"* %66, i64 0, i32 0, i32 0, i32 0, i32 0, i32 0, i32 1
  %75 = load i64, i64* %74, align 8
  br label %79

; <label>:76:                                     ; preds = %63
  %77 = bitcast %"class.std::__1::basic_string"* %66 to i8*
  %78 = zext i8 %69 to i64
  br label %79

; <label>:79:                                     ; preds = %71, %76
  %80 = phi i8* [ %73, %71 ], [ %77, %76 ]
  %81 = phi i64 [ %75, %71 ], [ %78, %76 ]
  br i1 %32, label %82, label %87

; <label>:82:                                     ; preds = %79
  %83 = getelementptr inbounds %"class.std::__1::basic_string", %"class.std::__1::basic_string"* %26, i64 0, i32 0, i32 0, i32 0, i32 0, i32 0, i32 0
  %84 = load i8*, i8** %83, align 8
  %85 = getelementptr inbounds %"class.std::__1::basic_string", %"class.std::__1::basic_string"* %26, i64 0, i32 0, i32 0, i32 0, i32 0, i32 0, i32 1
  %86 = load i64, i64* %85, align 8
  br label %90

; <label>:87:                                     ; preds = %79
  %88 = bitcast %"class.std::__1::basic_string"* %26 to i8*
  %89 = zext i8 %31 to i64
  br label %90

; <label>:90:                                     ; preds = %82, %87
  %91 = phi i8* [ %84, %82 ], [ %88, %87 ]
  %92 = phi i64 [ %86, %82 ], [ %89, %87 ]
  %93 = zext i8 %3 to i64
  %94 = mul nsw i64 %19, 1000
  %95 = tail call zeroext i1 @_ZN8mkvmuxer7Segment22AddFrameWithAdditionalEPKhmS2_mmmmb(%"class.mkvmuxer::Segment"* nonnull %64, i8* %80, i64 %81, i8* %91, i64 %92, i64 1, i64 %93, i64 %94, i1 zeroext %5) #14
  br label %96

; <label>:96:                                     ; preds = %90, %57, %23
  %97 = phi i1 [ false, %23 ], [ %62, %57 ], [ %95, %90 ]
  ret i1 %97
}

; Function Attrs: nounwind ssp uwtable
define hidden zeroext i1 @_ZN5media9WebmMuxer14OnEncodedAudioERKNS_15AudioParametersENSt3__110unique_ptrINS4_12basic_stringIcNS4_11char_traitsIcEENS4_9allocatorIcEEEENS4_14default_deleteISB_EEEEN4base9TimeTicksE(%"class.media::WebmMuxer"*, %"class.media::AudioParameters"* nocapture readonly dereferenceable(64), %"class.std::__1::unique_ptr.82"* nocapture, i64) local_unnamed_addr #0 align 2 {
  %5 = alloca i64, align 8
  %6 = alloca %"class.logging::LogMessage", align 8
  %7 = alloca i64, align 8
  %8 = alloca %"class.logging::LogMessage", align 8
  %9 = alloca i64, align 8
  %10 = alloca %"class.logging::LogMessage", align 8
  %11 = alloca i64, align 8
  %12 = alloca %"class.logging::LogMessage", align 8
  %13 = alloca i64, align 8
  %14 = alloca %"class.logging::LogMessage", align 8
  %15 = alloca %"class.std::__1::unique_ptr.82", align 8
  %16 = alloca %"class.std::__1::unique_ptr.82", align 8
  %17 = alloca %"class.std::__1::unique_ptr.82", align 8
  %18 = alloca %"class.std::__1::unique_ptr.82", align 8
  %19 = getelementptr inbounds %"class.media::WebmMuxer", %"class.media::WebmMuxer"* %0, i64 0, i32 5
  %20 = load i8, i8* %19, align 1
  %21 = icmp eq i8 %20, 0
  br i1 %21, label %22, label %27

; <label>:22:                                     ; preds = %4
  tail call void @_ZN5media9WebmMuxer13AddAudioTrackERKNS_15AudioParametersE(%"class.media::WebmMuxer"* nonnull %0, %"class.media::AudioParameters"* nonnull dereferenceable(64) %1)
  %23 = getelementptr inbounds %"class.media::WebmMuxer", %"class.media::WebmMuxer"* %0, i64 0, i32 7, i32 0, i32 0
  %24 = load i64, i64* %23, align 8
  %25 = icmp eq i64 %24, 0
  br i1 %25, label %26, label %27

; <label>:26:                                     ; preds = %22
  store i64 %3, i64* %23, align 8
  br label %27

; <label>:27:                                     ; preds = %4, %22, %26
  %28 = getelementptr inbounds %"class.media::WebmMuxer", %"class.media::WebmMuxer"* %0, i64 0, i32 11
  %29 = load i8, i8* %28, align 8, !range !2
  %30 = icmp eq i8 %29, 0
  br i1 %30, label %35, label %31

; <label>:31:                                     ; preds = %27
  %32 = getelementptr inbounds %"class.media::WebmMuxer", %"class.media::WebmMuxer"* %0, i64 0, i32 4
  %33 = load i8, i8* %32, align 4
  %34 = icmp eq i8 %33, 0
  br i1 %34, label %197, label %35

; <label>:35:                                     ; preds = %31, %27
  %36 = getelementptr inbounds %"class.media::WebmMuxer", %"class.media::WebmMuxer"* %0, i64 0, i32 17
  %37 = getelementptr inbounds %"class.media::WebmMuxer", %"class.media::WebmMuxer"* %0, i64 0, i32 17, i32 1
  %38 = load i64, i64* %37, align 8
  %39 = getelementptr inbounds %"class.media::WebmMuxer", %"class.media::WebmMuxer"* %0, i64 0, i32 17, i32 2
  %40 = load i64, i64* %39, align 8
  %41 = icmp eq i64 %38, %40
  br i1 %41, label %172, label %42

; <label>:42:                                     ; preds = %35
  %43 = bitcast i64* %13 to i8*
  %44 = getelementptr inbounds %"class.media::WebmMuxer", %"class.media::WebmMuxer"* %0, i64 0, i32 17, i32 0, i32 1
  %45 = getelementptr inbounds %"class.base::circular_deque", %"class.base::circular_deque"* %36, i64 0, i32 0, i32 0
  %46 = bitcast %"class.std::__1::unique_ptr.82"* %15 to i64*
  %47 = bitcast i64* %11 to i8*
  %48 = bitcast %"class.logging::LogMessage"* %14 to i8*
  %49 = bitcast %"class.logging::LogMessage"* %12 to i8*
  %50 = bitcast %"class.std::__1::unique_ptr.82"* %16 to i64*
  %51 = getelementptr inbounds %"class.media::WebmMuxer", %"class.media::WebmMuxer"* %0, i64 0, i32 4
  %52 = bitcast i64* %7 to i8*
  %53 = bitcast i64* %9 to i8*
  %54 = getelementptr inbounds %"class.media::WebmMuxer", %"class.media::WebmMuxer"* %0, i64 0, i32 6, i32 0, i32 0
  %55 = bitcast i64* %5 to i8*
  %56 = bitcast %"class.logging::LogMessage"* %8 to i8*
  %57 = getelementptr inbounds %"class.std::__1::unique_ptr.82", %"class.std::__1::unique_ptr.82"* %16, i64 0, i32 0, i32 0, i32 0
  %58 = bitcast %"class.logging::LogMessage"* %10 to i8*
  %59 = bitcast %"class.logging::LogMessage"* %6 to i8*
  %60 = getelementptr inbounds %"class.std::__1::unique_ptr.82", %"class.std::__1::unique_ptr.82"* %15, i64 0, i32 0, i32 0, i32 0
  br label %61

; <label>:61:                                     ; preds = %42, %168
  %62 = phi i64 [ %38, %42 ], [ %169, %168 ]
  call void @llvm.lifetime.start.p0i8(i64 8, i8* nonnull %43) #14
  store i64 %62, i64* %13, align 8
  %63 = load i64, i64* %44, align 8
  %64 = icmp ult i64 %63, %62
  br i1 %64, label %65, label %69

; <label>:65:                                     ; preds = %61
  %66 = call %"class.std::__1::basic_string"* @_ZN7logging17MakeCheckOpStringImmEEPNSt3__112basic_stringIcNS1_11char_traitsIcEENS1_9allocatorIcEEEERKT_RKT0_PKc(i64* nonnull dereferenceable(8) %13, i64* nonnull dereferenceable(8) %44, i8* getelementptr inbounds ([15 x i8], [15 x i8]* @.str.11, i64 0, i64 0)) #14
  %67 = icmp eq %"class.std::__1::basic_string"* %66, null
  br i1 %67, label %69, label %68

; <label>:68:                                     ; preds = %65
  call void @llvm.lifetime.start.p0i8(i64 296, i8* nonnull %48) #14
  call void @_ZN7logging10LogMessageC1EPKciPNSt3__112basic_stringIcNS3_11char_traitsIcEENS3_9allocatorIcEEEE(%"class.logging::LogMessage"* nonnull %14, i8* getelementptr inbounds ([38 x i8], [38 x i8]* @.str.7, i64 0, i64 0), i32 80, %"class.std::__1::basic_string"* nonnull %66) #14
  call void @_ZN7logging10LogMessageD1Ev(%"class.logging::LogMessage"* nonnull %14) #14
  call void @llvm.lifetime.end.p0i8(i64 296, i8* nonnull %48) #14
  br label %69

; <label>:69:                                     ; preds = %61, %65, %68
  %70 = load %"class.std::__1::unique_ptr.79"*, %"class.std::__1::unique_ptr.79"** %45, align 8
  %71 = load i64, i64* %13, align 8
  call void @llvm.lifetime.end.p0i8(i64 8, i8* nonnull %43) #14
  %72 = getelementptr inbounds %"class.std::__1::unique_ptr.79", %"class.std::__1::unique_ptr.79"* %70, i64 %71, i32 0, i32 0, i32 0
  %73 = load %"struct.media::WebmMuxer::EncodedVideoFrame"*, %"struct.media::WebmMuxer::EncodedVideoFrame"** %72, align 8
  %74 = getelementptr inbounds %"struct.media::WebmMuxer::EncodedVideoFrame", %"struct.media::WebmMuxer::EncodedVideoFrame"* %73, i64 0, i32 0, i32 0, i32 0, i32 0
  %75 = load %"class.std::__1::basic_string"*, %"class.std::__1::basic_string"** %74, align 8
  %76 = call i8* @_Znwm(i64 24) #15, !noalias !6
  %77 = bitcast i8* %76 to %"class.std::__1::basic_string"*
  call void @_ZNSt3__112basic_stringIcNS_11char_traitsIcEENS_9allocatorIcEEEC1ERKS5_(%"class.std::__1::basic_string"* nonnull %77, %"class.std::__1::basic_string"* nonnull dereferenceable(24) %75) #14, !noalias !6
  %78 = ptrtoint i8* %76 to i64
  store i64 %78, i64* %46, align 8, !alias.scope !6
  %79 = load i64, i64* %37, align 8
  call void @llvm.lifetime.start.p0i8(i64 8, i8* nonnull %47) #14
  store i64 %79, i64* %11, align 8
  %80 = load i64, i64* %44, align 8
  %81 = icmp ult i64 %80, %79
  br i1 %81, label %82, label %86

; <label>:82:                                     ; preds = %69
  %83 = call %"class.std::__1::basic_string"* @_ZN7logging17MakeCheckOpStringImmEEPNSt3__112basic_stringIcNS1_11char_traitsIcEENS1_9allocatorIcEEEERKT_RKT0_PKc(i64* nonnull dereferenceable(8) %11, i64* nonnull dereferenceable(8) %44, i8* getelementptr inbounds ([15 x i8], [15 x i8]* @.str.11, i64 0, i64 0)) #14
  %84 = icmp eq %"class.std::__1::basic_string"* %83, null
  br i1 %84, label %86, label %85

; <label>:85:                                     ; preds = %82
  call void @llvm.lifetime.start.p0i8(i64 296, i8* nonnull %49) #14
  call void @_ZN7logging10LogMessageC1EPKciPNSt3__112basic_stringIcNS3_11char_traitsIcEENS3_9allocatorIcEEEE(%"class.logging::LogMessage"* nonnull %12, i8* getelementptr inbounds ([38 x i8], [38 x i8]* @.str.7, i64 0, i64 0), i32 80, %"class.std::__1::basic_string"* nonnull %83) #14
  call void @_ZN7logging10LogMessageD1Ev(%"class.logging::LogMessage"* nonnull %12) #14
  call void @llvm.lifetime.end.p0i8(i64 296, i8* nonnull %49) #14
  br label %86

; <label>:86:                                     ; preds = %69, %82, %85
  %87 = load %"class.std::__1::unique_ptr.79"*, %"class.std::__1::unique_ptr.79"** %45, align 8
  %88 = load i64, i64* %11, align 8
  call void @llvm.lifetime.end.p0i8(i64 8, i8* nonnull %47) #14
  %89 = getelementptr inbounds %"class.std::__1::unique_ptr.79", %"class.std::__1::unique_ptr.79"* %87, i64 %88, i32 0, i32 0, i32 0
  %90 = load %"struct.media::WebmMuxer::EncodedVideoFrame"*, %"struct.media::WebmMuxer::EncodedVideoFrame"** %89, align 8
  %91 = getelementptr inbounds %"struct.media::WebmMuxer::EncodedVideoFrame", %"struct.media::WebmMuxer::EncodedVideoFrame"* %90, i64 0, i32 1, i32 0, i32 0, i32 0
  %92 = load %"class.std::__1::basic_string"*, %"class.std::__1::basic_string"** %91, align 8
  %93 = icmp eq %"class.std::__1::basic_string"* %92, null
  br i1 %93, label %113, label %94

; <label>:94:                                     ; preds = %86
  %95 = load i64, i64* %37, align 8
  call void @llvm.lifetime.start.p0i8(i64 8, i8* nonnull %53) #14
  store i64 %95, i64* %9, align 8
  %96 = load i64, i64* %44, align 8
  %97 = icmp ult i64 %96, %95
  br i1 %97, label %98, label %102

; <label>:98:                                     ; preds = %94
  %99 = call %"class.std::__1::basic_string"* @_ZN7logging17MakeCheckOpStringImmEEPNSt3__112basic_stringIcNS1_11char_traitsIcEENS1_9allocatorIcEEEERKT_RKT0_PKc(i64* nonnull dereferenceable(8) %9, i64* nonnull dereferenceable(8) %44, i8* getelementptr inbounds ([15 x i8], [15 x i8]* @.str.11, i64 0, i64 0)) #14
  %100 = icmp eq %"class.std::__1::basic_string"* %99, null
  br i1 %100, label %102, label %101

; <label>:101:                                    ; preds = %98
  call void @llvm.lifetime.start.p0i8(i64 296, i8* nonnull %58) #14
  call void @_ZN7logging10LogMessageC1EPKciPNSt3__112basic_stringIcNS3_11char_traitsIcEENS3_9allocatorIcEEEE(%"class.logging::LogMessage"* nonnull %10, i8* getelementptr inbounds ([38 x i8], [38 x i8]* @.str.7, i64 0, i64 0), i32 80, %"class.std::__1::basic_string"* nonnull %99) #14
  call void @_ZN7logging10LogMessageD1Ev(%"class.logging::LogMessage"* nonnull %10) #14
  call void @llvm.lifetime.end.p0i8(i64 296, i8* nonnull %58) #14
  br label %102

; <label>:102:                                    ; preds = %94, %98, %101
  %103 = load %"class.std::__1::unique_ptr.79"*, %"class.std::__1::unique_ptr.79"** %45, align 8
  %104 = load i64, i64* %9, align 8
  call void @llvm.lifetime.end.p0i8(i64 8, i8* nonnull %53) #14
  %105 = getelementptr inbounds %"class.std::__1::unique_ptr.79", %"class.std::__1::unique_ptr.79"* %103, i64 %104, i32 0, i32 0, i32 0
  %106 = load %"struct.media::WebmMuxer::EncodedVideoFrame"*, %"struct.media::WebmMuxer::EncodedVideoFrame"** %105, align 8
  %107 = getelementptr inbounds %"struct.media::WebmMuxer::EncodedVideoFrame", %"struct.media::WebmMuxer::EncodedVideoFrame"* %106, i64 0, i32 1, i32 0, i32 0, i32 0
  %108 = load %"class.std::__1::basic_string"*, %"class.std::__1::basic_string"** %107, align 8
  %109 = call i8* @_Znwm(i64 24) #15, !noalias !9
  %110 = bitcast i8* %109 to %"class.std::__1::basic_string"*
  call void @_ZNSt3__112basic_stringIcNS_11char_traitsIcEENS_9allocatorIcEEEC1ERKS5_(%"class.std::__1::basic_string"* nonnull %110, %"class.std::__1::basic_string"* nonnull dereferenceable(24) %108) #14, !noalias !9
  %111 = ptrtoint i8* %109 to i64
  %112 = bitcast i8* %109 to %"class.std::__1::basic_string"*
  br label %113

; <label>:113:                                    ; preds = %86, %102
  %114 = phi i64 [ %111, %102 ], [ 0, %86 ]
  %115 = phi i8* [ %109, %102 ], [ null, %86 ]
  %116 = phi %"class.std::__1::basic_string"* [ %112, %102 ], [ null, %86 ]
  store i64 %114, i64* %50, align 8
  %117 = load i8, i8* %51, align 4
  %118 = load i64, i64* %37, align 8
  call void @llvm.lifetime.start.p0i8(i64 8, i8* nonnull %52) #14
  store i64 %118, i64* %7, align 8
  %119 = load i64, i64* %44, align 8
  %120 = icmp ult i64 %119, %118
  br i1 %120, label %121, label %125

; <label>:121:                                    ; preds = %113
  %122 = call %"class.std::__1::basic_string"* @_ZN7logging17MakeCheckOpStringImmEEPNSt3__112basic_stringIcNS1_11char_traitsIcEENS1_9allocatorIcEEEERKT_RKT0_PKc(i64* nonnull dereferenceable(8) %7, i64* nonnull dereferenceable(8) %44, i8* getelementptr inbounds ([15 x i8], [15 x i8]* @.str.11, i64 0, i64 0)) #14
  %123 = icmp eq %"class.std::__1::basic_string"* %122, null
  br i1 %123, label %125, label %124

; <label>:124:                                    ; preds = %121
  call void @llvm.lifetime.start.p0i8(i64 296, i8* nonnull %56) #14
  call void @_ZN7logging10LogMessageC1EPKciPNSt3__112basic_stringIcNS3_11char_traitsIcEENS3_9allocatorIcEEEE(%"class.logging::LogMessage"* nonnull %8, i8* getelementptr inbounds ([38 x i8], [38 x i8]* @.str.7, i64 0, i64 0), i32 80, %"class.std::__1::basic_string"* nonnull %122) #14
  call void @_ZN7logging10LogMessageD1Ev(%"class.logging::LogMessage"* nonnull %8) #14
  call void @llvm.lifetime.end.p0i8(i64 296, i8* nonnull %56) #14
  br label %125

; <label>:125:                                    ; preds = %113, %121, %124
  %126 = load %"class.std::__1::unique_ptr.79"*, %"class.std::__1::unique_ptr.79"** %45, align 8
  %127 = load i64, i64* %7, align 8
  call void @llvm.lifetime.end.p0i8(i64 8, i8* nonnull %52) #14
  %128 = getelementptr inbounds %"class.std::__1::unique_ptr.79", %"class.std::__1::unique_ptr.79"* %126, i64 %127, i32 0, i32 0, i32 0
  %129 = load %"struct.media::WebmMuxer::EncodedVideoFrame"*, %"struct.media::WebmMuxer::EncodedVideoFrame"** %128, align 8
  %130 = load i64, i64* %54, align 8
  %131 = getelementptr inbounds %"struct.media::WebmMuxer::EncodedVideoFrame", %"struct.media::WebmMuxer::EncodedVideoFrame"* %129, i64 0, i32 2, i32 0, i32 0
  %132 = load i64, i64* %131, align 8
  %133 = sub nsw i64 %132, %130
  %134 = load i64, i64* %37, align 8
  call void @llvm.lifetime.start.p0i8(i64 8, i8* nonnull %55) #14
  store i64 %134, i64* %5, align 8
  %135 = load i64, i64* %44, align 8
  %136 = icmp ult i64 %135, %134
  br i1 %136, label %137, label %141

; <label>:137:                                    ; preds = %125
  %138 = call %"class.std::__1::basic_string"* @_ZN7logging17MakeCheckOpStringImmEEPNSt3__112basic_stringIcNS1_11char_traitsIcEENS1_9allocatorIcEEEERKT_RKT0_PKc(i64* nonnull dereferenceable(8) %5, i64* nonnull dereferenceable(8) %44, i8* getelementptr inbounds ([15 x i8], [15 x i8]* @.str.11, i64 0, i64 0)) #14
  %139 = icmp eq %"class.std::__1::basic_string"* %138, null
  br i1 %139, label %141, label %140

; <label>:140:                                    ; preds = %137
  call void @llvm.lifetime.start.p0i8(i64 296, i8* nonnull %59) #14
  call void @_ZN7logging10LogMessageC1EPKciPNSt3__112basic_stringIcNS3_11char_traitsIcEENS3_9allocatorIcEEEE(%"class.logging::LogMessage"* nonnull %6, i8* getelementptr inbounds ([38 x i8], [38 x i8]* @.str.7, i64 0, i64 0), i32 80, %"class.std::__1::basic_string"* nonnull %138) #14
  call void @_ZN7logging10LogMessageD1Ev(%"class.logging::LogMessage"* nonnull %6) #14
  call void @llvm.lifetime.end.p0i8(i64 296, i8* nonnull %59) #14
  br label %141

; <label>:141:                                    ; preds = %125, %137, %140
  %142 = load %"class.std::__1::unique_ptr.79"*, %"class.std::__1::unique_ptr.79"** %45, align 8
  %143 = load i64, i64* %5, align 8
  call void @llvm.lifetime.end.p0i8(i64 8, i8* nonnull %55) #14
  %144 = getelementptr inbounds %"class.std::__1::unique_ptr.79", %"class.std::__1::unique_ptr.79"* %142, i64 %143, i32 0, i32 0, i32 0
  %145 = load %"struct.media::WebmMuxer::EncodedVideoFrame"*, %"struct.media::WebmMuxer::EncodedVideoFrame"** %144, align 8
  %146 = getelementptr inbounds %"struct.media::WebmMuxer::EncodedVideoFrame", %"struct.media::WebmMuxer::EncodedVideoFrame"* %145, i64 0, i32 3
  %147 = load i8, i8* %146, align 8, !range !2
  %148 = icmp ne i8 %147, 0
  %149 = call zeroext i1 @_ZN5media9WebmMuxer8AddFrameENSt3__110unique_ptrINS1_12basic_stringIcNS1_11char_traitsIcEENS1_9allocatorIcEEEENS1_14default_deleteIS8_EEEESB_hN4base9TimeDeltaEb(%"class.media::WebmMuxer"* nonnull %0, %"class.std::__1::unique_ptr.82"* nonnull %15, %"class.std::__1::unique_ptr.82"* nonnull %16, i8 zeroext %117, i64 %133, i1 zeroext %148)
  store %"class.std::__1::basic_string"* null, %"class.std::__1::basic_string"** %57, align 8
  %150 = icmp eq %"class.std::__1::basic_string"* %116, null
  br i1 %150, label %160, label %151

; <label>:151:                                    ; preds = %141
  %152 = bitcast %"class.std::__1::basic_string"* %116 to %"struct.std::__1::basic_string<char, std::__1::char_traits<char>, std::__1::allocator<char> >::__short"*
  %153 = getelementptr inbounds %"struct.std::__1::basic_string<char, std::__1::char_traits<char>, std::__1::allocator<char> >::__short", %"struct.std::__1::basic_string<char, std::__1::char_traits<char>, std::__1::allocator<char> >::__short"* %152, i64 0, i32 1, i32 0
  %154 = load i8, i8* %153, align 1
  %155 = icmp slt i8 %154, 0
  br i1 %155, label %156, label %159

; <label>:156:                                    ; preds = %151
  %157 = getelementptr inbounds %"class.std::__1::basic_string", %"class.std::__1::basic_string"* %116, i64 0, i32 0, i32 0, i32 0, i32 0, i32 0, i32 0
  %158 = load i8*, i8** %157, align 8
  call void @_ZdlPv(i8* %158) #15
  br label %159

; <label>:159:                                    ; preds = %156, %151
  call void @_ZdlPv(i8* %115) #15
  br label %160

; <label>:160:                                    ; preds = %159, %141
  store %"class.std::__1::basic_string"* null, %"class.std::__1::basic_string"** %60, align 8
  %161 = getelementptr inbounds i8, i8* %76, i64 23
  %162 = load i8, i8* %161, align 1
  %163 = icmp slt i8 %162, 0
  br i1 %163, label %164, label %167

; <label>:164:                                    ; preds = %160
  %165 = bitcast i8* %76 to i8**
  %166 = load i8*, i8** %165, align 8
  call void @_ZdlPv(i8* %166) #15
  br label %167

; <label>:167:                                    ; preds = %160, %164
  call void @_ZdlPv(i8* nonnull %76) #15
  br i1 %149, label %168, label %197

; <label>:168:                                    ; preds = %167
  call void @_ZN4base14circular_dequeINSt3__110unique_ptrIN5media9WebmMuxer17EncodedVideoFrameENS1_14default_deleteIS5_EEEEE9pop_frontEv(%"class.base::circular_deque"* nonnull %36)
  %169 = load i64, i64* %37, align 8
  %170 = load i64, i64* %39, align 8
  %171 = icmp eq i64 %169, %170
  br i1 %171, label %172, label %61

; <label>:172:                                    ; preds = %168, %35
  %173 = getelementptr inbounds %"class.std::__1::unique_ptr.82", %"class.std::__1::unique_ptr.82"* %2, i64 0, i32 0, i32 0, i32 0
  %174 = bitcast %"class.std::__1::unique_ptr.82"* %2 to i64*
  %175 = load i64, i64* %174, align 8
  store %"class.std::__1::basic_string"* null, %"class.std::__1::basic_string"** %173, align 8
  %176 = bitcast %"class.std::__1::unique_ptr.82"* %17 to i64*
  store i64 %175, i64* %176, align 8
  %177 = bitcast %"class.std::__1::unique_ptr.82"* %18 to i64*
  store i64 0, i64* %177, align 8
  %178 = load i8, i8* %19, align 1
  %179 = getelementptr inbounds %"class.media::WebmMuxer", %"class.media::WebmMuxer"* %0, i64 0, i32 7, i32 0, i32 0
  %180 = load i64, i64* %179, align 8
  %181 = sub nsw i64 %3, %180
  %182 = call zeroext i1 @_ZN5media9WebmMuxer8AddFrameENSt3__110unique_ptrINS1_12basic_stringIcNS1_11char_traitsIcEENS1_9allocatorIcEEEENS1_14default_deleteIS8_EEEESB_hN4base9TimeDeltaEb(%"class.media::WebmMuxer"* nonnull %0, %"class.std::__1::unique_ptr.82"* nonnull %17, %"class.std::__1::unique_ptr.82"* nonnull %18, i8 zeroext %178, i64 %181, i1 zeroext true)
  %183 = getelementptr inbounds %"class.std::__1::unique_ptr.82", %"class.std::__1::unique_ptr.82"* %18, i64 0, i32 0, i32 0, i32 0
  store %"class.std::__1::basic_string"* null, %"class.std::__1::basic_string"** %183, align 8
  %184 = inttoptr i64 %175 to %"class.std::__1::basic_string"*
  %185 = getelementptr inbounds %"class.std::__1::unique_ptr.82", %"class.std::__1::unique_ptr.82"* %17, i64 0, i32 0, i32 0, i32 0
  store %"class.std::__1::basic_string"* null, %"class.std::__1::basic_string"** %185, align 8
  %186 = icmp eq i64 %175, 0
  br i1 %186, label %197, label %187

; <label>:187:                                    ; preds = %172
  %188 = inttoptr i64 %175 to %"struct.std::__1::basic_string<char, std::__1::char_traits<char>, std::__1::allocator<char> >::__short"*
  %189 = getelementptr inbounds %"struct.std::__1::basic_string<char, std::__1::char_traits<char>, std::__1::allocator<char> >::__short", %"struct.std::__1::basic_string<char, std::__1::char_traits<char>, std::__1::allocator<char> >::__short"* %188, i64 0, i32 1, i32 0
  %190 = load i8, i8* %189, align 1
  %191 = icmp slt i8 %190, 0
  br i1 %191, label %192, label %195

; <label>:192:                                    ; preds = %187
  %193 = getelementptr inbounds %"class.std::__1::basic_string", %"class.std::__1::basic_string"* %184, i64 0, i32 0, i32 0, i32 0, i32 0, i32 0, i32 0
  %194 = load i8*, i8** %193, align 8
  call void @_ZdlPv(i8* %194) #15
  br label %195

; <label>:195:                                    ; preds = %192, %187
  %196 = inttoptr i64 %175 to i8*
  call void @_ZdlPv(i8* %196) #15
  br label %197

; <label>:197:                                    ; preds = %167, %195, %172, %31
  %198 = phi i1 [ true, %31 ], [ %182, %172 ], [ %182, %195 ], [ false, %167 ]
  ret i1 %198
}

; Function Attrs: nounwind ssp uwtable
define hidden void @_ZN5media9WebmMuxer13AddAudioTrackERKNS_15AudioParametersE(%"class.media::WebmMuxer"*, %"class.media::AudioParameters"* nocapture readonly dereferenceable(64)) local_unnamed_addr #0 align 2 {
  %3 = alloca [19 x i8], align 16
  %4 = alloca %"class.logging::LogMessage", align 8
  %5 = getelementptr inbounds %"class.media::WebmMuxer", %"class.media::WebmMuxer"* %0, i64 0, i32 15
  %6 = getelementptr inbounds %"class.media::AudioParameters", %"class.media::AudioParameters"* %1, i64 0, i32 3
  %7 = load i32, i32* %6, align 4
  %8 = getelementptr inbounds %"class.media::AudioParameters", %"class.media::AudioParameters"* %1, i64 0, i32 2
  %9 = load i32, i32* %8, align 8
  %10 = tail call i64 @_ZN8mkvmuxer7Segment13AddAudioTrackEiii(%"class.mkvmuxer::Segment"* nonnull %5, i32 %7, i32 %9, i32 0) #14
  %11 = trunc i64 %10 to i8
  %12 = getelementptr inbounds %"class.media::WebmMuxer", %"class.media::WebmMuxer"* %0, i64 0, i32 5
  store i8 %11, i8* %12, align 1
  %13 = and i64 %10, 255
  %14 = icmp eq i64 %13, 0
  br i1 %14, label %58, label %15

; <label>:15:                                     ; preds = %2
  %16 = tail call %"class.mkvmuxer::Track"* @_ZNK8mkvmuxer7Segment16GetTrackByNumberEm(%"class.mkvmuxer::Segment"* nonnull %5, i64 %13) #14
  %17 = getelementptr inbounds %"class.mkvmuxer::Track", %"class.mkvmuxer::Track"* %16, i64 1
  %18 = bitcast %"class.mkvmuxer::Track"* %17 to i64*
  store i64 32, i64* %18, align 8
  %19 = getelementptr inbounds %"class.media::WebmMuxer", %"class.media::WebmMuxer"* %0, i64 0, i32 3
  %20 = load i32, i32* %19, align 8
  switch i32 %20, label %58 [
    i32 12, label %21
    i32 3, label %57
  ]

; <label>:21:                                     ; preds = %15
  tail call void @_ZN8mkvmuxer5Track12set_codec_idEPKc(%"class.mkvmuxer::Track"* %16, i8* getelementptr inbounds ([0 x i8], [0 x i8]* @_ZN8mkvmuxer6Tracks12kOpusCodecIdE, i64 0, i64 0)) #14
  %22 = getelementptr inbounds [19 x i8], [19 x i8]* %3, i64 0, i64 0
  call void @llvm.lifetime.start.p0i8(i64 19, i8* nonnull %22) #14
  %23 = bitcast [19 x i8]* %3 to i64*
  store i64 7233173838382854223, i64* %23, align 16
  %24 = getelementptr inbounds [19 x i8], [19 x i8]* %3, i64 0, i64 8
  store i8 1, i8* %24, align 8
  %25 = load i32, i32* %8, align 8
  %26 = trunc i32 %25 to i8
  %27 = getelementptr inbounds [19 x i8], [19 x i8]* %3, i64 0, i64 9
  store i8 %26, i8* %27, align 1
  %28 = getelementptr inbounds [19 x i8], [19 x i8]* %3, i64 0, i64 10
  %29 = bitcast i8* %28 to i16*
  store i16 0, i16* %29, align 2
  %30 = load i32, i32* %6, align 4
  %31 = getelementptr inbounds [19 x i8], [19 x i8]* %3, i64 0, i64 12
  %32 = bitcast i8* %31 to i32*
  store i32 %30, i32* %32, align 4
  %33 = getelementptr inbounds [19 x i8], [19 x i8]* %3, i64 0, i64 16
  %34 = bitcast i8* %33 to i16*
  store i16 0, i16* %34, align 16
  %35 = icmp sgt i32 %25, 2
  %36 = getelementptr inbounds [19 x i8], [19 x i8]* %3, i64 0, i64 18
  br i1 %35, label %37, label %45

; <label>:37:                                     ; preds = %21
  store i8 1, i8* %36, align 2
  %38 = getelementptr inbounds [19 x i8], [19 x i8]* %3, i64 0, i64 19
  store i8 %26, i8* %38, align 1
  %39 = getelementptr inbounds [19 x i8], [19 x i8]* %3, i64 0, i64 20
  store i8 0, i8* %39, align 4
  %40 = add nsw i32 %25, -1
  %41 = sext i32 %40 to i64
  %42 = sext i32 %25 to i64
  %43 = getelementptr [19 x i8], [19 x i8]* %3, i64 1, i64 2
  %44 = getelementptr [8 x [8 x i8]], [8 x [8 x i8]]* @_ZN5media21kOpusVorbisChannelMapE, i64 0, i64 %41, i64 0
  call void @llvm.memcpy.p0i8.p0i8.i64(i8* align 1 %43, i8* align 8 %44, i64 %42, i1 false)
  br label %46

; <label>:45:                                     ; preds = %21
  store i8 0, i8* %36, align 2
  br label %46

; <label>:46:                                     ; preds = %37, %45
  %47 = call zeroext i1 @_ZN8mkvmuxer5Track15SetCodecPrivateEPKhm(%"class.mkvmuxer::Track"* %16, i8* nonnull %22, i64 19) #14
  br i1 %47, label %56, label %48

; <label>:48:                                     ; preds = %46
  %49 = call zeroext i1 @_ZN7logging22ShouldCreateLogMessageEi(i32 2) #14
  br i1 %49, label %50, label %56

; <label>:50:                                     ; preds = %48
  %51 = bitcast %"class.logging::LogMessage"* %4 to i8*
  call void @llvm.lifetime.start.p0i8(i64 296, i8* nonnull %51) #14
  call void @_ZN7logging10LogMessageC1EPKcii(%"class.logging::LogMessage"* nonnull %4, i8* getelementptr inbounds ([33 x i8], [33 x i8]* @.str.1, i64 0, i64 0), i32 307, i32 2) #14
  %52 = getelementptr inbounds %"class.logging::LogMessage", %"class.logging::LogMessage"* %4, i64 0, i32 1
  %53 = bitcast %"class.std::__1::basic_ostringstream"* %52 to %"class.std::__1::basic_ostream"*
  %54 = call dereferenceable(160) %"class.std::__1::basic_ostream"* @_ZNSt3__124__put_character_sequenceIcNS_11char_traitsIcEEEERNS_13basic_ostreamIT_T0_EES7_PKS4_m(%"class.std::__1::basic_ostream"* nonnull dereferenceable(160) %53, i8* getelementptr inbounds ([14 x i8], [14 x i8]* @__func__._ZN5media9WebmMuxer13AddAudioTrackERKNS_15AudioParametersE, i64 0, i64 0), i64 13) #14
  %55 = call dereferenceable(160) %"class.std::__1::basic_ostream"* @_ZNSt3__124__put_character_sequenceIcNS_11char_traitsIcEEEERNS_13basic_ostreamIT_T0_EES7_PKS4_m(%"class.std::__1::basic_ostream"* nonnull dereferenceable(160) %54, i8* getelementptr inbounds ([29 x i8], [29 x i8]* @.str.2, i64 0, i64 0), i64 28) #14
  call void @_ZN7logging10LogMessageD1Ev(%"class.logging::LogMessage"* nonnull %4) #14
  call void @llvm.lifetime.end.p0i8(i64 296, i8* nonnull %51) #14
  br label %56

; <label>:56:                                     ; preds = %48, %50, %46
  call void @llvm.lifetime.end.p0i8(i64 19, i8* nonnull %22) #14
  br label %58

; <label>:57:                                     ; preds = %15
  tail call void @_ZN8mkvmuxer5Track12set_codec_idEPKc(%"class.mkvmuxer::Track"* %16, i8* getelementptr inbounds ([17 x i8], [17 x i8]* @_ZN5media12_GLOBAL__N_111kPcmCodecIdE, i64 0, i64 0)) #14
  br label %58

; <label>:58:                                     ; preds = %56, %57, %15, %2
  ret void
}

; Function Attrs: nounwind ssp uwtable
define linkonce_odr hidden void @_ZN4base14circular_dequeINSt3__110unique_ptrIN5media9WebmMuxer17EncodedVideoFrameENS1_14default_deleteIS5_EEEEE9pop_frontEv(%"class.base::circular_deque"*) local_unnamed_addr #0 comdat align 2 {
  %2 = alloca i64, align 8
  %3 = alloca %"class.logging::LogMessage", align 8
  %4 = alloca i64, align 8
  %5 = alloca %"class.logging::LogMessage", align 8
  %6 = getelementptr inbounds %"class.base::circular_deque", %"class.base::circular_deque"* %0, i64 0, i32 0
  %7 = getelementptr inbounds %"class.base::circular_deque", %"class.base::circular_deque"* %0, i64 0, i32 1
  %8 = load i64, i64* %7, align 8
  %9 = bitcast i64* %4 to i8*
  call void @llvm.lifetime.start.p0i8(i64 8, i8* nonnull %9)
  store i64 %8, i64* %4, align 8
  %10 = getelementptr inbounds %"class.base::circular_deque", %"class.base::circular_deque"* %0, i64 0, i32 0, i32 1
  %11 = load i64, i64* %10, align 8
  %12 = icmp ult i64 %11, %8
  br i1 %12, label %13, label %18

; <label>:13:                                     ; preds = %1
  %14 = call %"class.std::__1::basic_string"* @_ZN7logging17MakeCheckOpStringImmEEPNSt3__112basic_stringIcNS1_11char_traitsIcEENS1_9allocatorIcEEEERKT_RKT0_PKc(i64* nonnull dereferenceable(8) %4, i64* nonnull dereferenceable(8) %10, i8* getelementptr inbounds ([15 x i8], [15 x i8]* @.str.11, i64 0, i64 0)) #14
  %15 = icmp eq %"class.std::__1::basic_string"* %14, null
  br i1 %15, label %18, label %16

; <label>:16:                                     ; preds = %13
  %17 = bitcast %"class.logging::LogMessage"* %5 to i8*
  call void @llvm.lifetime.start.p0i8(i64 296, i8* nonnull %17) #14
  call void @_ZN7logging10LogMessageC1EPKciPNSt3__112basic_stringIcNS3_11char_traitsIcEENS3_9allocatorIcEEEE(%"class.logging::LogMessage"* nonnull %5, i8* getelementptr inbounds ([38 x i8], [38 x i8]* @.str.7, i64 0, i64 0), i32 80, %"class.std::__1::basic_string"* nonnull %14) #14
  call void @_ZN7logging10LogMessageD1Ev(%"class.logging::LogMessage"* nonnull %5) #14
  call void @llvm.lifetime.end.p0i8(i64 296, i8* nonnull %17) #14
  br label %18

; <label>:18:                                     ; preds = %1, %13, %16
  %19 = getelementptr inbounds %"class.base::circular_deque", %"class.base::circular_deque"* %0, i64 0, i32 0, i32 0
  %20 = load %"class.std::__1::unique_ptr.79"*, %"class.std::__1::unique_ptr.79"** %19, align 8
  %21 = load i64, i64* %4, align 8
  %22 = getelementptr inbounds %"class.std::__1::unique_ptr.79", %"class.std::__1::unique_ptr.79"* %20, i64 %21
  call void @llvm.lifetime.end.p0i8(i64 8, i8* nonnull %9)
  %23 = load i64, i64* %7, align 8
  %24 = add i64 %23, 1
  %25 = bitcast i64* %2 to i8*
  call void @llvm.lifetime.start.p0i8(i64 8, i8* nonnull %25)
  store i64 %24, i64* %2, align 8
  %26 = load i64, i64* %10, align 8
  %27 = icmp ult i64 %26, %24
  br i1 %27, label %28, label %33

; <label>:28:                                     ; preds = %18
  %29 = call %"class.std::__1::basic_string"* @_ZN7logging17MakeCheckOpStringImmEEPNSt3__112basic_stringIcNS1_11char_traitsIcEENS1_9allocatorIcEEEERKT_RKT0_PKc(i64* nonnull dereferenceable(8) %2, i64* nonnull dereferenceable(8) %10, i8* getelementptr inbounds ([15 x i8], [15 x i8]* @.str.11, i64 0, i64 0)) #14
  %30 = icmp eq %"class.std::__1::basic_string"* %29, null
  br i1 %30, label %33, label %31

; <label>:31:                                     ; preds = %28
  %32 = bitcast %"class.logging::LogMessage"* %3 to i8*
  call void @llvm.lifetime.start.p0i8(i64 296, i8* nonnull %32) #14
  call void @_ZN7logging10LogMessageC1EPKciPNSt3__112basic_stringIcNS3_11char_traitsIcEENS3_9allocatorIcEEEE(%"class.logging::LogMessage"* nonnull %3, i8* getelementptr inbounds ([38 x i8], [38 x i8]* @.str.7, i64 0, i64 0), i32 80, %"class.std::__1::basic_string"* nonnull %29) #14
  call void @_ZN7logging10LogMessageD1Ev(%"class.logging::LogMessage"* nonnull %3) #14
  call void @llvm.lifetime.end.p0i8(i64 296, i8* nonnull %32) #14
  br label %33

; <label>:33:                                     ; preds = %18, %28, %31
  %34 = load %"class.std::__1::unique_ptr.79"*, %"class.std::__1::unique_ptr.79"** %19, align 8
  %35 = load i64, i64* %2, align 8
  %36 = getelementptr inbounds %"class.std::__1::unique_ptr.79", %"class.std::__1::unique_ptr.79"* %34, i64 %35
  call void @llvm.lifetime.end.p0i8(i64 8, i8* nonnull %25)
  call void @_ZN4base8internal12VectorBufferINSt3__110unique_ptrIN5media9WebmMuxer17EncodedVideoFrameENS2_14default_deleteIS6_EEEEE13DestructRangeIS9_Li0EEEvPS9_SC_(%"class.base::internal::VectorBuffer"* nonnull %6, %"class.std::__1::unique_ptr.79"* nonnull %22, %"class.std::__1::unique_ptr.79"* nonnull %36)
  %37 = load i64, i64* %7, align 8
  %38 = add i64 %37, 1
  %39 = load i64, i64* %10, align 8
  %40 = icmp eq i64 %38, %39
  %41 = select i1 %40, i64 0, i64 %38
  store i64 %41, i64* %7, align 8
  call void @_ZN4base14circular_dequeINSt3__110unique_ptrIN5media9WebmMuxer17EncodedVideoFrameENS1_14default_deleteIS5_EEEEE25ShrinkCapacityIfNecessaryEv(%"class.base::circular_deque"* nonnull %0)
  ret void
}

; Function Attrs: nounwind ssp uwtable
define hidden void @_ZN5media9WebmMuxer5PauseEv(%"class.media::WebmMuxer"* nocapture) local_unnamed_addr #0 align 2 {
  %2 = getelementptr inbounds %"class.media::WebmMuxer", %"class.media::WebmMuxer"* %0, i64 0, i32 9, i32 0, i32 0, i32 0
  %3 = load %"class.base::ElapsedTimer"*, %"class.base::ElapsedTimer"** %2, align 8
  %4 = icmp eq %"class.base::ElapsedTimer"* %3, null
  br i1 %4, label %5, label %13

; <label>:5:                                      ; preds = %1
  %6 = tail call i8* @_Znwm(i64 8) #15
  %7 = bitcast i8* %6 to %"class.base::ElapsedTimer"*
  tail call void @_ZN4base12ElapsedTimerC1Ev(%"class.base::ElapsedTimer"* nonnull %7) #14
  %8 = load %"class.base::ElapsedTimer"*, %"class.base::ElapsedTimer"** %2, align 8
  %9 = bitcast %"class.base::ElapsedTimer"** %2 to i8**
  store i8* %6, i8** %9, align 8
  %10 = icmp eq %"class.base::ElapsedTimer"* %8, null
  br i1 %10, label %13, label %11

; <label>:11:                                     ; preds = %5
  %12 = bitcast %"class.base::ElapsedTimer"* %8 to i8*
  tail call void @_ZdlPv(i8* %12) #15
  br label %13

; <label>:13:                                     ; preds = %1, %11, %5
  ret void
}

; Function Attrs: nobuiltin
declare noalias nonnull i8* @_Znwm(i64) local_unnamed_addr #6

declare void @_ZN4base12ElapsedTimerC1Ev(%"class.base::ElapsedTimer"*) unnamed_addr #2

; Function Attrs: nounwind ssp uwtable
define hidden void @_ZN5media9WebmMuxer6ResumeEv(%"class.media::WebmMuxer"* nocapture) local_unnamed_addr #0 align 2 {
  %2 = getelementptr inbounds %"class.media::WebmMuxer", %"class.media::WebmMuxer"* %0, i64 0, i32 9, i32 0, i32 0, i32 0
  %3 = load %"class.base::ElapsedTimer"*, %"class.base::ElapsedTimer"** %2, align 8
  %4 = icmp eq %"class.base::ElapsedTimer"* %3, null
  br i1 %4, label %14, label %5

; <label>:5:                                      ; preds = %1
  %6 = tail call i64 @_ZNK4base12ElapsedTimer7ElapsedEv(%"class.base::ElapsedTimer"* nonnull %3) #14
  %7 = getelementptr inbounds %"class.media::WebmMuxer", %"class.media::WebmMuxer"* %0, i64 0, i32 10, i32 0
  %8 = load i64, i64* %7, align 8
  %9 = tail call i64 @_ZN4base13time_internal12SaturatedAddENS_9TimeDeltaEl(i64 %8, i64 %6) #14
  store i64 %9, i64* %7, align 8
  %10 = load %"class.base::ElapsedTimer"*, %"class.base::ElapsedTimer"** %2, align 8
  store %"class.base::ElapsedTimer"* null, %"class.base::ElapsedTimer"** %2, align 8
  %11 = icmp eq %"class.base::ElapsedTimer"* %10, null
  br i1 %11, label %14, label %12

; <label>:12:                                     ; preds = %5
  %13 = bitcast %"class.base::ElapsedTimer"* %10 to i8*
  tail call void @_ZdlPv(i8* %13) #15
  br label %14

; <label>:14:                                     ; preds = %1, %12, %5
  ret void
}

declare i64 @_ZNK4base12ElapsedTimer7ElapsedEv(%"class.base::ElapsedTimer"*) local_unnamed_addr #2

declare i64 @_ZN8mkvmuxer7Segment13AddVideoTrackEiii(%"class.mkvmuxer::Segment"*, i32, i32, i32) local_unnamed_addr #2

declare %"class.mkvmuxer::Track"* @_ZNK8mkvmuxer7Segment16GetTrackByNumberEm(%"class.mkvmuxer::Segment"*, i64) local_unnamed_addr #2

declare void @_ZN8mkvmuxer5Track12set_codec_idEPKc(%"class.mkvmuxer::Track"*, i8*) local_unnamed_addr #2

declare zeroext i1 @_ZN8mkvmuxer10VideoTrack12SetAlphaModeEm(%"class.mkvmuxer::VideoTrack"*, i64) local_unnamed_addr #2

declare i64 @_ZN8mkvmuxer7Segment13AddAudioTrackEiii(%"class.mkvmuxer::Segment"*, i32, i32, i32) local_unnamed_addr #2

declare zeroext i1 @_ZN8mkvmuxer5Track15SetCodecPrivateEPKhm(%"class.mkvmuxer::Track"*, i8*, i64) local_unnamed_addr #2

declare zeroext i1 @_ZN7logging22ShouldCreateLogMessageEi(i32) local_unnamed_addr #2

declare void @_ZN7logging10LogMessageC1EPKcii(%"class.logging::LogMessage"*, i8*, i32, i32) unnamed_addr #2

; Function Attrs: nounwind
declare void @_ZN7logging10LogMessageD1Ev(%"class.logging::LogMessage"*) unnamed_addr #4

; Function Attrs: nounwind ssp uwtable
define hidden i32 @_ZN5media9WebmMuxer5WriteEPKvj(%"class.media::WebmMuxer"* nocapture, i8*, i32) unnamed_addr #0 align 2 {
  %4 = alloca %"class.base::BasicStringPiece", align 8
  %5 = zext i32 %2 to i64
  %6 = bitcast %"class.base::BasicStringPiece"* %4 to i8*
  call void @llvm.lifetime.start.p0i8(i64 16, i8* nonnull %6)
  %7 = getelementptr inbounds %"class.base::BasicStringPiece", %"class.base::BasicStringPiece"* %4, i64 0, i32 0
  store i8* %1, i8** %7, align 8
  %8 = getelementptr inbounds %"class.base::BasicStringPiece", %"class.base::BasicStringPiece"* %4, i64 0, i32 1
  store i64 %5, i64* %8, align 8
  %9 = getelementptr inbounds %"class.media::WebmMuxer", %"class.media::WebmMuxer"* %0, i64 0, i32 13, i32 0, i32 0, i32 0, i32 0
  %10 = load %"class.base::internal::BindStateBase"*, %"class.base::internal::BindStateBase"** %9, align 8
  %11 = getelementptr inbounds %"class.base::internal::BindStateBase", %"class.base::internal::BindStateBase"* %10, i64 0, i32 1
  %12 = bitcast void ()** %11 to void (%"class.base::internal::BindStateBase"*, %"class.base::BasicStringPiece"*)**
  %13 = load void (%"class.base::internal::BindStateBase"*, %"class.base::BasicStringPiece"*)*, void (%"class.base::internal::BindStateBase"*, %"class.base::BasicStringPiece"*)** %12, align 8
  call void %13(%"class.base::internal::BindStateBase"* %10, %"class.base::BasicStringPiece"* nonnull dereferenceable(16) %4) #14
  call void @llvm.lifetime.end.p0i8(i64 16, i8* nonnull %6)
  %14 = getelementptr inbounds %"class.media::WebmMuxer", %"class.media::WebmMuxer"* %0, i64 0, i32 14, i32 0, i32 0
  %15 = load i8, i8* %14, align 8, !range !2
  %16 = icmp eq i8 %15, 0
  %17 = getelementptr inbounds %"class.media::WebmMuxer", %"class.media::WebmMuxer"* %0, i64 0, i32 14, i32 0, i32 1
  br i1 %16, label %25, label %18

; <label>:18:                                     ; preds = %3
  %19 = load i64, i64* %17, align 8
  %20 = call { i64, i1 } @llvm.sadd.with.overflow.i64(i64 %19, i64 %5) #14
  %21 = extractvalue { i64, i1 } %20, 1
  %22 = extractvalue { i64, i1 } %20, 0
  %23 = xor i1 %21, true
  %24 = zext i1 %23 to i8
  br label %25

; <label>:25:                                     ; preds = %3, %18
  %26 = phi i64 [ %22, %18 ], [ 0, %3 ]
  %27 = phi i8 [ %24, %18 ], [ 0, %3 ]
  store i8 %27, i8* %14, align 8
  store i64 %26, i64* %17, align 8
  ret i32 0
}

; Function Attrs: nounwind ssp uwtable
define hidden i64 @_ZNK5media9WebmMuxer8PositionEv(%"class.media::WebmMuxer"* nocapture readonly) unnamed_addr #0 align 2 {
  %2 = getelementptr inbounds %"class.media::WebmMuxer", %"class.media::WebmMuxer"* %0, i64 0, i32 14, i32 0, i32 0
  %3 = load i8, i8* %2, align 8, !range !2
  %4 = icmp eq i8 %3, 0
  br i1 %4, label %5, label %6, !prof !12

; <label>:5:                                      ; preds = %1
  tail call void @llvm.trap() #14
  unreachable

; <label>:6:                                      ; preds = %1
  %7 = getelementptr inbounds %"class.media::WebmMuxer", %"class.media::WebmMuxer"* %0, i64 0, i32 14, i32 0, i32 1
  %8 = load i64, i64* %7, align 8
  ret i64 %8
}

; Function Attrs: norecurse nounwind readnone ssp uwtable
define hidden i32 @_ZN5media9WebmMuxer8PositionEx(%"class.media::WebmMuxer"* nocapture readnone, i64) unnamed_addr #3 align 2 {
  ret i32 -1
}

; Function Attrs: norecurse nounwind readnone ssp uwtable
define hidden zeroext i1 @_ZNK5media9WebmMuxer8SeekableEv(%"class.media::WebmMuxer"* nocapture readnone) unnamed_addr #3 align 2 {
  ret i1 false
}

; Function Attrs: norecurse nounwind readnone ssp uwtable
define hidden void @_ZN5media9WebmMuxer18ElementStartNotifyEyx(%"class.media::WebmMuxer"* nocapture, i64, i64) unnamed_addr #3 align 2 {
  ret void
}

declare zeroext i1 @_ZN8mkvmuxer7Segment8AddFrameEPKhmmmb(%"class.mkvmuxer::Segment"*, i8*, i64, i64, i64, i1 zeroext) local_unnamed_addr #2

declare zeroext i1 @_ZN8mkvmuxer7Segment22AddFrameWithAdditionalEPKhmS2_mmmmb(%"class.mkvmuxer::Segment"*, i8*, i64, i8*, i64, i64, i64, i64, i1 zeroext) local_unnamed_addr #2

; Function Attrs: norecurse nounwind ssp uwtable
define hidden void @_ZN5media9WebmMuxer17EncodedVideoFrameC2ENSt3__110unique_ptrINS2_12basic_stringIcNS2_11char_traitsIcEENS2_9allocatorIcEEEENS2_14default_deleteIS9_EEEESC_N4base9TimeTicksEb(%"struct.media::WebmMuxer::EncodedVideoFrame"* nocapture, %"class.std::__1::unique_ptr.82"* nocapture, %"class.std::__1::unique_ptr.82"* nocapture, i64, i1 zeroext) unnamed_addr #7 align 2 {
  %6 = zext i1 %4 to i8
  %7 = getelementptr inbounds %"class.std::__1::unique_ptr.82", %"class.std::__1::unique_ptr.82"* %1, i64 0, i32 0, i32 0, i32 0
  %8 = bitcast %"class.std::__1::unique_ptr.82"* %1 to i64*
  %9 = load i64, i64* %8, align 8
  store %"class.std::__1::basic_string"* null, %"class.std::__1::basic_string"** %7, align 8
  %10 = bitcast %"struct.media::WebmMuxer::EncodedVideoFrame"* %0 to i64*
  store i64 %9, i64* %10, align 8
  %11 = getelementptr inbounds %"struct.media::WebmMuxer::EncodedVideoFrame", %"struct.media::WebmMuxer::EncodedVideoFrame"* %0, i64 0, i32 1
  %12 = getelementptr inbounds %"class.std::__1::unique_ptr.82", %"class.std::__1::unique_ptr.82"* %2, i64 0, i32 0, i32 0, i32 0
  %13 = bitcast %"class.std::__1::unique_ptr.82"* %2 to i64*
  %14 = load i64, i64* %13, align 8
  store %"class.std::__1::basic_string"* null, %"class.std::__1::basic_string"** %12, align 8
  %15 = bitcast %"class.std::__1::unique_ptr.82"* %11 to i64*
  store i64 %14, i64* %15, align 8
  %16 = getelementptr inbounds %"struct.media::WebmMuxer::EncodedVideoFrame", %"struct.media::WebmMuxer::EncodedVideoFrame"* %0, i64 0, i32 2, i32 0, i32 0
  store i64 %3, i64* %16, align 8
  %17 = getelementptr inbounds %"struct.media::WebmMuxer::EncodedVideoFrame", %"struct.media::WebmMuxer::EncodedVideoFrame"* %0, i64 0, i32 3
  store i8 %6, i8* %17, align 8
  ret void
}

; Function Attrs: nounwind ssp uwtable
define hidden void @_ZN5media9WebmMuxer17EncodedVideoFrameD2Ev(%"struct.media::WebmMuxer::EncodedVideoFrame"* nocapture) unnamed_addr #0 align 2 {
  %2 = getelementptr inbounds %"struct.media::WebmMuxer::EncodedVideoFrame", %"struct.media::WebmMuxer::EncodedVideoFrame"* %0, i64 0, i32 1, i32 0, i32 0, i32 0
  %3 = load %"class.std::__1::basic_string"*, %"class.std::__1::basic_string"** %2, align 8
  store %"class.std::__1::basic_string"* null, %"class.std::__1::basic_string"** %2, align 8
  %4 = icmp eq %"class.std::__1::basic_string"* %3, null
  br i1 %4, label %15, label %5

; <label>:5:                                      ; preds = %1
  %6 = bitcast %"class.std::__1::basic_string"* %3 to %"struct.std::__1::basic_string<char, std::__1::char_traits<char>, std::__1::allocator<char> >::__short"*
  %7 = getelementptr inbounds %"struct.std::__1::basic_string<char, std::__1::char_traits<char>, std::__1::allocator<char> >::__short", %"struct.std::__1::basic_string<char, std::__1::char_traits<char>, std::__1::allocator<char> >::__short"* %6, i64 0, i32 1, i32 0
  %8 = load i8, i8* %7, align 1
  %9 = icmp slt i8 %8, 0
  br i1 %9, label %10, label %13

; <label>:10:                                     ; preds = %5
  %11 = getelementptr inbounds %"class.std::__1::basic_string", %"class.std::__1::basic_string"* %3, i64 0, i32 0, i32 0, i32 0, i32 0, i32 0, i32 0
  %12 = load i8*, i8** %11, align 8
  tail call void @_ZdlPv(i8* %12) #15
  br label %13

; <label>:13:                                     ; preds = %10, %5
  %14 = bitcast %"class.std::__1::basic_string"* %3 to i8*
  tail call void @_ZdlPv(i8* %14) #15
  br label %15

; <label>:15:                                     ; preds = %1, %13
  %16 = getelementptr inbounds %"struct.media::WebmMuxer::EncodedVideoFrame", %"struct.media::WebmMuxer::EncodedVideoFrame"* %0, i64 0, i32 0, i32 0, i32 0, i32 0
  %17 = load %"class.std::__1::basic_string"*, %"class.std::__1::basic_string"** %16, align 8
  store %"class.std::__1::basic_string"* null, %"class.std::__1::basic_string"** %16, align 8
  %18 = icmp eq %"class.std::__1::basic_string"* %17, null
  br i1 %18, label %29, label %19

; <label>:19:                                     ; preds = %15
  %20 = bitcast %"class.std::__1::basic_string"* %17 to %"struct.std::__1::basic_string<char, std::__1::char_traits<char>, std::__1::allocator<char> >::__short"*
  %21 = getelementptr inbounds %"struct.std::__1::basic_string<char, std::__1::char_traits<char>, std::__1::allocator<char> >::__short", %"struct.std::__1::basic_string<char, std::__1::char_traits<char>, std::__1::allocator<char> >::__short"* %20, i64 0, i32 1, i32 0
  %22 = load i8, i8* %21, align 1
  %23 = icmp slt i8 %22, 0
  br i1 %23, label %24, label %27

; <label>:24:                                     ; preds = %19
  %25 = getelementptr inbounds %"class.std::__1::basic_string", %"class.std::__1::basic_string"* %17, i64 0, i32 0, i32 0, i32 0, i32 0, i32 0, i32 0
  %26 = load i8*, i8** %25, align 8
  tail call void @_ZdlPv(i8* %26) #15
  br label %27

; <label>:27:                                     ; preds = %24, %19
  %28 = bitcast %"class.std::__1::basic_string"* %17 to i8*
  tail call void @_ZdlPv(i8* %28) #15
  br label %29

; <label>:29:                                     ; preds = %15, %27
  ret void
}

declare void @_ZN4base8internal20CallbackBaseCopyableC2ERKS1_(%"class.base::internal::CallbackBaseCopyable"*, %"class.base::internal::CallbackBaseCopyable"* dereferenceable(8)) unnamed_addr #2

declare i64 @_ZN4base13time_internal12SaturatedAddENS_9TimeDeltaEl(i64, i64) local_unnamed_addr #2

; Function Attrs: argmemonly nounwind
declare void @llvm.memset.p0i8.i64(i8* nocapture writeonly, i8, i64, i1) #1

; Function Attrs: noreturn
declare void @_ZNKSt3__121__basic_string_commonILb1EE20__throw_length_errorEv(%"class.std::__1::__basic_string_common"*) local_unnamed_addr #8

; Function Attrs: argmemonly nounwind readonly
declare i64 @strlen(i8* nocapture) local_unnamed_addr #9

; Function Attrs: nounwind readnone speculatable
declare { i64, i1 } @llvm.sadd.with.overflow.i64(i64, i64) #10

; Function Attrs: noreturn nounwind
declare void @llvm.trap() #11

declare i64 @_ZN4base13time_internal12SaturatedSubENS_9TimeDeltaEl(i64, i64) local_unnamed_addr #2

; Function Attrs: nounwind ssp uwtable
define linkonce_odr hidden dereferenceable(160) %"class.std::__1::basic_ostream"* @_ZNSt3__124__put_character_sequenceIcNS_11char_traitsIcEEEERNS_13basic_ostreamIT_T0_EES7_PKS4_m(%"class.std::__1::basic_ostream"* dereferenceable(160), i8*, i64) local_unnamed_addr #0 comdat {
  %4 = alloca %"class.std::__1::locale", align 8
  %5 = alloca %"class.std::__1::basic_ostream<char, std::__1::char_traits<char> >::sentry", align 8
  %6 = getelementptr inbounds %"class.std::__1::basic_ostream<char, std::__1::char_traits<char> >::sentry", %"class.std::__1::basic_ostream<char, std::__1::char_traits<char> >::sentry"* %5, i64 0, i32 0
  call void @llvm.lifetime.start.p0i8(i64 16, i8* nonnull %6) #14
  call void @_ZNSt3__113basic_ostreamIcNS_11char_traitsIcEEE6sentryC1ERS3_(%"class.std::__1::basic_ostream<char, std::__1::char_traits<char> >::sentry"* nonnull %5, %"class.std::__1::basic_ostream"* nonnull dereferenceable(160) %0) #14
  %7 = load i8, i8* %6, align 8, !range !2
  %8 = icmp eq i8 %7, 0
  br i1 %8, label %58, label %9

; <label>:9:                                      ; preds = %3
  %10 = bitcast %"class.std::__1::basic_ostream"* %0 to i8**
  %11 = load i8*, i8** %10, align 8
  %12 = getelementptr i8, i8* %11, i64 -24
  %13 = bitcast i8* %12 to i64*
  %14 = load i64, i64* %13, align 8
  %15 = bitcast %"class.std::__1::basic_ostream"* %0 to i8*
  %16 = getelementptr inbounds i8, i8* %15, i64 %14
  %17 = getelementptr inbounds i8, i8* %16, i64 40
  %18 = bitcast i8* %17 to %"class.std::__1::basic_streambuf"**
  %19 = load %"class.std::__1::basic_streambuf"*, %"class.std::__1::basic_streambuf"** %18, align 8
  %20 = bitcast i8* %16 to %"class.std::__1::ios_base"*
  %21 = getelementptr inbounds i8, i8* %16, i64 8
  %22 = bitcast i8* %21 to i32*
  %23 = load i32, i32* %22, align 8
  %24 = and i32 %23, 176
  %25 = icmp eq i32 %24, 32
  %26 = getelementptr inbounds i8, i8* %1, i64 %2
  %27 = select i1 %25, i8* %26, i8* %1
  %28 = getelementptr inbounds i8, i8* %16, i64 144
  %29 = bitcast i8* %28 to i32*
  %30 = load i32, i32* %29, align 8
  %31 = icmp eq i32 %30, -1
  br i1 %31, label %32, label %42

; <label>:32:                                     ; preds = %9
  %33 = bitcast %"class.std::__1::locale"* %4 to i8*
  call void @llvm.lifetime.start.p0i8(i64 8, i8* nonnull %33) #14
  call void @_ZNKSt3__18ios_base6getlocEv(%"class.std::__1::locale"* nonnull sret %4, %"class.std::__1::ios_base"* %20) #14
  %34 = call %"class.std::__1::locale::facet"* @_ZNKSt3__16locale9use_facetERNS0_2idE(%"class.std::__1::locale"* nonnull %4, %"class.std::__1::locale::id"* nonnull dereferenceable(16) @_ZNSt3__15ctypeIcE2idE) #14
  %35 = bitcast %"class.std::__1::locale::facet"* %34 to %"class.std::__1::ctype"*
  %36 = bitcast %"class.std::__1::locale::facet"* %34 to i8 (%"class.std::__1::ctype"*, i8)***
  %37 = load i8 (%"class.std::__1::ctype"*, i8)**, i8 (%"class.std::__1::ctype"*, i8)*** %36, align 8
  %38 = getelementptr inbounds i8 (%"class.std::__1::ctype"*, i8)*, i8 (%"class.std::__1::ctype"*, i8)** %37, i64 7
  %39 = load i8 (%"class.std::__1::ctype"*, i8)*, i8 (%"class.std::__1::ctype"*, i8)** %38, align 8
  %40 = call signext i8 %39(%"class.std::__1::ctype"* %35, i8 signext 32) #14
  call void @_ZNSt3__16localeD1Ev(%"class.std::__1::locale"* nonnull %4) #14
  call void @llvm.lifetime.end.p0i8(i64 8, i8* nonnull %33) #14
  %41 = sext i8 %40 to i32
  store i32 %41, i32* %29, align 8
  br label %42

; <label>:42:                                     ; preds = %9, %32
  %43 = phi i32 [ %41, %32 ], [ %30, %9 ]
  %44 = trunc i32 %43 to i8
  %45 = call %"class.std::__1::basic_streambuf"* @_ZNSt3__116__pad_and_outputIcNS_11char_traitsIcEEEENS_19ostreambuf_iteratorIT_T0_EES6_PKS4_S8_S8_RNS_8ios_baseES4_(%"class.std::__1::basic_streambuf"* %19, i8* %1, i8* %27, i8* %26, %"class.std::__1::ios_base"* dereferenceable(136) %20, i8 signext %44)
  %46 = icmp eq %"class.std::__1::basic_streambuf"* %45, null
  br i1 %46, label %47, label %58

; <label>:47:                                     ; preds = %42
  %48 = load i8*, i8** %10, align 8
  %49 = getelementptr i8, i8* %48, i64 -24
  %50 = bitcast i8* %49 to i64*
  %51 = load i64, i64* %50, align 8
  %52 = getelementptr inbounds i8, i8* %15, i64 %51
  %53 = bitcast i8* %52 to %"class.std::__1::ios_base"*
  %54 = getelementptr inbounds i8, i8* %52, i64 32
  %55 = bitcast i8* %54 to i32*
  %56 = load i32, i32* %55, align 8
  %57 = or i32 %56, 5
  call void @_ZNSt3__18ios_base5clearEj(%"class.std::__1::ios_base"* %53, i32 %57) #14
  br label %58

; <label>:58:                                     ; preds = %3, %42, %47
  call void @_ZNSt3__113basic_ostreamIcNS_11char_traitsIcEEE6sentryD1Ev(%"class.std::__1::basic_ostream<char, std::__1::char_traits<char> >::sentry"* nonnull %5) #14
  call void @llvm.lifetime.end.p0i8(i64 16, i8* nonnull %6) #14
  ret %"class.std::__1::basic_ostream"* %0
}

declare void @_ZNSt3__113basic_ostreamIcNS_11char_traitsIcEEE6sentryC1ERS3_(%"class.std::__1::basic_ostream<char, std::__1::char_traits<char> >::sentry"*, %"class.std::__1::basic_ostream"* dereferenceable(160)) unnamed_addr #2

; Function Attrs: nounwind ssp uwtable
define linkonce_odr hidden %"class.std::__1::basic_streambuf"* @_ZNSt3__116__pad_and_outputIcNS_11char_traitsIcEEEENS_19ostreambuf_iteratorIT_T0_EES6_PKS4_S8_S8_RNS_8ios_baseES4_(%"class.std::__1::basic_streambuf"*, i8*, i8*, i8*, %"class.std::__1::ios_base"* dereferenceable(136), i8 signext) local_unnamed_addr #0 comdat {
  %7 = alloca %"class.std::__1::basic_string", align 8
  %8 = icmp eq %"class.std::__1::basic_streambuf"* %0, null
  br i1 %8, label %79, label %9

; <label>:9:                                      ; preds = %6
  %10 = ptrtoint i8* %3 to i64
  %11 = ptrtoint i8* %1 to i64
  %12 = sub i64 %10, %11
  %13 = getelementptr inbounds %"class.std::__1::ios_base", %"class.std::__1::ios_base"* %4, i64 0, i32 3
  %14 = load i64, i64* %13, align 8
  %15 = icmp sgt i64 %14, %12
  %16 = sub nsw i64 %14, %12
  %17 = select i1 %15, i64 %16, i64 0
  %18 = ptrtoint i8* %2 to i64
  %19 = sub i64 %18, %11
  %20 = icmp sgt i64 %19, 0
  br i1 %20, label %21, label %28

; <label>:21:                                     ; preds = %9
  %22 = bitcast %"class.std::__1::basic_streambuf"* %0 to i64 (%"class.std::__1::basic_streambuf"*, i8*, i64)***
  %23 = load i64 (%"class.std::__1::basic_streambuf"*, i8*, i64)**, i64 (%"class.std::__1::basic_streambuf"*, i8*, i64)*** %22, align 8
  %24 = getelementptr inbounds i64 (%"class.std::__1::basic_streambuf"*, i8*, i64)*, i64 (%"class.std::__1::basic_streambuf"*, i8*, i64)** %23, i64 12
  %25 = load i64 (%"class.std::__1::basic_streambuf"*, i8*, i64)*, i64 (%"class.std::__1::basic_streambuf"*, i8*, i64)** %24, align 8
  %26 = tail call i64 %25(%"class.std::__1::basic_streambuf"* nonnull %0, i8* %1, i64 %19) #14
  %27 = icmp eq i64 %26, %19
  br i1 %27, label %28, label %79

; <label>:28:                                     ; preds = %21, %9
  %29 = icmp sgt i64 %17, 0
  br i1 %29, label %30, label %68

; <label>:30:                                     ; preds = %28
  %31 = bitcast %"class.std::__1::basic_string"* %7 to i8*
  call void @llvm.lifetime.start.p0i8(i64 24, i8* nonnull %31) #14
  call void @llvm.memset.p0i8.i64(i8* nonnull align 8 %31, i8 0, i64 24, i1 false) #14
  %32 = icmp ult i64 %17, 23
  br i1 %32, label %43, label %33

; <label>:33:                                     ; preds = %30
  %34 = add nuw i64 %17, 16
  %35 = and i64 %34, -16
  %36 = tail call i8* @_Znwm(i64 %35) #15
  %37 = getelementptr inbounds %"class.std::__1::basic_string", %"class.std::__1::basic_string"* %7, i64 0, i32 0, i32 0, i32 0, i32 0, i32 0, i32 0
  store i8* %36, i8** %37, align 8
  %38 = or i64 %35, -9223372036854775808
  %39 = getelementptr inbounds %"class.std::__1::basic_string", %"class.std::__1::basic_string"* %7, i64 0, i32 0, i32 0, i32 0, i32 0, i32 0, i32 2
  store i64 %38, i64* %39, align 8
  %40 = getelementptr inbounds %"class.std::__1::basic_string", %"class.std::__1::basic_string"* %7, i64 0, i32 0, i32 0, i32 0, i32 0, i32 0, i32 1
  store i64 %17, i64* %40, align 8
  %41 = bitcast %"class.std::__1::basic_string"* %7 to %"struct.std::__1::basic_string<char, std::__1::char_traits<char>, std::__1::allocator<char> >::__short"*
  %42 = getelementptr inbounds %"struct.std::__1::basic_string<char, std::__1::char_traits<char>, std::__1::allocator<char> >::__short", %"struct.std::__1::basic_string<char, std::__1::char_traits<char>, std::__1::allocator<char> >::__short"* %41, i64 0, i32 1, i32 0
  br label %48

; <label>:43:                                     ; preds = %30
  %44 = trunc i64 %17 to i8
  %45 = bitcast %"class.std::__1::basic_string"* %7 to %"struct.std::__1::basic_string<char, std::__1::char_traits<char>, std::__1::allocator<char> >::__short"*
  %46 = getelementptr inbounds %"struct.std::__1::basic_string<char, std::__1::char_traits<char>, std::__1::allocator<char> >::__short", %"struct.std::__1::basic_string<char, std::__1::char_traits<char>, std::__1::allocator<char> >::__short"* %45, i64 0, i32 1, i32 0
  store i8 %44, i8* %46, align 1
  %47 = getelementptr inbounds %"class.std::__1::basic_string", %"class.std::__1::basic_string"* %7, i64 0, i32 0, i32 0, i32 0, i32 0, i32 0, i32 0
  br label %48

; <label>:48:                                     ; preds = %33, %43
  %49 = phi i8** [ %37, %33 ], [ %47, %43 ]
  %50 = phi i8* [ %42, %33 ], [ %46, %43 ]
  %51 = phi i8* [ %36, %33 ], [ %31, %43 ]
  call void @llvm.memset.p0i8.i64(i8* nonnull align 1 %51, i8 %5, i64 %17, i1 false) #14
  %52 = getelementptr inbounds i8, i8* %51, i64 %17
  store i8 0, i8* %52, align 1
  %53 = load i8, i8* %50, align 1
  %54 = icmp slt i8 %53, 0
  %55 = load i8*, i8** %49, align 8
  %56 = select i1 %54, i8* %55, i8* %31
  %57 = bitcast %"class.std::__1::basic_streambuf"* %0 to i64 (%"class.std::__1::basic_streambuf"*, i8*, i64)***
  %58 = load i64 (%"class.std::__1::basic_streambuf"*, i8*, i64)**, i64 (%"class.std::__1::basic_streambuf"*, i8*, i64)*** %57, align 8
  %59 = getelementptr inbounds i64 (%"class.std::__1::basic_streambuf"*, i8*, i64)*, i64 (%"class.std::__1::basic_streambuf"*, i8*, i64)** %58, i64 12
  %60 = load i64 (%"class.std::__1::basic_streambuf"*, i8*, i64)*, i64 (%"class.std::__1::basic_streambuf"*, i8*, i64)** %59, align 8
  %61 = call i64 %60(%"class.std::__1::basic_streambuf"* nonnull %0, i8* %56, i64 %17) #14
  %62 = icmp eq i64 %61, %17
  %63 = load i8, i8* %50, align 1
  %64 = icmp slt i8 %63, 0
  br i1 %64, label %65, label %67

; <label>:65:                                     ; preds = %48
  %66 = load i8*, i8** %49, align 8
  call void @_ZdlPv(i8* %66) #15
  br label %67

; <label>:67:                                     ; preds = %48, %65
  call void @llvm.lifetime.end.p0i8(i64 24, i8* nonnull %31) #14
  br i1 %62, label %68, label %79

; <label>:68:                                     ; preds = %67, %28
  %69 = sub i64 %10, %18
  %70 = icmp sgt i64 %69, 0
  br i1 %70, label %71, label %78

; <label>:71:                                     ; preds = %68
  %72 = bitcast %"class.std::__1::basic_streambuf"* %0 to i64 (%"class.std::__1::basic_streambuf"*, i8*, i64)***
  %73 = load i64 (%"class.std::__1::basic_streambuf"*, i8*, i64)**, i64 (%"class.std::__1::basic_streambuf"*, i8*, i64)*** %72, align 8
  %74 = getelementptr inbounds i64 (%"class.std::__1::basic_streambuf"*, i8*, i64)*, i64 (%"class.std::__1::basic_streambuf"*, i8*, i64)** %73, i64 12
  %75 = load i64 (%"class.std::__1::basic_streambuf"*, i8*, i64)*, i64 (%"class.std::__1::basic_streambuf"*, i8*, i64)** %74, align 8
  %76 = call i64 %75(%"class.std::__1::basic_streambuf"* nonnull %0, i8* %2, i64 %69) #14
  %77 = icmp eq i64 %76, %69
  br i1 %77, label %78, label %79

; <label>:78:                                     ; preds = %71, %68
  store i64 0, i64* %13, align 8
  br label %79

; <label>:79:                                     ; preds = %78, %67, %21, %71, %6
  %80 = phi %"class.std::__1::basic_streambuf"* [ null, %6 ], [ %0, %78 ], [ null, %67 ], [ null, %21 ], [ null, %71 ]
  ret %"class.std::__1::basic_streambuf"* %80
}

; Function Attrs: nounwind
declare void @_ZNSt3__113basic_ostreamIcNS_11char_traitsIcEEE6sentryD1Ev(%"class.std::__1::basic_ostream<char, std::__1::char_traits<char> >::sentry"*) unnamed_addr #4

declare void @_ZNKSt3__18ios_base6getlocEv(%"class.std::__1::locale"* sret, %"class.std::__1::ios_base"*) local_unnamed_addr #2

; Function Attrs: nounwind
declare void @_ZNSt3__16localeD1Ev(%"class.std::__1::locale"*) unnamed_addr #4

declare %"class.std::__1::locale::facet"* @_ZNKSt3__16locale9use_facetERNS0_2idE(%"class.std::__1::locale"*, %"class.std::__1::locale::id"* dereferenceable(16)) local_unnamed_addr #2

declare void @_ZNSt3__18ios_base5clearEj(%"class.std::__1::ios_base"*, i32) local_unnamed_addr #2

; Function Attrs: nounwind ssp uwtable
define linkonce_odr hidden void @_ZN4base14circular_dequeINSt3__110unique_ptrIN5media9WebmMuxer17EncodedVideoFrameENS1_14default_deleteIS5_EEEEE13DestructRangeEmm(%"class.base::circular_deque"*, i64, i64) local_unnamed_addr #0 comdat align 2 {
  %4 = alloca i64, align 8
  %5 = alloca %"class.logging::LogMessage", align 8
  %6 = alloca i64, align 8
  %7 = alloca %"class.logging::LogMessage", align 8
  %8 = alloca i64, align 8
  %9 = alloca %"class.logging::LogMessage", align 8
  %10 = icmp eq i64 %2, %1
  br i1 %10, label %57, label %11

; <label>:11:                                     ; preds = %3
  %12 = icmp ugt i64 %2, %1
  %13 = getelementptr inbounds %"class.base::circular_deque", %"class.base::circular_deque"* %0, i64 0, i32 0
  %14 = bitcast i64* %8 to i8*
  call void @llvm.lifetime.start.p0i8(i64 8, i8* nonnull %14)
  store i64 %1, i64* %8, align 8
  %15 = getelementptr inbounds %"class.base::circular_deque", %"class.base::circular_deque"* %0, i64 0, i32 0, i32 1
  %16 = load i64, i64* %15, align 8
  %17 = icmp ult i64 %16, %1
  br i1 %17, label %18, label %23

; <label>:18:                                     ; preds = %11
  %19 = call %"class.std::__1::basic_string"* @_ZN7logging17MakeCheckOpStringImmEEPNSt3__112basic_stringIcNS1_11char_traitsIcEENS1_9allocatorIcEEEERKT_RKT0_PKc(i64* nonnull dereferenceable(8) %8, i64* nonnull dereferenceable(8) %15, i8* getelementptr inbounds ([15 x i8], [15 x i8]* @.str.11, i64 0, i64 0)) #14
  %20 = icmp eq %"class.std::__1::basic_string"* %19, null
  br i1 %20, label %23, label %21

; <label>:21:                                     ; preds = %18
  %22 = bitcast %"class.logging::LogMessage"* %9 to i8*
  call void @llvm.lifetime.start.p0i8(i64 296, i8* nonnull %22) #14
  call void @_ZN7logging10LogMessageC1EPKciPNSt3__112basic_stringIcNS3_11char_traitsIcEENS3_9allocatorIcEEEE(%"class.logging::LogMessage"* nonnull %9, i8* getelementptr inbounds ([38 x i8], [38 x i8]* @.str.7, i64 0, i64 0), i32 80, %"class.std::__1::basic_string"* nonnull %19) #14
  call void @_ZN7logging10LogMessageD1Ev(%"class.logging::LogMessage"* nonnull %9) #14
  call void @llvm.lifetime.end.p0i8(i64 296, i8* nonnull %22) #14
  br label %23

; <label>:23:                                     ; preds = %11, %18, %21
  %24 = getelementptr inbounds %"class.base::circular_deque", %"class.base::circular_deque"* %0, i64 0, i32 0, i32 0
  %25 = load %"class.std::__1::unique_ptr.79"*, %"class.std::__1::unique_ptr.79"** %24, align 8
  %26 = load i64, i64* %8, align 8
  %27 = getelementptr inbounds %"class.std::__1::unique_ptr.79", %"class.std::__1::unique_ptr.79"* %25, i64 %26
  call void @llvm.lifetime.end.p0i8(i64 8, i8* nonnull %14)
  br i1 %12, label %28, label %41

; <label>:28:                                     ; preds = %23
  %29 = bitcast i64* %6 to i8*
  call void @llvm.lifetime.start.p0i8(i64 8, i8* nonnull %29)
  store i64 %2, i64* %6, align 8
  %30 = load i64, i64* %15, align 8
  %31 = icmp ult i64 %30, %2
  br i1 %31, label %32, label %37

; <label>:32:                                     ; preds = %28
  %33 = call %"class.std::__1::basic_string"* @_ZN7logging17MakeCheckOpStringImmEEPNSt3__112basic_stringIcNS1_11char_traitsIcEENS1_9allocatorIcEEEERKT_RKT0_PKc(i64* nonnull dereferenceable(8) %6, i64* nonnull dereferenceable(8) %15, i8* getelementptr inbounds ([15 x i8], [15 x i8]* @.str.11, i64 0, i64 0)) #14
  %34 = icmp eq %"class.std::__1::basic_string"* %33, null
  br i1 %34, label %37, label %35

; <label>:35:                                     ; preds = %32
  %36 = bitcast %"class.logging::LogMessage"* %7 to i8*
  call void @llvm.lifetime.start.p0i8(i64 296, i8* nonnull %36) #14
  call void @_ZN7logging10LogMessageC1EPKciPNSt3__112basic_stringIcNS3_11char_traitsIcEENS3_9allocatorIcEEEE(%"class.logging::LogMessage"* nonnull %7, i8* getelementptr inbounds ([38 x i8], [38 x i8]* @.str.7, i64 0, i64 0), i32 80, %"class.std::__1::basic_string"* nonnull %33) #14
  call void @_ZN7logging10LogMessageD1Ev(%"class.logging::LogMessage"* nonnull %7) #14
  call void @llvm.lifetime.end.p0i8(i64 296, i8* nonnull %36) #14
  br label %37

; <label>:37:                                     ; preds = %28, %32, %35
  %38 = load %"class.std::__1::unique_ptr.79"*, %"class.std::__1::unique_ptr.79"** %24, align 8
  %39 = load i64, i64* %6, align 8
  %40 = getelementptr inbounds %"class.std::__1::unique_ptr.79", %"class.std::__1::unique_ptr.79"* %38, i64 %39
  call void @llvm.lifetime.end.p0i8(i64 8, i8* nonnull %29)
  call void @_ZN4base8internal12VectorBufferINSt3__110unique_ptrIN5media9WebmMuxer17EncodedVideoFrameENS2_14default_deleteIS6_EEEEE13DestructRangeIS9_Li0EEEvPS9_SC_(%"class.base::internal::VectorBuffer"* nonnull %13, %"class.std::__1::unique_ptr.79"* nonnull %27, %"class.std::__1::unique_ptr.79"* nonnull %40)
  br label %57

; <label>:41:                                     ; preds = %23
  %42 = load i64, i64* %15, align 8
  %43 = getelementptr inbounds %"class.std::__1::unique_ptr.79", %"class.std::__1::unique_ptr.79"* %25, i64 %42
  call void @_ZN4base8internal12VectorBufferINSt3__110unique_ptrIN5media9WebmMuxer17EncodedVideoFrameENS2_14default_deleteIS6_EEEEE13DestructRangeIS9_Li0EEEvPS9_SC_(%"class.base::internal::VectorBuffer"* nonnull %13, %"class.std::__1::unique_ptr.79"* nonnull %27, %"class.std::__1::unique_ptr.79"* nonnull %43)
  %44 = load %"class.std::__1::unique_ptr.79"*, %"class.std::__1::unique_ptr.79"** %24, align 8
  %45 = bitcast i64* %4 to i8*
  call void @llvm.lifetime.start.p0i8(i64 8, i8* nonnull %45)
  store i64 %2, i64* %4, align 8
  %46 = load i64, i64* %15, align 8
  %47 = icmp ult i64 %46, %2
  br i1 %47, label %48, label %53

; <label>:48:                                     ; preds = %41
  %49 = call %"class.std::__1::basic_string"* @_ZN7logging17MakeCheckOpStringImmEEPNSt3__112basic_stringIcNS1_11char_traitsIcEENS1_9allocatorIcEEEERKT_RKT0_PKc(i64* nonnull dereferenceable(8) %4, i64* nonnull dereferenceable(8) %15, i8* getelementptr inbounds ([15 x i8], [15 x i8]* @.str.11, i64 0, i64 0)) #14
  %50 = icmp eq %"class.std::__1::basic_string"* %49, null
  br i1 %50, label %53, label %51

; <label>:51:                                     ; preds = %48
  %52 = bitcast %"class.logging::LogMessage"* %5 to i8*
  call void @llvm.lifetime.start.p0i8(i64 296, i8* nonnull %52) #14
  call void @_ZN7logging10LogMessageC1EPKciPNSt3__112basic_stringIcNS3_11char_traitsIcEENS3_9allocatorIcEEEE(%"class.logging::LogMessage"* nonnull %5, i8* getelementptr inbounds ([38 x i8], [38 x i8]* @.str.7, i64 0, i64 0), i32 80, %"class.std::__1::basic_string"* nonnull %49) #14
  call void @_ZN7logging10LogMessageD1Ev(%"class.logging::LogMessage"* nonnull %5) #14
  call void @llvm.lifetime.end.p0i8(i64 296, i8* nonnull %52) #14
  br label %53

; <label>:53:                                     ; preds = %41, %48, %51
  %54 = load %"class.std::__1::unique_ptr.79"*, %"class.std::__1::unique_ptr.79"** %24, align 8
  %55 = load i64, i64* %4, align 8
  %56 = getelementptr inbounds %"class.std::__1::unique_ptr.79", %"class.std::__1::unique_ptr.79"* %54, i64 %55
  call void @llvm.lifetime.end.p0i8(i64 8, i8* nonnull %45)
  call void @_ZN4base8internal12VectorBufferINSt3__110unique_ptrIN5media9WebmMuxer17EncodedVideoFrameENS2_14default_deleteIS6_EEEEE13DestructRangeIS9_Li0EEEvPS9_SC_(%"class.base::internal::VectorBuffer"* nonnull %13, %"class.std::__1::unique_ptr.79"* nonnull %44, %"class.std::__1::unique_ptr.79"* nonnull %56)
  br label %57

; <label>:57:                                     ; preds = %37, %53, %3
  ret void
}

; Function Attrs: nounwind ssp uwtable
define linkonce_odr hidden void @_ZN4base8internal12VectorBufferINSt3__110unique_ptrIN5media9WebmMuxer17EncodedVideoFrameENS2_14default_deleteIS6_EEEEE13DestructRangeIS9_Li0EEEvPS9_SC_(%"class.base::internal::VectorBuffer"*, %"class.std::__1::unique_ptr.79"*, %"class.std::__1::unique_ptr.79"*) local_unnamed_addr #0 comdat align 2 {
  %4 = alloca %"class.std::__1::unique_ptr.79"*, align 8
  %5 = alloca %"class.std::__1::unique_ptr.79"*, align 8
  %6 = alloca %"class.logging::LogMessage", align 8
  store %"class.std::__1::unique_ptr.79"* %1, %"class.std::__1::unique_ptr.79"** %4, align 8
  store %"class.std::__1::unique_ptr.79"* %2, %"class.std::__1::unique_ptr.79"** %5, align 8
  %7 = icmp ugt %"class.std::__1::unique_ptr.79"* %1, %2
  br i1 %7, label %8, label %13

; <label>:8:                                      ; preds = %3
  %9 = call %"class.std::__1::basic_string"* @_ZN7logging17MakeCheckOpStringIPNSt3__110unique_ptrIN5media9WebmMuxer17EncodedVideoFrameENS1_14default_deleteIS5_EEEES9_EEPNS1_12basic_stringIcNS1_11char_traitsIcEENS1_9allocatorIcEEEERKT_RKT0_PKc(%"class.std::__1::unique_ptr.79"** nonnull dereferenceable(8) %4, %"class.std::__1::unique_ptr.79"** nonnull dereferenceable(8) %5, i8* getelementptr inbounds ([13 x i8], [13 x i8]* @.str.6, i64 0, i64 0)) #14
  %10 = icmp eq %"class.std::__1::basic_string"* %9, null
  br i1 %10, label %13, label %11

; <label>:11:                                     ; preds = %8
  %12 = bitcast %"class.logging::LogMessage"* %6 to i8*
  call void @llvm.lifetime.start.p0i8(i64 296, i8* nonnull %12) #14
  call void @_ZN7logging10LogMessageC1EPKciPNSt3__112basic_stringIcNS3_11char_traitsIcEENS3_9allocatorIcEEEE(%"class.logging::LogMessage"* nonnull %6, i8* getelementptr inbounds ([38 x i8], [38 x i8]* @.str.7, i64 0, i64 0), i32 106, %"class.std::__1::basic_string"* nonnull %9) #14
  call void @_ZN7logging10LogMessageD1Ev(%"class.logging::LogMessage"* nonnull %6) #14
  call void @llvm.lifetime.end.p0i8(i64 296, i8* nonnull %12) #14
  br label %13

; <label>:13:                                     ; preds = %3, %8, %11
  %14 = load %"class.std::__1::unique_ptr.79"*, %"class.std::__1::unique_ptr.79"** %4, align 8
  %15 = load %"class.std::__1::unique_ptr.79"*, %"class.std::__1::unique_ptr.79"** %5, align 8
  %16 = icmp eq %"class.std::__1::unique_ptr.79"* %14, %15
  br i1 %16, label %57, label %17

; <label>:17:                                     ; preds = %13, %52
  %18 = phi %"class.std::__1::unique_ptr.79"* [ %54, %52 ], [ %14, %13 ]
  %19 = getelementptr inbounds %"class.std::__1::unique_ptr.79", %"class.std::__1::unique_ptr.79"* %18, i64 0, i32 0, i32 0, i32 0
  %20 = load %"struct.media::WebmMuxer::EncodedVideoFrame"*, %"struct.media::WebmMuxer::EncodedVideoFrame"** %19, align 8
  store %"struct.media::WebmMuxer::EncodedVideoFrame"* null, %"struct.media::WebmMuxer::EncodedVideoFrame"** %19, align 8
  %21 = icmp eq %"struct.media::WebmMuxer::EncodedVideoFrame"* %20, null
  br i1 %21, label %52, label %22

; <label>:22:                                     ; preds = %17
  %23 = getelementptr inbounds %"struct.media::WebmMuxer::EncodedVideoFrame", %"struct.media::WebmMuxer::EncodedVideoFrame"* %20, i64 0, i32 1, i32 0, i32 0, i32 0
  %24 = load %"class.std::__1::basic_string"*, %"class.std::__1::basic_string"** %23, align 8
  store %"class.std::__1::basic_string"* null, %"class.std::__1::basic_string"** %23, align 8
  %25 = icmp eq %"class.std::__1::basic_string"* %24, null
  br i1 %25, label %36, label %26

; <label>:26:                                     ; preds = %22
  %27 = bitcast %"class.std::__1::basic_string"* %24 to %"struct.std::__1::basic_string<char, std::__1::char_traits<char>, std::__1::allocator<char> >::__short"*
  %28 = getelementptr inbounds %"struct.std::__1::basic_string<char, std::__1::char_traits<char>, std::__1::allocator<char> >::__short", %"struct.std::__1::basic_string<char, std::__1::char_traits<char>, std::__1::allocator<char> >::__short"* %27, i64 0, i32 1, i32 0
  %29 = load i8, i8* %28, align 1
  %30 = icmp slt i8 %29, 0
  br i1 %30, label %31, label %34

; <label>:31:                                     ; preds = %26
  %32 = getelementptr inbounds %"class.std::__1::basic_string", %"class.std::__1::basic_string"* %24, i64 0, i32 0, i32 0, i32 0, i32 0, i32 0, i32 0
  %33 = load i8*, i8** %32, align 8
  call void @_ZdlPv(i8* %33) #15
  br label %34

; <label>:34:                                     ; preds = %31, %26
  %35 = bitcast %"class.std::__1::basic_string"* %24 to i8*
  call void @_ZdlPv(i8* %35) #15
  br label %36

; <label>:36:                                     ; preds = %34, %22
  %37 = getelementptr inbounds %"struct.media::WebmMuxer::EncodedVideoFrame", %"struct.media::WebmMuxer::EncodedVideoFrame"* %20, i64 0, i32 0, i32 0, i32 0, i32 0
  %38 = load %"class.std::__1::basic_string"*, %"class.std::__1::basic_string"** %37, align 8
  store %"class.std::__1::basic_string"* null, %"class.std::__1::basic_string"** %37, align 8
  %39 = icmp eq %"class.std::__1::basic_string"* %38, null
  br i1 %39, label %50, label %40

; <label>:40:                                     ; preds = %36
  %41 = bitcast %"class.std::__1::basic_string"* %38 to %"struct.std::__1::basic_string<char, std::__1::char_traits<char>, std::__1::allocator<char> >::__short"*
  %42 = getelementptr inbounds %"struct.std::__1::basic_string<char, std::__1::char_traits<char>, std::__1::allocator<char> >::__short", %"struct.std::__1::basic_string<char, std::__1::char_traits<char>, std::__1::allocator<char> >::__short"* %41, i64 0, i32 1, i32 0
  %43 = load i8, i8* %42, align 1
  %44 = icmp slt i8 %43, 0
  br i1 %44, label %45, label %48

; <label>:45:                                     ; preds = %40
  %46 = getelementptr inbounds %"class.std::__1::basic_string", %"class.std::__1::basic_string"* %38, i64 0, i32 0, i32 0, i32 0, i32 0, i32 0, i32 0
  %47 = load i8*, i8** %46, align 8
  call void @_ZdlPv(i8* %47) #15
  br label %48

; <label>:48:                                     ; preds = %45, %40
  %49 = bitcast %"class.std::__1::basic_string"* %38 to i8*
  call void @_ZdlPv(i8* %49) #15
  br label %50

; <label>:50:                                     ; preds = %48, %36
  %51 = bitcast %"struct.media::WebmMuxer::EncodedVideoFrame"* %20 to i8*
  call void @_ZdlPv(i8* %51) #15
  br label %52

; <label>:52:                                     ; preds = %17, %50
  %53 = load %"class.std::__1::unique_ptr.79"*, %"class.std::__1::unique_ptr.79"** %4, align 8
  %54 = getelementptr inbounds %"class.std::__1::unique_ptr.79", %"class.std::__1::unique_ptr.79"* %53, i64 1
  store %"class.std::__1::unique_ptr.79"* %54, %"class.std::__1::unique_ptr.79"** %4, align 8
  %55 = load %"class.std::__1::unique_ptr.79"*, %"class.std::__1::unique_ptr.79"** %5, align 8
  %56 = icmp eq %"class.std::__1::unique_ptr.79"* %54, %55
  br i1 %56, label %57, label %17

; <label>:57:                                     ; preds = %52, %13
  ret void
}

declare void @_ZN7logging10LogMessageC1EPKciPNSt3__112basic_stringIcNS3_11char_traitsIcEENS3_9allocatorIcEEEE(%"class.logging::LogMessage"*, i8*, i32, %"class.std::__1::basic_string"*) unnamed_addr #2

; Function Attrs: nounwind ssp uwtable
define linkonce_odr hidden %"class.std::__1::basic_string"* @_ZN7logging17MakeCheckOpStringIPNSt3__110unique_ptrIN5media9WebmMuxer17EncodedVideoFrameENS1_14default_deleteIS5_EEEES9_EEPNS1_12basic_stringIcNS1_11char_traitsIcEENS1_9allocatorIcEEEERKT_RKT0_PKc(%"class.std::__1::unique_ptr.79"** dereferenceable(8), %"class.std::__1::unique_ptr.79"** dereferenceable(8), i8*) local_unnamed_addr #0 comdat {
  %4 = alloca %"class.std::__1::basic_ostringstream", align 8
  %5 = bitcast %"class.std::__1::basic_ostringstream"* %4 to i8*
  call void @llvm.lifetime.start.p0i8(i64 264, i8* nonnull %5) #14
  %6 = getelementptr inbounds %"class.std::__1::basic_ostringstream", %"class.std::__1::basic_ostringstream"* %4, i64 0, i32 2
  %7 = getelementptr inbounds %"class.std::__1::basic_ios.base", %"class.std::__1::basic_ios.base"* %6, i64 0, i32 0, i32 0
  %8 = getelementptr inbounds %"class.std::__1::basic_ostringstream", %"class.std::__1::basic_ostringstream"* %4, i64 0, i32 0, i32 0
  %9 = getelementptr inbounds %"class.std::__1::basic_ostringstream", %"class.std::__1::basic_ostringstream"* %4, i64 0, i32 1
  %10 = getelementptr inbounds %"class.std::__1::basic_stringbuf", %"class.std::__1::basic_stringbuf"* %9, i64 0, i32 0
  %11 = bitcast %"class.std::__1::basic_ostringstream"* %4 to i64*
  store i64 ptrtoint (i8** getelementptr inbounds ({ [5 x i8*], [5 x i8*] }, { [5 x i8*], [5 x i8*] }* @_ZTCNSt3__119basic_ostringstreamIcNS_11char_traitsIcEENS_9allocatorIcEEEE0_NS_13basic_ostreamIcS2_EE, i64 0, inrange i32 0, i64 3) to i64), i64* %11, align 8
  %12 = bitcast %"class.std::__1::basic_ios.base"* %6 to i64*
  store i64 ptrtoint (i8** getelementptr inbounds ({ [5 x i8*], [5 x i8*] }, { [5 x i8*], [5 x i8*] }* @_ZTCNSt3__119basic_ostringstreamIcNS_11char_traitsIcEENS_9allocatorIcEEEE0_NS_13basic_ostreamIcS2_EE, i64 0, inrange i32 1, i64 3) to i64), i64* %12, align 8
  %13 = getelementptr inbounds %"class.std::__1::basic_ostringstream", %"class.std::__1::basic_ostringstream"* %4, i64 0, i32 2, i32 0
  %14 = bitcast %"class.std::__1::basic_stringbuf"* %9 to i8*
  call void @_ZNSt3__18ios_base4initEPv(%"class.std::__1::ios_base"* nonnull %13, i8* nonnull %14) #14
  %15 = getelementptr inbounds %"class.std::__1::basic_ostringstream", %"class.std::__1::basic_ostringstream"* %4, i64 0, i32 2, i32 1
  store %"class.std::__1::basic_ostream"* null, %"class.std::__1::basic_ostream"** %15, align 8
  %16 = getelementptr inbounds %"class.std::__1::basic_ostringstream", %"class.std::__1::basic_ostringstream"* %4, i64 0, i32 2, i32 2
  store i32 -1, i32* %16, align 8
  store i32 (...)** bitcast (i8** getelementptr inbounds ({ [5 x i8*], [5 x i8*] }, { [5 x i8*], [5 x i8*] }* @_ZTVNSt3__119basic_ostringstreamIcNS_11char_traitsIcEENS_9allocatorIcEEEE, i64 0, inrange i32 0, i64 3) to i32 (...)**), i32 (...)*** %8, align 8
  store i32 (...)** bitcast (i8** getelementptr inbounds ({ [5 x i8*], [5 x i8*] }, { [5 x i8*], [5 x i8*] }* @_ZTVNSt3__119basic_ostringstreamIcNS_11char_traitsIcEENS_9allocatorIcEEEE, i64 0, inrange i32 1, i64 3) to i32 (...)**), i32 (...)*** %7, align 8
  call void @_ZNSt3__115basic_streambufIcNS_11char_traitsIcEEEC2Ev(%"class.std::__1::basic_streambuf"* nonnull %10) #14
  %17 = getelementptr inbounds %"class.std::__1::basic_stringbuf", %"class.std::__1::basic_stringbuf"* %9, i64 0, i32 0, i32 0
  store i32 (...)** bitcast (i8** getelementptr inbounds ({ [16 x i8*] }, { [16 x i8*] }* @_ZTVNSt3__115basic_stringbufIcNS_11char_traitsIcEENS_9allocatorIcEEEE, i64 0, inrange i32 0, i64 2) to i32 (...)**), i32 (...)*** %17, align 8
  %18 = getelementptr inbounds %"class.std::__1::basic_ostringstream", %"class.std::__1::basic_ostringstream"* %4, i64 0, i32 1, i32 1
  %19 = getelementptr inbounds %"class.std::__1::basic_ostringstream", %"class.std::__1::basic_ostringstream"* %4, i64 0, i32 1, i32 3
  %20 = bitcast %"class.std::__1::basic_string"* %18 to i8*
  call void @llvm.memset.p0i8.i64(i8* nonnull align 8 %20, i8 0, i64 32, i1 false) #14
  store i32 16, i32* %19, align 8
  %21 = bitcast %"class.std::__1::basic_ostringstream"* %4 to %"class.std::__1::basic_ostream"*
  %22 = call i64 @strlen(i8* %2) #14
  %23 = call dereferenceable(160) %"class.std::__1::basic_ostream"* @_ZNSt3__124__put_character_sequenceIcNS_11char_traitsIcEEEERNS_13basic_ostreamIT_T0_EES7_PKS4_m(%"class.std::__1::basic_ostream"* nonnull dereferenceable(160) %21, i8* %2, i64 %22) #14
  %24 = call dereferenceable(160) %"class.std::__1::basic_ostream"* @_ZNSt3__124__put_character_sequenceIcNS_11char_traitsIcEEEERNS_13basic_ostreamIT_T0_EES7_PKS4_m(%"class.std::__1::basic_ostream"* nonnull dereferenceable(160) %23, i8* getelementptr inbounds ([3 x i8], [3 x i8]* @.str.8, i64 0, i64 0), i64 2) #14
  %25 = bitcast %"class.std::__1::unique_ptr.79"** %0 to i8**
  %26 = load i8*, i8** %25, align 8
  %27 = call dereferenceable(160) %"class.std::__1::basic_ostream"* @_ZNSt3__113basic_ostreamIcNS_11char_traitsIcEEElsEPKv(%"class.std::__1::basic_ostream"* nonnull %21, i8* %26) #14
  %28 = call dereferenceable(160) %"class.std::__1::basic_ostream"* @_ZNSt3__124__put_character_sequenceIcNS_11char_traitsIcEEEERNS_13basic_ostreamIT_T0_EES7_PKS4_m(%"class.std::__1::basic_ostream"* nonnull dereferenceable(160) %21, i8* getelementptr inbounds ([6 x i8], [6 x i8]* @.str.9, i64 0, i64 0), i64 5) #14
  %29 = bitcast %"class.std::__1::unique_ptr.79"** %1 to i8**
  %30 = load i8*, i8** %29, align 8
  %31 = call dereferenceable(160) %"class.std::__1::basic_ostream"* @_ZNSt3__113basic_ostreamIcNS_11char_traitsIcEEElsEPKv(%"class.std::__1::basic_ostream"* nonnull %21, i8* %30) #14
  %32 = call dereferenceable(160) %"class.std::__1::basic_ostream"* @_ZNSt3__124__put_character_sequenceIcNS_11char_traitsIcEEEERNS_13basic_ostreamIT_T0_EES7_PKS4_m(%"class.std::__1::basic_ostream"* nonnull dereferenceable(160) %21, i8* getelementptr inbounds ([2 x i8], [2 x i8]* @.str.10, i64 0, i64 0), i64 1) #14
  %33 = call i8* @_Znwm(i64 24) #15
  %34 = bitcast i8* %33 to %"class.std::__1::basic_string"*
  call void @_ZNKSt3__115basic_stringbufIcNS_11char_traitsIcEENS_9allocatorIcEEE3strEv(%"class.std::__1::basic_string"* nonnull sret %34, %"class.std::__1::basic_stringbuf"* nonnull %9) #14
  store i64 ptrtoint (i8** getelementptr inbounds ({ [5 x i8*], [5 x i8*] }, { [5 x i8*], [5 x i8*] }* @_ZTVNSt3__119basic_ostringstreamIcNS_11char_traitsIcEENS_9allocatorIcEEEE, i64 0, inrange i32 0, i64 3) to i64), i64* %11, align 8
  store i64 ptrtoint (i8** getelementptr inbounds ({ [5 x i8*], [5 x i8*] }, { [5 x i8*], [5 x i8*] }* @_ZTVNSt3__119basic_ostringstreamIcNS_11char_traitsIcEENS_9allocatorIcEEEE, i64 0, inrange i32 1, i64 3) to i64), i64* %12, align 8
  store i32 (...)** bitcast (i8** getelementptr inbounds ({ [16 x i8*] }, { [16 x i8*] }* @_ZTVNSt3__115basic_stringbufIcNS_11char_traitsIcEENS_9allocatorIcEEEE, i64 0, inrange i32 0, i64 2) to i32 (...)**), i32 (...)*** %17, align 8
  %35 = bitcast %"class.std::__1::basic_string"* %18 to %"struct.std::__1::basic_string<char, std::__1::char_traits<char>, std::__1::allocator<char> >::__short"*
  %36 = getelementptr inbounds %"struct.std::__1::basic_string<char, std::__1::char_traits<char>, std::__1::allocator<char> >::__short", %"struct.std::__1::basic_string<char, std::__1::char_traits<char>, std::__1::allocator<char> >::__short"* %35, i64 0, i32 1, i32 0
  %37 = load i8, i8* %36, align 1
  %38 = icmp slt i8 %37, 0
  br i1 %38, label %39, label %42

; <label>:39:                                     ; preds = %3
  %40 = getelementptr inbounds %"class.std::__1::basic_string", %"class.std::__1::basic_string"* %18, i64 0, i32 0, i32 0, i32 0, i32 0, i32 0, i32 0
  %41 = load i8*, i8** %40, align 8
  call void @_ZdlPv(i8* %41) #15
  br label %42

; <label>:42:                                     ; preds = %3, %39
  call void @_ZNSt3__115basic_streambufIcNS_11char_traitsIcEEED2Ev(%"class.std::__1::basic_streambuf"* nonnull %10) #14
  call void @_ZNSt3__113basic_ostreamIcNS_11char_traitsIcEEED2Ev(%"class.std::__1::basic_ostream"* nonnull %21, i8** nonnull getelementptr inbounds ([4 x i8*], [4 x i8*]* @_ZTTNSt3__119basic_ostringstreamIcNS_11char_traitsIcEENS_9allocatorIcEEEE, i64 0, i64 1)) #14
  %43 = bitcast %"class.std::__1::basic_ios.base"* %6 to %"class.std::__1::basic_ios"*
  call void @_ZNSt3__19basic_iosIcNS_11char_traitsIcEEED2Ev(%"class.std::__1::basic_ios"* nonnull %43) #14
  call void @llvm.lifetime.end.p0i8(i64 264, i8* nonnull %5) #14
  ret %"class.std::__1::basic_string"* %34
}

; Function Attrs: inlinehint nounwind ssp uwtable
define linkonce_odr hidden void @_ZNSt3__119basic_ostringstreamIcNS_11char_traitsIcEENS_9allocatorIcEEED1Ev(%"class.std::__1::basic_ostringstream"*) unnamed_addr #12 comdat align 2 {
  %2 = bitcast %"class.std::__1::basic_ostringstream"* %0 to i64*
  store i64 ptrtoint (i8** getelementptr inbounds ({ [5 x i8*], [5 x i8*] }, { [5 x i8*], [5 x i8*] }* @_ZTVNSt3__119basic_ostringstreamIcNS_11char_traitsIcEENS_9allocatorIcEEEE, i64 0, inrange i32 0, i64 3) to i64), i64* %2, align 8
  %3 = getelementptr inbounds %"class.std::__1::basic_ostringstream", %"class.std::__1::basic_ostringstream"* %0, i64 0, i32 2
  %4 = bitcast %"class.std::__1::basic_ios.base"* %3 to i64*
  store i64 ptrtoint (i8** getelementptr inbounds ({ [5 x i8*], [5 x i8*] }, { [5 x i8*], [5 x i8*] }* @_ZTVNSt3__119basic_ostringstreamIcNS_11char_traitsIcEENS_9allocatorIcEEEE, i64 0, inrange i32 1, i64 3) to i64), i64* %4, align 8
  %5 = getelementptr inbounds %"class.std::__1::basic_ostringstream", %"class.std::__1::basic_ostringstream"* %0, i64 0, i32 1
  %6 = getelementptr inbounds %"class.std::__1::basic_stringbuf", %"class.std::__1::basic_stringbuf"* %5, i64 0, i32 0, i32 0
  store i32 (...)** bitcast (i8** getelementptr inbounds ({ [16 x i8*] }, { [16 x i8*] }* @_ZTVNSt3__115basic_stringbufIcNS_11char_traitsIcEENS_9allocatorIcEEEE, i64 0, inrange i32 0, i64 2) to i32 (...)**), i32 (...)*** %6, align 8
  %7 = getelementptr inbounds %"class.std::__1::basic_ostringstream", %"class.std::__1::basic_ostringstream"* %0, i64 0, i32 1, i32 1
  %8 = bitcast %"class.std::__1::basic_string"* %7 to %"struct.std::__1::basic_string<char, std::__1::char_traits<char>, std::__1::allocator<char> >::__short"*
  %9 = getelementptr inbounds %"struct.std::__1::basic_string<char, std::__1::char_traits<char>, std::__1::allocator<char> >::__short", %"struct.std::__1::basic_string<char, std::__1::char_traits<char>, std::__1::allocator<char> >::__short"* %8, i64 0, i32 1, i32 0
  %10 = load i8, i8* %9, align 1
  %11 = icmp slt i8 %10, 0
  br i1 %11, label %12, label %15

; <label>:12:                                     ; preds = %1
  %13 = getelementptr inbounds %"class.std::__1::basic_string", %"class.std::__1::basic_string"* %7, i64 0, i32 0, i32 0, i32 0, i32 0, i32 0, i32 0
  %14 = load i8*, i8** %13, align 8
  tail call void @_ZdlPv(i8* %14) #15
  br label %15

; <label>:15:                                     ; preds = %1, %12
  %16 = getelementptr inbounds %"class.std::__1::basic_stringbuf", %"class.std::__1::basic_stringbuf"* %5, i64 0, i32 0
  tail call void @_ZNSt3__115basic_streambufIcNS_11char_traitsIcEEED2Ev(%"class.std::__1::basic_streambuf"* nonnull %16) #14
  %17 = bitcast %"class.std::__1::basic_ostringstream"* %0 to %"class.std::__1::basic_ostream"*
  tail call void @_ZNSt3__113basic_ostreamIcNS_11char_traitsIcEEED2Ev(%"class.std::__1::basic_ostream"* %17, i8** nonnull getelementptr inbounds ([4 x i8*], [4 x i8*]* @_ZTTNSt3__119basic_ostringstreamIcNS_11char_traitsIcEENS_9allocatorIcEEEE, i64 0, i64 1)) #14
  %18 = bitcast %"class.std::__1::basic_ios.base"* %3 to %"class.std::__1::basic_ios"*
  tail call void @_ZNSt3__19basic_iosIcNS_11char_traitsIcEEED2Ev(%"class.std::__1::basic_ios"* nonnull %18) #14
  ret void
}

; Function Attrs: nounwind
declare void @_ZNSt3__113basic_ostreamIcNS_11char_traitsIcEEED1Ev(%"class.std::__1::basic_ostream"*) unnamed_addr #4

; Function Attrs: nounwind
declare void @_ZNSt3__113basic_ostreamIcNS_11char_traitsIcEEED0Ev(%"class.std::__1::basic_ostream"*) unnamed_addr #4

; Function Attrs: nounwind ssp uwtable
declare void @_ZTv0_n24_NSt3__113basic_ostreamIcNS_11char_traitsIcEEED1Ev(%"class.std::__1::basic_ostream"*) unnamed_addr #0 align 2

; Function Attrs: nounwind ssp uwtable
declare void @_ZTv0_n24_NSt3__113basic_ostreamIcNS_11char_traitsIcEEED0Ev(%"class.std::__1::basic_ostream"*) unnamed_addr #0 align 2

; Function Attrs: inlinehint nounwind ssp uwtable
define linkonce_odr hidden void @_ZNSt3__119basic_ostringstreamIcNS_11char_traitsIcEENS_9allocatorIcEEED0Ev(%"class.std::__1::basic_ostringstream"*) unnamed_addr #12 comdat align 2 {
  %2 = bitcast %"class.std::__1::basic_ostringstream"* %0 to i64*
  store i64 ptrtoint (i8** getelementptr inbounds ({ [5 x i8*], [5 x i8*] }, { [5 x i8*], [5 x i8*] }* @_ZTVNSt3__119basic_ostringstreamIcNS_11char_traitsIcEENS_9allocatorIcEEEE, i64 0, inrange i32 0, i64 3) to i64), i64* %2, align 8
  %3 = getelementptr inbounds %"class.std::__1::basic_ostringstream", %"class.std::__1::basic_ostringstream"* %0, i64 0, i32 2
  %4 = bitcast %"class.std::__1::basic_ios.base"* %3 to i64*
  store i64 ptrtoint (i8** getelementptr inbounds ({ [5 x i8*], [5 x i8*] }, { [5 x i8*], [5 x i8*] }* @_ZTVNSt3__119basic_ostringstreamIcNS_11char_traitsIcEENS_9allocatorIcEEEE, i64 0, inrange i32 1, i64 3) to i64), i64* %4, align 8
  %5 = getelementptr inbounds %"class.std::__1::basic_ostringstream", %"class.std::__1::basic_ostringstream"* %0, i64 0, i32 1
  %6 = getelementptr inbounds %"class.std::__1::basic_stringbuf", %"class.std::__1::basic_stringbuf"* %5, i64 0, i32 0, i32 0
  store i32 (...)** bitcast (i8** getelementptr inbounds ({ [16 x i8*] }, { [16 x i8*] }* @_ZTVNSt3__115basic_stringbufIcNS_11char_traitsIcEENS_9allocatorIcEEEE, i64 0, inrange i32 0, i64 2) to i32 (...)**), i32 (...)*** %6, align 8
  %7 = getelementptr inbounds %"class.std::__1::basic_ostringstream", %"class.std::__1::basic_ostringstream"* %0, i64 0, i32 1, i32 1
  %8 = bitcast %"class.std::__1::basic_string"* %7 to %"struct.std::__1::basic_string<char, std::__1::char_traits<char>, std::__1::allocator<char> >::__short"*
  %9 = getelementptr inbounds %"struct.std::__1::basic_string<char, std::__1::char_traits<char>, std::__1::allocator<char> >::__short", %"struct.std::__1::basic_string<char, std::__1::char_traits<char>, std::__1::allocator<char> >::__short"* %8, i64 0, i32 1, i32 0
  %10 = load i8, i8* %9, align 1
  %11 = icmp slt i8 %10, 0
  br i1 %11, label %12, label %15

; <label>:12:                                     ; preds = %1
  %13 = getelementptr inbounds %"class.std::__1::basic_string", %"class.std::__1::basic_string"* %7, i64 0, i32 0, i32 0, i32 0, i32 0, i32 0, i32 0
  %14 = load i8*, i8** %13, align 8
  tail call void @_ZdlPv(i8* %14) #15
  br label %15

; <label>:15:                                     ; preds = %1, %12
  %16 = getelementptr inbounds %"class.std::__1::basic_stringbuf", %"class.std::__1::basic_stringbuf"* %5, i64 0, i32 0
  tail call void @_ZNSt3__115basic_streambufIcNS_11char_traitsIcEEED2Ev(%"class.std::__1::basic_streambuf"* nonnull %16) #14
  %17 = bitcast %"class.std::__1::basic_ostringstream"* %0 to %"class.std::__1::basic_ostream"*
  tail call void @_ZNSt3__113basic_ostreamIcNS_11char_traitsIcEEED2Ev(%"class.std::__1::basic_ostream"* %17, i8** nonnull getelementptr inbounds ([4 x i8*], [4 x i8*]* @_ZTTNSt3__119basic_ostringstreamIcNS_11char_traitsIcEENS_9allocatorIcEEEE, i64 0, i64 1)) #14
  %18 = bitcast %"class.std::__1::basic_ios.base"* %3 to %"class.std::__1::basic_ios"*
  tail call void @_ZNSt3__19basic_iosIcNS_11char_traitsIcEEED2Ev(%"class.std::__1::basic_ios"* nonnull %18) #14
  %19 = bitcast %"class.std::__1::basic_ostringstream"* %0 to i8*
  tail call void @_ZdlPv(i8* %19) #15
  ret void
}

; Function Attrs: inlinehint nounwind ssp uwtable
define linkonce_odr hidden void @_ZTv0_n24_NSt3__119basic_ostringstreamIcNS_11char_traitsIcEENS_9allocatorIcEEED1Ev(%"class.std::__1::basic_ostringstream"*) unnamed_addr #12 comdat align 2 {
  %2 = bitcast %"class.std::__1::basic_ostringstream"* %0 to i8*
  %3 = bitcast %"class.std::__1::basic_ostringstream"* %0 to i8**
  %4 = load i8*, i8** %3, align 8
  %5 = getelementptr inbounds i8, i8* %4, i64 -24
  %6 = bitcast i8* %5 to i64*
  %7 = load i64, i64* %6, align 8
  %8 = getelementptr inbounds i8, i8* %2, i64 %7
  %9 = bitcast i8* %8 to i64*
  store i64 ptrtoint (i8** getelementptr inbounds ({ [5 x i8*], [5 x i8*] }, { [5 x i8*], [5 x i8*] }* @_ZTVNSt3__119basic_ostringstreamIcNS_11char_traitsIcEENS_9allocatorIcEEEE, i64 0, inrange i32 0, i64 3) to i64), i64* %9, align 8
  %10 = getelementptr inbounds i8, i8* %8, i64 112
  %11 = bitcast i8* %10 to i64*
  store i64 ptrtoint (i8** getelementptr inbounds ({ [5 x i8*], [5 x i8*] }, { [5 x i8*], [5 x i8*] }* @_ZTVNSt3__119basic_ostringstreamIcNS_11char_traitsIcEENS_9allocatorIcEEEE, i64 0, inrange i32 1, i64 3) to i64), i64* %11, align 8
  %12 = getelementptr inbounds i8, i8* %8, i64 8
  %13 = bitcast i8* %12 to i32 (...)***
  store i32 (...)** bitcast (i8** getelementptr inbounds ({ [16 x i8*] }, { [16 x i8*] }* @_ZTVNSt3__115basic_stringbufIcNS_11char_traitsIcEENS_9allocatorIcEEEE, i64 0, inrange i32 0, i64 2) to i32 (...)**), i32 (...)*** %13, align 8
  %14 = getelementptr inbounds i8, i8* %8, i64 72
  %15 = getelementptr inbounds i8, i8* %14, i64 23
  %16 = load i8, i8* %15, align 1
  %17 = icmp slt i8 %16, 0
  br i1 %17, label %18, label %21

; <label>:18:                                     ; preds = %1
  %19 = bitcast i8* %14 to i8**
  %20 = load i8*, i8** %19, align 8
  tail call void @_ZdlPv(i8* %20) #15
  br label %21

; <label>:21:                                     ; preds = %1, %18
  %22 = bitcast i8* %12 to %"class.std::__1::basic_streambuf"*
  tail call void @_ZNSt3__115basic_streambufIcNS_11char_traitsIcEEED2Ev(%"class.std::__1::basic_streambuf"* nonnull %22) #14
  %23 = bitcast i8* %8 to %"class.std::__1::basic_ostream"*
  tail call void @_ZNSt3__113basic_ostreamIcNS_11char_traitsIcEEED2Ev(%"class.std::__1::basic_ostream"* %23, i8** nonnull getelementptr inbounds ([4 x i8*], [4 x i8*]* @_ZTTNSt3__119basic_ostringstreamIcNS_11char_traitsIcEENS_9allocatorIcEEEE, i64 0, i64 1)) #14
  %24 = bitcast i8* %10 to %"class.std::__1::basic_ios"*
  tail call void @_ZNSt3__19basic_iosIcNS_11char_traitsIcEEED2Ev(%"class.std::__1::basic_ios"* nonnull %24) #14
  ret void
}

; Function Attrs: inlinehint nounwind ssp uwtable
define linkonce_odr hidden void @_ZTv0_n24_NSt3__119basic_ostringstreamIcNS_11char_traitsIcEENS_9allocatorIcEEED0Ev(%"class.std::__1::basic_ostringstream"*) unnamed_addr #12 comdat align 2 {
  %2 = bitcast %"class.std::__1::basic_ostringstream"* %0 to i8*
  %3 = bitcast %"class.std::__1::basic_ostringstream"* %0 to i8**
  %4 = load i8*, i8** %3, align 8
  %5 = getelementptr inbounds i8, i8* %4, i64 -24
  %6 = bitcast i8* %5 to i64*
  %7 = load i64, i64* %6, align 8
  %8 = getelementptr inbounds i8, i8* %2, i64 %7
  %9 = bitcast i8* %8 to i64*
  store i64 ptrtoint (i8** getelementptr inbounds ({ [5 x i8*], [5 x i8*] }, { [5 x i8*], [5 x i8*] }* @_ZTVNSt3__119basic_ostringstreamIcNS_11char_traitsIcEENS_9allocatorIcEEEE, i64 0, inrange i32 0, i64 3) to i64), i64* %9, align 8
  %10 = getelementptr inbounds i8, i8* %8, i64 112
  %11 = bitcast i8* %10 to i64*
  store i64 ptrtoint (i8** getelementptr inbounds ({ [5 x i8*], [5 x i8*] }, { [5 x i8*], [5 x i8*] }* @_ZTVNSt3__119basic_ostringstreamIcNS_11char_traitsIcEENS_9allocatorIcEEEE, i64 0, inrange i32 1, i64 3) to i64), i64* %11, align 8
  %12 = getelementptr inbounds i8, i8* %8, i64 8
  %13 = bitcast i8* %12 to i32 (...)***
  store i32 (...)** bitcast (i8** getelementptr inbounds ({ [16 x i8*] }, { [16 x i8*] }* @_ZTVNSt3__115basic_stringbufIcNS_11char_traitsIcEENS_9allocatorIcEEEE, i64 0, inrange i32 0, i64 2) to i32 (...)**), i32 (...)*** %13, align 8
  %14 = getelementptr inbounds i8, i8* %8, i64 72
  %15 = getelementptr inbounds i8, i8* %14, i64 23
  %16 = load i8, i8* %15, align 1
  %17 = icmp slt i8 %16, 0
  br i1 %17, label %18, label %21

; <label>:18:                                     ; preds = %1
  %19 = bitcast i8* %14 to i8**
  %20 = load i8*, i8** %19, align 8
  tail call void @_ZdlPv(i8* %20) #15
  br label %21

; <label>:21:                                     ; preds = %1, %18
  %22 = bitcast i8* %12 to %"class.std::__1::basic_streambuf"*
  tail call void @_ZNSt3__115basic_streambufIcNS_11char_traitsIcEEED2Ev(%"class.std::__1::basic_streambuf"* nonnull %22) #14
  %23 = bitcast i8* %8 to %"class.std::__1::basic_ostream"*
  tail call void @_ZNSt3__113basic_ostreamIcNS_11char_traitsIcEEED2Ev(%"class.std::__1::basic_ostream"* %23, i8** nonnull getelementptr inbounds ([4 x i8*], [4 x i8*]* @_ZTTNSt3__119basic_ostringstreamIcNS_11char_traitsIcEENS_9allocatorIcEEEE, i64 0, i64 1)) #14
  %24 = bitcast i8* %10 to %"class.std::__1::basic_ios"*
  tail call void @_ZNSt3__19basic_iosIcNS_11char_traitsIcEEED2Ev(%"class.std::__1::basic_ios"* nonnull %24) #14
  tail call void @_ZdlPv(i8* %8) #15
  ret void
}

declare void @_ZNSt3__18ios_base4initEPv(%"class.std::__1::ios_base"*, i8*) local_unnamed_addr #2

declare void @_ZNSt3__115basic_streambufIcNS_11char_traitsIcEEEC2Ev(%"class.std::__1::basic_streambuf"*) unnamed_addr #2

; Function Attrs: inlinehint nounwind ssp uwtable
define linkonce_odr hidden void @_ZNSt3__115basic_stringbufIcNS_11char_traitsIcEENS_9allocatorIcEEED2Ev(%"class.std::__1::basic_stringbuf"*) unnamed_addr #12 comdat align 2 {
  %2 = getelementptr inbounds %"class.std::__1::basic_stringbuf", %"class.std::__1::basic_stringbuf"* %0, i64 0, i32 0, i32 0
  store i32 (...)** bitcast (i8** getelementptr inbounds ({ [16 x i8*] }, { [16 x i8*] }* @_ZTVNSt3__115basic_stringbufIcNS_11char_traitsIcEENS_9allocatorIcEEEE, i64 0, inrange i32 0, i64 2) to i32 (...)**), i32 (...)*** %2, align 8
  %3 = getelementptr inbounds %"class.std::__1::basic_stringbuf", %"class.std::__1::basic_stringbuf"* %0, i64 0, i32 1
  %4 = bitcast %"class.std::__1::basic_string"* %3 to %"struct.std::__1::basic_string<char, std::__1::char_traits<char>, std::__1::allocator<char> >::__short"*
  %5 = getelementptr inbounds %"struct.std::__1::basic_string<char, std::__1::char_traits<char>, std::__1::allocator<char> >::__short", %"struct.std::__1::basic_string<char, std::__1::char_traits<char>, std::__1::allocator<char> >::__short"* %4, i64 0, i32 1, i32 0
  %6 = load i8, i8* %5, align 1
  %7 = icmp slt i8 %6, 0
  br i1 %7, label %8, label %11

; <label>:8:                                      ; preds = %1
  %9 = getelementptr inbounds %"class.std::__1::basic_string", %"class.std::__1::basic_string"* %3, i64 0, i32 0, i32 0, i32 0, i32 0, i32 0, i32 0
  %10 = load i8*, i8** %9, align 8
  tail call void @_ZdlPv(i8* %10) #15
  br label %11

; <label>:11:                                     ; preds = %1, %8
  %12 = getelementptr inbounds %"class.std::__1::basic_stringbuf", %"class.std::__1::basic_stringbuf"* %0, i64 0, i32 0
  tail call void @_ZNSt3__115basic_streambufIcNS_11char_traitsIcEEED2Ev(%"class.std::__1::basic_streambuf"* %12) #14
  ret void
}

; Function Attrs: inlinehint nounwind ssp uwtable
define linkonce_odr hidden void @_ZNSt3__115basic_stringbufIcNS_11char_traitsIcEENS_9allocatorIcEEED0Ev(%"class.std::__1::basic_stringbuf"*) unnamed_addr #12 comdat align 2 {
  %2 = getelementptr inbounds %"class.std::__1::basic_stringbuf", %"class.std::__1::basic_stringbuf"* %0, i64 0, i32 0, i32 0
  store i32 (...)** bitcast (i8** getelementptr inbounds ({ [16 x i8*] }, { [16 x i8*] }* @_ZTVNSt3__115basic_stringbufIcNS_11char_traitsIcEENS_9allocatorIcEEEE, i64 0, inrange i32 0, i64 2) to i32 (...)**), i32 (...)*** %2, align 8
  %3 = getelementptr inbounds %"class.std::__1::basic_stringbuf", %"class.std::__1::basic_stringbuf"* %0, i64 0, i32 1
  %4 = bitcast %"class.std::__1::basic_string"* %3 to %"struct.std::__1::basic_string<char, std::__1::char_traits<char>, std::__1::allocator<char> >::__short"*
  %5 = getelementptr inbounds %"struct.std::__1::basic_string<char, std::__1::char_traits<char>, std::__1::allocator<char> >::__short", %"struct.std::__1::basic_string<char, std::__1::char_traits<char>, std::__1::allocator<char> >::__short"* %4, i64 0, i32 1, i32 0
  %6 = load i8, i8* %5, align 1
  %7 = icmp slt i8 %6, 0
  br i1 %7, label %8, label %11

; <label>:8:                                      ; preds = %1
  %9 = getelementptr inbounds %"class.std::__1::basic_string", %"class.std::__1::basic_string"* %3, i64 0, i32 0, i32 0, i32 0, i32 0, i32 0, i32 0
  %10 = load i8*, i8** %9, align 8
  tail call void @_ZdlPv(i8* %10) #15
  br label %11

; <label>:11:                                     ; preds = %1, %8
  %12 = getelementptr inbounds %"class.std::__1::basic_stringbuf", %"class.std::__1::basic_stringbuf"* %0, i64 0, i32 0
  tail call void @_ZNSt3__115basic_streambufIcNS_11char_traitsIcEEED2Ev(%"class.std::__1::basic_streambuf"* %12) #14
  %13 = bitcast %"class.std::__1::basic_stringbuf"* %0 to i8*
  tail call void @_ZdlPv(i8* %13) #15
  ret void
}

declare void @_ZNSt3__115basic_streambufIcNS_11char_traitsIcEEE5imbueERKNS_6localeE(%"class.std::__1::basic_streambuf"*, %"class.std::__1::locale"* dereferenceable(8)) unnamed_addr #2

declare %"class.std::__1::basic_streambuf"* @_ZNSt3__115basic_streambufIcNS_11char_traitsIcEEE6setbufEPcl(%"class.std::__1::basic_streambuf"*, i8*, i64) unnamed_addr #2

; Function Attrs: norecurse nounwind ssp uwtable
define linkonce_odr hidden { i64, i64 } @_ZNSt3__115basic_stringbufIcNS_11char_traitsIcEENS_9allocatorIcEEE7seekoffExNS_8ios_base7seekdirEj(%"class.std::__1::basic_stringbuf"*, i64, i32, i32) unnamed_addr #7 comdat align 2 {
  %5 = getelementptr inbounds %"class.std::__1::basic_stringbuf", %"class.std::__1::basic_stringbuf"* %0, i64 0, i32 2
  %6 = load i8*, i8** %5, align 8
  %7 = getelementptr inbounds %"class.std::__1::basic_stringbuf", %"class.std::__1::basic_stringbuf"* %0, i64 0, i32 0, i32 6
  %8 = load i8*, i8** %7, align 8
  %9 = icmp ult i8* %6, %8
  br i1 %9, label %10, label %11

; <label>:10:                                     ; preds = %4
  store i8* %8, i8** %5, align 8
  br label %11

; <label>:11:                                     ; preds = %10, %4
  %12 = phi i8* [ %8, %10 ], [ %6, %4 ]
  %13 = and i32 %3, 24
  %14 = icmp eq i32 %13, 0
  br i1 %14, label %94, label %15

; <label>:15:                                     ; preds = %11
  %16 = icmp eq i32 %13, 24
  %17 = icmp eq i32 %2, 1
  %18 = and i1 %17, %16
  br i1 %18, label %94, label %19

; <label>:19:                                     ; preds = %15
  %20 = icmp eq i8* %12, null
  br i1 %20, label %37, label %21

; <label>:21:                                     ; preds = %19
  %22 = getelementptr inbounds %"class.std::__1::basic_stringbuf", %"class.std::__1::basic_stringbuf"* %0, i64 0, i32 1
  %23 = bitcast %"class.std::__1::basic_string"* %22 to %"struct.std::__1::basic_string<char, std::__1::char_traits<char>, std::__1::allocator<char> >::__short"*
  %24 = getelementptr inbounds %"struct.std::__1::basic_string<char, std::__1::char_traits<char>, std::__1::allocator<char> >::__short", %"struct.std::__1::basic_string<char, std::__1::char_traits<char>, std::__1::allocator<char> >::__short"* %23, i64 0, i32 1, i32 0
  %25 = load i8, i8* %24, align 1
  %26 = icmp slt i8 %25, 0
  br i1 %26, label %27, label %30

; <label>:27:                                     ; preds = %21
  %28 = getelementptr inbounds %"class.std::__1::basic_string", %"class.std::__1::basic_string"* %22, i64 0, i32 0, i32 0, i32 0, i32 0, i32 0, i32 0
  %29 = load i8*, i8** %28, align 8
  br label %32

; <label>:30:                                     ; preds = %21
  %31 = bitcast %"class.std::__1::basic_string"* %22 to i8*
  br label %32

; <label>:32:                                     ; preds = %27, %30
  %33 = phi i8* [ %29, %27 ], [ %31, %30 ]
  %34 = ptrtoint i8* %12 to i64
  %35 = ptrtoint i8* %33 to i64
  %36 = sub i64 %34, %35
  br label %37

; <label>:37:                                     ; preds = %19, %32
  %38 = phi i64 [ %36, %32 ], [ 0, %19 ]
  switch i32 %2, label %94 [
    i32 0, label %57
    i32 1, label %39
    i32 2, label %56
  ]

; <label>:39:                                     ; preds = %37
  %40 = and i32 %3, 8
  %41 = icmp eq i32 %40, 0
  br i1 %41, label %50, label %42

; <label>:42:                                     ; preds = %39
  %43 = getelementptr inbounds %"class.std::__1::basic_stringbuf", %"class.std::__1::basic_stringbuf"* %0, i64 0, i32 0, i32 3
  %44 = bitcast i8** %43 to i64*
  %45 = load i64, i64* %44, align 8
  %46 = getelementptr inbounds %"class.std::__1::basic_stringbuf", %"class.std::__1::basic_stringbuf"* %0, i64 0, i32 0, i32 2
  %47 = bitcast i8** %46 to i64*
  %48 = load i64, i64* %47, align 8
  %49 = sub i64 %45, %48
  br label %57

; <label>:50:                                     ; preds = %39
  %51 = getelementptr inbounds %"class.std::__1::basic_stringbuf", %"class.std::__1::basic_stringbuf"* %0, i64 0, i32 0, i32 5
  %52 = bitcast i8** %51 to i64*
  %53 = load i64, i64* %52, align 8
  %54 = ptrtoint i8* %8 to i64
  %55 = sub i64 %54, %53
  br label %57

; <label>:56:                                     ; preds = %37
  br label %57

; <label>:57:                                     ; preds = %37, %42, %50, %56
  %58 = phi i64 [ %38, %56 ], [ %49, %42 ], [ %55, %50 ], [ 0, %37 ]
  %59 = add nsw i64 %58, %1
  %60 = icmp slt i64 %59, 0
  %61 = icmp slt i64 %38, %59
  %62 = or i1 %60, %61
  br i1 %62, label %94, label %63

; <label>:63:                                     ; preds = %57
  %64 = icmp eq i64 %59, 0
  %65 = and i32 %3, 8
  br i1 %64, label %77, label %66

; <label>:66:                                     ; preds = %63
  %67 = icmp eq i32 %65, 0
  br i1 %67, label %72, label %68

; <label>:68:                                     ; preds = %66
  %69 = getelementptr inbounds %"class.std::__1::basic_stringbuf", %"class.std::__1::basic_stringbuf"* %0, i64 0, i32 0, i32 3
  %70 = load i8*, i8** %69, align 8
  %71 = icmp eq i8* %70, null
  br i1 %71, label %94, label %72

; <label>:72:                                     ; preds = %66, %68
  %73 = and i32 %3, 16
  %74 = icmp ne i32 %73, 0
  %75 = icmp eq i8* %8, null
  %76 = and i1 %74, %75
  br i1 %76, label %94, label %77

; <label>:77:                                     ; preds = %63, %72
  %78 = icmp eq i32 %65, 0
  br i1 %78, label %85, label %79

; <label>:79:                                     ; preds = %77
  %80 = getelementptr inbounds %"class.std::__1::basic_stringbuf", %"class.std::__1::basic_stringbuf"* %0, i64 0, i32 0, i32 2
  %81 = load i8*, i8** %80, align 8
  %82 = getelementptr inbounds i8, i8* %81, i64 %59
  %83 = getelementptr inbounds %"class.std::__1::basic_stringbuf", %"class.std::__1::basic_stringbuf"* %0, i64 0, i32 0, i32 3
  store i8* %82, i8** %83, align 8
  %84 = getelementptr inbounds %"class.std::__1::basic_stringbuf", %"class.std::__1::basic_stringbuf"* %0, i64 0, i32 0, i32 4
  store i8* %12, i8** %84, align 8
  br label %85

; <label>:85:                                     ; preds = %77, %79
  %86 = and i32 %3, 16
  %87 = icmp eq i32 %86, 0
  br i1 %87, label %94, label %88

; <label>:88:                                     ; preds = %85
  %89 = getelementptr inbounds %"class.std::__1::basic_stringbuf", %"class.std::__1::basic_stringbuf"* %0, i64 0, i32 0, i32 5
  %90 = load i8*, i8** %89, align 8
  %91 = shl i64 %59, 32
  %92 = ashr exact i64 %91, 32
  %93 = getelementptr inbounds i8, i8* %90, i64 %92
  store i8* %93, i8** %7, align 8
  br label %94

; <label>:94:                                     ; preds = %72, %88, %85, %68, %57, %37, %15, %11
  %95 = phi i64 [ -1, %11 ], [ -1, %15 ], [ -1, %37 ], [ -1, %57 ], [ -1, %68 ], [ %59, %85 ], [ %59, %88 ], [ -1, %72 ]
  %96 = insertvalue { i64, i64 } { i64 0, i64 undef }, i64 %95, 1
  ret { i64, i64 } %96
}

; Function Attrs: alwaysinline nounwind ssp uwtable
define linkonce_odr hidden { i64, i64 } @_ZNSt3__115basic_stringbufIcNS_11char_traitsIcEENS_9allocatorIcEEE7seekposENS_4fposI11__mbstate_tEEj(%"class.std::__1::basic_stringbuf"*, i64, i64, i32) unnamed_addr #13 comdat align 2 {
  %5 = bitcast %"class.std::__1::basic_stringbuf"* %0 to { i64, i64 } (%"class.std::__1::basic_stringbuf"*, i64, i32, i32)***
  %6 = load { i64, i64 } (%"class.std::__1::basic_stringbuf"*, i64, i32, i32)**, { i64, i64 } (%"class.std::__1::basic_stringbuf"*, i64, i32, i32)*** %5, align 8
  %7 = getelementptr inbounds { i64, i64 } (%"class.std::__1::basic_stringbuf"*, i64, i32, i32)*, { i64, i64 } (%"class.std::__1::basic_stringbuf"*, i64, i32, i32)** %6, i64 4
  %8 = load { i64, i64 } (%"class.std::__1::basic_stringbuf"*, i64, i32, i32)*, { i64, i64 } (%"class.std::__1::basic_stringbuf"*, i64, i32, i32)** %7, align 8
  %9 = tail call { i64, i64 } %8(%"class.std::__1::basic_stringbuf"* %0, i64 %2, i32 0, i32 %3) #14
  ret { i64, i64 } %9
}

declare i32 @_ZNSt3__115basic_streambufIcNS_11char_traitsIcEEE4syncEv(%"class.std::__1::basic_streambuf"*) unnamed_addr #2

declare i64 @_ZNSt3__115basic_streambufIcNS_11char_traitsIcEEE9showmanycEv(%"class.std::__1::basic_streambuf"*) unnamed_addr #2

declare i64 @_ZNSt3__115basic_streambufIcNS_11char_traitsIcEEE6xsgetnEPcl(%"class.std::__1::basic_streambuf"*, i8*, i64) unnamed_addr #2

; Function Attrs: norecurse nounwind ssp uwtable
define linkonce_odr hidden i32 @_ZNSt3__115basic_stringbufIcNS_11char_traitsIcEENS_9allocatorIcEEE9underflowEv(%"class.std::__1::basic_stringbuf"*) unnamed_addr #7 comdat align 2 {
  %2 = getelementptr inbounds %"class.std::__1::basic_stringbuf", %"class.std::__1::basic_stringbuf"* %0, i64 0, i32 2
  %3 = load i8*, i8** %2, align 8
  %4 = getelementptr inbounds %"class.std::__1::basic_stringbuf", %"class.std::__1::basic_stringbuf"* %0, i64 0, i32 0, i32 6
  %5 = load i8*, i8** %4, align 8
  %6 = icmp ult i8* %3, %5
  br i1 %6, label %7, label %8

; <label>:7:                                      ; preds = %1
  store i8* %5, i8** %2, align 8
  br label %8

; <label>:8:                                      ; preds = %7, %1
  %9 = phi i8* [ %5, %7 ], [ %3, %1 ]
  %10 = getelementptr inbounds %"class.std::__1::basic_stringbuf", %"class.std::__1::basic_stringbuf"* %0, i64 0, i32 3
  %11 = load i32, i32* %10, align 8
  %12 = and i32 %11, 8
  %13 = icmp eq i32 %12, 0
  br i1 %13, label %27, label %14

; <label>:14:                                     ; preds = %8
  %15 = getelementptr inbounds %"class.std::__1::basic_stringbuf", %"class.std::__1::basic_stringbuf"* %0, i64 0, i32 0, i32 4
  %16 = load i8*, i8** %15, align 8
  %17 = icmp ult i8* %16, %9
  br i1 %17, label %18, label %19

; <label>:18:                                     ; preds = %14
  store i8* %9, i8** %15, align 8
  br label %19

; <label>:19:                                     ; preds = %18, %14
  %20 = phi i8* [ %9, %18 ], [ %16, %14 ]
  %21 = getelementptr inbounds %"class.std::__1::basic_stringbuf", %"class.std::__1::basic_stringbuf"* %0, i64 0, i32 0, i32 3
  %22 = load i8*, i8** %21, align 8
  %23 = icmp ult i8* %22, %20
  br i1 %23, label %24, label %27

; <label>:24:                                     ; preds = %19
  %25 = load i8, i8* %22, align 1
  %26 = zext i8 %25 to i32
  br label %27

; <label>:27:                                     ; preds = %19, %8, %24
  %28 = phi i32 [ %26, %24 ], [ -1, %8 ], [ -1, %19 ]
  ret i32 %28
}

declare i32 @_ZNSt3__115basic_streambufIcNS_11char_traitsIcEEE5uflowEv(%"class.std::__1::basic_streambuf"*) unnamed_addr #2

; Function Attrs: norecurse nounwind ssp uwtable
define linkonce_odr hidden i32 @_ZNSt3__115basic_stringbufIcNS_11char_traitsIcEENS_9allocatorIcEEE9pbackfailEi(%"class.std::__1::basic_stringbuf"*, i32) unnamed_addr #7 comdat align 2 {
  %3 = getelementptr inbounds %"class.std::__1::basic_stringbuf", %"class.std::__1::basic_stringbuf"* %0, i64 0, i32 2
  %4 = load i8*, i8** %3, align 8
  %5 = getelementptr inbounds %"class.std::__1::basic_stringbuf", %"class.std::__1::basic_stringbuf"* %0, i64 0, i32 0, i32 6
  %6 = load i8*, i8** %5, align 8
  %7 = icmp ult i8* %4, %6
  br i1 %7, label %8, label %9

; <label>:8:                                      ; preds = %2
  store i8* %6, i8** %3, align 8
  br label %9

; <label>:9:                                      ; preds = %8, %2
  %10 = phi i8* [ %6, %8 ], [ %4, %2 ]
  %11 = ptrtoint i8* %10 to i64
  %12 = getelementptr inbounds %"class.std::__1::basic_stringbuf", %"class.std::__1::basic_stringbuf"* %0, i64 0, i32 0, i32 2
  %13 = load i8*, i8** %12, align 8
  %14 = getelementptr inbounds %"class.std::__1::basic_stringbuf", %"class.std::__1::basic_stringbuf"* %0, i64 0, i32 0, i32 3
  %15 = load i8*, i8** %14, align 8
  %16 = icmp ult i8* %13, %15
  br i1 %16, label %17, label %41

; <label>:17:                                     ; preds = %9
  %18 = icmp eq i32 %1, -1
  br i1 %18, label %19, label %23

; <label>:19:                                     ; preds = %17
  %20 = getelementptr inbounds i8, i8* %15, i64 -1
  store i8* %20, i8** %14, align 8
  %21 = getelementptr inbounds %"class.std::__1::basic_stringbuf", %"class.std::__1::basic_stringbuf"* %0, i64 0, i32 0, i32 4
  %22 = bitcast i8** %21 to i64*
  store i64 %11, i64* %22, align 8
  br label %41

; <label>:23:                                     ; preds = %17
  %24 = getelementptr inbounds %"class.std::__1::basic_stringbuf", %"class.std::__1::basic_stringbuf"* %0, i64 0, i32 3
  %25 = load i32, i32* %24, align 8
  %26 = and i32 %25, 16
  %27 = icmp eq i32 %26, 0
  br i1 %27, label %31, label %28

; <label>:28:                                     ; preds = %23
  %29 = getelementptr inbounds i8, i8* %15, i64 -1
  %30 = trunc i32 %1 to i8
  br label %36

; <label>:31:                                     ; preds = %23
  %32 = trunc i32 %1 to i8
  %33 = getelementptr inbounds i8, i8* %15, i64 -1
  %34 = load i8, i8* %33, align 1
  %35 = icmp eq i8 %34, %32
  br i1 %35, label %36, label %41

; <label>:36:                                     ; preds = %28, %31
  %37 = phi i8 [ %30, %28 ], [ %32, %31 ]
  %38 = phi i8* [ %29, %28 ], [ %33, %31 ]
  store i8* %38, i8** %14, align 8
  %39 = getelementptr inbounds %"class.std::__1::basic_stringbuf", %"class.std::__1::basic_stringbuf"* %0, i64 0, i32 0, i32 4
  %40 = bitcast i8** %39 to i64*
  store i64 %11, i64* %40, align 8
  store i8 %37, i8* %38, align 1
  br label %41

; <label>:41:                                     ; preds = %9, %31, %36, %19
  %42 = phi i32 [ 0, %19 ], [ %1, %36 ], [ -1, %31 ], [ -1, %9 ]
  ret i32 %42
}

declare i64 @_ZNSt3__115basic_streambufIcNS_11char_traitsIcEEE6xsputnEPKcl(%"class.std::__1::basic_streambuf"*, i8*, i64) unnamed_addr #2

; Function Attrs: nounwind ssp uwtable
define linkonce_odr hidden i32 @_ZNSt3__115basic_stringbufIcNS_11char_traitsIcEENS_9allocatorIcEEE8overflowEi(%"class.std::__1::basic_stringbuf"*, i32) unnamed_addr #0 comdat align 2 {
  %3 = alloca i8*, align 8
  %4 = icmp eq i32 %1, -1
  br i1 %4, label %111, label %5

; <label>:5:                                      ; preds = %2
  %6 = getelementptr inbounds %"class.std::__1::basic_stringbuf", %"class.std::__1::basic_stringbuf"* %0, i64 0, i32 0
  %7 = getelementptr inbounds %"class.std::__1::basic_stringbuf", %"class.std::__1::basic_stringbuf"* %0, i64 0, i32 0, i32 3
  %8 = bitcast i8** %7 to i64*
  %9 = load i64, i64* %8, align 8
  %10 = getelementptr inbounds %"class.std::__1::basic_stringbuf", %"class.std::__1::basic_stringbuf"* %0, i64 0, i32 0, i32 2
  %11 = bitcast i8** %10 to i64*
  %12 = load i64, i64* %11, align 8
  %13 = sub i64 %9, %12
  %14 = getelementptr inbounds %"class.std::__1::basic_stringbuf", %"class.std::__1::basic_stringbuf"* %0, i64 0, i32 0, i32 6
  %15 = load i8*, i8** %14, align 8
  %16 = getelementptr inbounds %"class.std::__1::basic_stringbuf", %"class.std::__1::basic_stringbuf"* %0, i64 0, i32 0, i32 7
  %17 = load i8*, i8** %16, align 8
  %18 = icmp eq i8* %15, %17
  br i1 %18, label %24, label %19

; <label>:19:                                     ; preds = %5
  %20 = getelementptr inbounds %"class.std::__1::basic_stringbuf", %"class.std::__1::basic_stringbuf"* %0, i64 0, i32 2
  %21 = load i8*, i8** %20, align 8
  %22 = bitcast i8** %20 to i64*
  %23 = getelementptr inbounds %"class.std::__1::basic_stringbuf", %"class.std::__1::basic_stringbuf"* %0, i64 0, i32 3
  br label %67

; <label>:24:                                     ; preds = %5
  %25 = getelementptr inbounds %"class.std::__1::basic_stringbuf", %"class.std::__1::basic_stringbuf"* %0, i64 0, i32 3
  %26 = load i32, i32* %25, align 8
  %27 = and i32 %26, 16
  %28 = icmp eq i32 %27, 0
  br i1 %28, label %111, label %29

; <label>:29:                                     ; preds = %24
  %30 = getelementptr inbounds %"class.std::__1::basic_stringbuf", %"class.std::__1::basic_stringbuf"* %0, i64 0, i32 0, i32 5
  %31 = bitcast i8** %30 to i64*
  %32 = load i64, i64* %31, align 8
  %33 = ptrtoint i8* %15 to i64
  %34 = sub i64 %33, %32
  %35 = getelementptr inbounds %"class.std::__1::basic_stringbuf", %"class.std::__1::basic_stringbuf"* %0, i64 0, i32 2
  %36 = bitcast i8** %35 to i64*
  %37 = load i64, i64* %36, align 8
  %38 = sub i64 %37, %32
  %39 = getelementptr inbounds %"class.std::__1::basic_stringbuf", %"class.std::__1::basic_stringbuf"* %0, i64 0, i32 1
  tail call void @_ZNSt3__112basic_stringIcNS_11char_traitsIcEENS_9allocatorIcEEE9push_backEc(%"class.std::__1::basic_string"* nonnull %39, i8 signext 0) #14
  %40 = bitcast %"class.std::__1::basic_string"* %39 to %"struct.std::__1::basic_string<char, std::__1::char_traits<char>, std::__1::allocator<char> >::__short"*
  %41 = getelementptr inbounds %"struct.std::__1::basic_string<char, std::__1::char_traits<char>, std::__1::allocator<char> >::__short", %"struct.std::__1::basic_string<char, std::__1::char_traits<char>, std::__1::allocator<char> >::__short"* %40, i64 0, i32 1, i32 0
  %42 = load i8, i8* %41, align 1
  %43 = icmp slt i8 %42, 0
  br i1 %43, label %44, label %49

; <label>:44:                                     ; preds = %29
  %45 = getelementptr inbounds %"class.std::__1::basic_stringbuf", %"class.std::__1::basic_stringbuf"* %0, i64 0, i32 1, i32 0, i32 0, i32 0, i32 0, i32 0, i32 2
  %46 = load i64, i64* %45, align 8
  %47 = and i64 %46, 9223372036854775807
  %48 = add nsw i64 %47, -1
  br label %49

; <label>:49:                                     ; preds = %29, %44
  %50 = phi i64 [ %48, %44 ], [ 22, %29 ]
  tail call void @_ZNSt3__112basic_stringIcNS_11char_traitsIcEENS_9allocatorIcEEE6resizeEmc(%"class.std::__1::basic_string"* nonnull %39, i64 %50, i8 signext 0) #14
  %51 = load i8, i8* %41, align 1
  %52 = icmp slt i8 %51, 0
  br i1 %52, label %53, label %58

; <label>:53:                                     ; preds = %49
  %54 = getelementptr inbounds %"class.std::__1::basic_string", %"class.std::__1::basic_string"* %39, i64 0, i32 0, i32 0, i32 0, i32 0, i32 0, i32 0
  %55 = load i8*, i8** %54, align 8
  %56 = getelementptr inbounds %"class.std::__1::basic_stringbuf", %"class.std::__1::basic_stringbuf"* %0, i64 0, i32 1, i32 0, i32 0, i32 0, i32 0, i32 0, i32 1
  %57 = load i64, i64* %56, align 8
  br label %61

; <label>:58:                                     ; preds = %49
  %59 = bitcast %"class.std::__1::basic_string"* %39 to i8*
  %60 = zext i8 %51 to i64
  br label %61

; <label>:61:                                     ; preds = %53, %58
  %62 = phi i8* [ %55, %53 ], [ %59, %58 ]
  %63 = phi i64 [ %57, %53 ], [ %60, %58 ]
  %64 = getelementptr inbounds i8, i8* %62, i64 %63
  store i8* %62, i8** %30, align 8
  store i8* %64, i8** %16, align 8
  %65 = getelementptr inbounds i8, i8* %62, i64 %34
  store i8* %65, i8** %14, align 8
  %66 = getelementptr inbounds i8, i8* %62, i64 %38
  store i8* %66, i8** %35, align 8
  br label %67

; <label>:67:                                     ; preds = %19, %61
  %68 = phi i32* [ %23, %19 ], [ %25, %61 ]
  %69 = phi i64* [ %22, %19 ], [ %36, %61 ]
  %70 = phi i8** [ %20, %19 ], [ %35, %61 ]
  %71 = phi i8* [ %17, %19 ], [ %64, %61 ]
  %72 = phi i8* [ %21, %19 ], [ %66, %61 ]
  %73 = phi i8* [ %15, %19 ], [ %65, %61 ]
  %74 = bitcast i8** %3 to i8*
  call void @llvm.lifetime.start.p0i8(i64 8, i8* nonnull %74)
  %75 = getelementptr inbounds i8, i8* %73, i64 1
  store i8* %75, i8** %3, align 8
  %76 = icmp ult i8* %75, %72
  %77 = select i1 %76, i8** %70, i8** %3
  %78 = bitcast i8** %77 to i64*
  %79 = load i64, i64* %78, align 8
  store i64 %79, i64* %69, align 8
  call void @llvm.lifetime.end.p0i8(i64 8, i8* nonnull %74)
  %80 = load i32, i32* %68, align 8
  %81 = and i32 %80, 8
  %82 = icmp eq i32 %81, 0
  br i1 %82, label %99, label %83

; <label>:83:                                     ; preds = %67
  %84 = getelementptr inbounds %"class.std::__1::basic_stringbuf", %"class.std::__1::basic_stringbuf"* %0, i64 0, i32 1
  %85 = bitcast %"class.std::__1::basic_string"* %84 to %"struct.std::__1::basic_string<char, std::__1::char_traits<char>, std::__1::allocator<char> >::__short"*
  %86 = getelementptr inbounds %"struct.std::__1::basic_string<char, std::__1::char_traits<char>, std::__1::allocator<char> >::__short", %"struct.std::__1::basic_string<char, std::__1::char_traits<char>, std::__1::allocator<char> >::__short"* %85, i64 0, i32 1, i32 0
  %87 = load i8, i8* %86, align 1
  %88 = icmp slt i8 %87, 0
  br i1 %88, label %89, label %92

; <label>:89:                                     ; preds = %83
  %90 = getelementptr inbounds %"class.std::__1::basic_string", %"class.std::__1::basic_string"* %84, i64 0, i32 0, i32 0, i32 0, i32 0, i32 0, i32 0
  %91 = load i8*, i8** %90, align 8
  br label %94

; <label>:92:                                     ; preds = %83
  %93 = bitcast %"class.std::__1::basic_string"* %84 to i8*
  br label %94

; <label>:94:                                     ; preds = %89, %92
  %95 = phi i8* [ %91, %89 ], [ %93, %92 ]
  %96 = getelementptr inbounds i8, i8* %95, i64 %13
  store i8* %95, i8** %10, align 8
  store i8* %96, i8** %7, align 8
  %97 = getelementptr inbounds %"class.std::__1::basic_stringbuf", %"class.std::__1::basic_stringbuf"* %0, i64 0, i32 0, i32 4
  %98 = bitcast i8** %97 to i64*
  store i64 %79, i64* %98, align 8
  br label %99

; <label>:99:                                     ; preds = %67, %94
  %100 = icmp eq i8* %73, %71
  br i1 %100, label %101, label %108

; <label>:101:                                    ; preds = %99
  %102 = and i32 %1, 255
  %103 = bitcast %"class.std::__1::basic_stringbuf"* %0 to i32 (%"class.std::__1::basic_streambuf"*, i32)***
  %104 = load i32 (%"class.std::__1::basic_streambuf"*, i32)**, i32 (%"class.std::__1::basic_streambuf"*, i32)*** %103, align 8
  %105 = getelementptr inbounds i32 (%"class.std::__1::basic_streambuf"*, i32)*, i32 (%"class.std::__1::basic_streambuf"*, i32)** %104, i64 13
  %106 = load i32 (%"class.std::__1::basic_streambuf"*, i32)*, i32 (%"class.std::__1::basic_streambuf"*, i32)** %105, align 8
  %107 = tail call i32 %106(%"class.std::__1::basic_streambuf"* nonnull %6, i32 %102) #14
  br label %111

; <label>:108:                                    ; preds = %99
  %109 = trunc i32 %1 to i8
  store i8* %75, i8** %14, align 8
  store i8 %109, i8* %73, align 1
  %110 = and i32 %1, 255
  br label %111

; <label>:111:                                    ; preds = %2, %108, %101, %24
  %112 = phi i32 [ -1, %24 ], [ %107, %101 ], [ %110, %108 ], [ 0, %2 ]
  ret i32 %112
}

; Function Attrs: nounwind
declare void @_ZNSt3__115basic_streambufIcNS_11char_traitsIcEEED2Ev(%"class.std::__1::basic_streambuf"*) unnamed_addr #4

declare void @_ZNSt3__112basic_stringIcNS_11char_traitsIcEENS_9allocatorIcEEE9push_backEc(%"class.std::__1::basic_string"*, i8 signext) local_unnamed_addr #2

declare void @_ZNSt3__112basic_stringIcNS_11char_traitsIcEENS_9allocatorIcEEE6resizeEmc(%"class.std::__1::basic_string"*, i64, i8 signext) local_unnamed_addr #2

declare dereferenceable(160) %"class.std::__1::basic_ostream"* @_ZNSt3__113basic_ostreamIcNS_11char_traitsIcEEElsEPKv(%"class.std::__1::basic_ostream"*, i8*) local_unnamed_addr #2

; Function Attrs: nounwind ssp uwtable
define linkonce_odr hidden void @_ZNKSt3__115basic_stringbufIcNS_11char_traitsIcEENS_9allocatorIcEEE3strEv(%"class.std::__1::basic_string"* noalias sret, %"class.std::__1::basic_stringbuf"*) local_unnamed_addr #0 comdat align 2 {
  %3 = getelementptr inbounds %"class.std::__1::basic_stringbuf", %"class.std::__1::basic_stringbuf"* %1, i64 0, i32 3
  %4 = load i32, i32* %3, align 8
  %5 = and i32 %4, 16
  %6 = icmp eq i32 %5, 0
  br i1 %6, label %150, label %7

; <label>:7:                                      ; preds = %2
  %8 = getelementptr inbounds %"class.std::__1::basic_stringbuf", %"class.std::__1::basic_stringbuf"* %1, i64 0, i32 2
  %9 = load i8*, i8** %8, align 8
  %10 = getelementptr inbounds %"class.std::__1::basic_stringbuf", %"class.std::__1::basic_stringbuf"* %1, i64 0, i32 0, i32 6
  %11 = load i8*, i8** %10, align 8
  %12 = icmp ult i8* %9, %11
  br i1 %12, label %13, label %14

; <label>:13:                                     ; preds = %7
  store i8* %11, i8** %8, align 8
  br label %14

; <label>:14:                                     ; preds = %13, %7
  %15 = phi i8* [ %11, %13 ], [ %9, %7 ]
  %16 = getelementptr inbounds %"class.std::__1::basic_stringbuf", %"class.std::__1::basic_stringbuf"* %1, i64 0, i32 0, i32 5
  %17 = load i8*, i8** %16, align 8
  %18 = ptrtoint i8* %17 to i64
  %19 = bitcast %"class.std::__1::basic_string"* %0 to i8*
  tail call void @llvm.memset.p0i8.i64(i8* align 8 %19, i8 0, i64 24, i1 false) #14
  %20 = ptrtoint i8* %15 to i64
  %21 = sub i64 %20, %18
  %22 = icmp ugt i64 %21, -17
  br i1 %22, label %23, label %25

; <label>:23:                                     ; preds = %14
  %24 = bitcast %"class.std::__1::basic_string"* %0 to %"class.std::__1::__basic_string_common"*
  tail call void @_ZNKSt3__121__basic_string_commonILb1EE20__throw_length_errorEv(%"class.std::__1::__basic_string_common"* %24) #11
  unreachable

; <label>:25:                                     ; preds = %14
  %26 = icmp ult i64 %21, 23
  br i1 %26, label %27, label %31

; <label>:27:                                     ; preds = %25
  %28 = trunc i64 %21 to i8
  %29 = bitcast %"class.std::__1::basic_string"* %0 to %"struct.std::__1::basic_string<char, std::__1::char_traits<char>, std::__1::allocator<char> >::__short"*
  %30 = getelementptr inbounds %"struct.std::__1::basic_string<char, std::__1::char_traits<char>, std::__1::allocator<char> >::__short", %"struct.std::__1::basic_string<char, std::__1::char_traits<char>, std::__1::allocator<char> >::__short"* %29, i64 0, i32 1, i32 0
  store i8 %28, i8* %30, align 1
  br label %39

; <label>:31:                                     ; preds = %25
  %32 = add i64 %21, 16
  %33 = and i64 %32, -16
  %34 = tail call i8* @_Znwm(i64 %33) #15
  %35 = getelementptr inbounds %"class.std::__1::basic_string", %"class.std::__1::basic_string"* %0, i64 0, i32 0, i32 0, i32 0, i32 0, i32 0, i32 0
  store i8* %34, i8** %35, align 8
  %36 = or i64 %33, -9223372036854775808
  %37 = getelementptr inbounds %"class.std::__1::basic_string", %"class.std::__1::basic_string"* %0, i64 0, i32 0, i32 0, i32 0, i32 0, i32 0, i32 2
  store i64 %36, i64* %37, align 8
  %38 = getelementptr inbounds %"class.std::__1::basic_string", %"class.std::__1::basic_string"* %0, i64 0, i32 0, i32 0, i32 0, i32 0, i32 0, i32 1
  store i64 %21, i64* %38, align 8
  br label %39

; <label>:39:                                     ; preds = %31, %27
  %40 = phi i8* [ %19, %27 ], [ %34, %31 ]
  %41 = icmp eq i8* %17, %15
  br i1 %41, label %148, label %42

; <label>:42:                                     ; preds = %39
  %43 = sub i64 0, %18
  %44 = getelementptr i8, i8* %15, i64 %43
  %45 = ptrtoint i8* %44 to i64
  %46 = icmp ult i8* %44, inttoptr (i64 32 to i8*)
  br i1 %46, label %136, label %47

; <label>:47:                                     ; preds = %42
  %48 = sub i64 0, %18
  %49 = getelementptr i8, i8* %15, i64 %48
  %50 = ptrtoint i8* %49 to i64
  %51 = getelementptr i8, i8* %40, i64 %50
  %52 = icmp ult i8* %40, %15
  %53 = icmp ult i8* %17, %51
  %54 = and i1 %52, %53
  br i1 %54, label %136, label %55

; <label>:55:                                     ; preds = %47
  %56 = and i64 %45, -32
  %57 = getelementptr i8, i8* %17, i64 %56
  %58 = getelementptr i8, i8* %40, i64 %56
  %59 = add i64 %56, -32
  %60 = lshr exact i64 %59, 5
  %61 = add nuw nsw i64 %60, 1
  %62 = and i64 %61, 3
  %63 = icmp ult i64 %59, 96
  br i1 %63, label %115, label %64

; <label>:64:                                     ; preds = %55
  %65 = sub nsw i64 %61, %62
  br label %66

; <label>:66:                                     ; preds = %66, %64
  %67 = phi i64 [ 0, %64 ], [ %112, %66 ]
  %68 = phi i64 [ %65, %64 ], [ %113, %66 ]
  %69 = getelementptr i8, i8* %17, i64 %67
  %70 = getelementptr i8, i8* %40, i64 %67
  %71 = bitcast i8* %69 to <16 x i8>*
  %72 = load <16 x i8>, <16 x i8>* %71, align 1, !alias.scope !13
  %73 = getelementptr i8, i8* %69, i64 16
  %74 = bitcast i8* %73 to <16 x i8>*
  %75 = load <16 x i8>, <16 x i8>* %74, align 1, !alias.scope !13
  %76 = bitcast i8* %70 to <16 x i8>*
  store <16 x i8> %72, <16 x i8>* %76, align 1, !alias.scope !16, !noalias !13
  %77 = getelementptr i8, i8* %70, i64 16
  %78 = bitcast i8* %77 to <16 x i8>*
  store <16 x i8> %75, <16 x i8>* %78, align 1, !alias.scope !16, !noalias !13
  %79 = or i64 %67, 32
  %80 = getelementptr i8, i8* %17, i64 %79
  %81 = getelementptr i8, i8* %40, i64 %79
  %82 = bitcast i8* %80 to <16 x i8>*
  %83 = load <16 x i8>, <16 x i8>* %82, align 1, !alias.scope !13
  %84 = getelementptr i8, i8* %80, i64 16
  %85 = bitcast i8* %84 to <16 x i8>*
  %86 = load <16 x i8>, <16 x i8>* %85, align 1, !alias.scope !13
  %87 = bitcast i8* %81 to <16 x i8>*
  store <16 x i8> %83, <16 x i8>* %87, align 1, !alias.scope !16, !noalias !13
  %88 = getelementptr i8, i8* %81, i64 16
  %89 = bitcast i8* %88 to <16 x i8>*
  store <16 x i8> %86, <16 x i8>* %89, align 1, !alias.scope !16, !noalias !13
  %90 = or i64 %67, 64
  %91 = getelementptr i8, i8* %17, i64 %90
  %92 = getelementptr i8, i8* %40, i64 %90
  %93 = bitcast i8* %91 to <16 x i8>*
  %94 = load <16 x i8>, <16 x i8>* %93, align 1, !alias.scope !13
  %95 = getelementptr i8, i8* %91, i64 16
  %96 = bitcast i8* %95 to <16 x i8>*
  %97 = load <16 x i8>, <16 x i8>* %96, align 1, !alias.scope !13
  %98 = bitcast i8* %92 to <16 x i8>*
  store <16 x i8> %94, <16 x i8>* %98, align 1, !alias.scope !16, !noalias !13
  %99 = getelementptr i8, i8* %92, i64 16
  %100 = bitcast i8* %99 to <16 x i8>*
  store <16 x i8> %97, <16 x i8>* %100, align 1, !alias.scope !16, !noalias !13
  %101 = or i64 %67, 96
  %102 = getelementptr i8, i8* %17, i64 %101
  %103 = getelementptr i8, i8* %40, i64 %101
  %104 = bitcast i8* %102 to <16 x i8>*
  %105 = load <16 x i8>, <16 x i8>* %104, align 1, !alias.scope !13
  %106 = getelementptr i8, i8* %102, i64 16
  %107 = bitcast i8* %106 to <16 x i8>*
  %108 = load <16 x i8>, <16 x i8>* %107, align 1, !alias.scope !13
  %109 = bitcast i8* %103 to <16 x i8>*
  store <16 x i8> %105, <16 x i8>* %109, align 1, !alias.scope !16, !noalias !13
  %110 = getelementptr i8, i8* %103, i64 16
  %111 = bitcast i8* %110 to <16 x i8>*
  store <16 x i8> %108, <16 x i8>* %111, align 1, !alias.scope !16, !noalias !13
  %112 = add i64 %67, 128
  %113 = add i64 %68, -4
  %114 = icmp eq i64 %113, 0
  br i1 %114, label %115, label %66, !llvm.loop !18

; <label>:115:                                    ; preds = %66, %55
  %116 = phi i64 [ 0, %55 ], [ %112, %66 ]
  %117 = icmp eq i64 %62, 0
  br i1 %117, label %134, label %118

; <label>:118:                                    ; preds = %115, %118
  %119 = phi i64 [ %131, %118 ], [ %116, %115 ]
  %120 = phi i64 [ %132, %118 ], [ %62, %115 ]
  %121 = getelementptr i8, i8* %17, i64 %119
  %122 = getelementptr i8, i8* %40, i64 %119
  %123 = bitcast i8* %121 to <16 x i8>*
  %124 = load <16 x i8>, <16 x i8>* %123, align 1, !alias.scope !13
  %125 = getelementptr i8, i8* %121, i64 16
  %126 = bitcast i8* %125 to <16 x i8>*
  %127 = load <16 x i8>, <16 x i8>* %126, align 1, !alias.scope !13
  %128 = bitcast i8* %122 to <16 x i8>*
  store <16 x i8> %124, <16 x i8>* %128, align 1, !alias.scope !16, !noalias !13
  %129 = getelementptr i8, i8* %122, i64 16
  %130 = bitcast i8* %129 to <16 x i8>*
  store <16 x i8> %127, <16 x i8>* %130, align 1, !alias.scope !16, !noalias !13
  %131 = add i64 %119, 32
  %132 = add i64 %120, -1
  %133 = icmp eq i64 %132, 0
  br i1 %133, label %134, label %118, !llvm.loop !20

; <label>:134:                                    ; preds = %118, %115
  %135 = icmp eq i64 %56, %45
  br i1 %135, label %146, label %136

; <label>:136:                                    ; preds = %134, %47, %42
  %137 = phi i8* [ %17, %47 ], [ %17, %42 ], [ %57, %134 ]
  %138 = phi i8* [ %40, %47 ], [ %40, %42 ], [ %58, %134 ]
  br label %139

; <label>:139:                                    ; preds = %136, %139
  %140 = phi i8* [ %143, %139 ], [ %137, %136 ]
  %141 = phi i8* [ %144, %139 ], [ %138, %136 ]
  %142 = load i8, i8* %140, align 1
  store i8 %142, i8* %141, align 1
  %143 = getelementptr inbounds i8, i8* %140, i64 1
  %144 = getelementptr inbounds i8, i8* %141, i64 1
  %145 = icmp eq i8* %143, %15
  br i1 %145, label %146, label %139, !llvm.loop !22

; <label>:146:                                    ; preds = %139, %134
  %147 = getelementptr i8, i8* %40, i64 %21
  br label %148

; <label>:148:                                    ; preds = %39, %146
  %149 = phi i8* [ %40, %39 ], [ %147, %146 ]
  store i8 0, i8* %149, align 1
  br label %290

; <label>:150:                                    ; preds = %2
  %151 = and i32 %4, 8
  %152 = icmp eq i32 %151, 0
  br i1 %152, label %288, label %153

; <label>:153:                                    ; preds = %150
  %154 = getelementptr inbounds %"class.std::__1::basic_stringbuf", %"class.std::__1::basic_stringbuf"* %1, i64 0, i32 0, i32 2
  %155 = load i8*, i8** %154, align 8
  %156 = ptrtoint i8* %155 to i64
  %157 = getelementptr inbounds %"class.std::__1::basic_stringbuf", %"class.std::__1::basic_stringbuf"* %1, i64 0, i32 0, i32 4
  %158 = load i8*, i8** %157, align 8
  %159 = bitcast %"class.std::__1::basic_string"* %0 to i8*
  tail call void @llvm.memset.p0i8.i64(i8* align 8 %159, i8 0, i64 24, i1 false) #14
  %160 = ptrtoint i8* %158 to i64
  %161 = sub i64 %160, %156
  %162 = icmp ugt i64 %161, -17
  br i1 %162, label %163, label %165

; <label>:163:                                    ; preds = %153
  %164 = bitcast %"class.std::__1::basic_string"* %0 to %"class.std::__1::__basic_string_common"*
  tail call void @_ZNKSt3__121__basic_string_commonILb1EE20__throw_length_errorEv(%"class.std::__1::__basic_string_common"* %164) #11
  unreachable

; <label>:165:                                    ; preds = %153
  %166 = icmp ult i64 %161, 23
  br i1 %166, label %167, label %171

; <label>:167:                                    ; preds = %165
  %168 = trunc i64 %161 to i8
  %169 = bitcast %"class.std::__1::basic_string"* %0 to %"struct.std::__1::basic_string<char, std::__1::char_traits<char>, std::__1::allocator<char> >::__short"*
  %170 = getelementptr inbounds %"struct.std::__1::basic_string<char, std::__1::char_traits<char>, std::__1::allocator<char> >::__short", %"struct.std::__1::basic_string<char, std::__1::char_traits<char>, std::__1::allocator<char> >::__short"* %169, i64 0, i32 1, i32 0
  store i8 %168, i8* %170, align 1
  br label %179

; <label>:171:                                    ; preds = %165
  %172 = add i64 %161, 16
  %173 = and i64 %172, -16
  %174 = tail call i8* @_Znwm(i64 %173) #15
  %175 = getelementptr inbounds %"class.std::__1::basic_string", %"class.std::__1::basic_string"* %0, i64 0, i32 0, i32 0, i32 0, i32 0, i32 0, i32 0
  store i8* %174, i8** %175, align 8
  %176 = or i64 %173, -9223372036854775808
  %177 = getelementptr inbounds %"class.std::__1::basic_string", %"class.std::__1::basic_string"* %0, i64 0, i32 0, i32 0, i32 0, i32 0, i32 0, i32 2
  store i64 %176, i64* %177, align 8
  %178 = getelementptr inbounds %"class.std::__1::basic_string", %"class.std::__1::basic_string"* %0, i64 0, i32 0, i32 0, i32 0, i32 0, i32 0, i32 1
  store i64 %161, i64* %178, align 8
  br label %179

; <label>:179:                                    ; preds = %171, %167
  %180 = phi i8* [ %159, %167 ], [ %174, %171 ]
  %181 = icmp eq i8* %155, %158
  br i1 %181, label %286, label %182

; <label>:182:                                    ; preds = %179
  %183 = ptrtoint i8* %158 to i64
  %184 = sub i64 %183, %156
  %185 = icmp ult i64 %184, 32
  br i1 %185, label %274, label %186

; <label>:186:                                    ; preds = %182
  %187 = ptrtoint i8* %158 to i64
  %188 = sub i64 %187, %156
  %189 = getelementptr i8, i8* %180, i64 %188
  %190 = icmp ult i8* %180, %158
  %191 = icmp ult i8* %155, %189
  %192 = and i1 %190, %191
  br i1 %192, label %274, label %193

; <label>:193:                                    ; preds = %186
  %194 = and i64 %184, -32
  %195 = getelementptr i8, i8* %155, i64 %194
  %196 = getelementptr i8, i8* %180, i64 %194
  %197 = add i64 %194, -32
  %198 = lshr exact i64 %197, 5
  %199 = add nuw nsw i64 %198, 1
  %200 = and i64 %199, 3
  %201 = icmp ult i64 %197, 96
  br i1 %201, label %253, label %202

; <label>:202:                                    ; preds = %193
  %203 = sub nsw i64 %199, %200
  br label %204

; <label>:204:                                    ; preds = %204, %202
  %205 = phi i64 [ 0, %202 ], [ %250, %204 ]
  %206 = phi i64 [ %203, %202 ], [ %251, %204 ]
  %207 = getelementptr i8, i8* %155, i64 %205
  %208 = getelementptr i8, i8* %180, i64 %205
  %209 = bitcast i8* %207 to <16 x i8>*
  %210 = load <16 x i8>, <16 x i8>* %209, align 1, !alias.scope !23
  %211 = getelementptr i8, i8* %207, i64 16
  %212 = bitcast i8* %211 to <16 x i8>*
  %213 = load <16 x i8>, <16 x i8>* %212, align 1, !alias.scope !23
  %214 = bitcast i8* %208 to <16 x i8>*
  store <16 x i8> %210, <16 x i8>* %214, align 1, !alias.scope !26, !noalias !23
  %215 = getelementptr i8, i8* %208, i64 16
  %216 = bitcast i8* %215 to <16 x i8>*
  store <16 x i8> %213, <16 x i8>* %216, align 1, !alias.scope !26, !noalias !23
  %217 = or i64 %205, 32
  %218 = getelementptr i8, i8* %155, i64 %217
  %219 = getelementptr i8, i8* %180, i64 %217
  %220 = bitcast i8* %218 to <16 x i8>*
  %221 = load <16 x i8>, <16 x i8>* %220, align 1, !alias.scope !23
  %222 = getelementptr i8, i8* %218, i64 16
  %223 = bitcast i8* %222 to <16 x i8>*
  %224 = load <16 x i8>, <16 x i8>* %223, align 1, !alias.scope !23
  %225 = bitcast i8* %219 to <16 x i8>*
  store <16 x i8> %221, <16 x i8>* %225, align 1, !alias.scope !26, !noalias !23
  %226 = getelementptr i8, i8* %219, i64 16
  %227 = bitcast i8* %226 to <16 x i8>*
  store <16 x i8> %224, <16 x i8>* %227, align 1, !alias.scope !26, !noalias !23
  %228 = or i64 %205, 64
  %229 = getelementptr i8, i8* %155, i64 %228
  %230 = getelementptr i8, i8* %180, i64 %228
  %231 = bitcast i8* %229 to <16 x i8>*
  %232 = load <16 x i8>, <16 x i8>* %231, align 1, !alias.scope !23
  %233 = getelementptr i8, i8* %229, i64 16
  %234 = bitcast i8* %233 to <16 x i8>*
  %235 = load <16 x i8>, <16 x i8>* %234, align 1, !alias.scope !23
  %236 = bitcast i8* %230 to <16 x i8>*
  store <16 x i8> %232, <16 x i8>* %236, align 1, !alias.scope !26, !noalias !23
  %237 = getelementptr i8, i8* %230, i64 16
  %238 = bitcast i8* %237 to <16 x i8>*
  store <16 x i8> %235, <16 x i8>* %238, align 1, !alias.scope !26, !noalias !23
  %239 = or i64 %205, 96
  %240 = getelementptr i8, i8* %155, i64 %239
  %241 = getelementptr i8, i8* %180, i64 %239
  %242 = bitcast i8* %240 to <16 x i8>*
  %243 = load <16 x i8>, <16 x i8>* %242, align 1, !alias.scope !23
  %244 = getelementptr i8, i8* %240, i64 16
  %245 = bitcast i8* %244 to <16 x i8>*
  %246 = load <16 x i8>, <16 x i8>* %245, align 1, !alias.scope !23
  %247 = bitcast i8* %241 to <16 x i8>*
  store <16 x i8> %243, <16 x i8>* %247, align 1, !alias.scope !26, !noalias !23
  %248 = getelementptr i8, i8* %241, i64 16
  %249 = bitcast i8* %248 to <16 x i8>*
  store <16 x i8> %246, <16 x i8>* %249, align 1, !alias.scope !26, !noalias !23
  %250 = add i64 %205, 128
  %251 = add i64 %206, -4
  %252 = icmp eq i64 %251, 0
  br i1 %252, label %253, label %204, !llvm.loop !28

; <label>:253:                                    ; preds = %204, %193
  %254 = phi i64 [ 0, %193 ], [ %250, %204 ]
  %255 = icmp eq i64 %200, 0
  br i1 %255, label %272, label %256

; <label>:256:                                    ; preds = %253, %256
  %257 = phi i64 [ %269, %256 ], [ %254, %253 ]
  %258 = phi i64 [ %270, %256 ], [ %200, %253 ]
  %259 = getelementptr i8, i8* %155, i64 %257
  %260 = getelementptr i8, i8* %180, i64 %257
  %261 = bitcast i8* %259 to <16 x i8>*
  %262 = load <16 x i8>, <16 x i8>* %261, align 1, !alias.scope !23
  %263 = getelementptr i8, i8* %259, i64 16
  %264 = bitcast i8* %263 to <16 x i8>*
  %265 = load <16 x i8>, <16 x i8>* %264, align 1, !alias.scope !23
  %266 = bitcast i8* %260 to <16 x i8>*
  store <16 x i8> %262, <16 x i8>* %266, align 1, !alias.scope !26, !noalias !23
  %267 = getelementptr i8, i8* %260, i64 16
  %268 = bitcast i8* %267 to <16 x i8>*
  store <16 x i8> %265, <16 x i8>* %268, align 1, !alias.scope !26, !noalias !23
  %269 = add i64 %257, 32
  %270 = add i64 %258, -1
  %271 = icmp eq i64 %270, 0
  br i1 %271, label %272, label %256, !llvm.loop !29

; <label>:272:                                    ; preds = %256, %253
  %273 = icmp eq i64 %184, %194
  br i1 %273, label %284, label %274

; <label>:274:                                    ; preds = %272, %186, %182
  %275 = phi i8* [ %155, %186 ], [ %155, %182 ], [ %195, %272 ]
  %276 = phi i8* [ %180, %186 ], [ %180, %182 ], [ %196, %272 ]
  br label %277

; <label>:277:                                    ; preds = %274, %277
  %278 = phi i8* [ %281, %277 ], [ %275, %274 ]
  %279 = phi i8* [ %282, %277 ], [ %276, %274 ]
  %280 = load i8, i8* %278, align 1
  store i8 %280, i8* %279, align 1
  %281 = getelementptr inbounds i8, i8* %278, i64 1
  %282 = getelementptr inbounds i8, i8* %279, i64 1
  %283 = icmp eq i8* %281, %158
  br i1 %283, label %284, label %277, !llvm.loop !30

; <label>:284:                                    ; preds = %277, %272
  %285 = getelementptr i8, i8* %180, i64 %161
  br label %286

; <label>:286:                                    ; preds = %179, %284
  %287 = phi i8* [ %180, %179 ], [ %285, %284 ]
  store i8 0, i8* %287, align 1
  br label %290

; <label>:288:                                    ; preds = %150
  %289 = bitcast %"class.std::__1::basic_string"* %0 to i8*
  tail call void @llvm.memset.p0i8.i64(i8* align 8 %289, i8 0, i64 24, i1 false) #14
  br label %290

; <label>:290:                                    ; preds = %288, %286, %148
  ret void
}

; Function Attrs: nounwind
declare void @_ZNSt3__19basic_iosIcNS_11char_traitsIcEEED2Ev(%"class.std::__1::basic_ios"*) unnamed_addr #4

; Function Attrs: nounwind
declare void @_ZNSt3__113basic_ostreamIcNS_11char_traitsIcEEED2Ev(%"class.std::__1::basic_ostream"*, i8**) unnamed_addr #4

declare %"class.std::__1::basic_string"* @_ZN7logging17MakeCheckOpStringImmEEPNSt3__112basic_stringIcNS1_11char_traitsIcEENS1_9allocatorIcEEEERKT_RKT0_PKc(i64* dereferenceable(8), i64* dereferenceable(8), i8*) local_unnamed_addr #2

; Function Attrs: nounwind
declare void @free(i8* nocapture) local_unnamed_addr #4

; Function Attrs: nounwind ssp uwtable
define linkonce_odr hidden dereferenceable(8) %"class.std::__1::unique_ptr.79"* @_ZN4base14circular_dequeINSt3__110unique_ptrIN5media9WebmMuxer17EncodedVideoFrameENS1_14default_deleteIS5_EEEEE12emplace_backIJS8_EEERS8_DpOT_(%"class.base::circular_deque"*, %"class.std::__1::unique_ptr.79"* dereferenceable(8)) local_unnamed_addr #0 comdat align 2 {
  %3 = alloca i64, align 8
  %4 = alloca %"class.logging::LogMessage", align 8
  %5 = alloca i64, align 8
  %6 = alloca %"class.logging::LogMessage", align 8
  tail call void @_ZN4base14circular_dequeINSt3__110unique_ptrIN5media9WebmMuxer17EncodedVideoFrameENS1_14default_deleteIS5_EEEEE25ExpandCapacityIfNecessaryEm(%"class.base::circular_deque"* %0, i64 1)
  %7 = getelementptr inbounds %"class.base::circular_deque", %"class.base::circular_deque"* %0, i64 0, i32 2
  %8 = load i64, i64* %7, align 8
  %9 = bitcast i64* %5 to i8*
  call void @llvm.lifetime.start.p0i8(i64 8, i8* nonnull %9)
  store i64 %8, i64* %5, align 8
  %10 = getelementptr inbounds %"class.base::circular_deque", %"class.base::circular_deque"* %0, i64 0, i32 0, i32 1
  %11 = load i64, i64* %10, align 8
  %12 = icmp ult i64 %11, %8
  br i1 %12, label %13, label %18

; <label>:13:                                     ; preds = %2
  %14 = call %"class.std::__1::basic_string"* @_ZN7logging17MakeCheckOpStringImmEEPNSt3__112basic_stringIcNS1_11char_traitsIcEENS1_9allocatorIcEEEERKT_RKT0_PKc(i64* nonnull dereferenceable(8) %5, i64* nonnull dereferenceable(8) %10, i8* getelementptr inbounds ([15 x i8], [15 x i8]* @.str.11, i64 0, i64 0)) #14
  %15 = icmp eq %"class.std::__1::basic_string"* %14, null
  br i1 %15, label %18, label %16

; <label>:16:                                     ; preds = %13
  %17 = bitcast %"class.logging::LogMessage"* %6 to i8*
  call void @llvm.lifetime.start.p0i8(i64 296, i8* nonnull %17) #14
  call void @_ZN7logging10LogMessageC1EPKciPNSt3__112basic_stringIcNS3_11char_traitsIcEENS3_9allocatorIcEEEE(%"class.logging::LogMessage"* nonnull %6, i8* getelementptr inbounds ([38 x i8], [38 x i8]* @.str.7, i64 0, i64 0), i32 80, %"class.std::__1::basic_string"* nonnull %14) #14
  call void @_ZN7logging10LogMessageD1Ev(%"class.logging::LogMessage"* nonnull %6) #14
  call void @llvm.lifetime.end.p0i8(i64 296, i8* nonnull %17) #14
  br label %18

; <label>:18:                                     ; preds = %2, %13, %16
  %19 = getelementptr inbounds %"class.base::circular_deque", %"class.base::circular_deque"* %0, i64 0, i32 0, i32 0
  %20 = load %"class.std::__1::unique_ptr.79"*, %"class.std::__1::unique_ptr.79"** %19, align 8
  %21 = load i64, i64* %5, align 8
  %22 = getelementptr inbounds %"class.std::__1::unique_ptr.79", %"class.std::__1::unique_ptr.79"* %20, i64 %21
  call void @llvm.lifetime.end.p0i8(i64 8, i8* nonnull %9)
  %23 = getelementptr inbounds %"class.std::__1::unique_ptr.79", %"class.std::__1::unique_ptr.79"* %1, i64 0, i32 0, i32 0, i32 0
  %24 = bitcast %"class.std::__1::unique_ptr.79"* %1 to i64*
  %25 = load i64, i64* %24, align 8
  store %"struct.media::WebmMuxer::EncodedVideoFrame"* null, %"struct.media::WebmMuxer::EncodedVideoFrame"** %23, align 8
  %26 = bitcast %"class.std::__1::unique_ptr.79"* %22 to i64*
  store i64 %25, i64* %26, align 8
  %27 = load i64, i64* %7, align 8
  %28 = load i64, i64* %10, align 8
  %29 = add i64 %28, -1
  %30 = icmp eq i64 %27, %29
  br i1 %30, label %31, label %32

; <label>:31:                                     ; preds = %18
  store i64 0, i64* %7, align 8
  br label %35

; <label>:32:                                     ; preds = %18
  %33 = add i64 %27, 1
  store i64 %33, i64* %7, align 8
  %34 = icmp eq i64 %33, 0
  br i1 %34, label %35, label %36

; <label>:35:                                     ; preds = %31, %32
  br label %36

; <label>:36:                                     ; preds = %32, %35
  %37 = phi i64 [ %29, %35 ], [ %27, %32 ]
  %38 = bitcast i64* %3 to i8*
  call void @llvm.lifetime.start.p0i8(i64 8, i8* nonnull %38) #14
  store i64 %37, i64* %3, align 8
  %39 = icmp ult i64 %28, %37
  br i1 %39, label %40, label %45

; <label>:40:                                     ; preds = %36
  %41 = call %"class.std::__1::basic_string"* @_ZN7logging17MakeCheckOpStringImmEEPNSt3__112basic_stringIcNS1_11char_traitsIcEENS1_9allocatorIcEEEERKT_RKT0_PKc(i64* nonnull dereferenceable(8) %3, i64* nonnull dereferenceable(8) %10, i8* getelementptr inbounds ([15 x i8], [15 x i8]* @.str.11, i64 0, i64 0)) #14
  %42 = icmp eq %"class.std::__1::basic_string"* %41, null
  br i1 %42, label %45, label %43

; <label>:43:                                     ; preds = %40
  %44 = bitcast %"class.logging::LogMessage"* %4 to i8*
  call void @llvm.lifetime.start.p0i8(i64 296, i8* nonnull %44) #14
  call void @_ZN7logging10LogMessageC1EPKciPNSt3__112basic_stringIcNS3_11char_traitsIcEENS3_9allocatorIcEEEE(%"class.logging::LogMessage"* nonnull %4, i8* getelementptr inbounds ([38 x i8], [38 x i8]* @.str.7, i64 0, i64 0), i32 85, %"class.std::__1::basic_string"* nonnull %41) #14
  call void @_ZN7logging10LogMessageD1Ev(%"class.logging::LogMessage"* nonnull %4) #14
  call void @llvm.lifetime.end.p0i8(i64 296, i8* nonnull %44) #14
  br label %45

; <label>:45:                                     ; preds = %36, %40, %43
  %46 = load %"class.std::__1::unique_ptr.79"*, %"class.std::__1::unique_ptr.79"** %19, align 8
  %47 = load i64, i64* %3, align 8
  %48 = getelementptr inbounds %"class.std::__1::unique_ptr.79", %"class.std::__1::unique_ptr.79"* %46, i64 %47
  call void @llvm.lifetime.end.p0i8(i64 8, i8* nonnull %38) #14
  ret %"class.std::__1::unique_ptr.79"* %48
}

; Function Attrs: nounwind ssp uwtable
define linkonce_odr hidden void @_ZN4base14circular_dequeINSt3__110unique_ptrIN5media9WebmMuxer17EncodedVideoFrameENS1_14default_deleteIS5_EEEEE25ExpandCapacityIfNecessaryEm(%"class.base::circular_deque"*, i64) local_unnamed_addr #0 comdat align 2 {
  %3 = alloca %"class.base::internal::VectorBuffer", align 8
  %4 = getelementptr inbounds %"class.base::circular_deque", %"class.base::circular_deque"* %0, i64 0, i32 1
  %5 = load i64, i64* %4, align 8
  %6 = getelementptr inbounds %"class.base::circular_deque", %"class.base::circular_deque"* %0, i64 0, i32 2
  %7 = load i64, i64* %6, align 8
  %8 = icmp ult i64 %7, %5
  br i1 %8, label %13, label %9

; <label>:9:                                      ; preds = %2
  %10 = sub i64 %7, %5
  %11 = getelementptr inbounds %"class.base::circular_deque", %"class.base::circular_deque"* %0, i64 0, i32 0, i32 1
  %12 = load i64, i64* %11, align 8
  br label %18

; <label>:13:                                     ; preds = %2
  %14 = getelementptr inbounds %"class.base::circular_deque", %"class.base::circular_deque"* %0, i64 0, i32 0, i32 1
  %15 = load i64, i64* %14, align 8
  %16 = sub i64 %7, %5
  %17 = add i64 %16, %15
  br label %18

; <label>:18:                                     ; preds = %9, %13
  %19 = phi i64* [ %11, %9 ], [ %14, %13 ]
  %20 = phi i64 [ %12, %9 ], [ %15, %13 ]
  %21 = phi i64 [ %10, %9 ], [ %17, %13 ]
  %22 = add i64 %21, %1
  %23 = icmp eq i64 %20, 0
  %24 = add i64 %20, -1
  %25 = select i1 %23, i64 0, i64 %24
  %26 = icmp ult i64 %25, %22
  br i1 %26, label %27, label %51

; <label>:27:                                     ; preds = %18
  %28 = icmp ugt i64 %22, 3
  %29 = select i1 %28, i64 %22, i64 3
  %30 = lshr i64 %25, 2
  %31 = add i64 %30, %25
  %32 = icmp ult i64 %29, %31
  %33 = select i1 %32, i64 %31, i64 %29
  %34 = bitcast %"class.base::internal::VectorBuffer"* %3 to i8*
  call void @llvm.lifetime.start.p0i8(i64 16, i8* nonnull %34) #14
  %35 = add i64 %33, 1
  %36 = tail call { i64, i1 } @llvm.umul.with.overflow.i64(i64 %35, i64 8) #14
  %37 = extractvalue { i64, i1 } %36, 1
  br i1 %37, label %38, label %39, !prof !12

; <label>:38:                                     ; preds = %27
  tail call void @llvm.trap() #14
  unreachable

; <label>:39:                                     ; preds = %27
  %40 = extractvalue { i64, i1 } %36, 0
  %41 = tail call noalias i8* @malloc(i64 %40) #14
  %42 = bitcast %"class.base::internal::VectorBuffer"* %3 to i8**
  store i8* %41, i8** %42, align 8
  %43 = getelementptr inbounds %"class.base::internal::VectorBuffer", %"class.base::internal::VectorBuffer"* %3, i64 0, i32 1
  store i64 %35, i64* %43, align 8
  %44 = getelementptr inbounds %"class.base::circular_deque", %"class.base::circular_deque"* %0, i64 0, i32 0
  call void @_ZN4base14circular_dequeINSt3__110unique_ptrIN5media9WebmMuxer17EncodedVideoFrameENS1_14default_deleteIS5_EEEEE10MoveBufferERNS_8internal12VectorBufferIS8_EEmmPSC_PmSF_(%"class.base::internal::VectorBuffer"* dereferenceable(16) %44, i64 %5, i64 %7, %"class.base::internal::VectorBuffer"* nonnull %3, i64* nonnull %4, i64* nonnull %6) #14
  %45 = bitcast %"class.base::circular_deque"* %0 to i8**
  %46 = load i8*, i8** %45, align 8
  call void @free(i8* %46) #14
  %47 = bitcast %"class.base::internal::VectorBuffer"* %3 to i64*
  %48 = load i64, i64* %47, align 8
  %49 = bitcast %"class.base::circular_deque"* %0 to i64*
  store i64 %48, i64* %49, align 8
  %50 = load i64, i64* %43, align 8
  store i64 %50, i64* %19, align 8
  call void @llvm.lifetime.end.p0i8(i64 16, i8* nonnull %34) #14
  br label %51

; <label>:51:                                     ; preds = %18, %39
  ret void
}

; Function Attrs: nounwind ssp uwtable
define linkonce_odr hidden void @_ZN4base14circular_dequeINSt3__110unique_ptrIN5media9WebmMuxer17EncodedVideoFrameENS1_14default_deleteIS5_EEEEE10MoveBufferERNS_8internal12VectorBufferIS8_EEmmPSC_PmSF_(%"class.base::internal::VectorBuffer"* dereferenceable(16), i64, i64, %"class.base::internal::VectorBuffer"*, i64*, i64*) local_unnamed_addr #0 comdat align 2 {
  %7 = alloca i64, align 8
  %8 = alloca %"class.logging::LogMessage", align 8
  %9 = alloca i64, align 8
  %10 = alloca %"class.logging::LogMessage", align 8
  %11 = alloca i64, align 8
  %12 = alloca %"class.logging::LogMessage", align 8
  %13 = alloca i64, align 8
  %14 = alloca %"class.logging::LogMessage", align 8
  %15 = alloca i64, align 8
  %16 = alloca %"class.logging::LogMessage", align 8
  %17 = alloca i64, align 8
  %18 = alloca %"class.logging::LogMessage", align 8
  %19 = getelementptr inbounds %"class.base::internal::VectorBuffer", %"class.base::internal::VectorBuffer"* %0, i64 0, i32 1
  %20 = load i64, i64* %19, align 8
  store i64 0, i64* %4, align 8
  %21 = icmp ugt i64 %2, %1
  br i1 %21, label %22, label %51

; <label>:22:                                     ; preds = %6
  %23 = bitcast i64* %17 to i8*
  call void @llvm.lifetime.start.p0i8(i64 8, i8* nonnull %23)
  store i64 %1, i64* %17, align 8
  %24 = load i64, i64* %19, align 8
  %25 = icmp ult i64 %24, %1
  br i1 %25, label %26, label %31

; <label>:26:                                     ; preds = %22
  %27 = call %"class.std::__1::basic_string"* @_ZN7logging17MakeCheckOpStringImmEEPNSt3__112basic_stringIcNS1_11char_traitsIcEENS1_9allocatorIcEEEERKT_RKT0_PKc(i64* nonnull dereferenceable(8) %17, i64* nonnull dereferenceable(8) %19, i8* getelementptr inbounds ([15 x i8], [15 x i8]* @.str.11, i64 0, i64 0)) #14
  %28 = icmp eq %"class.std::__1::basic_string"* %27, null
  br i1 %28, label %31, label %29

; <label>:29:                                     ; preds = %26
  %30 = bitcast %"class.logging::LogMessage"* %18 to i8*
  call void @llvm.lifetime.start.p0i8(i64 296, i8* nonnull %30) #14
  call void @_ZN7logging10LogMessageC1EPKciPNSt3__112basic_stringIcNS3_11char_traitsIcEENS3_9allocatorIcEEEE(%"class.logging::LogMessage"* nonnull %18, i8* getelementptr inbounds ([38 x i8], [38 x i8]* @.str.7, i64 0, i64 0), i32 80, %"class.std::__1::basic_string"* nonnull %27) #14
  call void @_ZN7logging10LogMessageD1Ev(%"class.logging::LogMessage"* nonnull %18) #14
  call void @llvm.lifetime.end.p0i8(i64 296, i8* nonnull %30) #14
  br label %31

; <label>:31:                                     ; preds = %22, %26, %29
  %32 = getelementptr inbounds %"class.base::internal::VectorBuffer", %"class.base::internal::VectorBuffer"* %0, i64 0, i32 0
  %33 = load %"class.std::__1::unique_ptr.79"*, %"class.std::__1::unique_ptr.79"** %32, align 8
  %34 = load i64, i64* %17, align 8
  %35 = getelementptr inbounds %"class.std::__1::unique_ptr.79", %"class.std::__1::unique_ptr.79"* %33, i64 %34
  call void @llvm.lifetime.end.p0i8(i64 8, i8* nonnull %23)
  %36 = bitcast i64* %15 to i8*
  call void @llvm.lifetime.start.p0i8(i64 8, i8* nonnull %36)
  store i64 %2, i64* %15, align 8
  %37 = load i64, i64* %19, align 8
  %38 = icmp ult i64 %37, %2
  br i1 %38, label %39, label %44

; <label>:39:                                     ; preds = %31
  %40 = call %"class.std::__1::basic_string"* @_ZN7logging17MakeCheckOpStringImmEEPNSt3__112basic_stringIcNS1_11char_traitsIcEENS1_9allocatorIcEEEERKT_RKT0_PKc(i64* nonnull dereferenceable(8) %15, i64* nonnull dereferenceable(8) %19, i8* getelementptr inbounds ([15 x i8], [15 x i8]* @.str.11, i64 0, i64 0)) #14
  %41 = icmp eq %"class.std::__1::basic_string"* %40, null
  br i1 %41, label %44, label %42

; <label>:42:                                     ; preds = %39
  %43 = bitcast %"class.logging::LogMessage"* %16 to i8*
  call void @llvm.lifetime.start.p0i8(i64 296, i8* nonnull %43) #14
  call void @_ZN7logging10LogMessageC1EPKciPNSt3__112basic_stringIcNS3_11char_traitsIcEENS3_9allocatorIcEEEE(%"class.logging::LogMessage"* nonnull %16, i8* getelementptr inbounds ([38 x i8], [38 x i8]* @.str.7, i64 0, i64 0), i32 80, %"class.std::__1::basic_string"* nonnull %40) #14
  call void @_ZN7logging10LogMessageD1Ev(%"class.logging::LogMessage"* nonnull %16) #14
  call void @llvm.lifetime.end.p0i8(i64 296, i8* nonnull %43) #14
  br label %44

; <label>:44:                                     ; preds = %31, %39, %42
  %45 = load %"class.std::__1::unique_ptr.79"*, %"class.std::__1::unique_ptr.79"** %32, align 8
  %46 = load i64, i64* %15, align 8
  %47 = getelementptr inbounds %"class.std::__1::unique_ptr.79", %"class.std::__1::unique_ptr.79"* %45, i64 %46
  call void @llvm.lifetime.end.p0i8(i64 8, i8* nonnull %36)
  %48 = getelementptr inbounds %"class.base::internal::VectorBuffer", %"class.base::internal::VectorBuffer"* %3, i64 0, i32 0
  %49 = load %"class.std::__1::unique_ptr.79"*, %"class.std::__1::unique_ptr.79"** %48, align 8
  call void @_ZN4base8internal12VectorBufferINSt3__110unique_ptrIN5media9WebmMuxer17EncodedVideoFrameENS2_14default_deleteIS6_EEEEE9MoveRangeIS9_Li0EEEvPS9_SC_SC_(%"class.std::__1::unique_ptr.79"* nonnull %35, %"class.std::__1::unique_ptr.79"* nonnull %47, %"class.std::__1::unique_ptr.79"* %49)
  %50 = sub i64 %2, %1
  br label %109

; <label>:51:                                     ; preds = %6
  %52 = icmp ult i64 %2, %1
  br i1 %52, label %53, label %109

; <label>:53:                                     ; preds = %51
  %54 = bitcast i64* %13 to i8*
  call void @llvm.lifetime.start.p0i8(i64 8, i8* nonnull %54)
  store i64 %1, i64* %13, align 8
  %55 = load i64, i64* %19, align 8
  %56 = icmp ult i64 %55, %1
  br i1 %56, label %57, label %62

; <label>:57:                                     ; preds = %53
  %58 = call %"class.std::__1::basic_string"* @_ZN7logging17MakeCheckOpStringImmEEPNSt3__112basic_stringIcNS1_11char_traitsIcEENS1_9allocatorIcEEEERKT_RKT0_PKc(i64* nonnull dereferenceable(8) %13, i64* nonnull dereferenceable(8) %19, i8* getelementptr inbounds ([15 x i8], [15 x i8]* @.str.11, i64 0, i64 0)) #14
  %59 = icmp eq %"class.std::__1::basic_string"* %58, null
  br i1 %59, label %62, label %60

; <label>:60:                                     ; preds = %57
  %61 = bitcast %"class.logging::LogMessage"* %14 to i8*
  call void @llvm.lifetime.start.p0i8(i64 296, i8* nonnull %61) #14
  call void @_ZN7logging10LogMessageC1EPKciPNSt3__112basic_stringIcNS3_11char_traitsIcEENS3_9allocatorIcEEEE(%"class.logging::LogMessage"* nonnull %14, i8* getelementptr inbounds ([38 x i8], [38 x i8]* @.str.7, i64 0, i64 0), i32 80, %"class.std::__1::basic_string"* nonnull %58) #14
  call void @_ZN7logging10LogMessageD1Ev(%"class.logging::LogMessage"* nonnull %14) #14
  call void @llvm.lifetime.end.p0i8(i64 296, i8* nonnull %61) #14
  br label %62

; <label>:62:                                     ; preds = %53, %57, %60
  %63 = getelementptr inbounds %"class.base::internal::VectorBuffer", %"class.base::internal::VectorBuffer"* %0, i64 0, i32 0
  %64 = load %"class.std::__1::unique_ptr.79"*, %"class.std::__1::unique_ptr.79"** %63, align 8
  %65 = load i64, i64* %13, align 8
  %66 = getelementptr inbounds %"class.std::__1::unique_ptr.79", %"class.std::__1::unique_ptr.79"* %64, i64 %65
  call void @llvm.lifetime.end.p0i8(i64 8, i8* nonnull %54)
  %67 = bitcast i64* %11 to i8*
  call void @llvm.lifetime.start.p0i8(i64 8, i8* nonnull %67)
  store i64 %20, i64* %11, align 8
  %68 = load i64, i64* %19, align 8
  %69 = icmp ult i64 %68, %20
  br i1 %69, label %70, label %75

; <label>:70:                                     ; preds = %62
  %71 = call %"class.std::__1::basic_string"* @_ZN7logging17MakeCheckOpStringImmEEPNSt3__112basic_stringIcNS1_11char_traitsIcEENS1_9allocatorIcEEEERKT_RKT0_PKc(i64* nonnull dereferenceable(8) %11, i64* nonnull dereferenceable(8) %19, i8* getelementptr inbounds ([15 x i8], [15 x i8]* @.str.11, i64 0, i64 0)) #14
  %72 = icmp eq %"class.std::__1::basic_string"* %71, null
  br i1 %72, label %75, label %73

; <label>:73:                                     ; preds = %70
  %74 = bitcast %"class.logging::LogMessage"* %12 to i8*
  call void @llvm.lifetime.start.p0i8(i64 296, i8* nonnull %74) #14
  call void @_ZN7logging10LogMessageC1EPKciPNSt3__112basic_stringIcNS3_11char_traitsIcEENS3_9allocatorIcEEEE(%"class.logging::LogMessage"* nonnull %12, i8* getelementptr inbounds ([38 x i8], [38 x i8]* @.str.7, i64 0, i64 0), i32 80, %"class.std::__1::basic_string"* nonnull %71) #14
  call void @_ZN7logging10LogMessageD1Ev(%"class.logging::LogMessage"* nonnull %12) #14
  call void @llvm.lifetime.end.p0i8(i64 296, i8* nonnull %74) #14
  br label %75

; <label>:75:                                     ; preds = %62, %70, %73
  %76 = load %"class.std::__1::unique_ptr.79"*, %"class.std::__1::unique_ptr.79"** %63, align 8
  %77 = load i64, i64* %11, align 8
  %78 = getelementptr inbounds %"class.std::__1::unique_ptr.79", %"class.std::__1::unique_ptr.79"* %76, i64 %77
  call void @llvm.lifetime.end.p0i8(i64 8, i8* nonnull %67)
  %79 = getelementptr inbounds %"class.base::internal::VectorBuffer", %"class.base::internal::VectorBuffer"* %3, i64 0, i32 0
  %80 = load %"class.std::__1::unique_ptr.79"*, %"class.std::__1::unique_ptr.79"** %79, align 8
  call void @_ZN4base8internal12VectorBufferINSt3__110unique_ptrIN5media9WebmMuxer17EncodedVideoFrameENS2_14default_deleteIS6_EEEEE9MoveRangeIS9_Li0EEEvPS9_SC_SC_(%"class.std::__1::unique_ptr.79"* nonnull %66, %"class.std::__1::unique_ptr.79"* nonnull %78, %"class.std::__1::unique_ptr.79"* %80)
  %81 = sub i64 %20, %1
  %82 = load %"class.std::__1::unique_ptr.79"*, %"class.std::__1::unique_ptr.79"** %63, align 8
  %83 = bitcast i64* %9 to i8*
  call void @llvm.lifetime.start.p0i8(i64 8, i8* nonnull %83)
  store i64 %2, i64* %9, align 8
  %84 = load i64, i64* %19, align 8
  %85 = icmp ult i64 %84, %2
  br i1 %85, label %86, label %91

; <label>:86:                                     ; preds = %75
  %87 = call %"class.std::__1::basic_string"* @_ZN7logging17MakeCheckOpStringImmEEPNSt3__112basic_stringIcNS1_11char_traitsIcEENS1_9allocatorIcEEEERKT_RKT0_PKc(i64* nonnull dereferenceable(8) %9, i64* nonnull dereferenceable(8) %19, i8* getelementptr inbounds ([15 x i8], [15 x i8]* @.str.11, i64 0, i64 0)) #14
  %88 = icmp eq %"class.std::__1::basic_string"* %87, null
  br i1 %88, label %91, label %89

; <label>:89:                                     ; preds = %86
  %90 = bitcast %"class.logging::LogMessage"* %10 to i8*
  call void @llvm.lifetime.start.p0i8(i64 296, i8* nonnull %90) #14
  call void @_ZN7logging10LogMessageC1EPKciPNSt3__112basic_stringIcNS3_11char_traitsIcEENS3_9allocatorIcEEEE(%"class.logging::LogMessage"* nonnull %10, i8* getelementptr inbounds ([38 x i8], [38 x i8]* @.str.7, i64 0, i64 0), i32 80, %"class.std::__1::basic_string"* nonnull %87) #14
  call void @_ZN7logging10LogMessageD1Ev(%"class.logging::LogMessage"* nonnull %10) #14
  call void @llvm.lifetime.end.p0i8(i64 296, i8* nonnull %90) #14
  br label %91

; <label>:91:                                     ; preds = %75, %86, %89
  %92 = load %"class.std::__1::unique_ptr.79"*, %"class.std::__1::unique_ptr.79"** %63, align 8
  %93 = load i64, i64* %9, align 8
  %94 = getelementptr inbounds %"class.std::__1::unique_ptr.79", %"class.std::__1::unique_ptr.79"* %92, i64 %93
  call void @llvm.lifetime.end.p0i8(i64 8, i8* nonnull %83)
  %95 = bitcast i64* %7 to i8*
  call void @llvm.lifetime.start.p0i8(i64 8, i8* nonnull %95)
  store i64 %81, i64* %7, align 8
  %96 = getelementptr inbounds %"class.base::internal::VectorBuffer", %"class.base::internal::VectorBuffer"* %3, i64 0, i32 1
  %97 = load i64, i64* %96, align 8
  %98 = icmp ult i64 %97, %81
  br i1 %98, label %99, label %104

; <label>:99:                                     ; preds = %91
  %100 = call %"class.std::__1::basic_string"* @_ZN7logging17MakeCheckOpStringImmEEPNSt3__112basic_stringIcNS1_11char_traitsIcEENS1_9allocatorIcEEEERKT_RKT0_PKc(i64* nonnull dereferenceable(8) %7, i64* nonnull dereferenceable(8) %96, i8* getelementptr inbounds ([15 x i8], [15 x i8]* @.str.11, i64 0, i64 0)) #14
  %101 = icmp eq %"class.std::__1::basic_string"* %100, null
  br i1 %101, label %104, label %102

; <label>:102:                                    ; preds = %99
  %103 = bitcast %"class.logging::LogMessage"* %8 to i8*
  call void @llvm.lifetime.start.p0i8(i64 296, i8* nonnull %103) #14
  call void @_ZN7logging10LogMessageC1EPKciPNSt3__112basic_stringIcNS3_11char_traitsIcEENS3_9allocatorIcEEEE(%"class.logging::LogMessage"* nonnull %8, i8* getelementptr inbounds ([38 x i8], [38 x i8]* @.str.7, i64 0, i64 0), i32 80, %"class.std::__1::basic_string"* nonnull %100) #14
  call void @_ZN7logging10LogMessageD1Ev(%"class.logging::LogMessage"* nonnull %8) #14
  call void @llvm.lifetime.end.p0i8(i64 296, i8* nonnull %103) #14
  br label %104

; <label>:104:                                    ; preds = %91, %99, %102
  %105 = load %"class.std::__1::unique_ptr.79"*, %"class.std::__1::unique_ptr.79"** %79, align 8
  %106 = load i64, i64* %7, align 8
  %107 = getelementptr inbounds %"class.std::__1::unique_ptr.79", %"class.std::__1::unique_ptr.79"* %105, i64 %106
  call void @llvm.lifetime.end.p0i8(i64 8, i8* nonnull %95)
  call void @_ZN4base8internal12VectorBufferINSt3__110unique_ptrIN5media9WebmMuxer17EncodedVideoFrameENS2_14default_deleteIS6_EEEEE9MoveRangeIS9_Li0EEEvPS9_SC_SC_(%"class.std::__1::unique_ptr.79"* nonnull %82, %"class.std::__1::unique_ptr.79"* nonnull %94, %"class.std::__1::unique_ptr.79"* nonnull %107)
  %108 = add i64 %81, %2
  br label %109

; <label>:109:                                    ; preds = %51, %104, %44
  %110 = phi i64 [ %108, %104 ], [ %50, %44 ], [ 0, %51 ]
  store i64 %110, i64* %5, align 8
  ret void
}

; Function Attrs: nounwind
declare noalias i8* @malloc(i64) local_unnamed_addr #4

; Function Attrs: nounwind readnone speculatable
declare { i64, i1 } @llvm.umul.with.overflow.i64(i64, i64) #10

; Function Attrs: nounwind ssp uwtable
define linkonce_odr hidden void @_ZN4base8internal12VectorBufferINSt3__110unique_ptrIN5media9WebmMuxer17EncodedVideoFrameENS2_14default_deleteIS6_EEEEE9MoveRangeIS9_Li0EEEvPS9_SC_SC_(%"class.std::__1::unique_ptr.79"*, %"class.std::__1::unique_ptr.79"*, %"class.std::__1::unique_ptr.79"*) local_unnamed_addr #0 comdat align 2 {
  %4 = alloca %"class.logging::LogMessage", align 8
  %5 = ptrtoint %"class.std::__1::unique_ptr.79"* %0 to i64
  %6 = icmp ult %"class.std::__1::unique_ptr.79"* %2, %1
  br i1 %6, label %7, label %22

; <label>:7:                                      ; preds = %3
  %8 = ptrtoint %"class.std::__1::unique_ptr.79"* %2 to i64
  %9 = ptrtoint %"class.std::__1::unique_ptr.79"* %1 to i64
  %10 = tail call { i64, i1 } @llvm.usub.with.overflow.i64(i64 %9, i64 %5) #14
  %11 = extractvalue { i64, i1 } %10, 1
  %12 = extractvalue { i64, i1 } %10, 0
  %13 = tail call { i64, i1 } @llvm.uadd.with.overflow.i64(i64 %8, i64 %12) #14
  %14 = extractvalue { i64, i1 } %13, 1
  %15 = or i1 %11, %14
  br i1 %15, label %16, label %17, !prof !12

; <label>:16:                                     ; preds = %7
  tail call void @llvm.trap() #14
  unreachable

; <label>:17:                                     ; preds = %7
  %18 = extractvalue { i64, i1 } %13, 0
  %19 = icmp ugt i64 %18, %5
  br i1 %19, label %20, label %22

; <label>:20:                                     ; preds = %17
  %21 = bitcast %"class.logging::LogMessage"* %4 to i8*
  call void @llvm.lifetime.start.p0i8(i64 296, i8* nonnull %21) #14
  call void @_ZN7logging10LogMessageC1EPKciS2_(%"class.logging::LogMessage"* nonnull %4, i8* getelementptr inbounds ([38 x i8], [38 x i8]* @.str.7, i64 0, i64 0), i32 141, i8* getelementptr inbounds ([41 x i8], [41 x i8]* @.str.12, i64 0, i64 0)) #14
  call void @_ZN7logging10LogMessageD1Ev(%"class.logging::LogMessage"* nonnull %4) #14
  call void @llvm.lifetime.end.p0i8(i64 296, i8* nonnull %21) #14
  br label %22

; <label>:22:                                     ; preds = %3, %17, %20
  %23 = icmp eq %"class.std::__1::unique_ptr.79"* %0, %1
  br i1 %23, label %67, label %24

; <label>:24:                                     ; preds = %22, %63
  %25 = phi %"class.std::__1::unique_ptr.79"* [ %65, %63 ], [ %2, %22 ]
  %26 = phi %"class.std::__1::unique_ptr.79"* [ %64, %63 ], [ %0, %22 ]
  %27 = getelementptr inbounds %"class.std::__1::unique_ptr.79", %"class.std::__1::unique_ptr.79"* %26, i64 0, i32 0, i32 0, i32 0
  %28 = bitcast %"class.std::__1::unique_ptr.79"* %26 to i64*
  %29 = load i64, i64* %28, align 8
  store %"struct.media::WebmMuxer::EncodedVideoFrame"* null, %"struct.media::WebmMuxer::EncodedVideoFrame"** %27, align 8
  %30 = bitcast %"class.std::__1::unique_ptr.79"* %25 to i64*
  store i64 %29, i64* %30, align 8
  %31 = load %"struct.media::WebmMuxer::EncodedVideoFrame"*, %"struct.media::WebmMuxer::EncodedVideoFrame"** %27, align 8
  store %"struct.media::WebmMuxer::EncodedVideoFrame"* null, %"struct.media::WebmMuxer::EncodedVideoFrame"** %27, align 8
  %32 = icmp eq %"struct.media::WebmMuxer::EncodedVideoFrame"* %31, null
  br i1 %32, label %63, label %33

; <label>:33:                                     ; preds = %24
  %34 = getelementptr inbounds %"struct.media::WebmMuxer::EncodedVideoFrame", %"struct.media::WebmMuxer::EncodedVideoFrame"* %31, i64 0, i32 1, i32 0, i32 0, i32 0
  %35 = load %"class.std::__1::basic_string"*, %"class.std::__1::basic_string"** %34, align 8
  store %"class.std::__1::basic_string"* null, %"class.std::__1::basic_string"** %34, align 8
  %36 = icmp eq %"class.std::__1::basic_string"* %35, null
  br i1 %36, label %47, label %37

; <label>:37:                                     ; preds = %33
  %38 = bitcast %"class.std::__1::basic_string"* %35 to %"struct.std::__1::basic_string<char, std::__1::char_traits<char>, std::__1::allocator<char> >::__short"*
  %39 = getelementptr inbounds %"struct.std::__1::basic_string<char, std::__1::char_traits<char>, std::__1::allocator<char> >::__short", %"struct.std::__1::basic_string<char, std::__1::char_traits<char>, std::__1::allocator<char> >::__short"* %38, i64 0, i32 1, i32 0
  %40 = load i8, i8* %39, align 1
  %41 = icmp slt i8 %40, 0
  br i1 %41, label %42, label %45

; <label>:42:                                     ; preds = %37
  %43 = getelementptr inbounds %"class.std::__1::basic_string", %"class.std::__1::basic_string"* %35, i64 0, i32 0, i32 0, i32 0, i32 0, i32 0, i32 0
  %44 = load i8*, i8** %43, align 8
  call void @_ZdlPv(i8* %44) #15
  br label %45

; <label>:45:                                     ; preds = %42, %37
  %46 = bitcast %"class.std::__1::basic_string"* %35 to i8*
  call void @_ZdlPv(i8* %46) #15
  br label %47

; <label>:47:                                     ; preds = %45, %33
  %48 = getelementptr inbounds %"struct.media::WebmMuxer::EncodedVideoFrame", %"struct.media::WebmMuxer::EncodedVideoFrame"* %31, i64 0, i32 0, i32 0, i32 0, i32 0
  %49 = load %"class.std::__1::basic_string"*, %"class.std::__1::basic_string"** %48, align 8
  store %"class.std::__1::basic_string"* null, %"class.std::__1::basic_string"** %48, align 8
  %50 = icmp eq %"class.std::__1::basic_string"* %49, null
  br i1 %50, label %61, label %51

; <label>:51:                                     ; preds = %47
  %52 = bitcast %"class.std::__1::basic_string"* %49 to %"struct.std::__1::basic_string<char, std::__1::char_traits<char>, std::__1::allocator<char> >::__short"*
  %53 = getelementptr inbounds %"struct.std::__1::basic_string<char, std::__1::char_traits<char>, std::__1::allocator<char> >::__short", %"struct.std::__1::basic_string<char, std::__1::char_traits<char>, std::__1::allocator<char> >::__short"* %52, i64 0, i32 1, i32 0
  %54 = load i8, i8* %53, align 1
  %55 = icmp slt i8 %54, 0
  br i1 %55, label %56, label %59

; <label>:56:                                     ; preds = %51
  %57 = getelementptr inbounds %"class.std::__1::basic_string", %"class.std::__1::basic_string"* %49, i64 0, i32 0, i32 0, i32 0, i32 0, i32 0, i32 0
  %58 = load i8*, i8** %57, align 8
  call void @_ZdlPv(i8* %58) #15
  br label %59

; <label>:59:                                     ; preds = %56, %51
  %60 = bitcast %"class.std::__1::basic_string"* %49 to i8*
  call void @_ZdlPv(i8* %60) #15
  br label %61

; <label>:61:                                     ; preds = %59, %47
  %62 = bitcast %"struct.media::WebmMuxer::EncodedVideoFrame"* %31 to i8*
  call void @_ZdlPv(i8* %62) #15
  br label %63

; <label>:63:                                     ; preds = %24, %61
  %64 = getelementptr inbounds %"class.std::__1::unique_ptr.79", %"class.std::__1::unique_ptr.79"* %26, i64 1
  %65 = getelementptr inbounds %"class.std::__1::unique_ptr.79", %"class.std::__1::unique_ptr.79"* %25, i64 1
  %66 = icmp eq %"class.std::__1::unique_ptr.79"* %64, %1
  br i1 %66, label %67, label %24

; <label>:67:                                     ; preds = %63, %22
  ret void
}

declare void @_ZN7logging10LogMessageC1EPKciS2_(%"class.logging::LogMessage"*, i8*, i32, i8*) unnamed_addr #2

; Function Attrs: nounwind readnone speculatable
declare { i64, i1 } @llvm.uadd.with.overflow.i64(i64, i64) #10

; Function Attrs: nounwind readnone speculatable
declare { i64, i1 } @llvm.usub.with.overflow.i64(i64, i64) #10

declare void @_ZNSt3__112basic_stringIcNS_11char_traitsIcEENS_9allocatorIcEEEC1ERKS5_(%"class.std::__1::basic_string"*, %"class.std::__1::basic_string"* dereferenceable(24)) unnamed_addr #2

; Function Attrs: nounwind ssp uwtable
define linkonce_odr hidden void @_ZN4base14circular_dequeINSt3__110unique_ptrIN5media9WebmMuxer17EncodedVideoFrameENS1_14default_deleteIS5_EEEEE25ShrinkCapacityIfNecessaryEv(%"class.base::circular_deque"*) local_unnamed_addr #0 comdat align 2 {
  %2 = alloca <2 x i64>, align 16
  %3 = bitcast <2 x i64>* %2 to %"class.base::internal::VectorBuffer"*
  %4 = getelementptr inbounds %"class.base::circular_deque", %"class.base::circular_deque"* %0, i64 0, i32 0, i32 1
  %5 = load i64, i64* %4, align 8
  %6 = icmp eq i64 %5, 0
  %7 = add i64 %5, -1
  %8 = select i1 %6, i64 0, i64 %7
  %9 = icmp ult i64 %8, 4
  br i1 %9, label %43, label %10

; <label>:10:                                     ; preds = %1
  %11 = getelementptr inbounds %"class.base::circular_deque", %"class.base::circular_deque"* %0, i64 0, i32 1
  %12 = load i64, i64* %11, align 8
  %13 = getelementptr inbounds %"class.base::circular_deque", %"class.base::circular_deque"* %0, i64 0, i32 2
  %14 = load i64, i64* %13, align 8
  %15 = icmp ult i64 %14, %12
  %16 = sub i64 %14, %12
  %17 = select i1 %15, i64 %5, i64 0
  %18 = add i64 %17, %16
  %19 = sub i64 %8, %18
  %20 = icmp ult i64 %19, %18
  br i1 %20, label %43, label %21

; <label>:21:                                     ; preds = %10
  %22 = lshr i64 %18, 2
  %23 = add i64 %22, %18
  %24 = icmp ugt i64 %23, 3
  %25 = select i1 %24, i64 %23, i64 3
  %26 = icmp ult i64 %25, %8
  br i1 %26, label %27, label %43

; <label>:27:                                     ; preds = %21
  %28 = bitcast <2 x i64>* %2 to i8*
  call void @llvm.lifetime.start.p0i8(i64 16, i8* nonnull %28) #14
  %29 = add i64 %25, 1
  %30 = tail call { i64, i1 } @llvm.umul.with.overflow.i64(i64 %29, i64 8) #14
  %31 = extractvalue { i64, i1 } %30, 1
  br i1 %31, label %32, label %33, !prof !12

; <label>:32:                                     ; preds = %27
  tail call void @llvm.trap() #14
  unreachable

; <label>:33:                                     ; preds = %27
  %34 = extractvalue { i64, i1 } %30, 0
  %35 = tail call noalias i8* @malloc(i64 %34) #14
  %36 = bitcast <2 x i64>* %2 to i8**
  store i8* %35, i8** %36, align 16
  %37 = getelementptr inbounds %"class.base::internal::VectorBuffer", %"class.base::internal::VectorBuffer"* %3, i64 0, i32 1
  store i64 %29, i64* %37, align 8
  %38 = getelementptr inbounds %"class.base::circular_deque", %"class.base::circular_deque"* %0, i64 0, i32 0
  call void @_ZN4base14circular_dequeINSt3__110unique_ptrIN5media9WebmMuxer17EncodedVideoFrameENS1_14default_deleteIS5_EEEEE10MoveBufferERNS_8internal12VectorBufferIS8_EEmmPSC_PmSF_(%"class.base::internal::VectorBuffer"* dereferenceable(16) %38, i64 %12, i64 %14, %"class.base::internal::VectorBuffer"* nonnull %3, i64* nonnull %11, i64* nonnull %13) #14
  %39 = bitcast %"class.base::circular_deque"* %0 to i8**
  %40 = load i8*, i8** %39, align 8
  call void @free(i8* %40) #14
  %41 = load <2 x i64>, <2 x i64>* %2, align 16
  %42 = bitcast %"class.base::circular_deque"* %0 to <2 x i64>*
  store <2 x i64> %41, <2 x i64>* %42, align 8
  call void @llvm.lifetime.end.p0i8(i64 16, i8* nonnull %28) #14
  br label %43

; <label>:43:                                     ; preds = %10, %33, %21, %1
  ret void
}

attributes #0 = { nounwind ssp uwtable "correctly-rounded-divide-sqrt-fp-math"="false" "disable-tail-calls"="false" "less-precise-fpmad"="false" "no-frame-pointer-elim"="false" "no-frame-pointer-elim-non-leaf" "no-infs-fp-math"="false" "no-jump-tables"="false" "no-nans-fp-math"="false" "no-signed-zeros-fp-math"="false" "no-trapping-math"="false" "stack-protector-buffer-size"="4" "target-cpu"="x86-64" "target-features"="+fxsr,+mmx,+sse,+sse2,+x87" "unsafe-fp-math"="false" "use-soft-float"="false" }
attributes #1 = { argmemonly nounwind }
attributes #2 = { "correctly-rounded-divide-sqrt-fp-math"="false" "disable-tail-calls"="false" "less-precise-fpmad"="false" "no-frame-pointer-elim"="false" "no-frame-pointer-elim-non-leaf" "no-infs-fp-math"="false" "no-nans-fp-math"="false" "no-signed-zeros-fp-math"="false" "no-trapping-math"="false" "stack-protector-buffer-size"="4" "target-cpu"="x86-64" "target-features"="+fxsr,+mmx,+sse,+sse2,+x87" "unsafe-fp-math"="false" "use-soft-float"="false" }
attributes #3 = { norecurse nounwind readnone ssp uwtable "correctly-rounded-divide-sqrt-fp-math"="false" "disable-tail-calls"="false" "less-precise-fpmad"="false" "no-frame-pointer-elim"="false" "no-frame-pointer-elim-non-leaf" "no-infs-fp-math"="false" "no-jump-tables"="false" "no-nans-fp-math"="false" "no-signed-zeros-fp-math"="false" "no-trapping-math"="false" "stack-protector-buffer-size"="4" "target-cpu"="x86-64" "target-features"="+fxsr,+mmx,+sse,+sse2,+x87" "unsafe-fp-math"="false" "use-soft-float"="false" }
attributes #4 = { nounwind "correctly-rounded-divide-sqrt-fp-math"="false" "disable-tail-calls"="false" "less-precise-fpmad"="false" "no-frame-pointer-elim"="false" "no-frame-pointer-elim-non-leaf" "no-infs-fp-math"="false" "no-nans-fp-math"="false" "no-signed-zeros-fp-math"="false" "no-trapping-math"="false" "stack-protector-buffer-size"="4" "target-cpu"="x86-64" "target-features"="+fxsr,+mmx,+sse,+sse2,+x87" "unsafe-fp-math"="false" "use-soft-float"="false" }
attributes #5 = { nobuiltin nounwind "correctly-rounded-divide-sqrt-fp-math"="false" "disable-tail-calls"="false" "less-precise-fpmad"="false" "no-frame-pointer-elim"="false" "no-frame-pointer-elim-non-leaf" "no-infs-fp-math"="false" "no-nans-fp-math"="false" "no-signed-zeros-fp-math"="false" "no-trapping-math"="false" "stack-protector-buffer-size"="4" "target-cpu"="x86-64" "target-features"="+fxsr,+mmx,+sse,+sse2,+x87" "unsafe-fp-math"="false" "use-soft-float"="false" }
attributes #6 = { nobuiltin "correctly-rounded-divide-sqrt-fp-math"="false" "disable-tail-calls"="false" "less-precise-fpmad"="false" "no-frame-pointer-elim"="false" "no-frame-pointer-elim-non-leaf" "no-infs-fp-math"="false" "no-nans-fp-math"="false" "no-signed-zeros-fp-math"="false" "no-trapping-math"="false" "stack-protector-buffer-size"="4" "target-cpu"="x86-64" "target-features"="+fxsr,+mmx,+sse,+sse2,+x87" "unsafe-fp-math"="false" "use-soft-float"="false" }
attributes #7 = { norecurse nounwind ssp uwtable "correctly-rounded-divide-sqrt-fp-math"="false" "disable-tail-calls"="false" "less-precise-fpmad"="false" "no-frame-pointer-elim"="false" "no-frame-pointer-elim-non-leaf" "no-infs-fp-math"="false" "no-jump-tables"="false" "no-nans-fp-math"="false" "no-signed-zeros-fp-math"="false" "no-trapping-math"="false" "stack-protector-buffer-size"="4" "target-cpu"="x86-64" "target-features"="+fxsr,+mmx,+sse,+sse2,+x87" "unsafe-fp-math"="false" "use-soft-float"="false" }
attributes #8 = { noreturn "correctly-rounded-divide-sqrt-fp-math"="false" "disable-tail-calls"="false" "less-precise-fpmad"="false" "no-frame-pointer-elim"="false" "no-frame-pointer-elim-non-leaf" "no-infs-fp-math"="false" "no-nans-fp-math"="false" "no-signed-zeros-fp-math"="false" "no-trapping-math"="false" "stack-protector-buffer-size"="4" "target-cpu"="x86-64" "target-features"="+fxsr,+mmx,+sse,+sse2,+x87" "unsafe-fp-math"="false" "use-soft-float"="false" }
attributes #9 = { argmemonly nounwind readonly "correctly-rounded-divide-sqrt-fp-math"="false" "disable-tail-calls"="false" "less-precise-fpmad"="false" "no-frame-pointer-elim"="false" "no-frame-pointer-elim-non-leaf" "no-infs-fp-math"="false" "no-nans-fp-math"="false" "no-signed-zeros-fp-math"="false" "no-trapping-math"="false" "stack-protector-buffer-size"="4" "target-cpu"="x86-64" "target-features"="+fxsr,+mmx,+sse,+sse2,+x87" "unsafe-fp-math"="false" "use-soft-float"="false" }
attributes #10 = { nounwind readnone speculatable }
attributes #11 = { noreturn nounwind }
attributes #12 = { inlinehint nounwind ssp uwtable "correctly-rounded-divide-sqrt-fp-math"="false" "disable-tail-calls"="false" "less-precise-fpmad"="false" "no-frame-pointer-elim"="false" "no-frame-pointer-elim-non-leaf" "no-infs-fp-math"="false" "no-jump-tables"="false" "no-nans-fp-math"="false" "no-signed-zeros-fp-math"="false" "no-trapping-math"="false" "stack-protector-buffer-size"="4" "target-cpu"="x86-64" "target-features"="+fxsr,+mmx,+sse,+sse2,+x87" "unsafe-fp-math"="false" "use-soft-float"="false" }
